GAS LISTING d:/software/ovi_2503a_s3trc/ovi_2503a_s3trc/plutommi/Customer/ResGenerator/gcctmp/ccgnaaaa.s 			page 1


   1              		.file	"mtk_resgenerator.cpp"
   4              		.text
   5              	Ltext0:
 838              	.lcomm __ZSt8__ioinit,16
 2898              	.globl _g_is_clean
 2899              		.bss
 2900              		.align 4
 2901              	_g_is_clean:
 2902 0000 00000000 		.space 4
 2903              		.text
 2904              		.align 32
 2905              	LC0:
 2906 0000 47656E65 		.ascii "GenerateENFBAssociatedIDFile(): File output: CustENFBImgMap.c\0"
 2906      72617465 
 2906      454E4642 
 2906      4173736F 
 2906      63696174 
 2907              	LC1:
 2908 003e 4D544B5F 		.ascii "MTK_RESGENERATOR\0"
 2908      52455347 
 2908      454E4552 
 2908      41544F52 
 2908      00
 2909              	LC2:
 2910 004f 7700     		.ascii "w\0"
 2911 0051 EB0D9090 		.align 32
 2911      90909090 
 2911      90909090 
 2911      909090
 2912              	LC3:
 2913 0060 2E2E5C2E 		.ascii "..\\..\\Customer\\CustResource\\CustENFBImgMap.c\0"
 2913      2E5C4375 
 2913      73746F6D 
 2913      65725C43 
 2913      75737452 
 2914 008d 90909090 		.align 32
 2914      90909090 
 2914      90909090 
 2914      90909090 
 2914      909090
 2915              	LC4:
 2916 00a0 2F2A2A0A 		.ascii "/**\12 *\11Copyright Notice\12 *\11?2002 - 2003, Pixtel Communications, Inc., 1489 43rd Av
 2916      202A0943 
 2916      6F707972 
 2916      69676874 
 2916      204E6F74 
 2917 0196 8D76008D 		.align 32
 2917      BC270000 
 2917      0000
 2918              	LC5:
 2919 01a0 0A2F2A2A 		.ascii "\12/************************************************************** \12 FILENAME\11: CustEN
 2919      2A2A2A2A 
 2919      2A2A2A2A 
 2919      2A2A2A2A 
 2919      2A2A2A2A 
 2920              	LC6:
 2921 02ab 23696E63 		.ascii "#include \"CustDataRes.h\"\12\12\0"
GAS LISTING d:/software/ovi_2503a_s3trc/ovi_2503a_s3trc/plutommi/Customer/ResGenerator/gcctmp/ccgnaaaa.s 			page 2


 2921      6C756465 
 2921      20224375 
 2921      73744461 
 2921      74615265 
 2922 02c6 90909090 		.align 32
 2922      90909090 
 2922      90909090 
 2922      90909090 
 2922      90909090 
 2923              	LC7:
 2924 02e0 636F6E73 		.ascii "const U32 CurrMaxENFBAssociatedIDNum = %d;\12\12\0"
 2924      74205533 
 2924      32204375 
 2924      72724D61 
 2924      78454E46 
 2925 030d 90909090 		.align 32
 2925      90909090 
 2925      90909090 
 2925      90909090 
 2925      909090
 2926              	LC8:
 2927 0320 636F6E73 		.ascii "const U16 Associated_IDs_%d[] = {\0"
 2927      74205531 
 2927      36204173 
 2927      736F6369 
 2927      61746564 
 2928              	LC9:
 2929 0342 25642C20 		.ascii "%d, \0"
 2929      00
 2930              	LC10:
 2931 0347 25647D3B 		.ascii "%d};\12\0"
 2931      0A00
 2932              	LC11:
 2933 034d 0A00     		.ascii "\12\0"
 2934 034f 90909090 		.align 32
 2934      90909090 
 2934      90909090 
 2934      90909090 
 2934      90
 2935              	LC12:
 2936 0360 636F6E73 		.ascii "const CUSTOM_ENFB AssociatedID_map[] = \12{\12\0"
 2936      74204355 
 2936      53544F4D 
 2936      5F454E46 
 2936      42204173 
 2937              	LC13:
 2938 038b 097B302C 		.ascii "\11{0, 0},\12\0"
 2938      20307D2C 
 2938      0A00
 2939              	LC14:
 2940 0395 097B302C 		.ascii "\11{0, 0}\12\0"
 2940      20307D0A 
 2940      00
 2941 039e 89F6     		.align 32
 2942              	LC15:
 2943 03a0 097B2564 		.ascii "\11{%d, (U16 *)&Associated_IDs_%d},\12\0"
 2943      2C202855 
GAS LISTING d:/software/ovi_2503a_s3trc/ovi_2503a_s3trc/plutommi/Customer/ResGenerator/gcctmp/ccgnaaaa.s 			page 3


 2943      3136202A 
 2943      29264173 
 2943      736F6369 
 2944 03c3 90909090 		.align 32
 2944      90909090 
 2944      90909090 
 2944      90909090 
 2944      90909090 
 2945              	LC16:
 2946 03e0 097B2564 		.ascii "\11{%d, (U16 *)&Associated_IDs_%d}\12\0"
 2946      2C202855 
 2946      3136202A 
 2946      29264173 
 2946      736F6369 
 2947              	LC17:
 2948 0402 7D3B0A00 		.ascii "};\12\0"
 2949 0406 90909090 		.align 32
 2949      90909090 
 2949      90909090 
 2949      90909090 
 2949      90909090 
 2950              	LC18:
 2951 0420 4F757470 		.ascii "Output CustENFBImgMap.c... done\12\0"
 2951      75742043 
 2951      75737445 
 2951      4E464249 
 2951      6D674D61 
 2952 0441 90       		.align 2
 2955              	__Z28GenerateENFBAssociatedIDFilev:
   1:mtk_resgenerator.cpp **** /*****************************************************************************
   2:mtk_resgenerator.cpp **** *  Copyright Statement:
   3:mtk_resgenerator.cpp **** *  --------------------
   4:mtk_resgenerator.cpp **** *  This software is protected by Copyright and the information contained
   5:mtk_resgenerator.cpp **** *  herein is confidential. The software may not be copied and the information
   6:mtk_resgenerator.cpp **** *  contained herein may not be used or disclosed except with the written
   7:mtk_resgenerator.cpp **** *  permission of MediaTek Inc. (C) 2005
   8:mtk_resgenerator.cpp **** *
   9:mtk_resgenerator.cpp **** *  BY OPENING THIS FILE, BUYER HEREBY UNEQUIVOCALLY ACKNOWLEDGES AND AGREES
  10:mtk_resgenerator.cpp **** *  THAT THE SOFTWARE/FIRMWARE AND ITS DOCUMENTATIONS ("MEDIATEK SOFTWARE")
  11:mtk_resgenerator.cpp **** *  RECEIVED FROM MEDIATEK AND/OR ITS REPRESENTATIVES ARE PROVIDED TO BUYER ON
  12:mtk_resgenerator.cpp **** *  AN "AS-IS" BASIS ONLY. MEDIATEK EXPRESSLY DISCLAIMS ANY AND ALL WARRANTIES,
  13:mtk_resgenerator.cpp **** *  EXPRESS OR IMPLIED, INCLUDING BUT NOT LIMITED TO THE IMPLIED WARRANTIES OF
  14:mtk_resgenerator.cpp **** *  MERCHANTABILITY, FITNESS FOR A PARTICULAR PURPOSE OR NONINFRINGEMENT.
  15:mtk_resgenerator.cpp **** *  NEITHER DOES MEDIATEK PROVIDE ANY WARRANTY WHATSOEVER WITH RESPECT TO THE
  16:mtk_resgenerator.cpp **** *  SOFTWARE OF ANY THIRD PARTY WHICH MAY BE USED BY, INCORPORATED IN, OR
  17:mtk_resgenerator.cpp **** *  SUPPLIED WITH THE MEDIATEK SOFTWARE, AND BUYER AGREES TO LOOK ONLY TO SUCH
  18:mtk_resgenerator.cpp **** *  THIRD PARTY FOR ANY WARRANTY CLAIM RELATING THERETO. MEDIATEK SHALL ALSO
  19:mtk_resgenerator.cpp **** *  NOT BE RESPONSIBLE FOR ANY MEDIATEK SOFTWARE RELEASES MADE TO BUYER'S
  20:mtk_resgenerator.cpp **** *  SPECIFICATION OR TO CONFORM TO A PARTICULAR STANDARD OR OPEN FORUM.
  21:mtk_resgenerator.cpp **** *
  22:mtk_resgenerator.cpp **** *  BUYER'S SOLE AND EXCLUSIVE REMEDY AND MEDIATEK'S ENTIRE AND CUMULATIVE
  23:mtk_resgenerator.cpp **** *  LIABILITY WITH RESPECT TO THE MEDIATEK SOFTWARE RELEASED HEREUNDER WILL BE,
  24:mtk_resgenerator.cpp **** *  AT MEDIATEK'S OPTION, TO REVISE OR REPLACE THE MEDIATEK SOFTWARE AT ISSUE,
  25:mtk_resgenerator.cpp **** *  OR REFUND ANY SOFTWARE LICENSE FEES OR SERVICE CHARGE PAID BY BUYER TO
  26:mtk_resgenerator.cpp **** *  MEDIATEK FOR SUCH MEDIATEK SOFTWARE AT ISSUE.
  27:mtk_resgenerator.cpp **** *
  28:mtk_resgenerator.cpp **** *  THE TRANSACTION CONTEMPLATED HEREUNDER SHALL BE CONSTRUED IN ACCORDANCE
GAS LISTING d:/software/ovi_2503a_s3trc/ovi_2503a_s3trc/plutommi/Customer/ResGenerator/gcctmp/ccgnaaaa.s 			page 4


  29:mtk_resgenerator.cpp **** *  WITH THE LAWS OF THE STATE OF CALIFORNIA, USA, EXCLUDING ITS CONFLICT OF
  30:mtk_resgenerator.cpp **** *  LAWS PRINCIPLES.  ANY DISPUTES, CONTROVERSIES OR CLAIMS ARISING THEREOF AND
  31:mtk_resgenerator.cpp **** *  RELATED THERETO SHALL BE SETTLED BY ARBITRATION IN SAN FRANCISCO, CA, UNDER
  32:mtk_resgenerator.cpp **** *  THE RULES OF THE INTERNATIONAL CHAMBER OF COMMERCE (ICC).
  33:mtk_resgenerator.cpp **** *
  34:mtk_resgenerator.cpp **** *****************************************************************************/
  35:mtk_resgenerator.cpp **** 
  36:mtk_resgenerator.cpp **** /*******************************************************************************
  37:mtk_resgenerator.cpp ****  * Filename:
  38:mtk_resgenerator.cpp ****  * ---------
  39:mtk_resgenerator.cpp ****  *  mtk_resgenerator.cpp
  40:mtk_resgenerator.cpp ****  *
  41:mtk_resgenerator.cpp ****  * Project:
  42:mtk_resgenerator.cpp ****  * --------
  43:mtk_resgenerator.cpp ****  *   MAUI
  44:mtk_resgenerator.cpp ****  *
  45:mtk_resgenerator.cpp ****  * Description:
  46:mtk_resgenerator.cpp ****  * ------------
  47:mtk_resgenerator.cpp ****  *   To Generator Resource C files.
  48:mtk_resgenerator.cpp ****  *
  49:mtk_resgenerator.cpp ****  * Author:
  50:mtk_resgenerator.cpp ****  * -------
  51:mtk_resgenerator.cpp ****  * -------
  52:mtk_resgenerator.cpp ****  *
  53:mtk_resgenerator.cpp **** *==============================================================================
  54:mtk_resgenerator.cpp ****  *              HISTORY
  55:mtk_resgenerator.cpp ****  * Below this line, this part is controlled by PVCS VM. DO NOT MODIFY!!
  56:mtk_resgenerator.cpp ****  *------------------------------------------------------------------------------
  57:mtk_resgenerator.cpp ****  * removed!
  58:mtk_resgenerator.cpp ****  *
  59:mtk_resgenerator.cpp ****  * removed!
  60:mtk_resgenerator.cpp ****  * removed!
  61:mtk_resgenerator.cpp ****  * removed!
  62:mtk_resgenerator.cpp ****  *
  63:mtk_resgenerator.cpp ****  * removed!
  64:mtk_resgenerator.cpp ****  * removed!
  65:mtk_resgenerator.cpp ****  * removed!
  66:mtk_resgenerator.cpp ****  *
  67:mtk_resgenerator.cpp ****  * removed!
  68:mtk_resgenerator.cpp ****  * removed!
  69:mtk_resgenerator.cpp ****  * removed!
  70:mtk_resgenerator.cpp ****  *
  71:mtk_resgenerator.cpp ****  * removed!
  72:mtk_resgenerator.cpp ****  * removed!
  73:mtk_resgenerator.cpp ****  * removed!
  74:mtk_resgenerator.cpp ****  *
  75:mtk_resgenerator.cpp ****  * removed!
  76:mtk_resgenerator.cpp ****  * removed!
  77:mtk_resgenerator.cpp ****  *
  78:mtk_resgenerator.cpp ****  * removed!
  79:mtk_resgenerator.cpp ****  * removed!
  80:mtk_resgenerator.cpp ****  * removed!
  81:mtk_resgenerator.cpp ****  * removed!
  82:mtk_resgenerator.cpp ****  * removed!
  83:mtk_resgenerator.cpp ****  *
  84:mtk_resgenerator.cpp ****  * removed!
  85:mtk_resgenerator.cpp ****  * removed!
GAS LISTING d:/software/ovi_2503a_s3trc/ovi_2503a_s3trc/plutommi/Customer/ResGenerator/gcctmp/ccgnaaaa.s 			page 5


  86:mtk_resgenerator.cpp ****  * removed!
  87:mtk_resgenerator.cpp ****  *
  88:mtk_resgenerator.cpp ****  * removed!
  89:mtk_resgenerator.cpp ****  * removed!
  90:mtk_resgenerator.cpp ****  * removed!
  91:mtk_resgenerator.cpp ****  *
  92:mtk_resgenerator.cpp ****  * removed!
  93:mtk_resgenerator.cpp ****  * removed!
  94:mtk_resgenerator.cpp ****  * removed!
  95:mtk_resgenerator.cpp ****  *
  96:mtk_resgenerator.cpp ****  * removed!
  97:mtk_resgenerator.cpp ****  * removed!
  98:mtk_resgenerator.cpp ****  * removed!
  99:mtk_resgenerator.cpp ****  *
 100:mtk_resgenerator.cpp ****  * removed!
 101:mtk_resgenerator.cpp ****  * removed!
 102:mtk_resgenerator.cpp ****  * removed!
 103:mtk_resgenerator.cpp ****  *
 104:mtk_resgenerator.cpp ****  * removed!
 105:mtk_resgenerator.cpp ****  * removed!
 106:mtk_resgenerator.cpp ****  * removed!
 107:mtk_resgenerator.cpp ****  *
 108:mtk_resgenerator.cpp ****  * removed!
 109:mtk_resgenerator.cpp ****  * removed!
 110:mtk_resgenerator.cpp ****  * removed!
 111:mtk_resgenerator.cpp ****  *
 112:mtk_resgenerator.cpp ****  * removed!
 113:mtk_resgenerator.cpp ****  * removed!
 114:mtk_resgenerator.cpp ****  * removed!
 115:mtk_resgenerator.cpp ****  *
 116:mtk_resgenerator.cpp ****  * removed!
 117:mtk_resgenerator.cpp ****  * removed!
 118:mtk_resgenerator.cpp ****  * removed!
 119:mtk_resgenerator.cpp ****  *
 120:mtk_resgenerator.cpp ****  * removed!
 121:mtk_resgenerator.cpp ****  * removed!
 122:mtk_resgenerator.cpp ****  * removed!
 123:mtk_resgenerator.cpp ****  *
 124:mtk_resgenerator.cpp ****  * removed!
 125:mtk_resgenerator.cpp ****  * removed!
 126:mtk_resgenerator.cpp ****  * removed!
 127:mtk_resgenerator.cpp ****  *
 128:mtk_resgenerator.cpp ****  * removed!
 129:mtk_resgenerator.cpp ****  * removed!
 130:mtk_resgenerator.cpp ****  * removed!
 131:mtk_resgenerator.cpp ****  *
 132:mtk_resgenerator.cpp ****  * removed!
 133:mtk_resgenerator.cpp ****  * removed!
 134:mtk_resgenerator.cpp ****  * removed!
 135:mtk_resgenerator.cpp ****  *
 136:mtk_resgenerator.cpp ****  * removed!
 137:mtk_resgenerator.cpp ****  * removed!
 138:mtk_resgenerator.cpp ****  * removed!
 139:mtk_resgenerator.cpp ****  *
 140:mtk_resgenerator.cpp ****  * removed!
 141:mtk_resgenerator.cpp ****  * removed!
 142:mtk_resgenerator.cpp ****  * removed!
GAS LISTING d:/software/ovi_2503a_s3trc/ovi_2503a_s3trc/plutommi/Customer/ResGenerator/gcctmp/ccgnaaaa.s 			page 6


 143:mtk_resgenerator.cpp ****  *
 144:mtk_resgenerator.cpp ****  * removed!
 145:mtk_resgenerator.cpp ****  * removed!
 146:mtk_resgenerator.cpp ****  * removed!
 147:mtk_resgenerator.cpp ****  *
 148:mtk_resgenerator.cpp ****  * removed!
 149:mtk_resgenerator.cpp ****  * removed!
 150:mtk_resgenerator.cpp ****  * removed!
 151:mtk_resgenerator.cpp ****  *
 152:mtk_resgenerator.cpp ****  * removed!
 153:mtk_resgenerator.cpp ****  * removed!
 154:mtk_resgenerator.cpp ****  * removed!
 155:mtk_resgenerator.cpp ****  *
 156:mtk_resgenerator.cpp ****  * removed!
 157:mtk_resgenerator.cpp ****  * removed!
 158:mtk_resgenerator.cpp ****  * removed!
 159:mtk_resgenerator.cpp ****  *
 160:mtk_resgenerator.cpp ****  * removed!
 161:mtk_resgenerator.cpp ****  * removed!
 162:mtk_resgenerator.cpp ****  * removed!
 163:mtk_resgenerator.cpp ****  *
 164:mtk_resgenerator.cpp ****  * removed!
 165:mtk_resgenerator.cpp ****  * removed!
 166:mtk_resgenerator.cpp ****  * removed!
 167:mtk_resgenerator.cpp ****  *
 168:mtk_resgenerator.cpp ****  * removed!
 169:mtk_resgenerator.cpp ****  * removed!
 170:mtk_resgenerator.cpp ****  * removed!
 171:mtk_resgenerator.cpp ****  *
 172:mtk_resgenerator.cpp ****  * removed!
 173:mtk_resgenerator.cpp ****  * removed!
 174:mtk_resgenerator.cpp ****  * removed!
 175:mtk_resgenerator.cpp ****  *
 176:mtk_resgenerator.cpp ****  * removed!
 177:mtk_resgenerator.cpp ****  * removed!
 178:mtk_resgenerator.cpp ****  * removed!
 179:mtk_resgenerator.cpp ****  *
 180:mtk_resgenerator.cpp ****  * removed!
 181:mtk_resgenerator.cpp ****  * removed!
 182:mtk_resgenerator.cpp ****  * removed!
 183:mtk_resgenerator.cpp ****  *
 184:mtk_resgenerator.cpp ****  * removed!
 185:mtk_resgenerator.cpp ****  * removed!
 186:mtk_resgenerator.cpp ****  * removed!
 187:mtk_resgenerator.cpp ****  *
 188:mtk_resgenerator.cpp ****  * removed!
 189:mtk_resgenerator.cpp ****  * removed!
 190:mtk_resgenerator.cpp ****  * removed!
 191:mtk_resgenerator.cpp ****  *
 192:mtk_resgenerator.cpp ****  * removed!
 193:mtk_resgenerator.cpp ****  * removed!
 194:mtk_resgenerator.cpp ****  * removed!
 195:mtk_resgenerator.cpp ****  *
 196:mtk_resgenerator.cpp ****  * removed!
 197:mtk_resgenerator.cpp ****  * removed!
 198:mtk_resgenerator.cpp ****  * removed!
 199:mtk_resgenerator.cpp ****  *
GAS LISTING d:/software/ovi_2503a_s3trc/ovi_2503a_s3trc/plutommi/Customer/ResGenerator/gcctmp/ccgnaaaa.s 			page 7


 200:mtk_resgenerator.cpp ****  * removed!
 201:mtk_resgenerator.cpp ****  * removed!
 202:mtk_resgenerator.cpp ****  * removed!
 203:mtk_resgenerator.cpp ****  *
 204:mtk_resgenerator.cpp ****  * removed!
 205:mtk_resgenerator.cpp ****  * removed!
 206:mtk_resgenerator.cpp ****  * removed!
 207:mtk_resgenerator.cpp ****  *
 208:mtk_resgenerator.cpp ****  * removed!
 209:mtk_resgenerator.cpp ****  * removed!
 210:mtk_resgenerator.cpp ****  * removed!
 211:mtk_resgenerator.cpp ****  *
 212:mtk_resgenerator.cpp ****  * removed!
 213:mtk_resgenerator.cpp ****  * removed!
 214:mtk_resgenerator.cpp ****  * removed!
 215:mtk_resgenerator.cpp ****  *
 216:mtk_resgenerator.cpp ****  * removed!
 217:mtk_resgenerator.cpp ****  * removed!
 218:mtk_resgenerator.cpp ****  * removed!
 219:mtk_resgenerator.cpp ****  *
 220:mtk_resgenerator.cpp ****  * removed!
 221:mtk_resgenerator.cpp ****  * removed!
 222:mtk_resgenerator.cpp ****  * removed!
 223:mtk_resgenerator.cpp ****  *
 224:mtk_resgenerator.cpp ****  * removed!
 225:mtk_resgenerator.cpp ****  * removed!
 226:mtk_resgenerator.cpp ****  * removed!
 227:mtk_resgenerator.cpp ****  *
 228:mtk_resgenerator.cpp ****  * removed!
 229:mtk_resgenerator.cpp ****  * removed!
 230:mtk_resgenerator.cpp ****  * removed!
 231:mtk_resgenerator.cpp ****  *
 232:mtk_resgenerator.cpp ****  * removed!
 233:mtk_resgenerator.cpp ****  * removed!
 234:mtk_resgenerator.cpp ****  * removed!
 235:mtk_resgenerator.cpp ****  *
 236:mtk_resgenerator.cpp ****  * removed!
 237:mtk_resgenerator.cpp ****  * removed!
 238:mtk_resgenerator.cpp ****  * removed!
 239:mtk_resgenerator.cpp ****  *
 240:mtk_resgenerator.cpp ****  * removed!
 241:mtk_resgenerator.cpp ****  * removed!
 242:mtk_resgenerator.cpp ****  * removed!
 243:mtk_resgenerator.cpp ****  *
 244:mtk_resgenerator.cpp ****  * removed!
 245:mtk_resgenerator.cpp ****  * removed!
 246:mtk_resgenerator.cpp ****  * removed!
 247:mtk_resgenerator.cpp ****  *
 248:mtk_resgenerator.cpp ****  * removed!
 249:mtk_resgenerator.cpp ****  * removed!
 250:mtk_resgenerator.cpp ****  * removed!
 251:mtk_resgenerator.cpp ****  *
 252:mtk_resgenerator.cpp ****  * removed!
 253:mtk_resgenerator.cpp ****  * removed!
 254:mtk_resgenerator.cpp ****  * removed!
 255:mtk_resgenerator.cpp ****  *
 256:mtk_resgenerator.cpp ****  * removed!
GAS LISTING d:/software/ovi_2503a_s3trc/ovi_2503a_s3trc/plutommi/Customer/ResGenerator/gcctmp/ccgnaaaa.s 			page 8


 257:mtk_resgenerator.cpp ****  * removed!
 258:mtk_resgenerator.cpp ****  * removed!
 259:mtk_resgenerator.cpp ****  *
 260:mtk_resgenerator.cpp ****  * removed!
 261:mtk_resgenerator.cpp ****  * removed!
 262:mtk_resgenerator.cpp ****  * removed!
 263:mtk_resgenerator.cpp ****  *
 264:mtk_resgenerator.cpp ****  * removed!
 265:mtk_resgenerator.cpp ****  * removed!
 266:mtk_resgenerator.cpp ****  * removed!
 267:mtk_resgenerator.cpp ****  *
 268:mtk_resgenerator.cpp ****  * removed!
 269:mtk_resgenerator.cpp ****  * removed!
 270:mtk_resgenerator.cpp ****  * removed!
 271:mtk_resgenerator.cpp ****  *
 272:mtk_resgenerator.cpp ****  * removed!
 273:mtk_resgenerator.cpp ****  * removed!
 274:mtk_resgenerator.cpp ****  *
 275:mtk_resgenerator.cpp ****  *
 276:mtk_resgenerator.cpp ****  * removed!
 277:mtk_resgenerator.cpp ****  * removed!
 278:mtk_resgenerator.cpp ****  * removed!
 279:mtk_resgenerator.cpp ****  *
 280:mtk_resgenerator.cpp ****  * removed!
 281:mtk_resgenerator.cpp ****  * removed!
 282:mtk_resgenerator.cpp ****  *
 283:mtk_resgenerator.cpp ****  *
 284:mtk_resgenerator.cpp ****  * removed!
 285:mtk_resgenerator.cpp ****  * removed!
 286:mtk_resgenerator.cpp ****  *
 287:mtk_resgenerator.cpp ****  *
 288:mtk_resgenerator.cpp ****  * removed!
 289:mtk_resgenerator.cpp ****  * removed!
 290:mtk_resgenerator.cpp ****  *
 291:mtk_resgenerator.cpp ****  *
 292:mtk_resgenerator.cpp ****  * removed!
 293:mtk_resgenerator.cpp ****  * removed!
 294:mtk_resgenerator.cpp ****  *
 295:mtk_resgenerator.cpp ****  *
 296:mtk_resgenerator.cpp ****  * removed!
 297:mtk_resgenerator.cpp ****  * removed!
 298:mtk_resgenerator.cpp ****  *
 299:mtk_resgenerator.cpp ****  *
 300:mtk_resgenerator.cpp ****  * removed!
 301:mtk_resgenerator.cpp ****  * removed!
 302:mtk_resgenerator.cpp ****  *
 303:mtk_resgenerator.cpp ****  *
 304:mtk_resgenerator.cpp ****  * removed!
 305:mtk_resgenerator.cpp ****  * removed!
 306:mtk_resgenerator.cpp ****  *
 307:mtk_resgenerator.cpp ****  *
 308:mtk_resgenerator.cpp ****  * removed!
 309:mtk_resgenerator.cpp ****  * removed!
 310:mtk_resgenerator.cpp ****  *
 311:mtk_resgenerator.cpp ****  *
 312:mtk_resgenerator.cpp ****  * removed!
 313:mtk_resgenerator.cpp ****  * removed!
GAS LISTING d:/software/ovi_2503a_s3trc/ovi_2503a_s3trc/plutommi/Customer/ResGenerator/gcctmp/ccgnaaaa.s 			page 9


 314:mtk_resgenerator.cpp ****  *
 315:mtk_resgenerator.cpp ****  *
 316:mtk_resgenerator.cpp ****  * removed!
 317:mtk_resgenerator.cpp ****  * removed!
 318:mtk_resgenerator.cpp ****  *
 319:mtk_resgenerator.cpp ****  *
 320:mtk_resgenerator.cpp ****  * removed!
 321:mtk_resgenerator.cpp ****  * removed!
 322:mtk_resgenerator.cpp ****  * removed!
 323:mtk_resgenerator.cpp ****  *
 324:mtk_resgenerator.cpp ****  * removed!
 325:mtk_resgenerator.cpp ****  * removed!
 326:mtk_resgenerator.cpp ****  *
 327:mtk_resgenerator.cpp ****  *
 328:mtk_resgenerator.cpp ****  * removed!
 329:mtk_resgenerator.cpp ****  * removed!
 330:mtk_resgenerator.cpp ****  *
 331:mtk_resgenerator.cpp ****  *
 332:mtk_resgenerator.cpp ****  * removed!
 333:mtk_resgenerator.cpp ****  * removed!
 334:mtk_resgenerator.cpp ****  *
 335:mtk_resgenerator.cpp ****  *
 336:mtk_resgenerator.cpp ****  * removed!
 337:mtk_resgenerator.cpp ****  * removed!
 338:mtk_resgenerator.cpp ****  *
 339:mtk_resgenerator.cpp ****  *
 340:mtk_resgenerator.cpp ****  * removed!
 341:mtk_resgenerator.cpp ****  * removed!
 342:mtk_resgenerator.cpp ****  *
 343:mtk_resgenerator.cpp ****  *
 344:mtk_resgenerator.cpp ****  * removed!
 345:mtk_resgenerator.cpp ****  * removed!
 346:mtk_resgenerator.cpp ****  *
 347:mtk_resgenerator.cpp ****  *
 348:mtk_resgenerator.cpp ****  * removed!
 349:mtk_resgenerator.cpp ****  * removed!
 350:mtk_resgenerator.cpp ****  *
 351:mtk_resgenerator.cpp ****  *
 352:mtk_resgenerator.cpp ****  * removed!
 353:mtk_resgenerator.cpp ****  * removed!
 354:mtk_resgenerator.cpp ****  *
 355:mtk_resgenerator.cpp ****  *
 356:mtk_resgenerator.cpp ****  * removed!
 357:mtk_resgenerator.cpp ****  * removed!
 358:mtk_resgenerator.cpp ****  *
 359:mtk_resgenerator.cpp ****  *
 360:mtk_resgenerator.cpp ****  * removed!
 361:mtk_resgenerator.cpp ****  * removed!
 362:mtk_resgenerator.cpp ****  *
 363:mtk_resgenerator.cpp ****  *
 364:mtk_resgenerator.cpp ****  * removed!
 365:mtk_resgenerator.cpp ****  * removed!
 366:mtk_resgenerator.cpp ****  * removed!
 367:mtk_resgenerator.cpp ****  *
 368:mtk_resgenerator.cpp ****  * removed!
 369:mtk_resgenerator.cpp ****  * removed!
 370:mtk_resgenerator.cpp ****  *
GAS LISTING d:/software/ovi_2503a_s3trc/ovi_2503a_s3trc/plutommi/Customer/ResGenerator/gcctmp/ccgnaaaa.s 			page 10


 371:mtk_resgenerator.cpp ****  *
 372:mtk_resgenerator.cpp ****  * removed!
 373:mtk_resgenerator.cpp ****  * removed!
 374:mtk_resgenerator.cpp ****  * removed!
 375:mtk_resgenerator.cpp ****  *
 376:mtk_resgenerator.cpp ****  * removed!
 377:mtk_resgenerator.cpp ****  * removed!
 378:mtk_resgenerator.cpp ****  *
 379:mtk_resgenerator.cpp ****  *
 380:mtk_resgenerator.cpp ****  * removed!
 381:mtk_resgenerator.cpp ****  * removed!
 382:mtk_resgenerator.cpp ****  *
 383:mtk_resgenerator.cpp ****  *
 384:mtk_resgenerator.cpp ****  * removed!
 385:mtk_resgenerator.cpp ****  * removed!
 386:mtk_resgenerator.cpp ****  *
 387:mtk_resgenerator.cpp ****  *
 388:mtk_resgenerator.cpp ****  * removed!
 389:mtk_resgenerator.cpp ****  * removed!
 390:mtk_resgenerator.cpp ****  *
 391:mtk_resgenerator.cpp ****  *
 392:mtk_resgenerator.cpp ****  * removed!
 393:mtk_resgenerator.cpp ****  * removed!
 394:mtk_resgenerator.cpp ****  *
 395:mtk_resgenerator.cpp ****  *
 396:mtk_resgenerator.cpp ****  * removed!
 397:mtk_resgenerator.cpp ****  * removed!
 398:mtk_resgenerator.cpp ****  *
 399:mtk_resgenerator.cpp ****  *
 400:mtk_resgenerator.cpp ****  * removed!
 401:mtk_resgenerator.cpp ****  * removed!
 402:mtk_resgenerator.cpp ****  *
 403:mtk_resgenerator.cpp ****  *
 404:mtk_resgenerator.cpp ****  * removed!
 405:mtk_resgenerator.cpp ****  * removed!
 406:mtk_resgenerator.cpp ****  *
 407:mtk_resgenerator.cpp ****  *
 408:mtk_resgenerator.cpp ****  * removed!
 409:mtk_resgenerator.cpp ****  * removed!
 410:mtk_resgenerator.cpp ****  *
 411:mtk_resgenerator.cpp ****  *
 412:mtk_resgenerator.cpp ****  * removed!
 413:mtk_resgenerator.cpp ****  * removed!
 414:mtk_resgenerator.cpp ****  *
 415:mtk_resgenerator.cpp ****  *
 416:mtk_resgenerator.cpp ****  * removed!
 417:mtk_resgenerator.cpp ****  * removed!
 418:mtk_resgenerator.cpp ****  * removed!
 419:mtk_resgenerator.cpp ****  *
 420:mtk_resgenerator.cpp ****  * removed!
 421:mtk_resgenerator.cpp ****  * removed!
 422:mtk_resgenerator.cpp ****  *
 423:mtk_resgenerator.cpp ****  *
 424:mtk_resgenerator.cpp ****  * removed!
 425:mtk_resgenerator.cpp ****  * removed!
 426:mtk_resgenerator.cpp ****  *
 427:mtk_resgenerator.cpp ****  *
GAS LISTING d:/software/ovi_2503a_s3trc/ovi_2503a_s3trc/plutommi/Customer/ResGenerator/gcctmp/ccgnaaaa.s 			page 11


 428:mtk_resgenerator.cpp ****  *------------------------------------------------------------------------------
 429:mtk_resgenerator.cpp ****  * Upper this line, this part is controlled by PVCS VM. DO NOT MODIFY!!
 430:mtk_resgenerator.cpp ****  *==============================================================================
 431:mtk_resgenerator.cpp ****  *******************************************************************************/
 432:mtk_resgenerator.cpp **** 
 433:mtk_resgenerator.cpp **** 
 434:mtk_resgenerator.cpp **** #include <stdio.h>
 435:mtk_resgenerator.cpp **** #include <stdlib.h>
 436:mtk_resgenerator.cpp **** 
 437:mtk_resgenerator.cpp **** #include "MMIDataType.h"
 438:mtk_resgenerator.cpp **** 
 439:mtk_resgenerator.cpp **** extern "C" {
 440:mtk_resgenerator.cpp **** #include "CustDataRes.h"
 441:mtk_resgenerator.cpp **** #include "CustMenuRes.h"
 442:mtk_resgenerator.cpp **** #include "CustResDef.h"
 443:mtk_resgenerator.cpp **** #include "mmi_features.h"
 444:mtk_resgenerator.cpp **** #include "WriteResUtil.h"
 445:mtk_resgenerator.cpp **** #include "LegacyResPopService.h"
 446:mtk_resgenerator.cpp **** #include "str_merge_public.h"
 447:mtk_resgenerator.cpp **** #include "ExternalCMDManagerCAPI.h"
 448:mtk_resgenerator.cpp **** #include "ResgenLogCAPI.h"
 449:mtk_resgenerator.cpp **** }
 450:mtk_resgenerator.cpp **** ////////////////////////////////////////////
 451:mtk_resgenerator.cpp **** // Offilne Generator Headers
 452:mtk_resgenerator.cpp **** ////////////////////////////////////////////
 453:mtk_resgenerator.cpp **** #ifdef __RESGEN_INTERNAL_OFFLINE__
 454:mtk_resgenerator.cpp **** #include "stdafx.h"
 455:mtk_resgenerator.cpp **** #include <vector>
 456:mtk_resgenerator.cpp **** #include <string>
 457:mtk_resgenerator.cpp **** 
 458:mtk_resgenerator.cpp **** #include "OfflineResParam.h"
 459:mtk_resgenerator.cpp **** #include "OfflineResDAO.h"
 460:mtk_resgenerator.cpp **** #include "OfflineResParamModel.h"
 461:mtk_resgenerator.cpp **** #include "OfflineResHelper.h"
 462:mtk_resgenerator.cpp **** #include "OfflineResPopAdaptor.h"
 463:mtk_resgenerator.cpp **** #include "CatResGenerator.h"
 464:mtk_resgenerator.cpp **** #endif // __RESGEN_INTERNAL_OFFLINE__
 465:mtk_resgenerator.cpp **** ////////////////////////////////////////////
 466:mtk_resgenerator.cpp **** 
 467:mtk_resgenerator.cpp **** #include "ResCompressConfig.h"
 468:mtk_resgenerator.cpp **** #include "ResgenCatConfig.h"
 469:mtk_resgenerator.cpp **** #include "ResgenCrashHandlingServ.h"
 470:mtk_resgenerator.cpp **** #include "ResgenConfigurator.h"
 471:mtk_resgenerator.cpp **** #include "ImageGroupCreator.h"
 472:mtk_resgenerator.cpp **** 
 473:mtk_resgenerator.cpp **** #ifdef __REGEN_INTERNAL_BATCHED__
 474:mtk_resgenerator.cpp **** #include "BinaryModeResGen.h"
 475:mtk_resgenerator.cpp **** #endif
 476:mtk_resgenerator.cpp **** 
 477:mtk_resgenerator.cpp **** #define WIN32_LEAN_AND_MEAN
 478:mtk_resgenerator.cpp **** #include "windows.h"
 479:mtk_resgenerator.cpp **** 
 480:mtk_resgenerator.cpp **** #include <time.h>
 481:mtk_resgenerator.cpp **** 
 482:mtk_resgenerator.cpp **** /* Enable roud-robin image split method */
 483:mtk_resgenerator.cpp **** #define RESGEN_IMG_SPLIT_OUTPUT_ROUND_ROBIN
 484:mtk_resgenerator.cpp **** 
GAS LISTING d:/software/ovi_2503a_s3trc/ovi_2503a_s3trc/plutommi/Customer/ResGenerator/gcctmp/ccgnaaaa.s 			page 12


 485:mtk_resgenerator.cpp **** /* buffer size for shell command */
 486:mtk_resgenerator.cpp **** #define SHELL_CMD_BUFLEN    (MAX_FILENAME_LEN + 100)
 487:mtk_resgenerator.cpp **** /* buffer size for unzip command */
 488:mtk_resgenerator.cpp **** #define UNZIP_CMD_BUFLEN    256
 489:mtk_resgenerator.cpp **** 
 490:mtk_resgenerator.cpp **** #define RESGEN_TAG        "MTK_RESGENERATOR"
 491:mtk_resgenerator.cpp **** 
 492:mtk_resgenerator.cpp **** #define RESGEN_LOG_D(format, args...) RES_LOG_D((RESGEN_TAG), (format) , ##args)
 493:mtk_resgenerator.cpp **** #define RESGEN_LOG_V(format, args...) RES_LOG_V((RESGEN_TAG), (format) , ##args)
 494:mtk_resgenerator.cpp **** #define RESGEN_LOG_W(format, args...) RES_LOG_W((RESGEN_TAG), (format) , ##args)
 495:mtk_resgenerator.cpp **** #define RESGEN_LOG_E(format, args...) RES_LOG_E((RESGEN_TAG), (format) , ##args)
 496:mtk_resgenerator.cpp **** 
 497:mtk_resgenerator.cpp **** #define RESGEN_WLOG_D(format, args...) RES_WLOG_D((RESGEN_TAG), (format) , ##args)
 498:mtk_resgenerator.cpp **** #define RESGEN_WLOG_V(format, args...) RES_WLOG_V((RESGEN_TAG), (format) , ##args)
 499:mtk_resgenerator.cpp **** #define RESGEN_WLOG_W(format, args...) RES_WLOG_W((RESGEN_TAG), (format) , ##args)
 500:mtk_resgenerator.cpp **** #define RESGEN_WLOG_E(format, args...) RES_WLOG_E((RESGEN_TAG), (format) , ##args)
 501:mtk_resgenerator.cpp **** 
 502:mtk_resgenerator.cpp **** 
 503:mtk_resgenerator.cpp **** 
 504:mtk_resgenerator.cpp **** 
 505:mtk_resgenerator.cpp **** /* buffer size of cust pack error log */
 506:mtk_resgenerator.cpp **** #define CUSTPACK_LOG_BUFLEN 256
 507:mtk_resgenerator.cpp **** #define CUSTPACL_LOG_FILE_NAME "resgen_custpack.log"
 508:mtk_resgenerator.cpp **** 
 509:mtk_resgenerator.cpp **** #ifdef __CAT_SUPPORT__
 510:mtk_resgenerator.cpp ****     #define STR_COMPRESS_CMD_OPTION_STR_PADDING MMIRESOURCE_CAT_STR_COMPRESS_RESERVED_MARGIN_SIZE_B
 511:mtk_resgenerator.cpp **** #else
 512:mtk_resgenerator.cpp ****     #define STR_COMPRESS_CMD_OPTION_STR_PADDING 0
 513:mtk_resgenerator.cpp **** #endif //__CAT_SUPPORT__
 514:mtk_resgenerator.cpp **** 
 515:mtk_resgenerator.cpp **** 
 516:mtk_resgenerator.cpp **** /* type definition */
 517:mtk_resgenerator.cpp **** typedef struct
 518:mtk_resgenerator.cpp **** {
 519:mtk_resgenerator.cpp ****     U16 Num;
 520:mtk_resgenerator.cpp **** } CUSTOM_ID_MAP;
 521:mtk_resgenerator.cpp **** 
 522:mtk_resgenerator.cpp **** typedef struct
 523:mtk_resgenerator.cpp **** {
 524:mtk_resgenerator.cpp ****     U16 minId;
 525:mtk_resgenerator.cpp ****     U16 maxId;
 526:mtk_resgenerator.cpp ****     U16 index;
 527:mtk_resgenerator.cpp **** } CUSTOM_ID_SEARCH_MAP;
 528:mtk_resgenerator.cpp **** 
 529:mtk_resgenerator.cpp **** typedef struct
 530:mtk_resgenerator.cpp **** {
 531:mtk_resgenerator.cpp ****     S8 filename[MAX_FILENAME_LEN];
 532:mtk_resgenerator.cpp **** } CUSTOM_NAME_LIST;
 533:mtk_resgenerator.cpp **** 
 534:mtk_resgenerator.cpp **** 
 535:mtk_resgenerator.cpp **** /* Extern variable */
 536:mtk_resgenerator.cpp **** extern "C" CUSTOM_IMAGE_MAP            ImageIdMap[];
 537:mtk_resgenerator.cpp **** extern "C" CUSTOM_IMAGE_SEARCH_MAP     ImageIdSearchMap[];
 538:mtk_resgenerator.cpp **** extern "C" IMAGENAME_LIST              ImageNameList[];
 539:mtk_resgenerator.cpp **** 
 540:mtk_resgenerator.cpp **** extern "C" CUSTOM_IMAGE_MAP            ImageIdMapEXT[];
 541:mtk_resgenerator.cpp **** extern "C" CUSTOM_IMAGE_SEARCH_MAP     ImageIdSearchMapEXT[];
GAS LISTING d:/software/ovi_2503a_s3trc/ovi_2503a_s3trc/plutommi/Customer/ResGenerator/gcctmp/ccgnaaaa.s 			page 13


 542:mtk_resgenerator.cpp **** extern "C" IMAGENAME_LIST              ImageNameListEXT[];
 543:mtk_resgenerator.cpp **** 
 544:mtk_resgenerator.cpp **** extern "C" CUSTOM_FONT_MAP            FontIdMapEXT[];
 545:mtk_resgenerator.cpp **** extern "C" CUSTOM_FONT_SEARCH_MAP     FontIdSearchMapEXT[];
 546:mtk_resgenerator.cpp **** extern "C" FONTNAME_LIST              FontNameListEXT[];
 547:mtk_resgenerator.cpp **** 
 548:mtk_resgenerator.cpp **** 
 549:mtk_resgenerator.cpp **** 
 550:mtk_resgenerator.cpp **** extern "C" CUSTOM_AUDIO_MAP         AudioIdMap[];
 551:mtk_resgenerator.cpp **** extern "C" CUSTOM_AUDIO_SEARCH_MAP  AudioIdSearchMap[];
 552:mtk_resgenerator.cpp **** extern "C" AUDIONAME_LIST           AudioNameList[];
 553:mtk_resgenerator.cpp **** 
 554:mtk_resgenerator.cpp **** extern "C" CUSTOM_AUDIO_MAP         AudioIdMapEXT[];
 555:mtk_resgenerator.cpp **** extern "C" CUSTOM_AUDIO_SEARCH_MAP  AudioIdSearchMapEXT[];
 556:mtk_resgenerator.cpp **** extern "C" AUDIONAME_LIST           AudioNameListEXT[];
 557:mtk_resgenerator.cpp **** 
 558:mtk_resgenerator.cpp **** extern "C" CUSTOM_MENU              nCustMenus[];
 559:mtk_resgenerator.cpp **** extern "C" unsigned short           CurrMaxMenuItemIndex;   //Max menu Ids
 560:mtk_resgenerator.cpp **** 
 561:mtk_resgenerator.cpp **** extern "C" unsigned short           CurrMaxImageId;         //Max String Ids
 562:mtk_resgenerator.cpp **** extern "C" unsigned short           CurrMaxSearchImageId;   //Max String Ids
 563:mtk_resgenerator.cpp **** extern "C" unsigned short           CurrMaxImageNum;        //Max Number Ids
 564:mtk_resgenerator.cpp **** 
 565:mtk_resgenerator.cpp **** extern "C" unsigned short           CurrMaxImageIdEXT;
 566:mtk_resgenerator.cpp **** extern "C" unsigned short           CurrMaxSearchImageIdEXT;
 567:mtk_resgenerator.cpp **** extern "C" unsigned short           CurrMaxImageNumEXT;
 568:mtk_resgenerator.cpp **** 
 569:mtk_resgenerator.cpp **** extern "C" unsigned short           CurrMaxFontIdEXT;
 570:mtk_resgenerator.cpp **** extern "C" unsigned short           CurrMaxSearchFontIdEXT;
 571:mtk_resgenerator.cpp **** extern "C" unsigned short           CurrMaxFontNumEXT;
 572:mtk_resgenerator.cpp **** 
 573:mtk_resgenerator.cpp **** 
 574:mtk_resgenerator.cpp **** extern "C" unsigned short           CurrMaxAudioId;         //Max String Ids
 575:mtk_resgenerator.cpp **** extern "C" unsigned short           CurrMaxSearchAudioId;   //Max String Ids
 576:mtk_resgenerator.cpp **** extern "C" unsigned short           CurrMaxAudioNum;        //Max Number Ids
 577:mtk_resgenerator.cpp **** 
 578:mtk_resgenerator.cpp **** extern "C" unsigned short           CurrMaxAudioIdEXT;
 579:mtk_resgenerator.cpp **** extern "C" unsigned short           CurrMaxSearchAudioIdEXT;
 580:mtk_resgenerator.cpp **** extern "C" unsigned short           CurrMaxAudioNumEXT;
 581:mtk_resgenerator.cpp **** 
 582:mtk_resgenerator.cpp **** 
 583:mtk_resgenerator.cpp **** extern "C" FILE*                    dest_file;
 584:mtk_resgenerator.cpp **** extern "C" int                      toolFlag;
 585:mtk_resgenerator.cpp **** extern "C" int                      resultFailFlag;
 586:mtk_resgenerator.cpp **** extern "C" MMI_BOOL                 g_is_log;
 587:mtk_resgenerator.cpp **** MMI_BOOL                            g_is_clean = MMI_FALSE;
 588:mtk_resgenerator.cpp **** 
 589:mtk_resgenerator.cpp **** 
 590:mtk_resgenerator.cpp **** extern "C" unsigned short           CurrMaxENFBAssociatedIDNum;
 591:mtk_resgenerator.cpp **** extern "C" CUSTOM_ENFB_STR          ENFBAssociatedIDList[];
 592:mtk_resgenerator.cpp **** 
 593:mtk_resgenerator.cpp **** extern "C" ENFB_Font_Res_Info       ENFBFontResInfo[];
 594:mtk_resgenerator.cpp **** 
 595:mtk_resgenerator.cpp **** 
 596:mtk_resgenerator.cpp **** /* Menuitem reduce memory, move registe hilite handlers to resgen */
 597:mtk_resgenerator.cpp **** extern "C" S32 HiliteHdlrCount;
 598:mtk_resgenerator.cpp **** extern "C" S32 HintHdlrCount;
GAS LISTING d:/software/ovi_2503a_s3trc/ovi_2503a_s3trc/plutommi/Customer/ResGenerator/gcctmp/ccgnaaaa.s 			page 14


 599:mtk_resgenerator.cpp **** extern "C" RESGEN_MENU_HILITE_HANDLER   nMenuHiliteHandlers[];
 600:mtk_resgenerator.cpp **** extern "C" RESGEN_MENU_HINT_HANDLER     nMenuHintHandlers[];
 601:mtk_resgenerator.cpp **** 
 602:mtk_resgenerator.cpp **** /* Extern functions */
 603:mtk_resgenerator.cpp **** extern "C" void InitStrPopulate();
 604:mtk_resgenerator.cpp **** extern "C" MMI_BOOL Fload(S8 *string, PU16 pType);
 605:mtk_resgenerator.cpp **** 
 606:mtk_resgenerator.cpp **** /*****************************************************************************
 607:mtk_resgenerator.cpp **** * FUNCTION
 608:mtk_resgenerator.cpp **** *  GenerateENFBAssociatedIDFile
 609:mtk_resgenerator.cpp **** * DESCRIPTION
 610:mtk_resgenerator.cpp **** *  generate ENFB associated ID map file
 611:mtk_resgenerator.cpp **** * PARAMETERS
 612:mtk_resgenerator.cpp **** *  void
 613:mtk_resgenerator.cpp **** * RETURNS
 614:mtk_resgenerator.cpp **** *  MMI_BOOL
 615:mtk_resgenerator.cpp **** *****************************************************************************/
 616:mtk_resgenerator.cpp **** static MMI_BOOL GenerateENFBAssociatedIDFile(void)
 617:mtk_resgenerator.cpp **** {
 2957              	LM1:
 2958 0442 55       		pushl	%ebp
 2959 0443 89E5     		movl	%esp, %ebp
 2960 0445 83EC28   		subl	$40, %esp
 618:mtk_resgenerator.cpp ****     /*----------------------------------------------------------------*/
 619:mtk_resgenerator.cpp ****     /* Local Variables                                                */
 620:mtk_resgenerator.cpp ****     /*----------------------------------------------------------------*/
 621:mtk_resgenerator.cpp ****     FILE *fp;
 622:mtk_resgenerator.cpp ****     CUSTOM_ENFB_STR *enfb;
 623:mtk_resgenerator.cpp ****     int i, j;
 624:mtk_resgenerator.cpp **** 
 625:mtk_resgenerator.cpp ****     /*----------------------------------------------------------------*/
 626:mtk_resgenerator.cpp ****     /* Code Body                                                      */
 627:mtk_resgenerator.cpp ****     /*----------------------------------------------------------------*/
 628:mtk_resgenerator.cpp ****     RESGEN_LOG_V("GenerateENFBAssociatedIDFile(): File output: CustENFBImgMap.c");
 2962              	LM2:
 2963              	LBB2:
 2964 0448 C7442408 		movl	$LC0, 8(%esp)
 2964      00000000 
 2965 0450 C7442404 		movl	$LC1, 4(%esp)
 2965      3E000000 
 2966 0458 C7042401 		movl	$1, (%esp)
 2966      000000
 2967 045f E8000000 		call	_reslog_adaptor_log
 2967      00
 629:mtk_resgenerator.cpp ****     /* open file */
 630:mtk_resgenerator.cpp ****     fp = fopen(ENFB_DATA_FILENAME, "w");
 2969              	LM3:
 2970 0464 C7442404 		movl	$LC2, 4(%esp)
 2970      4F000000 
 2971 046c C7042460 		movl	$LC3, (%esp)
 2971      000000
 2972 0473 E8000000 		call	_fopen
 2972      00
 2973 0478 8945FC   		movl	%eax, -4(%ebp)
 631:mtk_resgenerator.cpp ****     if(fp == NULL)
 2975              	LM4:
 2976 047b 837DFC00 		cmpl	$0, -4(%ebp)
GAS LISTING d:/software/ovi_2503a_s3trc/ovi_2503a_s3trc/plutommi/Customer/ResGenerator/gcctmp/ccgnaaaa.s 			page 15


 2977 047f 750C     		jne	L2
 632:mtk_resgenerator.cpp ****     {
 633:mtk_resgenerator.cpp ****         return MMI_FALSE;
 2979              	LM5:
 2980 0481 C745EC00 		movl	$0, -20(%ebp)
 2980      000000
 2981 0488 E9DD0200 		jmp	L1
 2981      00
 2982              	L2:
 634:mtk_resgenerator.cpp ****     }
 635:mtk_resgenerator.cpp **** 
 636:mtk_resgenerator.cpp ****     /* print copyright */
 637:mtk_resgenerator.cpp ****     fprintf(fp, "/**\n *	Copyright Notice\n *	?2002 - 2003, Pixtel Communications, Inc., 1489 43rd 
 2984              	LM6:
 2985 048d C7442404 		movl	$LC4, 4(%esp)
 2985      A0000000 
 2986 0495 8B45FC   		movl	-4(%ebp), %eax
 2987 0498 890424   		movl	%eax, (%esp)
 2988 049b E8000000 		call	_fprintf
 2988      00
 638:mtk_resgenerator.cpp ****     fprintf(fp, "\n/************************************************************** \n FILENAME\t: C
 2990              	LM7:
 2991 04a0 C7442404 		movl	$LC5, 4(%esp)
 2991      A0010000 
 2992 04a8 8B45FC   		movl	-4(%ebp), %eax
 2993 04ab 890424   		movl	%eax, (%esp)
 2994 04ae E8000000 		call	_fprintf
 2994      00
 639:mtk_resgenerator.cpp **** 
 640:mtk_resgenerator.cpp ****     /* print include file */
 641:mtk_resgenerator.cpp ****     fprintf(fp, "#include \"CustDataRes.h\"\n\n");
 2996              	LM8:
 2997 04b3 C7442404 		movl	$LC6, 4(%esp)
 2997      AB020000 
 2998 04bb 8B45FC   		movl	-4(%ebp), %eax
 2999 04be 890424   		movl	%eax, (%esp)
 3000 04c1 E8000000 		call	_fprintf
 3000      00
 642:mtk_resgenerator.cpp **** 
 643:mtk_resgenerator.cpp **** #if 0
 644:mtk_resgenerator.cpp **** /* under construction !*/
 645:mtk_resgenerator.cpp **** /* under construction !*/
 646:mtk_resgenerator.cpp **** /* under construction !*/
 647:mtk_resgenerator.cpp **** /* under construction !*/
 648:mtk_resgenerator.cpp **** /* under construction !*/
 649:mtk_resgenerator.cpp **** /* under construction !*/
 650:mtk_resgenerator.cpp **** /* under construction !*/
 651:mtk_resgenerator.cpp **** /* under construction !*/
 652:mtk_resgenerator.cpp **** /* under construction !*/
 653:mtk_resgenerator.cpp **** /* under construction !*/
 654:mtk_resgenerator.cpp **** #endif /* 0 */
 655:mtk_resgenerator.cpp **** 
 656:mtk_resgenerator.cpp ****     /* print list count */
 657:mtk_resgenerator.cpp ****     fprintf(fp, "const U32 CurrMaxENFBAssociatedIDNum = %d;\n\n", CurrMaxENFBAssociatedIDNum + 1);
 3002              	LM9:
 3003 04c6 0FB70500 		movzwl	_CurrMaxENFBAssociatedIDNum, %eax
 3003      000000
GAS LISTING d:/software/ovi_2503a_s3trc/ovi_2503a_s3trc/plutommi/Customer/ResGenerator/gcctmp/ccgnaaaa.s 			page 16


 3004 04cd 40       		incl	%eax
 3005 04ce 89442408 		movl	%eax, 8(%esp)
 3006 04d2 C7442404 		movl	$LC7, 4(%esp)
 3006      E0020000 
 3007 04da 8B45FC   		movl	-4(%ebp), %eax
 3008 04dd 890424   		movl	%eax, (%esp)
 3009 04e0 E8000000 		call	_fprintf
 3009      00
 658:mtk_resgenerator.cpp **** 
 659:mtk_resgenerator.cpp ****     /* dump ID list */
 660:mtk_resgenerator.cpp ****     for (i = 1; i <= (int)CurrMaxENFBAssociatedIDNum; i++)
 3011              	LM10:
 3012 04e5 C745F401 		movl	$1, -12(%ebp)
 3012      000000
 3013              	L3:
 3014 04ec 0FB70500 		movzwl	_CurrMaxENFBAssociatedIDNum, %eax
 3014      000000
 3015 04f3 3945F4   		cmpl	%eax, -12(%ebp)
 3016 04f6 7E05     		jle	L6
 3017 04f8 E9AC0000 		jmp	L4
 3017      00
 3018              	L6:
 661:mtk_resgenerator.cpp ****     {
 662:mtk_resgenerator.cpp ****         enfb = (CUSTOM_ENFB_STR *)&ENFBAssociatedIDList[i];
 3020              	LM11:
 3021 04fd 8B55F4   		movl	-12(%ebp), %edx
 3022 0500 89D0     		movl	%edx, %eax
 3023 0502 01C0     		addl	%eax, %eax
 3024 0504 01D0     		addl	%edx, %eax
 3025 0506 8D148500 		leal	0(,%eax,4), %edx
 3025      000000
 3026 050d B8000000 		movl	$_ENFBAssociatedIDList, %eax
 3026      00
 3027 0512 01D0     		addl	%edx, %eax
 3028 0514 8945F8   		movl	%eax, -8(%ebp)
 663:mtk_resgenerator.cpp ****         fprintf(fp, "const U16 Associated_IDs_%d[] = {", i);
 3030              	LM12:
 3031 0517 8B45F4   		movl	-12(%ebp), %eax
 3032 051a 89442408 		movl	%eax, 8(%esp)
 3033 051e C7442404 		movl	$LC8, 4(%esp)
 3033      20030000 
 3034 0526 8B45FC   		movl	-4(%ebp), %eax
 3035 0529 890424   		movl	%eax, (%esp)
 3036 052c E8000000 		call	_fprintf
 3036      00
 664:mtk_resgenerator.cpp ****         for (j = 0; j < (int)enfb->count - 1; j++)
 3038              	LM13:
 3039 0531 C745F000 		movl	$0, -16(%ebp)
 3039      000000
 3040              	L7:
 3041 0538 8B45F8   		movl	-8(%ebp), %eax
 3042 053b 0FB700   		movzwl	(%eax), %eax
 3043 053e 48       		decl	%eax
 3044 053f 3945F0   		cmpl	%eax, -16(%ebp)
 3045 0542 7C02     		jl	L10
 3046 0544 EB2E     		jmp	L8
 3047              	L10:
GAS LISTING d:/software/ovi_2503a_s3trc/ovi_2503a_s3trc/plutommi/Customer/ResGenerator/gcctmp/ccgnaaaa.s 			page 17


 665:mtk_resgenerator.cpp ****         {
 666:mtk_resgenerator.cpp ****             fprintf(fp, "%d, ", enfb->IDs[j]);
 3049              	LM14:
 3050 0546 8B4DF8   		movl	-8(%ebp), %ecx
 3051 0549 8B45F0   		movl	-16(%ebp), %eax
 3052 054c 8D1400   		leal	(%eax,%eax), %edx
 3053 054f 8B4104   		movl	4(%ecx), %eax
 3054 0552 0FB70410 		movzwl	(%eax,%edx), %eax
 3055 0556 89442408 		movl	%eax, 8(%esp)
 3056 055a C7442404 		movl	$LC9, 4(%esp)
 3056      42030000 
 3057 0562 8B45FC   		movl	-4(%ebp), %eax
 3058 0565 890424   		movl	%eax, (%esp)
 3059 0568 E8000000 		call	_fprintf
 3059      00
 3061              	LM15:
 3062 056d 8D45F0   		leal	-16(%ebp), %eax
 3063 0570 FF00     		incl	(%eax)
 3064 0572 EBC4     		jmp	L7
 3065              	L8:
 667:mtk_resgenerator.cpp ****         }
 668:mtk_resgenerator.cpp ****         fprintf(fp, "%d};\n", enfb->IDs[enfb->count - 1]);
 3067              	LM16:
 3068 0574 8B55F8   		movl	-8(%ebp), %edx
 3069 0577 8B45F8   		movl	-8(%ebp), %eax
 3070 057a 0FB700   		movzwl	(%eax), %eax
 3071 057d 01C0     		addl	%eax, %eax
 3072 057f 034204   		addl	4(%edx), %eax
 3073 0582 83E802   		subl	$2, %eax
 3074 0585 0FB700   		movzwl	(%eax), %eax
 3075 0588 89442408 		movl	%eax, 8(%esp)
 3076 058c C7442404 		movl	$LC10, 4(%esp)
 3076      47030000 
 3077 0594 8B45FC   		movl	-4(%ebp), %eax
 3078 0597 890424   		movl	%eax, (%esp)
 3079 059a E8000000 		call	_fprintf
 3079      00
 3081              	LM17:
 3082 059f 8D45F4   		leal	-12(%ebp), %eax
 3083 05a2 FF00     		incl	(%eax)
 3084 05a4 E943FFFF 		jmp	L3
 3084      FF
 3085              	L4:
 669:mtk_resgenerator.cpp ****     }
 670:mtk_resgenerator.cpp ****     fprintf(fp, "\n");
 3087              	LM18:
 3088 05a9 C7442404 		movl	$LC11, 4(%esp)
 3088      4D030000 
 3089 05b1 8B45FC   		movl	-4(%ebp), %eax
 3090 05b4 890424   		movl	%eax, (%esp)
 3091 05b7 E8000000 		call	_fprintf
 3091      00
 671:mtk_resgenerator.cpp **** 
 672:mtk_resgenerator.cpp **** #if 0
 673:mtk_resgenerator.cpp **** /* under construction !*/
 674:mtk_resgenerator.cpp **** /* under construction !*/
 675:mtk_resgenerator.cpp **** /* under construction !*/
GAS LISTING d:/software/ovi_2503a_s3trc/ovi_2503a_s3trc/plutommi/Customer/ResGenerator/gcctmp/ccgnaaaa.s 			page 18


 676:mtk_resgenerator.cpp **** /* under construction !*/
 677:mtk_resgenerator.cpp **** /* under construction !*/
 678:mtk_resgenerator.cpp **** /* under construction !*/
 679:mtk_resgenerator.cpp **** /* under construction !*/
 680:mtk_resgenerator.cpp **** /* under construction !*/
 681:mtk_resgenerator.cpp **** /* under construction !*/
 682:mtk_resgenerator.cpp **** /* under construction !*/
 683:mtk_resgenerator.cpp **** /* under construction !*/
 684:mtk_resgenerator.cpp **** /* under construction !*/
 685:mtk_resgenerator.cpp **** #endif /* 0 */
 686:mtk_resgenerator.cpp **** 
 687:mtk_resgenerator.cpp ****     /* dump CUSTOM_ENFB list */
 688:mtk_resgenerator.cpp ****     fprintf(fp, "const CUSTOM_ENFB AssociatedID_map[] = \n{\n");
 3093              	LM19:
 3094 05bc C7442404 		movl	$LC12, 4(%esp)
 3094      60030000 
 3095 05c4 8B45FC   		movl	-4(%ebp), %eax
 3096 05c7 890424   		movl	%eax, (%esp)
 3097 05ca E8000000 		call	_fprintf
 3097      00
 689:mtk_resgenerator.cpp ****     if (CurrMaxENFBAssociatedIDNum > 0)
 3099              	LM20:
 3100 05cf 66833D00 		cmpw	$0, _CurrMaxENFBAssociatedIDNum
 3100      00000000 
 3101 05d7 7415     		je	L11
 690:mtk_resgenerator.cpp ****     {
 691:mtk_resgenerator.cpp **** #if 0
 692:mtk_resgenerator.cpp **** /* under construction !*/
 693:mtk_resgenerator.cpp **** #endif /* 0 */
 694:mtk_resgenerator.cpp ****         fprintf(fp, "\t{0, 0},\n");
 3103              	LM21:
 3104 05d9 C7442404 		movl	$LC13, 4(%esp)
 3104      8B030000 
 3105 05e1 8B45FC   		movl	-4(%ebp), %eax
 3106 05e4 890424   		movl	%eax, (%esp)
 3107 05e7 E8000000 		call	_fprintf
 3107      00
 3108 05ec EB13     		jmp	L12
 3109              	L11:
 695:mtk_resgenerator.cpp ****     }
 696:mtk_resgenerator.cpp ****     else
 697:mtk_resgenerator.cpp ****     {
 698:mtk_resgenerator.cpp **** #if 0
 699:mtk_resgenerator.cpp **** /* under construction !*/
 700:mtk_resgenerator.cpp **** #endif /* 0 */
 701:mtk_resgenerator.cpp ****         fprintf(fp, "\t{0, 0}\n");
 3111              	LM22:
 3112 05ee C7442404 		movl	$LC14, 4(%esp)
 3112      95030000 
 3113 05f6 8B45FC   		movl	-4(%ebp), %eax
 3114 05f9 890424   		movl	%eax, (%esp)
 3115 05fc E8000000 		call	_fprintf
 3115      00
 3116              	L12:
 702:mtk_resgenerator.cpp ****     }
 703:mtk_resgenerator.cpp ****     if (CurrMaxENFBAssociatedIDNum > 0)
 3118              	LM23:
GAS LISTING d:/software/ovi_2503a_s3trc/ovi_2503a_s3trc/plutommi/Customer/ResGenerator/gcctmp/ccgnaaaa.s 			page 19


 3119 0601 66833D00 		cmpw	$0, _CurrMaxENFBAssociatedIDNum
 3119      00000000 
 3120 0609 0F849300 		je	L13
 3120      0000
 704:mtk_resgenerator.cpp ****     {
 705:mtk_resgenerator.cpp **** #if 0
 706:mtk_resgenerator.cpp **** /* under construction !*/
 707:mtk_resgenerator.cpp **** /* under construction !*/
 708:mtk_resgenerator.cpp **** /* under construction !*/
 709:mtk_resgenerator.cpp **** /* under construction !*/
 710:mtk_resgenerator.cpp **** /* under construction !*/
 711:mtk_resgenerator.cpp **** /* under construction !*/
 712:mtk_resgenerator.cpp **** /* under construction !*/
 713:mtk_resgenerator.cpp **** /* under construction !*/
 714:mtk_resgenerator.cpp **** #endif /* 0 */
 715:mtk_resgenerator.cpp ****         for (i = 1; i < (int)CurrMaxENFBAssociatedIDNum; i++)
 3122              	LM24:
 3123 060f C745F401 		movl	$1, -12(%ebp)
 3123      000000
 3124              	L14:
 3125 0616 0FB70500 		movzwl	_CurrMaxENFBAssociatedIDNum, %eax
 3125      000000
 3126 061d 3945F4   		cmpl	%eax, -12(%ebp)
 3127 0620 7C02     		jl	L17
 3128 0622 EB45     		jmp	L15
 3129              	L17:
 716:mtk_resgenerator.cpp ****         {
 717:mtk_resgenerator.cpp ****             enfb = (CUSTOM_ENFB_STR *)&ENFBAssociatedIDList[i];
 3131              	LM25:
 3132 0624 8B55F4   		movl	-12(%ebp), %edx
 3133 0627 89D0     		movl	%edx, %eax
 3134 0629 01C0     		addl	%eax, %eax
 3135 062b 01D0     		addl	%edx, %eax
 3136 062d 8D148500 		leal	0(,%eax,4), %edx
 3136      000000
 3137 0634 B8000000 		movl	$_ENFBAssociatedIDList, %eax
 3137      00
 3138 0639 01D0     		addl	%edx, %eax
 3139 063b 8945F8   		movl	%eax, -8(%ebp)
 718:mtk_resgenerator.cpp ****             fprintf(fp, "\t{%d, (U16 *)&Associated_IDs_%d},\n", enfb->count, i);
 3141              	LM26:
 3142 063e 8B45F4   		movl	-12(%ebp), %eax
 3143 0641 8944240C 		movl	%eax, 12(%esp)
 3144 0645 8B45F8   		movl	-8(%ebp), %eax
 3145 0648 0FB700   		movzwl	(%eax), %eax
 3146 064b 89442408 		movl	%eax, 8(%esp)
 3147 064f C7442404 		movl	$LC15, 4(%esp)
 3147      A0030000 
 3148 0657 8B45FC   		movl	-4(%ebp), %eax
 3149 065a 890424   		movl	%eax, (%esp)
 3150 065d E8000000 		call	_fprintf
 3150      00
 3152              	LM27:
 3153 0662 8D45F4   		leal	-12(%ebp), %eax
 3154 0665 FF00     		incl	(%eax)
 3155 0667 EBAD     		jmp	L14
 3156              	L15:
GAS LISTING d:/software/ovi_2503a_s3trc/ovi_2503a_s3trc/plutommi/Customer/ResGenerator/gcctmp/ccgnaaaa.s 			page 20


 719:mtk_resgenerator.cpp ****         }
 720:mtk_resgenerator.cpp ****         fprintf(fp, "\t{%d, (U16 *)&Associated_IDs_%d}\n",
 3158              	LM28:
 3159 0669 0FB70500 		movzwl	_CurrMaxENFBAssociatedIDNum, %eax
 3159      000000
 3160 0670 8944240C 		movl	%eax, 12(%esp)
 3161 0674 0FB71500 		movzwl	_CurrMaxENFBAssociatedIDNum, %edx
 3161      000000
 3162 067b 89D0     		movl	%edx, %eax
 3163 067d 01C0     		addl	%eax, %eax
 3164 067f 01D0     		addl	%edx, %eax
 3165 0681 C1E002   		sall	$2, %eax
 3166 0684 0FB78000 		movzwl	_ENFBAssociatedIDList(%eax), %eax
 3166      000000
 3167 068b 89442408 		movl	%eax, 8(%esp)
 3168 068f C7442404 		movl	$LC16, 4(%esp)
 3168      E0030000 
 3169 0697 8B45FC   		movl	-4(%ebp), %eax
 3170 069a 890424   		movl	%eax, (%esp)
 3171 069d E8000000 		call	_fprintf
 3171      00
 3172              	L13:
 721:mtk_resgenerator.cpp ****             ENFBAssociatedIDList[CurrMaxENFBAssociatedIDNum].count,
 722:mtk_resgenerator.cpp ****             CurrMaxENFBAssociatedIDNum);
 723:mtk_resgenerator.cpp ****     }
 724:mtk_resgenerator.cpp ****     fprintf(fp, "};\n");
 3174              	LM29:
 3175 06a2 C7442404 		movl	$LC17, 4(%esp)
 3175      02040000 
 3176 06aa 8B45FC   		movl	-4(%ebp), %eax
 3177 06ad 890424   		movl	%eax, (%esp)
 3178 06b0 E8000000 		call	_fprintf
 3178      00
 725:mtk_resgenerator.cpp **** 
 726:mtk_resgenerator.cpp ****     /* free memory */
 727:mtk_resgenerator.cpp ****     for (i = 1; i <= (int)CurrMaxENFBAssociatedIDNum; i++)
 3180              	LM30:
 3181 06b5 C745F401 		movl	$1, -12(%ebp)
 3181      000000
 3182              	L18:
 3183 06bc 0FB70500 		movzwl	_CurrMaxENFBAssociatedIDNum, %eax
 3183      000000
 3184 06c3 3945F4   		cmpl	%eax, -12(%ebp)
 3185 06c6 7E02     		jle	L21
 3186 06c8 EB76     		jmp	L19
 3187              	L21:
 728:mtk_resgenerator.cpp ****     {
 729:mtk_resgenerator.cpp ****         enfb = (CUSTOM_ENFB_STR *)&ENFBAssociatedIDList[i];
 3189              	LM31:
 3190 06ca 8B55F4   		movl	-12(%ebp), %edx
 3191 06cd 89D0     		movl	%edx, %eax
 3192 06cf 01C0     		addl	%eax, %eax
 3193 06d1 01D0     		addl	%edx, %eax
 3194 06d3 8D148500 		leal	0(,%eax,4), %edx
 3194      000000
 3195 06da B8000000 		movl	$_ENFBAssociatedIDList, %eax
 3195      00
GAS LISTING d:/software/ovi_2503a_s3trc/ovi_2503a_s3trc/plutommi/Customer/ResGenerator/gcctmp/ccgnaaaa.s 			page 21


 3196 06df 01D0     		addl	%edx, %eax
 3197 06e1 8945F8   		movl	%eax, -8(%ebp)
 730:mtk_resgenerator.cpp ****         free(enfb->IDs);
 3199              	LM32:
 3200 06e4 8B45F8   		movl	-8(%ebp), %eax
 3201 06e7 8B4004   		movl	4(%eax), %eax
 3202 06ea 890424   		movl	%eax, (%esp)
 3203 06ed E8000000 		call	_free
 3203      00
 731:mtk_resgenerator.cpp ****         for (j = 0; j < (int)enfb->count; j++)
 3205              	LM33:
 3206 06f2 C745F000 		movl	$0, -16(%ebp)
 3206      000000
 3207              	L22:
 3208 06f9 8B45F8   		movl	-8(%ebp), %eax
 3209 06fc 0FB700   		movzwl	(%eax), %eax
 3210 06ff 3945F0   		cmpl	%eax, -16(%ebp)
 3211 0702 7C02     		jl	L25
 3212 0704 EB22     		jmp	L23
 3213              	L25:
 732:mtk_resgenerator.cpp ****         {
 733:mtk_resgenerator.cpp ****             free(enfb->Ptr[j]);
 3215              	LM34:
 3216 0706 8B4DF8   		movl	-8(%ebp), %ecx
 3217 0709 8B45F0   		movl	-16(%ebp), %eax
 3218 070c 8D148500 		leal	0(,%eax,4), %edx
 3218      000000
 3219 0713 8B4108   		movl	8(%ecx), %eax
 3220 0716 8B0410   		movl	(%eax,%edx), %eax
 3221 0719 890424   		movl	%eax, (%esp)
 3222 071c E8000000 		call	_free
 3222      00
 3224              	LM35:
 3225 0721 8D45F0   		leal	-16(%ebp), %eax
 3226 0724 FF00     		incl	(%eax)
 3227 0726 EBD1     		jmp	L22
 3228              	L23:
 734:mtk_resgenerator.cpp ****         }
 735:mtk_resgenerator.cpp ****         free(enfb->Ptr);
 3230              	LM36:
 3231 0728 8B45F8   		movl	-8(%ebp), %eax
 3232 072b 8B4008   		movl	8(%eax), %eax
 3233 072e 890424   		movl	%eax, (%esp)
 3234 0731 E8000000 		call	_free
 3234      00
 3236              	LM37:
 3237 0736 8D45F4   		leal	-12(%ebp), %eax
 3238 0739 FF00     		incl	(%eax)
 3239 073b E97CFFFF 		jmp	L18
 3239      FF
 3240              	L19:
 736:mtk_resgenerator.cpp ****     }
 737:mtk_resgenerator.cpp **** 
 738:mtk_resgenerator.cpp ****     fprintf(stderr, "Output CustENFBImgMap.c... done\n");
 3242              	LM38:
 3243 0740 C7442404 		movl	$LC18, 4(%esp)
 3243      20040000 
GAS LISTING d:/software/ovi_2503a_s3trc/ovi_2503a_s3trc/plutommi/Customer/ResGenerator/gcctmp/ccgnaaaa.s 			page 22


 3244 0748 A1000000 		movl	__imp___iob, %eax
 3244      00
 3245 074d 83C040   		addl	$64, %eax
 3246 0750 890424   		movl	%eax, (%esp)
 3247 0753 E8000000 		call	_fprintf
 3247      00
 739:mtk_resgenerator.cpp **** 
 740:mtk_resgenerator.cpp ****     fclose(fp);
 3249              	LM39:
 3250 0758 8B45FC   		movl	-4(%ebp), %eax
 3251 075b 890424   		movl	%eax, (%esp)
 3252 075e E8000000 		call	_fclose
 3252      00
 741:mtk_resgenerator.cpp ****     return MMI_TRUE;
 3254              	LM40:
 3255 0763 C745EC01 		movl	$1, -20(%ebp)
 3255      000000
 742:mtk_resgenerator.cpp **** }
 3257              	LM41:
 3258              	L1:
 3259              	LBE2:
 3260 076a 8B45EC   		movl	-20(%ebp), %eax
 3261 076d C9       		leave
 3262 076e C3       		ret
 3269              	Lscope0:
 3271              	LC19:
 3272 076f 2E2E5C5C 		.ascii "..\\\\..\\\\Customer\\\\Images\0"
 3272      2E2E5C5C 
 3272      43757374 
 3272      6F6D6572 
 3272      5C5C496D 
 3273              	LC20:
 3274 0788 7264202F 		.ascii "rd /S /Q %s\\PLUTO_ENCODE\\\0"
 3274      53202F51 
 3274      2025735C 
 3274      504C5554 
 3274      4F5F454E 
 3275              	LC21:
 3276 07a2 6D642025 		.ascii "md %s\\PLUTO_ENCODE\0"
 3276      735C504C 
 3276      55544F5F 
 3276      454E434F 
 3276      444500
 3277 07b5 8D742600 		.align 32
 3277      8DBC2700 
 3277      000000
 3278              	LC22:
 3279 07c0 2E2E5C5C 		.ascii "..\\\\..\\\\OPT_MMI\\\\OPT_IMAGE_RESOURCE\\\\PLUTO_COMMON_240X320\0"
 3279      2E2E5C5C 
 3279      4F50545F 
 3279      4D4D495C 
 3279      5C4F5054 
 3280              	LC23:
 3281 07fa 7264202F 		.ascii "rd /S /Q %s\\mainlcd\\\0"
 3281      53202F51 
 3281      2025735C 
 3281      6D61696E 
GAS LISTING d:/software/ovi_2503a_s3trc/ovi_2503a_s3trc/plutommi/Customer/ResGenerator/gcctmp/ccgnaaaa.s 			page 23


 3281      6C63645C 
 3282              	LC24:
 3283 080f 7264202F 		.ascii "rd /S /Q %s\\sublcd\\\0"
 3283      53202F51 
 3283      2025735C 
 3283      7375626C 
 3283      63645C00 
 3284 0823 90909090 		.align 32
 3284      90909090 
 3284      90909090 
 3284      90909090 
 3284      90909090 
 3285              	LC25:
 3286 0840 2E2E5C5C 		.ascii "..\\\\..\\\\Customer\\\\Images\\\\PLUTO_ENCODE\0"
 3286      2E2E5C5C 
 3286      43757374 
 3286      6F6D6572 
 3286      5C5C496D 
 3287 0867 90909090 		.align 32
 3287      90909090 
 3287      90909090 
 3287      90909090 
 3287      90909090 
 3288              	LC26:
 3289 0880 377A612E 		.ascii "7za.exe x -y %s\\image.zip -o%s\\\0"
 3289      65786520 
 3289      78202D79 
 3289      2025735C 
 3289      696D6167 
 3290              		.align 32
 3291              	LC27:
 3292 08a0 2E2E5C5C 		.ascii "..\\\\..\\\\Customer\\\\Images\\\\PLUTO_TEMP\0"
 3292      2E2E5C5C 
 3292      43757374 
 3292      6F6D6572 
 3292      5C5C496D 
 3293              	LC28:
 3294 08c5 78636F70 		.ascii "xcopy /Y /Q /E %s %s\\\0"
 3294      79202F59 
 3294      202F5120 
 3294      2F452025 
 3294      73202573 
 3295              	LC29:
 3296 08db 7264202F 		.ascii "rd /S /Q %s\\\0"
 3296      53202F51 
 3296      2025735C 
 3296      00
 3297              	LC30:
 3298 08e8 64656C20 		.ascii "del /Q %s\\image.zip\0"
 3298      2F512025 
 3298      735C696D 
 3298      6167652E 
 3298      7A697000 
 3299              	LC31:
 3300 08fc 5B556E7A 		.ascii "[UnzipImage] end\0"
 3300      6970496D 
 3300      6167655D 
GAS LISTING d:/software/ovi_2503a_s3trc/ovi_2503a_s3trc/plutommi/Customer/ResGenerator/gcctmp/ccgnaaaa.s 			page 24


 3300      20656E64 
 3300      00
 3301 090d 90       		.align 2
 3304              	__Z10UnzipImagev:
 743:mtk_resgenerator.cpp **** 
 744:mtk_resgenerator.cpp **** 
 745:mtk_resgenerator.cpp **** /*****************************************************************************
 746:mtk_resgenerator.cpp **** * FUNCTION
 747:mtk_resgenerator.cpp **** *  UnzipImage
 748:mtk_resgenerator.cpp **** * DESCRIPTION
 749:mtk_resgenerator.cpp **** *  unzip image to the destination folder
 750:mtk_resgenerator.cpp **** * PARAMETERS
 751:mtk_resgenerator.cpp **** *  void
 752:mtk_resgenerator.cpp **** * RETURNS
 753:mtk_resgenerator.cpp **** *  void
 754:mtk_resgenerator.cpp **** *****************************************************************************/
 755:mtk_resgenerator.cpp **** static void UnzipImage(void)
 756:mtk_resgenerator.cpp **** {
 3306              	LM42:
 3307 090e 55       		pushl	%ebp
 3308 090f 89E5     		movl	%esp, %ebp
 3309 0911 81ECB803 		subl	$952, %esp
 3309      0000
 757:mtk_resgenerator.cpp ****     /*----------------------------------------------------------------*/
 758:mtk_resgenerator.cpp ****     /* Local Variables                                                */
 759:mtk_resgenerator.cpp ****     /*----------------------------------------------------------------*/
 760:mtk_resgenerator.cpp ****     char tempCommand[UNZIP_CMD_BUFLEN];
 761:mtk_resgenerator.cpp **** 
 762:mtk_resgenerator.cpp ****     WIN32_FIND_DATA file_data;
 763:mtk_resgenerator.cpp ****     WIN32_FIND_DATA folder_data;
 764:mtk_resgenerator.cpp ****     HANDLE search = NULL;
 3311              	LM43:
 3312              	LBB3:
 3313 0917 C78574FC 		movl	$0, -908(%ebp)
 3313      FFFF0000 
 3313      0000
 765:mtk_resgenerator.cpp ****     BOOL is_need_unzip = TRUE;
 3315              	LM44:
 3316 0921 C78570FC 		movl	$1, -912(%ebp)
 3316      FFFF0100 
 3316      0000
 766:mtk_resgenerator.cpp **** 
 767:mtk_resgenerator.cpp ****     FILE *zip_time_file = NULL;
 3318              	LM45:
 3319 092b C7856CFC 		movl	$0, -916(%ebp)
 3319      FFFF0000 
 3319      0000
 768:mtk_resgenerator.cpp ****     S32 wsize;
 769:mtk_resgenerator.cpp ****     FILETIME zip_time_prev;
 770:mtk_resgenerator.cpp **** 
 771:mtk_resgenerator.cpp ****     /*----------------------------------------------------------------*/
 772:mtk_resgenerator.cpp ****     /* Code Body                                                      */
 773:mtk_resgenerator.cpp ****     /*----------------------------------------------------------------*/
 774:mtk_resgenerator.cpp **** #if defined(__OPT_USE_COMMON_IMG__) // OPT_RESOURCE
 775:mtk_resgenerator.cpp ****     sprintf(tempCommand,"rd /S /Q %s\\PLUTO_ENCODE\\", CUST_IMG_BASE_PATH);
 3321              	LM46:
 3322 0935 C7442408 		movl	$LC19, 8(%esp)
GAS LISTING d:/software/ovi_2503a_s3trc/ovi_2503a_s3trc/plutommi/Customer/ResGenerator/gcctmp/ccgnaaaa.s 			page 25


 3322      6F070000 
 3323 093d C7442404 		movl	$LC20, 4(%esp)
 3323      88070000 
 3324 0945 8D85F8FE 		leal	-264(%ebp), %eax
 3324      FFFF
 3325 094b 890424   		movl	%eax, (%esp)
 3326 094e E8000000 		call	_sprintf
 3326      00
 776:mtk_resgenerator.cpp ****     execute_ext_command(tempCommand);
 3328              	LM47:
 3329 0953 8D85F8FE 		leal	-264(%ebp), %eax
 3329      FFFF
 3330 0959 890424   		movl	%eax, (%esp)
 3331 095c E8000000 		call	_execute_ext_command
 3331      00
 777:mtk_resgenerator.cpp **** 
 778:mtk_resgenerator.cpp ****     sprintf(tempCommand,"md %s\\PLUTO_ENCODE", CUST_IMG_BASE_PATH);
 3333              	LM48:
 3334 0961 C7442408 		movl	$LC19, 8(%esp)
 3334      6F070000 
 3335 0969 C7442404 		movl	$LC21, 4(%esp)
 3335      A2070000 
 3336 0971 8D85F8FE 		leal	-264(%ebp), %eax
 3336      FFFF
 3337 0977 890424   		movl	%eax, (%esp)
 3338 097a E8000000 		call	_sprintf
 3338      00
 779:mtk_resgenerator.cpp ****     execute_ext_command(tempCommand);
 3340              	LM49:
 3341 097f 8D85F8FE 		leal	-264(%ebp), %eax
 3341      FFFF
 3342 0985 890424   		movl	%eax, (%esp)
 3343 0988 E8000000 		call	_execute_ext_command
 3343      00
 780:mtk_resgenerator.cpp **** 
 781:mtk_resgenerator.cpp ****     sprintf(tempCommand,"rd /S /Q %s\\mainlcd\\", COMMON_IMG_PATH);
 3345              	LM50:
 3346 098d C7442408 		movl	$LC22, 8(%esp)
 3346      C0070000 
 3347 0995 C7442404 		movl	$LC23, 4(%esp)
 3347      FA070000 
 3348 099d 8D85F8FE 		leal	-264(%ebp), %eax
 3348      FFFF
 3349 09a3 890424   		movl	%eax, (%esp)
 3350 09a6 E8000000 		call	_sprintf
 3350      00
 782:mtk_resgenerator.cpp ****     execute_ext_command(tempCommand);
 3352              	LM51:
 3353 09ab 8D85F8FE 		leal	-264(%ebp), %eax
 3353      FFFF
 3354 09b1 890424   		movl	%eax, (%esp)
 3355 09b4 E8000000 		call	_execute_ext_command
 3355      00
 783:mtk_resgenerator.cpp **** 
 784:mtk_resgenerator.cpp ****     sprintf(tempCommand,"rd /S /Q %s\\sublcd\\", COMMON_IMG_PATH);
 3357              	LM52:
 3358 09b9 C7442408 		movl	$LC22, 8(%esp)
GAS LISTING d:/software/ovi_2503a_s3trc/ovi_2503a_s3trc/plutommi/Customer/ResGenerator/gcctmp/ccgnaaaa.s 			page 26


 3358      C0070000 
 3359 09c1 C7442404 		movl	$LC24, 4(%esp)
 3359      0F080000 
 3360 09c9 8D85F8FE 		leal	-264(%ebp), %eax
 3360      FFFF
 3361 09cf 890424   		movl	%eax, (%esp)
 3362 09d2 E8000000 		call	_sprintf
 3362      00
 785:mtk_resgenerator.cpp ****     execute_ext_command(tempCommand);
 3364              	LM53:
 3365 09d7 8D85F8FE 		leal	-264(%ebp), %eax
 3365      FFFF
 3366 09dd 890424   		movl	%eax, (%esp)
 3367 09e0 E8000000 		call	_execute_ext_command
 3367      00
 786:mtk_resgenerator.cpp **** 
 787:mtk_resgenerator.cpp ****     sprintf(tempCommand,"7za.exe x -y %s\\image.zip -o%s\\", COMMON_IMG_PATH, CUST_IMG_PATH_ROOT);
 3369              	LM54:
 3370 09e5 C744240C 		movl	$LC25, 12(%esp)
 3370      40080000 
 3371 09ed C7442408 		movl	$LC22, 8(%esp)
 3371      C0070000 
 3372 09f5 C7442404 		movl	$LC26, 4(%esp)
 3372      80080000 
 3373 09fd 8D85F8FE 		leal	-264(%ebp), %eax
 3373      FFFF
 3374 0a03 890424   		movl	%eax, (%esp)
 3375 0a06 E8000000 		call	_sprintf
 3375      00
 788:mtk_resgenerator.cpp ****     execute_ext_command(tempCommand);
 3377              	LM55:
 3378 0a0b 8D85F8FE 		leal	-264(%ebp), %eax
 3378      FFFF
 3379 0a11 890424   		movl	%eax, (%esp)
 3380 0a14 E8000000 		call	_execute_ext_command
 3380      00
 789:mtk_resgenerator.cpp **** 
 790:mtk_resgenerator.cpp ****     sprintf(tempCommand,"xcopy /Y /Q /E %s %s\\",CUST_TEMP_PATH,CUST_IMG_PATH_ROOT);
 3382              	LM56:
 3383 0a19 C744240C 		movl	$LC25, 12(%esp)
 3383      40080000 
 3384 0a21 C7442408 		movl	$LC27, 8(%esp)
 3384      A0080000 
 3385 0a29 C7442404 		movl	$LC28, 4(%esp)
 3385      C5080000 
 3386 0a31 8D85F8FE 		leal	-264(%ebp), %eax
 3386      FFFF
 3387 0a37 890424   		movl	%eax, (%esp)
 3388 0a3a E8000000 		call	_sprintf
 3388      00
 791:mtk_resgenerator.cpp ****     execute_ext_command(tempCommand);
 3390              	LM57:
 3391 0a3f 8D85F8FE 		leal	-264(%ebp), %eax
 3391      FFFF
 3392 0a45 890424   		movl	%eax, (%esp)
 3393 0a48 E8000000 		call	_execute_ext_command
 3393      00
GAS LISTING d:/software/ovi_2503a_s3trc/ovi_2503a_s3trc/plutommi/Customer/ResGenerator/gcctmp/ccgnaaaa.s 			page 27


 792:mtk_resgenerator.cpp **** 
 793:mtk_resgenerator.cpp ****     sprintf(tempCommand,"rd /S /Q %s\\", CUST_TEMP_PATH);
 3395              	LM58:
 3396 0a4d C7442408 		movl	$LC27, 8(%esp)
 3396      A0080000 
 3397 0a55 C7442404 		movl	$LC29, 4(%esp)
 3397      DB080000 
 3398 0a5d 8D85F8FE 		leal	-264(%ebp), %eax
 3398      FFFF
 3399 0a63 890424   		movl	%eax, (%esp)
 3400 0a66 E8000000 		call	_sprintf
 3400      00
 794:mtk_resgenerator.cpp ****     execute_ext_command(tempCommand);
 3402              	LM59:
 3403 0a6b 8D85F8FE 		leal	-264(%ebp), %eax
 3403      FFFF
 3404 0a71 890424   		movl	%eax, (%esp)
 3405 0a74 E8000000 		call	_execute_ext_command
 3405      00
 795:mtk_resgenerator.cpp **** 
 796:mtk_resgenerator.cpp ****     sprintf(tempCommand,"del /Q %s\\image.zip",CUST_IMG_PATH_ROOT);
 3407              	LM60:
 3408 0a79 C7442408 		movl	$LC25, 8(%esp)
 3408      40080000 
 3409 0a81 C7442404 		movl	$LC30, 4(%esp)
 3409      E8080000 
 3410 0a89 8D85F8FE 		leal	-264(%ebp), %eax
 3410      FFFF
 3411 0a8f 890424   		movl	%eax, (%esp)
 3412 0a92 E8000000 		call	_sprintf
 3412      00
 797:mtk_resgenerator.cpp ****     execute_ext_command(tempCommand);
 3414              	LM61:
 3415 0a97 8D85F8FE 		leal	-264(%ebp), %eax
 3415      FFFF
 3416 0a9d 890424   		movl	%eax, (%esp)
 3417 0aa0 E8000000 		call	_execute_ext_command
 3417      00
 798:mtk_resgenerator.cpp **** 	
 799:mtk_resgenerator.cpp **** #else /* __OPT_USE_COMMON_IMG__ */	
 800:mtk_resgenerator.cpp **** 
 801:mtk_resgenerator.cpp ****     RESGEN_LOG_V("[UnzipImage] start");
 802:mtk_resgenerator.cpp **** 
 803:mtk_resgenerator.cpp ****     sprintf(tempCommand, "%s\\image.zip", CUST_IMG_PATH_ROOT);
 804:mtk_resgenerator.cpp ****     RESGEN_LOG_V("[Dependency] plutommi\\Customer\\ResGenerator\\%s\n", tempCommand);
 805:mtk_resgenerator.cpp ****     search = FindFirstFile(tempCommand, &file_data);
 806:mtk_resgenerator.cpp ****     if (search == INVALID_HANDLE_VALUE)
 807:mtk_resgenerator.cpp ****     {
 808:mtk_resgenerator.cpp ****         RESGEN_LOG_E("Didn't find MAINLCD's image.zip please check. ret=[%d] path=[%s]", GetLastErr
 809:mtk_resgenerator.cpp ****         exit(2);
 810:mtk_resgenerator.cpp ****     }
 811:mtk_resgenerator.cpp ****     FindClose(search);
 812:mtk_resgenerator.cpp **** 
 813:mtk_resgenerator.cpp ****     sprintf(tempCommand, "%s\\\\image_zip_time_log", CUST_IMG_PATH_ROOT);
 814:mtk_resgenerator.cpp ****     zip_time_file = fopen(tempCommand, "rb");
 815:mtk_resgenerator.cpp ****     if (zip_time_file != NULL)
 816:mtk_resgenerator.cpp ****     {
GAS LISTING d:/software/ovi_2503a_s3trc/ovi_2503a_s3trc/plutommi/Customer/ResGenerator/gcctmp/ccgnaaaa.s 			page 28


 817:mtk_resgenerator.cpp ****         wsize = fread(&(zip_time_prev), sizeof(zip_time_prev), 1, zip_time_file);
 818:mtk_resgenerator.cpp ****         fclose(zip_time_file);
 819:mtk_resgenerator.cpp ****         if (wsize != 1)
 820:mtk_resgenerator.cpp ****         {
 821:mtk_resgenerator.cpp ****             RESGEN_LOG_E("Can't read [%s][%d][%d]", tempCommand, wsize, sizeof(file_data.ftLastWrit
 822:mtk_resgenerator.cpp ****             exit(2);
 823:mtk_resgenerator.cpp ****         }
 824:mtk_resgenerator.cpp **** 
 825:mtk_resgenerator.cpp ****         if (CompareFileTime(&(file_data.ftLastWriteTime), &(zip_time_prev)) == 0)
 826:mtk_resgenerator.cpp ****         {
 827:mtk_resgenerator.cpp ****             is_need_unzip = FALSE;
 828:mtk_resgenerator.cpp ****             RESGEN_LOG_V("MAINLCD's image.zip is not changed, skip Unzip process...");
 829:mtk_resgenerator.cpp ****             fprintf(stderr, "MAINLCD's image.zip is not changed, skip Unzip process...\n");
 830:mtk_resgenerator.cpp ****         }
 831:mtk_resgenerator.cpp ****     }
 832:mtk_resgenerator.cpp **** 
 833:mtk_resgenerator.cpp ****     zip_time_file = fopen(tempCommand, "wb");
 834:mtk_resgenerator.cpp ****     if (zip_time_file == NULL)
 835:mtk_resgenerator.cpp ****     {
 836:mtk_resgenerator.cpp ****         RESGEN_LOG_E("[%s] could not open!", tempCommand);
 837:mtk_resgenerator.cpp ****         exit(2);
 838:mtk_resgenerator.cpp ****     }
 839:mtk_resgenerator.cpp **** 
 840:mtk_resgenerator.cpp ****     wsize = fwrite(&(file_data.ftLastWriteTime), sizeof(file_data.ftLastWriteTime), 1, zip_time_fil
 841:mtk_resgenerator.cpp ****     fclose(zip_time_file);
 842:mtk_resgenerator.cpp ****     if (wsize != 1)
 843:mtk_resgenerator.cpp ****     {
 844:mtk_resgenerator.cpp ****         RESGEN_LOG_E("Can't write [%s][%d][%d]", tempCommand, wsize, sizeof(file_data.ftLastWriteTi
 845:mtk_resgenerator.cpp ****         exit(2);
 846:mtk_resgenerator.cpp ****     }
 847:mtk_resgenerator.cpp **** 
 848:mtk_resgenerator.cpp **** 
 849:mtk_resgenerator.cpp ****     if (is_need_unzip || g_is_clean)
 850:mtk_resgenerator.cpp ****     {
 851:mtk_resgenerator.cpp ****         fprintf(stderr, "Start Unzip images ...output 3rd_tool.log\n");
 852:mtk_resgenerator.cpp **** 
 853:mtk_resgenerator.cpp ****         sprintf(tempCommand,"rd /S/Q %s\\mainlcd\\ 2>> .\\debug\\3rd_tool.log", CUST_IMG_PATH_ROOT)
 854:mtk_resgenerator.cpp ****         execute_ext_command(tempCommand);
 855:mtk_resgenerator.cpp **** 
 856:mtk_resgenerator.cpp ****         sprintf(tempCommand,"rd /S/Q .\\AutoAnalysis 2>> .\\debug\\3rd_tool.log");
 857:mtk_resgenerator.cpp ****         execute_ext_command(tempCommand);
 858:mtk_resgenerator.cpp **** 
 859:mtk_resgenerator.cpp ****         sprintf(tempCommand, "7za.exe x -y %s\\image.zip -o%s\\ 2>> .\\debug\\3rd_tool.log", CUST_I
 860:mtk_resgenerator.cpp ****         execute_ext_command(tempCommand);
 861:mtk_resgenerator.cpp ****     }
 862:mtk_resgenerator.cpp **** 
 863:mtk_resgenerator.cpp **** #ifndef __OPTR_NONE__
 864:mtk_resgenerator.cpp ****     sprintf(tempCommand, "7za.exe x -y %s\\operator_image.zip -o%s\\ 2>> .\\debug\\3rd_tool.log", C
 865:mtk_resgenerator.cpp ****     RESGEN_LOG_V("[Dependency] plutommi\\Customer\\ResGenerator\\%s\\operator_image.zip\n", CUST_OP
 866:mtk_resgenerator.cpp ****     execute_ext_command(tempCommand);
 867:mtk_resgenerator.cpp **** #endif /* __OPTR_NONE__ */
 868:mtk_resgenerator.cpp **** 
 869:mtk_resgenerator.cpp **** #endif /* __OPT_USE_COMMON_IMG__ */
 870:mtk_resgenerator.cpp **** 
 871:mtk_resgenerator.cpp **** #if defined(CUST_SUBLCD_PATH)
 872:mtk_resgenerator.cpp **** 
 873:mtk_resgenerator.cpp ****     sprintf(tempCommand, "%s\\image.zip", CUST_SUBLCD_PATH);
GAS LISTING d:/software/ovi_2503a_s3trc/ovi_2503a_s3trc/plutommi/Customer/ResGenerator/gcctmp/ccgnaaaa.s 			page 29


 874:mtk_resgenerator.cpp ****     RESGEN_LOG_V("[Dependency] plutommi\\Customer\\ResGenerator\\%s\n", tempCommand);
 875:mtk_resgenerator.cpp ****     search = FindFirstFile(tempCommand, &file_data);
 876:mtk_resgenerator.cpp ****     if (search == INVALID_HANDLE_VALUE)
 877:mtk_resgenerator.cpp ****     {
 878:mtk_resgenerator.cpp ****         RESGEN_LOG_E("Didn't find SUBLCD's image.zip please check. ret=[%d]", GetLastError());
 879:mtk_resgenerator.cpp ****         exit(2);
 880:mtk_resgenerator.cpp ****     }
 881:mtk_resgenerator.cpp ****     FindClose(search);
 882:mtk_resgenerator.cpp **** 
 883:mtk_resgenerator.cpp ****     sprintf(tempCommand, "%s\\\\image_sub_zip_time_log", CUST_IMG_PATH_ROOT);
 884:mtk_resgenerator.cpp ****     zip_time_file = fopen(tempCommand, "rb");
 885:mtk_resgenerator.cpp ****     if (zip_time_file != NULL)
 886:mtk_resgenerator.cpp ****     {
 887:mtk_resgenerator.cpp ****         wsize = fread(&(zip_time_prev), sizeof(zip_time_prev), 1, zip_time_file);
 888:mtk_resgenerator.cpp ****         fclose(zip_time_file);
 889:mtk_resgenerator.cpp ****         if (wsize != 1)
 890:mtk_resgenerator.cpp ****         {
 891:mtk_resgenerator.cpp ****             RESGEN_LOG_E("Can't read [%s][%d][%d]", tempCommand, wsize, sizeof(file_data.ftLastWrit
 892:mtk_resgenerator.cpp ****             exit(2);
 893:mtk_resgenerator.cpp ****         }
 894:mtk_resgenerator.cpp **** 
 895:mtk_resgenerator.cpp ****         if (CompareFileTime(&(file_data.ftLastWriteTime), &(zip_time_prev)) == 0)
 896:mtk_resgenerator.cpp ****         {
 897:mtk_resgenerator.cpp ****             is_need_unzip = FALSE;
 898:mtk_resgenerator.cpp ****             fprintf(stderr, "SUBLCD's image.zip is not changed, skip Unzip process...\n");
 899:mtk_resgenerator.cpp ****         }
 900:mtk_resgenerator.cpp ****     }
 901:mtk_resgenerator.cpp **** 
 902:mtk_resgenerator.cpp ****     zip_time_file = fopen(tempCommand, "wb");
 903:mtk_resgenerator.cpp ****     if (zip_time_file == NULL)
 904:mtk_resgenerator.cpp ****     {
 905:mtk_resgenerator.cpp ****         RESGEN_LOG_E("[%s] could not open!", tempCommand);
 906:mtk_resgenerator.cpp ****         exit(2);
 907:mtk_resgenerator.cpp ****     }
 908:mtk_resgenerator.cpp **** 
 909:mtk_resgenerator.cpp ****     wsize = fwrite(&(file_data.ftLastWriteTime), sizeof(file_data.ftLastWriteTime), 1, zip_time_fil
 910:mtk_resgenerator.cpp ****     fclose(zip_time_file);
 911:mtk_resgenerator.cpp ****     if (wsize != 1)
 912:mtk_resgenerator.cpp ****     {
 913:mtk_resgenerator.cpp ****         RESGEN_LOG_E("Can't write [%s][%d][%d]", tempCommand, wsize, sizeof(file_data.ftLastWriteTi
 914:mtk_resgenerator.cpp ****         exit(2);
 915:mtk_resgenerator.cpp ****     }
 916:mtk_resgenerator.cpp **** 
 917:mtk_resgenerator.cpp **** 
 918:mtk_resgenerator.cpp ****     if (is_need_unzip || g_is_clean)
 919:mtk_resgenerator.cpp ****     {
 920:mtk_resgenerator.cpp ****         fprintf(stderr, "Start Unzip SUBLCD images ...output 3rd_tool.log\n");
 921:mtk_resgenerator.cpp **** 
 922:mtk_resgenerator.cpp ****         sprintf(tempCommand,"rd /S/Q %s\\sublcd\\ 2>> .\\debug\\3rd_tool.log", CUST_IMG_PATH_ROOT);
 923:mtk_resgenerator.cpp ****         execute_ext_command(tempCommand);
 924:mtk_resgenerator.cpp **** 
 925:mtk_resgenerator.cpp ****         sprintf(tempCommand, "7za.exe x -y %s\\image.zip -o%s\\ 2>> .\\debug\\3rd_tool.log", CUST_S
 926:mtk_resgenerator.cpp ****         execute_ext_command(tempCommand);
 927:mtk_resgenerator.cpp ****     }
 928:mtk_resgenerator.cpp **** 
 929:mtk_resgenerator.cpp **** #ifndef __OPTR_NONE__
 930:mtk_resgenerator.cpp ****     sprintf(tempCommand, "7za.exe x -y %s\\operator_image.zip -o%s\\ 2>> .\\debug\\3rd_tool.log", C
GAS LISTING d:/software/ovi_2503a_s3trc/ovi_2503a_s3trc/plutommi/Customer/ResGenerator/gcctmp/ccgnaaaa.s 			page 30


 931:mtk_resgenerator.cpp ****     RESGEN_LOG_V("[Dependency] plutommi\\Customer\\ResGenerator\\%s\\operator_image.zip\n", CUST_OP
 932:mtk_resgenerator.cpp ****     execute_ext_command(tempCommand);
 933:mtk_resgenerator.cpp **** #endif /* __OPTR_NONE__ */
 934:mtk_resgenerator.cpp **** 
 935:mtk_resgenerator.cpp **** #endif /* defined (CUST_SUBLCD_PATH) */
 936:mtk_resgenerator.cpp **** 
 937:mtk_resgenerator.cpp ****     RESGEN_LOG_V("[UnzipImage] end");
 3419              	LM62:
 3420 0aa5 C7442408 		movl	$LC31, 8(%esp)
 3420      FC080000 
 3421 0aad C7442404 		movl	$LC1, 4(%esp)
 3421      3E000000 
 3422 0ab5 C7042401 		movl	$1, (%esp)
 3422      000000
 3423 0abc E8000000 		call	_reslog_adaptor_log
 3423      00
 938:mtk_resgenerator.cpp **** }
 3425              	LM63:
 3426 0ac1 C9       		leave
 3427 0ac2 C3       		ret
 3428              	LBE3:
 3439              	Lscope1:
 3441              	LC32:
 3442 0ac3 5B556E7A 		.ascii "[UnzipAudio] start\0"
 3442      69704175 
 3442      64696F5D 
 3442      20737461 
 3442      727400
 3443 0ad6 8D76008D 		.align 32
 3443      BC270000 
 3443      0000
 3444              	LC33:
 3445 0ae0 2E2E5C5C 		.ascii "..\\\\..\\\\Customer\\\\AUDIO\\\\PLUTO\0"
 3445      2E2E5C5C 
 3445      43757374 
 3445      6F6D6572 
 3445      5C5C4155 
 3446              	LC34:
 3447 0aff 25735C61 		.ascii "%s\\audio.zip\0"
 3447      7564696F 
 3447      2E7A6970 
 3447      00
 3448 0b0c 90909090 		.align 32
 3448      90909090 
 3448      90909090 
 3448      90909090 
 3448      90909090 
 3449              	LC35:
 3450 0b20 5B446570 		.ascii "[Dependency] plutommi\\Customer\\ResGenerator\\%s\12\0"
 3450      656E6465 
 3450      6E63795D 
 3450      20706C75 
 3450      746F6D6D 
 3451 0b50 90909090 		.align 32
 3451      90909090 
 3451      90909090 
 3451      90909090 
GAS LISTING d:/software/ovi_2503a_s3trc/ovi_2503a_s3trc/plutommi/Customer/ResGenerator/gcctmp/ccgnaaaa.s 			page 31


 3452              	LC36:
 3453 0b60 4469646E 		.ascii "Didn't find audio.zip please check. ret=[%d] path=[%s]\0"
 3453      27742066 
 3453      696E6420 
 3453      61756469 
 3453      6F2E7A69 
 3454              	LC37:
 3455 0b97 25735C5C 		.ascii "%s\\\\audio_time_log\0"
 3455      61756469 
 3455      6F5F7469 
 3455      6D655F6C 
 3455      6F6700
 3456              	LC38:
 3457 0baa 726200   		.ascii "rb\0"
 3458              	LC39:
 3459 0bad 43616E27 		.ascii "Can't read [%s][%d][%d]\0"
 3459      74207265 
 3459      6164205B 
 3459      25735D5B 
 3459      25645D5B 
 3460 0bc5 90909090 		.align 32
 3460      90909090 
 3460      90909090 
 3460      90909090 
 3460      90909090 
 3461              	LC40:
 3462 0be0 41554449 		.ascii "AUDIO's audio.zip is not changed, skip Unzip process...\0"
 3462      4F277320 
 3462      61756469 
 3462      6F2E7A69 
 3462      70206973 
 3463 0c18 908DB426 		.align 32
 3463      00000000 
 3464              	LC41:
 3465 0c20 41554449 		.ascii "AUDIO's audio.zip is not changed, skip Unzip process...\12\0"
 3465      4F277320 
 3465      61756469 
 3465      6F2E7A69 
 3465      70206973 
 3466              	LC42:
 3467 0c59 776200   		.ascii "wb\0"
 3468              	LC43:
 3469 0c5c 5B25735D 		.ascii "[%s] could not open!\0"
 3469      20636F75 
 3469      6C64206E 
 3469      6F74206F 
 3469      70656E21 
 3470              	LC44:
 3471 0c71 43616E27 		.ascii "Can't write [%s][%d][%d]\0"
 3471      74207772 
 3471      69746520 
 3471      5B25735D 
 3471      5B25645D 
 3472 0c8a 90909090 		.align 32
 3472      90909090 
 3472      90909090 
 3472      90909090 
GAS LISTING d:/software/ovi_2503a_s3trc/ovi_2503a_s3trc/plutommi/Customer/ResGenerator/gcctmp/ccgnaaaa.s 			page 32


 3472      90909090 
 3473              	LC45:
 3474 0ca0 53746172 		.ascii "Start Unzip audios ...output 3rd_tool.log\12\0"
 3474      7420556E 
 3474      7A697020 
 3474      61756469 
 3474      6F73202E 
 3475 0ccb 90909090 		.align 32
 3475      90909090 
 3475      90909090 
 3475      90909090 
 3475      90909090 
 3476              	LC46:
 3477 0ce0 377A612E 		.ascii "7za.exe x -y %s\\audio.zip -o%s\\ 2>> .\\debug\\3rd_tool.log\0"
 3477      65786520 
 3477      78202D79 
 3477      2025735C 
 3477      61756469 
 3478              	LC47:
 3479 0d19 5B556E7A 		.ascii "[UnzipAudio] end\0"
 3479      69704175 
 3479      64696F5D 
 3479      20656E64 
 3479      00
 3480              		.align 2
 3483              	__Z10UnzipAudiov:
 939:mtk_resgenerator.cpp **** 
 940:mtk_resgenerator.cpp **** 
 941:mtk_resgenerator.cpp **** /*****************************************************************************
 942:mtk_resgenerator.cpp **** * FUNCTION
 943:mtk_resgenerator.cpp **** *  UnzipAudio
 944:mtk_resgenerator.cpp **** * DESCRIPTION
 945:mtk_resgenerator.cpp **** *  unzip audio to the destination folder
 946:mtk_resgenerator.cpp **** * PARAMETERS
 947:mtk_resgenerator.cpp **** *  void
 948:mtk_resgenerator.cpp **** * RETURNS
 949:mtk_resgenerator.cpp **** *  void
 950:mtk_resgenerator.cpp **** *****************************************************************************/
 951:mtk_resgenerator.cpp **** static void UnzipAudio(void)
 952:mtk_resgenerator.cpp **** {
 3485              	LM64:
 3486 0d2a 55       		pushl	%ebp
 3487 0d2b 89E5     		movl	%esp, %ebp
 3488 0d2d 81ECC803 		subl	$968, %esp
 3488      0000
 953:mtk_resgenerator.cpp ****     /*----------------------------------------------------------------*/
 954:mtk_resgenerator.cpp ****     /* Local Variables                                                */
 955:mtk_resgenerator.cpp ****     /*----------------------------------------------------------------*/
 956:mtk_resgenerator.cpp ****     char tempCommand[UNZIP_CMD_BUFLEN];
 957:mtk_resgenerator.cpp **** 
 958:mtk_resgenerator.cpp ****     WIN32_FIND_DATA file_data;
 959:mtk_resgenerator.cpp ****     WIN32_FIND_DATA folder_data;
 960:mtk_resgenerator.cpp ****     HANDLE search = NULL;
 3490              	LM65:
 3491              	LBB4:
 3492 0d33 C78574FC 		movl	$0, -908(%ebp)
 3492      FFFF0000 
GAS LISTING d:/software/ovi_2503a_s3trc/ovi_2503a_s3trc/plutommi/Customer/ResGenerator/gcctmp/ccgnaaaa.s 			page 33


 3492      0000
 961:mtk_resgenerator.cpp ****     BOOL is_need_unzip = TRUE;
 3494              	LM66:
 3495 0d3d C78570FC 		movl	$1, -912(%ebp)
 3495      FFFF0100 
 3495      0000
 962:mtk_resgenerator.cpp **** 
 963:mtk_resgenerator.cpp ****     FILE *zip_time_file = NULL;
 3497              	LM67:
 3498 0d47 C7856CFC 		movl	$0, -916(%ebp)
 3498      FFFF0000 
 3498      0000
 964:mtk_resgenerator.cpp ****     S32 wsize;
 965:mtk_resgenerator.cpp ****     FILETIME zip_time_prev;
 966:mtk_resgenerator.cpp ****     /*----------------------------------------------------------------*/
 967:mtk_resgenerator.cpp ****     /* Code Body                                                      */
 968:mtk_resgenerator.cpp ****     /*----------------------------------------------------------------*/
 969:mtk_resgenerator.cpp ****     RESGEN_LOG_V("[UnzipAudio] start");
 3500              	LM68:
 3501 0d51 C7442408 		movl	$LC32, 8(%esp)
 3501      C30A0000 
 3502 0d59 C7442404 		movl	$LC1, 4(%esp)
 3502      3E000000 
 3503 0d61 C7042401 		movl	$1, (%esp)
 3503      000000
 3504 0d68 E8000000 		call	_reslog_adaptor_log
 3504      00
 970:mtk_resgenerator.cpp ****     sprintf(tempCommand, "%s\\audio.zip", CUST_ADO_PATH);
 3506              	LM69:
 3507 0d6d C7442408 		movl	$LC33, 8(%esp)
 3507      E00A0000 
 3508 0d75 C7442404 		movl	$LC34, 4(%esp)
 3508      FF0A0000 
 3509 0d7d 8D85F8FE 		leal	-264(%ebp), %eax
 3509      FFFF
 3510 0d83 890424   		movl	%eax, (%esp)
 3511 0d86 E8000000 		call	_sprintf
 3511      00
 971:mtk_resgenerator.cpp ****     RESGEN_LOG_V("[Dependency] plutommi\\Customer\\ResGenerator\\%s\n", tempCommand);
 3513              	LM70:
 3514 0d8b 8D85F8FE 		leal	-264(%ebp), %eax
 3514      FFFF
 3515 0d91 8944240C 		movl	%eax, 12(%esp)
 3516 0d95 C7442408 		movl	$LC35, 8(%esp)
 3516      200B0000 
 3517 0d9d C7442404 		movl	$LC1, 4(%esp)
 3517      3E000000 
 3518 0da5 C7042401 		movl	$1, (%esp)
 3518      000000
 3519 0dac E8000000 		call	_reslog_adaptor_log
 3519      00
 972:mtk_resgenerator.cpp ****     search = FindFirstFile(tempCommand, &file_data);
 3521              	LM71:
 3522 0db1 8D85B8FD 		leal	-584(%ebp), %eax
 3522      FFFF
 3523 0db7 89442404 		movl	%eax, 4(%esp)
 3524 0dbb 8D85F8FE 		leal	-264(%ebp), %eax
GAS LISTING d:/software/ovi_2503a_s3trc/ovi_2503a_s3trc/plutommi/Customer/ResGenerator/gcctmp/ccgnaaaa.s 			page 34


 3524      FFFF
 3525 0dc1 890424   		movl	%eax, (%esp)
 3526 0dc4 E8000000 		call	_FindFirstFileA@8
 3526      00
 3527 0dc9 83EC08   		subl	$8, %esp
 3528 0dcc 898574FC 		movl	%eax, -908(%ebp)
 3528      FFFF
 973:mtk_resgenerator.cpp ****     if (search == INVALID_HANDLE_VALUE)
 3530              	LM72:
 3531 0dd2 83BD74FC 		cmpl	$-1, -908(%ebp)
 3531      FFFFFF
 3532 0dd9 753D     		jne	L28
 974:mtk_resgenerator.cpp ****     {
 975:mtk_resgenerator.cpp ****         RESGEN_LOG_E("Didn't find audio.zip please check. ret=[%d] path=[%s]", GetLastError(), temp
 3534              	LM73:
 3535 0ddb E8000000 		call	_GetLastError@0
 3535      00
 3536 0de0 89C2     		movl	%eax, %edx
 3537 0de2 8D85F8FE 		leal	-264(%ebp), %eax
 3537      FFFF
 3538 0de8 89442410 		movl	%eax, 16(%esp)
 3539 0dec 8954240C 		movl	%edx, 12(%esp)
 3540 0df0 C7442408 		movl	$LC36, 8(%esp)
 3540      600B0000 
 3541 0df8 C7442404 		movl	$LC1, 4(%esp)
 3541      3E000000 
 3542 0e00 C7042403 		movl	$3, (%esp)
 3542      000000
 3543 0e07 E8000000 		call	_reslog_adaptor_log
 3543      00
 976:mtk_resgenerator.cpp ****         exit(2);
 3545              	LM74:
 3546 0e0c C7042402 		movl	$2, (%esp)
 3546      000000
 3547 0e13 E8000000 		call	_exit
 3547      00
 3548              	L28:
 977:mtk_resgenerator.cpp ****     }
 978:mtk_resgenerator.cpp ****     FindClose(search);
 3550              	LM75:
 3551 0e18 8B8574FC 		movl	-908(%ebp), %eax
 3551      FFFF
 3552 0e1e 890424   		movl	%eax, (%esp)
 3553 0e21 E8000000 		call	_FindClose@4
 3553      00
 3554 0e26 83EC04   		subl	$4, %esp
 979:mtk_resgenerator.cpp **** 
 980:mtk_resgenerator.cpp ****     sprintf(tempCommand, "%s\\\\audio_time_log", CUST_ADO_PATH);
 3556              	LM76:
 3557 0e29 C7442408 		movl	$LC33, 8(%esp)
 3557      E00A0000 
 3558 0e31 C7442404 		movl	$LC37, 4(%esp)
 3558      970B0000 
 3559 0e39 8D85F8FE 		leal	-264(%ebp), %eax
 3559      FFFF
 3560 0e3f 890424   		movl	%eax, (%esp)
 3561 0e42 E8000000 		call	_sprintf
GAS LISTING d:/software/ovi_2503a_s3trc/ovi_2503a_s3trc/plutommi/Customer/ResGenerator/gcctmp/ccgnaaaa.s 			page 35


 3561      00
 981:mtk_resgenerator.cpp ****     zip_time_file = fopen(tempCommand, "rb");
 3563              	LM77:
 3564 0e47 C7442404 		movl	$LC38, 4(%esp)
 3564      AA0B0000 
 3565 0e4f 8D85F8FE 		leal	-264(%ebp), %eax
 3565      FFFF
 3566 0e55 890424   		movl	%eax, (%esp)
 3567 0e58 E8000000 		call	_fopen
 3567      00
 3568 0e5d 89856CFC 		movl	%eax, -916(%ebp)
 3568      FFFF
 982:mtk_resgenerator.cpp ****     if (zip_time_file != NULL)
 3570              	LM78:
 3571 0e63 83BD6CFC 		cmpl	$0, -916(%ebp)
 3571      FFFF00
 3572 0e6a 0F84E900 		je	L29
 3572      0000
 983:mtk_resgenerator.cpp ****     {
 984:mtk_resgenerator.cpp ****         wsize = fread(&(zip_time_prev), sizeof(zip_time_prev), 1, zip_time_file);
 3574              	LM79:
 3575 0e70 8B856CFC 		movl	-916(%ebp), %eax
 3575      FFFF
 3576 0e76 8944240C 		movl	%eax, 12(%esp)
 3577 0e7a C7442408 		movl	$1, 8(%esp)
 3577      01000000 
 3578 0e82 C7442404 		movl	$8, 4(%esp)
 3578      08000000 
 3579 0e8a 8D8560FC 		leal	-928(%ebp), %eax
 3579      FFFF
 3580 0e90 890424   		movl	%eax, (%esp)
 3581 0e93 E8000000 		call	_fread
 3581      00
 3582 0e98 898568FC 		movl	%eax, -920(%ebp)
 3582      FFFF
 985:mtk_resgenerator.cpp ****         fclose(zip_time_file);
 3584              	LM80:
 3585 0e9e 8B856CFC 		movl	-916(%ebp), %eax
 3585      FFFF
 3586 0ea4 890424   		movl	%eax, (%esp)
 3587 0ea7 E8000000 		call	_fclose
 3587      00
 986:mtk_resgenerator.cpp ****         if (wsize != 1)
 3589              	LM81:
 3590 0eac 83BD68FC 		cmpl	$1, -920(%ebp)
 3590      FFFF01
 3591 0eb3 7444     		je	L30
 987:mtk_resgenerator.cpp ****         {
 988:mtk_resgenerator.cpp ****             RESGEN_LOG_E("Can't read [%s][%d][%d]", tempCommand, wsize, sizeof(file_data.ftLastWrit
 3593              	LM82:
 3594 0eb5 C7442414 		movl	$8, 20(%esp)
 3594      08000000 
 3595 0ebd 8B8568FC 		movl	-920(%ebp), %eax
 3595      FFFF
 3596 0ec3 89442410 		movl	%eax, 16(%esp)
 3597 0ec7 8D85F8FE 		leal	-264(%ebp), %eax
 3597      FFFF
GAS LISTING d:/software/ovi_2503a_s3trc/ovi_2503a_s3trc/plutommi/Customer/ResGenerator/gcctmp/ccgnaaaa.s 			page 36


 3598 0ecd 8944240C 		movl	%eax, 12(%esp)
 3599 0ed1 C7442408 		movl	$LC39, 8(%esp)
 3599      AD0B0000 
 3600 0ed9 C7442404 		movl	$LC1, 4(%esp)
 3600      3E000000 
 3601 0ee1 C7042403 		movl	$3, (%esp)
 3601      000000
 3602 0ee8 E8000000 		call	_reslog_adaptor_log
 3602      00
 989:mtk_resgenerator.cpp ****             exit(2);
 3604              	LM83:
 3605 0eed C7042402 		movl	$2, (%esp)
 3605      000000
 3606 0ef4 E8000000 		call	_exit
 3606      00
 3607              	L30:
 990:mtk_resgenerator.cpp ****         }
 991:mtk_resgenerator.cpp **** 
 992:mtk_resgenerator.cpp ****         if (CompareFileTime(&(file_data.ftLastWriteTime), &(zip_time_prev)) == 0)
 3609              	LM84:
 3610 0ef9 8D8560FC 		leal	-928(%ebp), %eax
 3610      FFFF
 3611 0eff 89442404 		movl	%eax, 4(%esp)
 3612 0f03 8D85B8FD 		leal	-584(%ebp), %eax
 3612      FFFF
 3613 0f09 83C014   		addl	$20, %eax
 3614 0f0c 890424   		movl	%eax, (%esp)
 3615 0f0f E8000000 		call	_CompareFileTime@8
 3615      00
 3616 0f14 83EC08   		subl	$8, %esp
 3617 0f17 85C0     		testl	%eax, %eax
 3618 0f19 753E     		jne	L29
 993:mtk_resgenerator.cpp ****         {
 994:mtk_resgenerator.cpp ****             is_need_unzip = FALSE;
 3620              	LM85:
 3621 0f1b C78570FC 		movl	$0, -912(%ebp)
 3621      FFFF0000 
 3621      0000
 995:mtk_resgenerator.cpp ****             RESGEN_LOG_V("AUDIO's audio.zip is not changed, skip Unzip process...");
 3623              	LM86:
 3624 0f25 C7442408 		movl	$LC40, 8(%esp)
 3624      E00B0000 
 3625 0f2d C7442404 		movl	$LC1, 4(%esp)
 3625      3E000000 
 3626 0f35 C7042401 		movl	$1, (%esp)
 3626      000000
 3627 0f3c E8000000 		call	_reslog_adaptor_log
 3627      00
 996:mtk_resgenerator.cpp ****             fprintf(stderr, "AUDIO's audio.zip is not changed, skip Unzip process...\n");
 3629              	LM87:
 3630 0f41 C7442404 		movl	$LC41, 4(%esp)
 3630      200C0000 
 3631 0f49 A1000000 		movl	__imp___iob, %eax
 3631      00
 3632 0f4e 83C040   		addl	$64, %eax
 3633 0f51 890424   		movl	%eax, (%esp)
 3634 0f54 E8000000 		call	_fprintf
GAS LISTING d:/software/ovi_2503a_s3trc/ovi_2503a_s3trc/plutommi/Customer/ResGenerator/gcctmp/ccgnaaaa.s 			page 37


 3634      00
 3635              	L29:
 997:mtk_resgenerator.cpp ****         }
 998:mtk_resgenerator.cpp ****     }
 999:mtk_resgenerator.cpp **** 
1000:mtk_resgenerator.cpp ****     zip_time_file = fopen(tempCommand, "wb");
 3637              	LM88:
 3638 0f59 C7442404 		movl	$LC42, 4(%esp)
 3638      590C0000 
 3639 0f61 8D85F8FE 		leal	-264(%ebp), %eax
 3639      FFFF
 3640 0f67 890424   		movl	%eax, (%esp)
 3641 0f6a E8000000 		call	_fopen
 3641      00
 3642 0f6f 89856CFC 		movl	%eax, -916(%ebp)
 3642      FFFF
1001:mtk_resgenerator.cpp ****     if (zip_time_file == NULL)
 3644              	LM89:
 3645 0f75 83BD6CFC 		cmpl	$0, -916(%ebp)
 3645      FFFF00
 3646 0f7c 7532     		jne	L32
1002:mtk_resgenerator.cpp ****     {
1003:mtk_resgenerator.cpp ****         RESGEN_LOG_E("[%s] could not open!", tempCommand);
 3648              	LM90:
 3649 0f7e 8D85F8FE 		leal	-264(%ebp), %eax
 3649      FFFF
 3650 0f84 8944240C 		movl	%eax, 12(%esp)
 3651 0f88 C7442408 		movl	$LC43, 8(%esp)
 3651      5C0C0000 
 3652 0f90 C7442404 		movl	$LC1, 4(%esp)
 3652      3E000000 
 3653 0f98 C7042403 		movl	$3, (%esp)
 3653      000000
 3654 0f9f E8000000 		call	_reslog_adaptor_log
 3654      00
1004:mtk_resgenerator.cpp ****         exit(2);
 3656              	LM91:
 3657 0fa4 C7042402 		movl	$2, (%esp)
 3657      000000
 3658 0fab E8000000 		call	_exit
 3658      00
 3659              	L32:
1005:mtk_resgenerator.cpp ****     }
1006:mtk_resgenerator.cpp **** 
1007:mtk_resgenerator.cpp ****     wsize = fwrite(&(file_data.ftLastWriteTime), sizeof(file_data.ftLastWriteTime), 1, zip_time_fil
 3661              	LM92:
 3662 0fb0 8B856CFC 		movl	-916(%ebp), %eax
 3662      FFFF
 3663 0fb6 8944240C 		movl	%eax, 12(%esp)
 3664 0fba C7442408 		movl	$1, 8(%esp)
 3664      01000000 
 3665 0fc2 C7442404 		movl	$8, 4(%esp)
 3665      08000000 
 3666 0fca 8D85B8FD 		leal	-584(%ebp), %eax
 3666      FFFF
 3667 0fd0 83C014   		addl	$20, %eax
 3668 0fd3 890424   		movl	%eax, (%esp)
GAS LISTING d:/software/ovi_2503a_s3trc/ovi_2503a_s3trc/plutommi/Customer/ResGenerator/gcctmp/ccgnaaaa.s 			page 38


 3669 0fd6 E8000000 		call	_fwrite
 3669      00
 3670 0fdb 898568FC 		movl	%eax, -920(%ebp)
 3670      FFFF
1008:mtk_resgenerator.cpp ****     fclose(zip_time_file);
 3672              	LM93:
 3673 0fe1 8B856CFC 		movl	-916(%ebp), %eax
 3673      FFFF
 3674 0fe7 890424   		movl	%eax, (%esp)
 3675 0fea E8000000 		call	_fclose
 3675      00
1009:mtk_resgenerator.cpp ****     if (wsize != 1)
 3677              	LM94:
 3678 0fef 83BD68FC 		cmpl	$1, -920(%ebp)
 3678      FFFF01
 3679 0ff6 7444     		je	L33
1010:mtk_resgenerator.cpp ****     {
1011:mtk_resgenerator.cpp ****         RESGEN_LOG_E("Can't write [%s][%d][%d]", tempCommand, wsize, sizeof(file_data.ftLastWriteTi
 3681              	LM95:
 3682 0ff8 C7442414 		movl	$8, 20(%esp)
 3682      08000000 
 3683 1000 8B8568FC 		movl	-920(%ebp), %eax
 3683      FFFF
 3684 1006 89442410 		movl	%eax, 16(%esp)
 3685 100a 8D85F8FE 		leal	-264(%ebp), %eax
 3685      FFFF
 3686 1010 8944240C 		movl	%eax, 12(%esp)
 3687 1014 C7442408 		movl	$LC44, 8(%esp)
 3687      710C0000 
 3688 101c C7442404 		movl	$LC1, 4(%esp)
 3688      3E000000 
 3689 1024 C7042403 		movl	$3, (%esp)
 3689      000000
 3690 102b E8000000 		call	_reslog_adaptor_log
 3690      00
1012:mtk_resgenerator.cpp ****         exit(2);
 3692              	LM96:
 3693 1030 C7042402 		movl	$2, (%esp)
 3693      000000
 3694 1037 E8000000 		call	_exit
 3694      00
 3695              	L33:
1013:mtk_resgenerator.cpp ****     }
1014:mtk_resgenerator.cpp **** 
1015:mtk_resgenerator.cpp **** 
1016:mtk_resgenerator.cpp ****     if (is_need_unzip || g_is_clean)
 3697              	LM97:
 3698 103c 83BD70FC 		cmpl	$0, -912(%ebp)
 3698      FFFF00
 3699 1043 750B     		jne	L35
 3700 1045 833D0000 		cmpl	$0, _g_is_clean
 3700      000000
 3701 104c 7502     		jne	L35
 3702 104e EB4C     		jmp	L34
 3703              	L35:
1017:mtk_resgenerator.cpp ****     {
1018:mtk_resgenerator.cpp ****         fprintf(stderr, "Start Unzip audios ...output 3rd_tool.log\n");
GAS LISTING d:/software/ovi_2503a_s3trc/ovi_2503a_s3trc/plutommi/Customer/ResGenerator/gcctmp/ccgnaaaa.s 			page 39


 3705              	LM98:
 3706 1050 C7442404 		movl	$LC45, 4(%esp)
 3706      A00C0000 
 3707 1058 A1000000 		movl	__imp___iob, %eax
 3707      00
 3708 105d 83C040   		addl	$64, %eax
 3709 1060 890424   		movl	%eax, (%esp)
 3710 1063 E8000000 		call	_fprintf
 3710      00
1019:mtk_resgenerator.cpp **** 
1020:mtk_resgenerator.cpp ****         sprintf(tempCommand, "7za.exe x -y %s\\audio.zip -o%s\\ 2>> .\\debug\\3rd_tool.log", CUST_A
 3712              	LM99:
 3713 1068 C744240C 		movl	$LC33, 12(%esp)
 3713      E00A0000 
 3714 1070 C7442408 		movl	$LC33, 8(%esp)
 3714      E00A0000 
 3715 1078 C7442404 		movl	$LC46, 4(%esp)
 3715      E00C0000 
 3716 1080 8D85F8FE 		leal	-264(%ebp), %eax
 3716      FFFF
 3717 1086 890424   		movl	%eax, (%esp)
 3718 1089 E8000000 		call	_sprintf
 3718      00
1021:mtk_resgenerator.cpp ****         execute_ext_command(tempCommand);
 3720              	LM100:
 3721 108e 8D85F8FE 		leal	-264(%ebp), %eax
 3721      FFFF
 3722 1094 890424   		movl	%eax, (%esp)
 3723 1097 E8000000 		call	_execute_ext_command
 3723      00
 3724              	L34:
1022:mtk_resgenerator.cpp ****     }
1023:mtk_resgenerator.cpp **** #ifndef __OPTR_NONE__
1024:mtk_resgenerator.cpp ****     sprintf(tempCommand, "7za.exe x -y %s\\operator_audio.zip -o%s\\ 2>> .\\debug\\3rd_tool.log", C
1025:mtk_resgenerator.cpp ****     RESGEN_LOG_V("[Dependency] plutommi\\Customer\\ResGenerator\\%s\\operator_audio.zip\n", CUST_OP
1026:mtk_resgenerator.cpp ****     execute_ext_command(tempCommand);
1027:mtk_resgenerator.cpp **** #endif /* __OPTR_NONE__ */
1028:mtk_resgenerator.cpp **** 
1029:mtk_resgenerator.cpp ****     RESGEN_LOG_V("[UnzipAudio] end");
 3726              	LM101:
 3727 109c C7442408 		movl	$LC47, 8(%esp)
 3727      190D0000 
 3728 10a4 C7442404 		movl	$LC1, 4(%esp)
 3728      3E000000 
 3729 10ac C7042401 		movl	$1, (%esp)
 3729      000000
 3730 10b3 E8000000 		call	_reslog_adaptor_log
 3730      00
1030:mtk_resgenerator.cpp **** }
 3732              	LM102:
 3733 10b8 C9       		leave
 3734 10b9 C3       		ret
 3735              	LBE4:
 3746              	Lscope2:
 3748              		.align 2
 3751              	.globl _MtkResgenTrace
 3753              	_MtkResgenTrace:
GAS LISTING d:/software/ovi_2503a_s3trc/ovi_2503a_s3trc/plutommi/Customer/ResGenerator/gcctmp/ccgnaaaa.s 			page 40


1031:mtk_resgenerator.cpp **** 
1032:mtk_resgenerator.cpp **** 
1033:mtk_resgenerator.cpp **** /*****************************************************************************
1034:mtk_resgenerator.cpp **** * FUNCTION
1035:mtk_resgenerator.cpp **** *  Trace
1036:mtk_resgenerator.cpp **** * DESCRIPTION
1037:mtk_resgenerator.cpp **** *
1038:mtk_resgenerator.cpp **** * PARAMETERS
1039:mtk_resgenerator.cpp **** *  fmt     [IN]
1040:mtk_resgenerator.cpp **** * RETURNS
1041:mtk_resgenerator.cpp **** *  void
1042:mtk_resgenerator.cpp **** *****************************************************************************/
1043:mtk_resgenerator.cpp **** extern "C" void MtkResgenTrace(char *fmt,...)
1044:mtk_resgenerator.cpp **** {
 3755              	LM103:
 3756 10ba 55       		pushl	%ebp
 3757 10bb 89E5     		movl	%esp, %ebp
1045:mtk_resgenerator.cpp ****     return;
1046:mtk_resgenerator.cpp **** #if 0    
1047:mtk_resgenerator.cpp **** /* under construction !*/
1048:mtk_resgenerator.cpp **** /* under construction !*/
1049:mtk_resgenerator.cpp **** /* under construction !*/
1050:mtk_resgenerator.cpp **** /* under construction !*/
1051:mtk_resgenerator.cpp **** /* under construction !*/
1052:mtk_resgenerator.cpp **** /* under construction !*/
1053:mtk_resgenerator.cpp **** /* under construction !*/
1054:mtk_resgenerator.cpp **** /* under construction !*/
1055:mtk_resgenerator.cpp **** /* under construction !*/
1056:mtk_resgenerator.cpp **** /* under construction !*/
1057:mtk_resgenerator.cpp **** /* under construction !*/
1058:mtk_resgenerator.cpp **** /* under construction !*/
1059:mtk_resgenerator.cpp **** /* under construction !*/
1060:mtk_resgenerator.cpp **** /* under construction !*/
1061:mtk_resgenerator.cpp **** #endif    
1062:mtk_resgenerator.cpp **** }
 3759              	LM104:
 3760 10bd 5D       		popl	%ebp
 3761 10be C3       		ret
 3762              	Lscope3:
 3764 10bf 90       		.align 2
 3772              	__Z21PopulateSearchMap_ExtP13CUSTOM_ID_MAPP20CUSTOM_ID_SEARCH_MAPPtS3_t:
1063:mtk_resgenerator.cpp **** 
1064:mtk_resgenerator.cpp **** 
1065:mtk_resgenerator.cpp **** /*****************************************************************************
1066:mtk_resgenerator.cpp **** * FUNCTION
1067:mtk_resgenerator.cpp **** *  PopulateSearchMap_Ext
1068:mtk_resgenerator.cpp **** * DESCRIPTION
1069:mtk_resgenerator.cpp **** *  populate search map
1070:mtk_resgenerator.cpp **** * PARAMETERS
1071:mtk_resgenerator.cpp **** *  pIdMap              [IN]    ID map
1072:mtk_resgenerator.cpp **** *  pIdSearchMap        [OUT]   ID search map
1073:mtk_resgenerator.cpp **** *  pCurrMaxId          [OUT]   current max ID
1074:mtk_resgenerator.cpp **** *  pCurrMaxSearchId    [OUT]   current max search ID
1075:mtk_resgenerator.cpp **** *  MaxIdSize           [IN]    max ID
1076:mtk_resgenerator.cpp **** * RETURNS
1077:mtk_resgenerator.cpp **** *  void
1078:mtk_resgenerator.cpp **** *****************************************************************************/
GAS LISTING d:/software/ovi_2503a_s3trc/ovi_2503a_s3trc/plutommi/Customer/ResGenerator/gcctmp/ccgnaaaa.s 			page 41


1079:mtk_resgenerator.cpp **** static void PopulateSearchMap_Ext(
1080:mtk_resgenerator.cpp ****                                   CUSTOM_ID_MAP *pIdMap,
1081:mtk_resgenerator.cpp ****                                   CUSTOM_ID_SEARCH_MAP *pIdSearchMap,
1082:mtk_resgenerator.cpp ****                                   unsigned short *pCurrMaxId,
1083:mtk_resgenerator.cpp ****                                   unsigned short *pCurrMaxSearchId,
1084:mtk_resgenerator.cpp ****                                   U16 MaxIdSize)
1085:mtk_resgenerator.cpp **** {
 3774              	LM105:
 3775 10c0 55       		pushl	%ebp
 3776 10c1 89E5     		movl	%esp, %ebp
 3777 10c3 56       		pushl	%esi
 3778 10c4 53       		pushl	%ebx
 3779 10c5 83EC0C   		subl	$12, %esp
 3780 10c8 8B4518   		movl	24(%ebp), %eax
 3781 10cb 668945F6 		movw	%ax, -10(%ebp)
1086:mtk_resgenerator.cpp **** 
1087:mtk_resgenerator.cpp ****     /*----------------------------------------------------------------*/
1088:mtk_resgenerator.cpp ****     /* Local Variables                                                */
1089:mtk_resgenerator.cpp ****     /*----------------------------------------------------------------*/
1090:mtk_resgenerator.cpp ****     U16 i = 0, j = 0;
 3783              	LM106:
 3784              	LBB5:
 3785 10cf 66C745F4 		movw	$0, -12(%ebp)
 3785      0000
 3786 10d5 66C745F2 		movw	$0, -14(%ebp)
 3786      0000
1091:mtk_resgenerator.cpp ****     U16 index = 0, start = 0;
 3788              	LM107:
 3789 10db 66C745F0 		movw	$0, -16(%ebp)
 3789      0000
 3790 10e1 66C745EE 		movw	$0, -18(%ebp)
 3790      0000
1092:mtk_resgenerator.cpp **** 
1093:mtk_resgenerator.cpp ****     /*----------------------------------------------------------------*/
1094:mtk_resgenerator.cpp ****     /* Code Body                                                      */
1095:mtk_resgenerator.cpp ****     /*----------------------------------------------------------------*/
1096:mtk_resgenerator.cpp ****     /* Filed the min ID and max Id for search map structure */
1097:mtk_resgenerator.cpp ****     for (i = 0; i < MaxIdSize; i++)
 3792              	LM108:
 3793 10e7 66C745F4 		movw	$0, -12(%ebp)
 3793      0000
 3794              	L38:
 3795 10ed 8B45F4   		movl	-12(%ebp), %eax
 3796 10f0 663B45F6 		cmpw	-10(%ebp), %ax
 3797 10f4 7205     		jb	L41
 3798 10f6 E9B10000 		jmp	L39
 3798      00
 3799              	L41:
1098:mtk_resgenerator.cpp ****     {
1099:mtk_resgenerator.cpp ****         if (pIdMap[i].Num != ((U16) - 1))
 3801              	LM109:
 3802 10fb 0FB745F4 		movzwl	-12(%ebp), %eax
 3803 10ff 8D1400   		leal	(%eax,%eax), %edx
 3804 1102 8B4508   		movl	8(%ebp), %eax
 3805 1105 66833C10 		cmpw	$-1, (%eax,%edx)
 3805      FF
 3806 110a 747D     		je	L42
GAS LISTING d:/software/ovi_2503a_s3trc/ovi_2503a_s3trc/plutommi/Customer/ResGenerator/gcctmp/ccgnaaaa.s 			page 42


1100:mtk_resgenerator.cpp ****         {
1101:mtk_resgenerator.cpp ****             if (!start)
 3808              	LM110:
 3809 110c 66837DEE 		cmpw	$0, -18(%ebp)
 3809      00
 3810 1111 7554     		jne	L43
1102:mtk_resgenerator.cpp ****             {
1103:mtk_resgenerator.cpp ****                 pIdSearchMap[j].minId = pIdSearchMap[j].maxId = i;
 3812              	LM111:
 3813 1113 0FB755F2 		movzwl	-14(%ebp), %edx
 3814 1117 89D0     		movl	%edx, %eax
 3815 1119 01C0     		addl	%eax, %eax
 3816 111b 01D0     		addl	%edx, %eax
 3817 111d 8D1C00   		leal	(%eax,%eax), %ebx
 3818 1120 8B750C   		movl	12(%ebp), %esi
 3819 1123 0FB755F2 		movzwl	-14(%ebp), %edx
 3820 1127 89D0     		movl	%edx, %eax
 3821 1129 01C0     		addl	%eax, %eax
 3822 112b 01D0     		addl	%edx, %eax
 3823 112d 8D0C00   		leal	(%eax,%eax), %ecx
 3824 1130 8B550C   		movl	12(%ebp), %edx
 3825 1133 8B45F4   		movl	-12(%ebp), %eax
 3826 1136 6689440A 		movw	%ax, 2(%edx,%ecx)
 3826      02
 3827 113b 6689041E 		movw	%ax, (%esi,%ebx)
1104:mtk_resgenerator.cpp ****                 pIdSearchMap[j].index = index;
 3829              	LM112:
 3830 113f 0FB755F2 		movzwl	-14(%ebp), %edx
 3831 1143 89D0     		movl	%edx, %eax
 3832 1145 01C0     		addl	%eax, %eax
 3833 1147 01D0     		addl	%edx, %eax
 3834 1149 8D0C00   		leal	(%eax,%eax), %ecx
 3835 114c 8B550C   		movl	12(%ebp), %edx
 3836 114f 8B45F0   		movl	-16(%ebp), %eax
 3837 1152 6689440A 		movw	%ax, 4(%edx,%ecx)
 3837      04
1105:mtk_resgenerator.cpp ****                 index++;
 3839              	LM113:
 3840 1157 8B45F0   		movl	-16(%ebp), %eax
 3841 115a 40       		incl	%eax
 3842 115b 668945F0 		movw	%ax, -16(%ebp)
1106:mtk_resgenerator.cpp ****                 start = 1;
 3844              	LM114:
 3845 115f 66C745EE 		movw	$1, -18(%ebp)
 3845      0100
 3846 1165 EB38     		jmp	L40
 3847              	L43:
1107:mtk_resgenerator.cpp ****             }
1108:mtk_resgenerator.cpp ****             else
1109:mtk_resgenerator.cpp ****             {
1110:mtk_resgenerator.cpp ****                 pIdSearchMap[j].maxId = i;
 3849              	LM115:
 3850 1167 0FB755F2 		movzwl	-14(%ebp), %edx
 3851 116b 89D0     		movl	%edx, %eax
 3852 116d 01C0     		addl	%eax, %eax
 3853 116f 01D0     		addl	%edx, %eax
 3854 1171 8D0C00   		leal	(%eax,%eax), %ecx
GAS LISTING d:/software/ovi_2503a_s3trc/ovi_2503a_s3trc/plutommi/Customer/ResGenerator/gcctmp/ccgnaaaa.s 			page 43


 3855 1174 8B550C   		movl	12(%ebp), %edx
 3856 1177 8B45F4   		movl	-12(%ebp), %eax
 3857 117a 6689440A 		movw	%ax, 2(%edx,%ecx)
 3857      02
1111:mtk_resgenerator.cpp ****                 index++;
 3859              	LM116:
 3860 117f 8B45F0   		movl	-16(%ebp), %eax
 3861 1182 40       		incl	%eax
 3862 1183 668945F0 		movw	%ax, -16(%ebp)
 3863 1187 EB16     		jmp	L40
 3864              	L42:
1112:mtk_resgenerator.cpp ****             }
1113:mtk_resgenerator.cpp ****         }
1114:mtk_resgenerator.cpp ****         else
1115:mtk_resgenerator.cpp ****         {
1116:mtk_resgenerator.cpp ****             if (start)
 3866              	LM117:
 3867 1189 66837DEE 		cmpw	$0, -18(%ebp)
 3867      00
 3868 118e 740F     		je	L40
1117:mtk_resgenerator.cpp ****             {
1118:mtk_resgenerator.cpp ****                 j++;
 3870              	LM118:
 3871 1190 0FB745F2 		movzwl	-14(%ebp), %eax
 3872 1194 40       		incl	%eax
 3873 1195 668945F2 		movw	%ax, -14(%ebp)
1119:mtk_resgenerator.cpp ****                 start = 0;
 3875              	LM119:
 3876 1199 66C745EE 		movw	$0, -18(%ebp)
 3876      0000
 3878              	LM120:
 3879              	L40:
 3880 119f 8B45F4   		movl	-12(%ebp), %eax
 3881 11a2 40       		incl	%eax
 3882 11a3 668945F4 		movw	%ax, -12(%ebp)
 3883 11a7 E941FFFF 		jmp	L38
 3883      FF
 3884              	L39:
1120:mtk_resgenerator.cpp ****             }
1121:mtk_resgenerator.cpp ****         }
1122:mtk_resgenerator.cpp ****     }
1123:mtk_resgenerator.cpp **** 
1124:mtk_resgenerator.cpp ****     /* Find current max id */
1125:mtk_resgenerator.cpp ****     *pCurrMaxSearchId = j;
 3886              	LM121:
 3887 11ac 8B5514   		movl	20(%ebp), %edx
 3888 11af 0FB745F2 		movzwl	-14(%ebp), %eax
 3889 11b3 668902   		movw	%ax, (%edx)
1126:mtk_resgenerator.cpp ****     j = 0;
 3891              	LM122:
 3892 11b6 66C745F2 		movw	$0, -14(%ebp)
 3892      0000
1127:mtk_resgenerator.cpp ****     /* Move the pIdMap[n] so that the ID MAP items are continous  */
1128:mtk_resgenerator.cpp ****     for (i = 0; i < MaxIdSize; i++)
 3894              	LM123:
 3895 11bc 66C745F4 		movw	$0, -12(%ebp)
 3895      0000
GAS LISTING d:/software/ovi_2503a_s3trc/ovi_2503a_s3trc/plutommi/Customer/ResGenerator/gcctmp/ccgnaaaa.s 			page 44


 3896              	L47:
 3897 11c2 8B45F4   		movl	-12(%ebp), %eax
 3898 11c5 663B45F6 		cmpw	-10(%ebp), %ax
 3899 11c9 7202     		jb	L50
 3900 11cb EB59     		jmp	L48
 3901              	L50:
1129:mtk_resgenerator.cpp ****     {
1130:mtk_resgenerator.cpp ****         if (pIdMap[i].Num != (U16)-1)
 3903              	LM124:
 3904 11cd 0FB745F4 		movzwl	-12(%ebp), %eax
 3905 11d1 8D1400   		leal	(%eax,%eax), %edx
 3906 11d4 8B4508   		movl	8(%ebp), %eax
 3907 11d7 66833C10 		cmpw	$-1, (%eax,%edx)
 3907      FF
 3908 11dc 743E     		je	L49
1131:mtk_resgenerator.cpp ****         {
1132:mtk_resgenerator.cpp ****             if (i != j)
 3910              	LM125:
 3911 11de 8B45F4   		movl	-12(%ebp), %eax
 3912 11e1 663B45F2 		cmpw	-14(%ebp), %ax
 3913 11e5 742C     		je	L52
1133:mtk_resgenerator.cpp ****             {
1134:mtk_resgenerator.cpp **** 
1135:mtk_resgenerator.cpp ****                 pIdMap[j].Num = pIdMap[i].Num;
 3915              	LM126:
 3916 11e7 0FB745F2 		movzwl	-14(%ebp), %eax
 3917 11eb 8D1C00   		leal	(%eax,%eax), %ebx
 3918 11ee 8B4D08   		movl	8(%ebp), %ecx
 3919 11f1 0FB745F4 		movzwl	-12(%ebp), %eax
 3920 11f5 8D1400   		leal	(%eax,%eax), %edx
 3921 11f8 8B4508   		movl	8(%ebp), %eax
 3922 11fb 0FB70410 		movzwl	(%eax,%edx), %eax
 3923 11ff 66890419 		movw	%ax, (%ecx,%ebx)
1136:mtk_resgenerator.cpp ****                 pIdMap[i].Num = -1;
 3925              	LM127:
 3926 1203 0FB745F4 		movzwl	-12(%ebp), %eax
 3927 1207 8D1400   		leal	(%eax,%eax), %edx
 3928 120a 8B4508   		movl	8(%ebp), %eax
 3929 120d 66C70410 		movw	$-1, (%eax,%edx)
 3929      FFFF
 3930              	L52:
1137:mtk_resgenerator.cpp ****             }
1138:mtk_resgenerator.cpp ****             j++;
 3932              	LM128:
 3933 1213 0FB745F2 		movzwl	-14(%ebp), %eax
 3934 1217 40       		incl	%eax
 3935 1218 668945F2 		movw	%ax, -14(%ebp)
 3937              	LM129:
 3938              	L49:
 3939 121c 8B45F4   		movl	-12(%ebp), %eax
 3940 121f 40       		incl	%eax
 3941 1220 668945F4 		movw	%ax, -12(%ebp)
 3942 1224 EB9C     		jmp	L47
 3943              	L48:
1139:mtk_resgenerator.cpp ****         }
1140:mtk_resgenerator.cpp ****     }
1141:mtk_resgenerator.cpp **** 
GAS LISTING d:/software/ovi_2503a_s3trc/ovi_2503a_s3trc/plutommi/Customer/ResGenerator/gcctmp/ccgnaaaa.s 			page 45


1142:mtk_resgenerator.cpp ****     *pCurrMaxId = j;
 3945              	LM130:
 3946 1226 8B5510   		movl	16(%ebp), %edx
 3947 1229 0FB745F2 		movzwl	-14(%ebp), %eax
 3948 122d 668902   		movw	%ax, (%edx)
1143:mtk_resgenerator.cpp **** }
 3950              	LM131:
 3951 1230 83C40C   		addl	$12, %esp
 3952 1233 5B       		popl	%ebx
 3953 1234 5E       		popl	%esi
 3954 1235 5D       		popl	%ebp
 3955 1236 C3       		ret
 3956              	LBE5:
 3964              	Lscope4:
 3966 1237 89F68DBC 		.align 32
 3966      27000000 
 3966      00
 3967              	LC48:
 3968 1240 506F7075 		.ascii "PopulateImageSearch(): Filled ID map and search map tables\0"
 3968      6C617465 
 3968      496D6167 
 3968      65536561 
 3968      72636828 
 3969 127b 90       		.align 2
 3972              	__Z19PopulateImageSearchv:
1144:mtk_resgenerator.cpp **** 
1145:mtk_resgenerator.cpp **** 
1146:mtk_resgenerator.cpp **** /*****************************************************************************
1147:mtk_resgenerator.cpp **** * FUNCTION
1148:mtk_resgenerator.cpp **** *  PopulateImageSearch
1149:mtk_resgenerator.cpp **** * DESCRIPTION
1150:mtk_resgenerator.cpp **** *  populate image search map
1151:mtk_resgenerator.cpp **** * PARAMETERS
1152:mtk_resgenerator.cpp **** *  void
1153:mtk_resgenerator.cpp **** * RETURNS
1154:mtk_resgenerator.cpp **** *  void
1155:mtk_resgenerator.cpp **** *****************************************************************************/
1156:mtk_resgenerator.cpp **** static void PopulateImageSearch(void)
1157:mtk_resgenerator.cpp **** {
 3974              	LM132:
 3975 127c 55       		pushl	%ebp
 3976 127d 89E5     		movl	%esp, %ebp
 3977 127f 83EC18   		subl	$24, %esp
1158:mtk_resgenerator.cpp ****     /*----------------------------------------------------------------*/
1159:mtk_resgenerator.cpp ****     /* Local Variables                                                */
1160:mtk_resgenerator.cpp ****     /*----------------------------------------------------------------*/
1161:mtk_resgenerator.cpp **** 
1162:mtk_resgenerator.cpp ****     /*----------------------------------------------------------------*/
1163:mtk_resgenerator.cpp ****     /* Code Body                                                      */
1164:mtk_resgenerator.cpp ****     /*----------------------------------------------------------------*/
1165:mtk_resgenerator.cpp ****     RESGEN_LOG_V("PopulateImageSearch(): Filled ID map and search map tables");
 3979              	LM133:
 3980              	LBB6:
 3981 1282 C7442408 		movl	$LC48, 8(%esp)
 3981      40120000 
 3982 128a C7442404 		movl	$LC1, 4(%esp)
 3982      3E000000 
GAS LISTING d:/software/ovi_2503a_s3trc/ovi_2503a_s3trc/plutommi/Customer/ResGenerator/gcctmp/ccgnaaaa.s 			page 46


 3983 1292 C7042401 		movl	$1, (%esp)
 3983      000000
 3984 1299 E8000000 		call	_reslog_adaptor_log
 3984      00
1166:mtk_resgenerator.cpp ****     PopulateSearchMap_Ext(
 3986              	LM134:
 3987 129e C7442410 		movl	$65535, 16(%esp)
 3987      FFFF0000 
 3988 12a6 C744240C 		movl	$_CurrMaxSearchImageId, 12(%esp)
 3988      00000000 
 3989 12ae C7442408 		movl	$_CurrMaxImageId, 8(%esp)
 3989      00000000 
 3990 12b6 C7442404 		movl	$_ImageIdSearchMap, 4(%esp)
 3990      00000000 
 3991 12be C7042400 		movl	$_ImageIdMap, (%esp)
 3991      000000
 3992 12c5 E8F6FDFF 		call	__Z21PopulateSearchMap_ExtP13CUSTOM_ID_MAPP20CUSTOM_ID_SEARCH_MAPPtS3_t
 3992      FF
1167:mtk_resgenerator.cpp ****         (CUSTOM_ID_MAP *)ImageIdMap,
1168:mtk_resgenerator.cpp ****         (CUSTOM_ID_SEARCH_MAP *)ImageIdSearchMap,
1169:mtk_resgenerator.cpp ****         (unsigned short *)&CurrMaxImageId,
1170:mtk_resgenerator.cpp ****         (unsigned short *)&CurrMaxSearchImageId,
1171:mtk_resgenerator.cpp ****         MAX_IMAGE_IDS_SIZE);
1172:mtk_resgenerator.cpp ****     PopulateSearchMap_Ext(
 3994              	LM135:
 3995 12ca C7442410 		movl	$65535, 16(%esp)
 3995      FFFF0000 
 3996 12d2 C744240C 		movl	$_CurrMaxSearchImageIdEXT, 12(%esp)
 3996      00000000 
 3997 12da C7442408 		movl	$_CurrMaxImageIdEXT, 8(%esp)
 3997      00000000 
 3998 12e2 C7442404 		movl	$_ImageIdSearchMapEXT, 4(%esp)
 3998      00000000 
 3999 12ea C7042400 		movl	$_ImageIdMapEXT, (%esp)
 3999      000000
 4000 12f1 E8CAFDFF 		call	__Z21PopulateSearchMap_ExtP13CUSTOM_ID_MAPP20CUSTOM_ID_SEARCH_MAPPtS3_t
 4000      FF
1173:mtk_resgenerator.cpp ****         (CUSTOM_ID_MAP *)ImageIdMapEXT,
1174:mtk_resgenerator.cpp ****         (CUSTOM_ID_SEARCH_MAP *)ImageIdSearchMapEXT,
1175:mtk_resgenerator.cpp ****         (unsigned short *)&CurrMaxImageIdEXT,
1176:mtk_resgenerator.cpp ****         (unsigned short *)&CurrMaxSearchImageIdEXT,
1177:mtk_resgenerator.cpp ****         MAX_IMAGE_IDS_SIZE);
1178:mtk_resgenerator.cpp **** }
 4002              	LM136:
 4003 12f6 C9       		leave
 4004 12f7 C3       		ret
 4005              	LBE6:
 4006              	Lscope5:
 4008 12f8 908DB426 		.align 32
 4008      00000000 
 4009              	LC49:
 4010 1300 506F7075 		.ascii "PopulateAudioSearch(): Filled ID map and search map tables\0"
 4010      6C617465 
 4010      41756469 
 4010      6F536561 
 4010      72636828 
 4011 133b 90       		.align 2
GAS LISTING d:/software/ovi_2503a_s3trc/ovi_2503a_s3trc/plutommi/Customer/ResGenerator/gcctmp/ccgnaaaa.s 			page 47


 4014              	__Z19PopulateAudioSearchv:
1179:mtk_resgenerator.cpp **** 
1180:mtk_resgenerator.cpp **** 
1181:mtk_resgenerator.cpp **** /*****************************************************************************
1182:mtk_resgenerator.cpp **** * FUNCTION
1183:mtk_resgenerator.cpp **** *  PopulateAudioSearch
1184:mtk_resgenerator.cpp **** * DESCRIPTION
1185:mtk_resgenerator.cpp **** *  populate audio search map
1186:mtk_resgenerator.cpp **** * PARAMETERS
1187:mtk_resgenerator.cpp **** *  void
1188:mtk_resgenerator.cpp **** * RETURNS
1189:mtk_resgenerator.cpp **** *  void
1190:mtk_resgenerator.cpp **** *****************************************************************************/
1191:mtk_resgenerator.cpp **** static void PopulateAudioSearch(void)
1192:mtk_resgenerator.cpp **** {
 4016              	LM137:
 4017 133c 55       		pushl	%ebp
 4018 133d 89E5     		movl	%esp, %ebp
 4019 133f 83EC18   		subl	$24, %esp
1193:mtk_resgenerator.cpp ****     /*----------------------------------------------------------------*/
1194:mtk_resgenerator.cpp ****     /* Local Variables                                                */
1195:mtk_resgenerator.cpp ****     /*----------------------------------------------------------------*/
1196:mtk_resgenerator.cpp **** 
1197:mtk_resgenerator.cpp ****     /*----------------------------------------------------------------*/
1198:mtk_resgenerator.cpp ****     /* Code Body                                                      */
1199:mtk_resgenerator.cpp ****     /*----------------------------------------------------------------*/
1200:mtk_resgenerator.cpp ****     RESGEN_LOG_V("PopulateAudioSearch(): Filled ID map and search map tables");
 4021              	LM138:
 4022              	LBB7:
 4023 1342 C7442408 		movl	$LC49, 8(%esp)
 4023      00130000 
 4024 134a C7442404 		movl	$LC1, 4(%esp)
 4024      3E000000 
 4025 1352 C7042401 		movl	$1, (%esp)
 4025      000000
 4026 1359 E8000000 		call	_reslog_adaptor_log
 4026      00
1201:mtk_resgenerator.cpp **** 
1202:mtk_resgenerator.cpp ****     PopulateSearchMap_Ext(
 4028              	LM139:
 4029 135e C7442410 		movl	$65535, 16(%esp)
 4029      FFFF0000 
 4030 1366 C744240C 		movl	$_CurrMaxSearchAudioId, 12(%esp)
 4030      00000000 
 4031 136e C7442408 		movl	$_CurrMaxAudioId, 8(%esp)
 4031      00000000 
 4032 1376 C7442404 		movl	$_AudioIdSearchMap, 4(%esp)
 4032      00000000 
 4033 137e C7042400 		movl	$_AudioIdMap, (%esp)
 4033      000000
 4034 1385 E836FDFF 		call	__Z21PopulateSearchMap_ExtP13CUSTOM_ID_MAPP20CUSTOM_ID_SEARCH_MAPPtS3_t
 4034      FF
1203:mtk_resgenerator.cpp ****         (CUSTOM_ID_MAP *)AudioIdMap,
1204:mtk_resgenerator.cpp ****         (CUSTOM_ID_SEARCH_MAP *)AudioIdSearchMap,
1205:mtk_resgenerator.cpp ****         (unsigned short *)&CurrMaxAudioId,
1206:mtk_resgenerator.cpp ****         (unsigned short *)&CurrMaxSearchAudioId,
1207:mtk_resgenerator.cpp ****         MAX_AUDIO_IDS_SIZE);
GAS LISTING d:/software/ovi_2503a_s3trc/ovi_2503a_s3trc/plutommi/Customer/ResGenerator/gcctmp/ccgnaaaa.s 			page 48


1208:mtk_resgenerator.cpp ****     PopulateSearchMap_Ext(
 4036              	LM140:
 4037 138a C7442410 		movl	$65535, 16(%esp)
 4037      FFFF0000 
 4038 1392 C744240C 		movl	$_CurrMaxSearchAudioIdEXT, 12(%esp)
 4038      00000000 
 4039 139a C7442408 		movl	$_CurrMaxAudioIdEXT, 8(%esp)
 4039      00000000 
 4040 13a2 C7442404 		movl	$_AudioIdSearchMapEXT, 4(%esp)
 4040      00000000 
 4041 13aa C7042400 		movl	$_AudioIdMapEXT, (%esp)
 4041      000000
 4042 13b1 E80AFDFF 		call	__Z21PopulateSearchMap_ExtP13CUSTOM_ID_MAPP20CUSTOM_ID_SEARCH_MAPPtS3_t
 4042      FF
1209:mtk_resgenerator.cpp ****         (CUSTOM_ID_MAP *)AudioIdMapEXT,
1210:mtk_resgenerator.cpp ****         (CUSTOM_ID_SEARCH_MAP *)AudioIdSearchMapEXT,
1211:mtk_resgenerator.cpp ****         (unsigned short *)&CurrMaxAudioIdEXT,
1212:mtk_resgenerator.cpp ****         (unsigned short *)&CurrMaxSearchAudioIdEXT,
1213:mtk_resgenerator.cpp ****         MAX_AUDIO_IDS_SIZE);
1214:mtk_resgenerator.cpp **** }
 4044              	LM141:
 4045 13b6 C9       		leave
 4046 13b7 C3       		ret
 4047              	LBE7:
 4048              	Lscope6:
 4050 13b8 908DB426 		.align 32
 4050      00000000 
 4051              	LC50:
 4052 13c0 506F7075 		.ascii "PopulateFontSearch(): Filled ID map and search map tabls\0"
 4052      6C617465 
 4052      466F6E74 
 4052      53656172 
 4052      63682829 
 4053 13f9 90       		.align 2
 4056              	__Z18PopulateFontSearchv:
1215:mtk_resgenerator.cpp **** 
1216:mtk_resgenerator.cpp **** 
1217:mtk_resgenerator.cpp **** /*****************************************************************************
1218:mtk_resgenerator.cpp **** * FUNCTION
1219:mtk_resgenerator.cpp **** *  PopulateFontSearch
1220:mtk_resgenerator.cpp **** * DESCRIPTION
1221:mtk_resgenerator.cpp **** *  populate Font search map
1222:mtk_resgenerator.cpp **** * PARAMETERS
1223:mtk_resgenerator.cpp **** *  void
1224:mtk_resgenerator.cpp **** * RETURNS
1225:mtk_resgenerator.cpp **** *  void
1226:mtk_resgenerator.cpp **** *****************************************************************************/
1227:mtk_resgenerator.cpp **** static void PopulateFontSearch(void)
1228:mtk_resgenerator.cpp **** {
 4058              	LM142:
 4059 13fa 55       		pushl	%ebp
 4060 13fb 89E5     		movl	%esp, %ebp
 4061 13fd 83EC18   		subl	$24, %esp
1229:mtk_resgenerator.cpp ****     /*----------------------------------------------------------------*/
1230:mtk_resgenerator.cpp ****     /* Local Variables                                                */
1231:mtk_resgenerator.cpp ****     /*----------------------------------------------------------------*/
1232:mtk_resgenerator.cpp **** 
GAS LISTING d:/software/ovi_2503a_s3trc/ovi_2503a_s3trc/plutommi/Customer/ResGenerator/gcctmp/ccgnaaaa.s 			page 49


1233:mtk_resgenerator.cpp ****     /*----------------------------------------------------------------*/
1234:mtk_resgenerator.cpp ****     /* Code Body                                                      */
1235:mtk_resgenerator.cpp ****     /*----------------------------------------------------------------*/
1236:mtk_resgenerator.cpp ****     RESGEN_LOG_V("PopulateFontSearch(): Filled ID map and search map tabls");
 4063              	LM143:
 4064              	LBB8:
 4065 1400 C7442408 		movl	$LC50, 8(%esp)
 4065      C0130000 
 4066 1408 C7442404 		movl	$LC1, 4(%esp)
 4066      3E000000 
 4067 1410 C7042401 		movl	$1, (%esp)
 4067      000000
 4068 1417 E8000000 		call	_reslog_adaptor_log
 4068      00
1237:mtk_resgenerator.cpp **** 
1238:mtk_resgenerator.cpp ****     PopulateSearchMap_Ext(
 4070              	LM144:
 4071 141c C7442410 		movl	$65535, 16(%esp)
 4071      FFFF0000 
 4072 1424 C744240C 		movl	$_CurrMaxSearchFontIdEXT, 12(%esp)
 4072      00000000 
 4073 142c C7442408 		movl	$_CurrMaxFontIdEXT, 8(%esp)
 4073      00000000 
 4074 1434 C7442404 		movl	$_FontIdSearchMapEXT, 4(%esp)
 4074      00000000 
 4075 143c C7042400 		movl	$_FontIdMapEXT, (%esp)
 4075      000000
 4076 1443 E878FCFF 		call	__Z21PopulateSearchMap_ExtP13CUSTOM_ID_MAPP20CUSTOM_ID_SEARCH_MAPPtS3_t
 4076      FF
1239:mtk_resgenerator.cpp ****         (CUSTOM_ID_MAP *)FontIdMapEXT,
1240:mtk_resgenerator.cpp ****         (CUSTOM_ID_SEARCH_MAP *)FontIdSearchMapEXT,
1241:mtk_resgenerator.cpp ****         (unsigned short *)&CurrMaxFontIdEXT,
1242:mtk_resgenerator.cpp ****         (unsigned short *)&CurrMaxSearchFontIdEXT,
1243:mtk_resgenerator.cpp ****         MAX_FONT_IDS_SIZE);
1244:mtk_resgenerator.cpp **** }
 4078              	LM145:
 4079 1448 C9       		leave
 4080 1449 C3       		ret
 4081              	LBE8:
 4082              	Lscope7:
 4084 144a 90909090 		.align 32
 4084      90909090 
 4084      90909090 
 4084      90909090 
 4084      90909090 
 4085              	LC51:
 4086 1460 0A2F2A2A 		.ascii "\12/************************************************************** \12 FILENAME\11:  \12 P
 4086      2A2A2A2A 
 4086      2A2A2A2A 
 4086      2A2A2A2A 
 4086      2A2A2A2A 
 4087              	LC52:
 4088 154a 23696E63 		.ascii "#include \"CustDataRes.h\"\12\0"
 4088      6C756465 
 4088      20224375 
 4088      73744461 
 4088      74615265 
GAS LISTING d:/software/ovi_2503a_s3trc/ovi_2503a_s3trc/plutommi/Customer/ResGenerator/gcctmp/ccgnaaaa.s 			page 50


 4089              	LC53:
 4090 1564 23696E63 		.ascii "#include \"CustResDef.h\"\12\12\0"
 4090      6C756465 
 4090      20224375 
 4090      73745265 
 4090      73446566 
 4091 157e 89F6     		.align 32
 4092              	LC54:
 4093 1580 65787465 		.ascii "extern CUSTOM_FONT_MAP mtk_CustFontMapEXT[];\12\0"
 4093      726E2043 
 4093      5553544F 
 4093      4D5F464F 
 4093      4E545F4D 
 4094 15ae 90909090 		.align 32
 4094      90909090 
 4094      90909090 
 4094      90909090 
 4094      9090
 4095              	LC55:
 4096 15c0 65787465 		.ascii "extern CUSTOM_FONT_SEARCH_MAP mtk_CustFontSearchMapEXT[];\12\0"
 4096      726E2043 
 4096      5553544F 
 4096      4D5F464F 
 4096      4E545F53 
 4097 15fb 908D7426 		.align 32
 4097      00
 4098              	LC56:
 4099 1600 636F6E73 		.ascii "const S8 CustImgPath[]=CUST_IMG_PATH;\12\0"
 4099      74205338 
 4099      20437573 
 4099      74496D67 
 4099      50617468 
 4100 1627 90909090 		.align 32
 4100      90909090 
 4100      90909090 
 4100      90909090 
 4100      90909090 
 4101              	LC57:
 4102 1640 2F2F636F 		.ascii "//const S8 CustImgPath[]=CUST_IMG_PATH;\12\0"
 4102      6E737420 
 4102      53382043 
 4102      75737449 
 4102      6D675061 
 4103 1669 90909090 		.align 32
 4103      90909090 
 4103      90909090 
 4103      90909090 
 4103      90909090 
 4104              	LC58:
 4105 1680 636F6E73 		.ascii "const S8 CustAdoPath[]=CUST_ADO_PATH;\12\0"
 4105      74205338 
 4105      20437573 
 4105      7441646F 
 4105      50617468 
 4106 16a7 90909090 		.align 32
 4106      90909090 
 4106      90909090 
GAS LISTING d:/software/ovi_2503a_s3trc/ovi_2503a_s3trc/plutommi/Customer/ResGenerator/gcctmp/ccgnaaaa.s 			page 51


 4106      90909090 
 4106      90909090 
 4107              	LC59:
 4108 16c0 2F2F636F 		.ascii "//const S8 CustAdoPath[]=CUST_ADO_PATH;\12\0"
 4108      6E737420 
 4108      53382043 
 4108      75737441 
 4108      646F5061 
 4109 16e9 90909090 		.align 32
 4109      90909090 
 4109      90909090 
 4109      90909090 
 4109      90909090 
 4110              	LC60:
 4111 1700 636F6E73 		.ascii "const S8 CustBinaryPath[]=CUST_BINARY_PATH;\12\0"
 4111      74205338 
 4111      20437573 
 4111      7442696E 
 4111      61727950 
 4112              	LC61:
 4113 172d 636F6E73 		.ascii "const unsigned short  %s=%d;\12\0"
 4113      7420756E 
 4113      7369676E 
 4113      65642073 
 4113      686F7274 
 4114 174b 90909090 		.align 32
 4114      90909090 
 4114      90909090 
 4114      90909090 
 4114      90909090 
 4115              	LC62:
 4116 1760 0A23696E 		.ascii "\12#include \"ResCompressConfig.h\"\12\12\0"
 4116      636C7564 
 4116      65202252 
 4116      6573436F 
 4116      6D707265 
 4117              	LC63:
 4118 1782 23696E63 		.ascii "#include \"CustGameDataHW.h\"\12\0"
 4118      6C756465 
 4118      20224375 
 4118      73744761 
 4118      6D654461 
 4119 179f 90       		.align 32
 4120              	LC64:
 4121 17a0 23696620 		.ascii "#if !defined(__MMI_RESOURCE_IMAGE_GROUP_COMPRESS__) || defined(__MMI_RESOURCE_UT_UNCOMPRES
 4121      21646566 
 4121      696E6564 
 4121      285F5F4D 
 4121      4D495F52 
 4122              	LC65:
 4123 1811 23696E63 		.ascii "#include \"%s\"\12\0"
 4123      6C756465 
 4123      20222573 
 4123      220A00
 4124              	LC66:
 4125 1820 636F6E73 		.ascii "const %s\11%s[]={\12\0"
 4125      74202573 
GAS LISTING d:/software/ovi_2503a_s3trc/ovi_2503a_s3trc/plutommi/Customer/ResGenerator/gcctmp/ccgnaaaa.s 			page 52


 4125      0925735B 
 4125      5D3D7B0A 
 4125      00
 4126              	LC67:
 4127 1831 2855382A 		.ascii "(U8*)&%s,\12\0"
 4127      29262573 
 4127      2C0A00
 4128              	LC68:
 4129 183c 7D3B0A0A 		.ascii "};\12\12\12\12\0"
 4129      0A0A00
 4130              	LC69:
 4131 1843 636F6E73 		.ascii "const %s\11%s[1] = {NULL};\12\0"
 4131      74202573 
 4131      0925735B 
 4131      315D203D 
 4131      207B4E55 
 4132 185d 8D7600   		.align 32
 4133              	LC70:
 4134 1860 636F6E73 		.ascii "const CUSTPACK_IMAGE_HEADER mtk_image_header={%d, (%s *)%s};\0"
 4134      74204355 
 4134      53545041 
 4134      434B5F49 
 4134      4D414745 
 4135 189d 8D7600   		.align 32
 4136              	LC71:
 4137 18a0 636F6E73 		.ascii "const CUSTPACK_AUDIO_HEADER mtk_audio_header={%d, (%s *)%s};\0"
 4137      74204355 
 4137      53545041 
 4137      434B5F41 
 4137      5544494F 
 4138 18dd 8D7600   		.align 32
 4139              	LC72:
 4140 18e0 636F6E73 		.ascii "const CUSTPACK_BINARY_HEADER mtk_binary_header={%d, (%s *)%s};\0"
 4140      74204355 
 4140      53545041 
 4140      434B5F42 
 4140      494E4152 
 4141 191f 90       		.align 32
 4142              	LC73:
 4143 1920 636F6E73 		.ascii "const CUSTPACK_FONT_HEADER mtk_font_header={%d, %d, (%s *)%s, mtk_CustFontMapEXT, mtk_Cust
 4143      74204355 
 4143      53545041 
 4143      434B5F46 
 4143      4F4E545F 
 4144 198d 90909090 		.align 32
 4144      90909090 
 4144      90909090 
 4144      90909090 
 4144      909090
 4145              	LC74:
 4146 19a0 23656E64 		.ascii "#endif//!__MMI_RESOURCE_IMAGE_GROUP_COMPRESS__ || __MMI_RESOURCE_UT_UNCOMPRESSED_IMAGE_SUP
 4146      69662F2F 
 4146      215F5F4D 
 4146      4D495F52 
 4146      45534F55 
 4147              		.align 2
 4163              	__Z19GenerateResFile_Exti18RESOURCE_TYPE_LISTP16CUSTOM_NAME_LISTtPcS2_S2_S2_S2_S2_S2_S2_j:
GAS LISTING d:/software/ovi_2503a_s3trc/ovi_2503a_s3trc/plutommi/Customer/ResGenerator/gcctmp/ccgnaaaa.s 			page 53


1245:mtk_resgenerator.cpp **** 
1246:mtk_resgenerator.cpp **** /*****************************************************************************
1247:mtk_resgenerator.cpp **** * FUNCTION
1248:mtk_resgenerator.cpp **** *  GenerateResFile_Ext
1249:mtk_resgenerator.cpp **** * DESCRIPTION
1250:mtk_resgenerator.cpp **** *  generate resource file
1251:mtk_resgenerator.cpp **** * PARAMETERS
1252:mtk_resgenerator.cpp **** *  flag                [IN]    CustPack or not
1253:mtk_resgenerator.cpp **** *  type                [IN]    image or audio
1254:mtk_resgenerator.cpp **** *  pName               [IN]    resource name list
1255:mtk_resgenerator.cpp **** *  nSize               [IN]    size
1256:mtk_resgenerator.cpp **** *  str_CustDataHW      [IN]    output header name
1257:mtk_resgenerator.cpp **** *  str_mtk_CurrMaxNum  [IN]    output variable name
1258:mtk_resgenerator.cpp **** *  str_CurrMaxNum      [IN]    output variable name
1259:mtk_resgenerator.cpp **** *  str_mtk_nCustNames  [IN]    output variable name
1260:mtk_resgenerator.cpp **** *  str_nCustNames      [IN]    output variable name
1261:mtk_resgenerator.cpp **** *  str_NameList        [IN]    output variable name
1262:mtk_resgenerator.cpp **** *  str_CustType        [IN]    output type name
1263:mtk_resgenerator.cpp **** *  curr_data_filename  [IN]    output file name
1264:mtk_resgenerator.cpp **** * RETURNS
1265:mtk_resgenerator.cpp **** *  void
1266:mtk_resgenerator.cpp **** *****************************************************************************/
1267:mtk_resgenerator.cpp **** static void GenerateResFile_Ext(
1268:mtk_resgenerator.cpp ****                                 BOOL flag,
1269:mtk_resgenerator.cpp ****                                 RESOURCE_TYPE_LIST type,
1270:mtk_resgenerator.cpp ****                                 CUSTOM_NAME_LIST *pName,
1271:mtk_resgenerator.cpp ****                                 U16 nSize,
1272:mtk_resgenerator.cpp ****                                 char *str_CustDataHW,
1273:mtk_resgenerator.cpp ****                                 char *str_mtk_CurrMaxNum,
1274:mtk_resgenerator.cpp ****                                 char *str_CurrMaxNum,
1275:mtk_resgenerator.cpp ****                                 char *str_mtk_nCustNames,
1276:mtk_resgenerator.cpp ****                                 char *str_nCustNames,
1277:mtk_resgenerator.cpp ****                                 char *str_NameList,
1278:mtk_resgenerator.cpp ****                                 char *str_CustType,
1279:mtk_resgenerator.cpp ****                                 char *curr_data_filename,
1280:mtk_resgenerator.cpp ****                                 U32 extFlag)
1281:mtk_resgenerator.cpp **** {
 4165              	LM146:
 4166 1a02 55       		pushl	%ebp
 4167 1a03 89E5     		movl	%esp, %ebp
 4168 1a05 81EC3802 		subl	$568, %esp
 4168      0000
 4169 1a0b 8B4514   		movl	20(%ebp), %eax
 4170 1a0e 668945F6 		movw	%ax, -10(%ebp)
1282:mtk_resgenerator.cpp ****     /*----------------------------------------------------------------*/
1283:mtk_resgenerator.cpp ****     /* Local Variables                                                */
1284:mtk_resgenerator.cpp ****     /*----------------------------------------------------------------*/
1285:mtk_resgenerator.cpp ****     FILE *pFile;
1286:mtk_resgenerator.cpp **** 
1287:mtk_resgenerator.cpp ****     /*----------------------------------------------------------------*/
1288:mtk_resgenerator.cpp ****     /* Code Body                                                      */
1289:mtk_resgenerator.cpp ****     /*----------------------------------------------------------------*/
1290:mtk_resgenerator.cpp ****     if(pFile = fopen(curr_data_filename, "w"))
 4172              	LM147:
 4173              	LBB9:
 4174              	LBB10:
 4175 1a12 C7442404 		movl	$LC2, 4(%esp)
GAS LISTING d:/software/ovi_2503a_s3trc/ovi_2503a_s3trc/plutommi/Customer/ResGenerator/gcctmp/ccgnaaaa.s 			page 54


 4175      4F000000 
 4176 1a1a 8B4534   		movl	52(%ebp), %eax
 4177 1a1d 890424   		movl	%eax, (%esp)
 4178 1a20 E8000000 		call	_fopen
 4178      00
 4179 1a25 8945F0   		movl	%eax, -16(%ebp)
 4180 1a28 837DF000 		cmpl	$0, -16(%ebp)
 4181 1a2c 0F845E03 		je	L56
 4181      0000
1291:mtk_resgenerator.cpp ****     {
1292:mtk_resgenerator.cpp ****         fprintf(pFile, "/**\n *	Copyright Notice\n *	?2002 - 2003, Pixtel Communications, Inc., 148
 4183              	LM148:
 4184              	LBB11:
 4185 1a32 C7442404 		movl	$LC4, 4(%esp)
 4185      A0000000 
 4186 1a3a 8B45F0   		movl	-16(%ebp), %eax
 4187 1a3d 890424   		movl	%eax, (%esp)
 4188 1a40 E8000000 		call	_fprintf
 4188      00
1293:mtk_resgenerator.cpp ****         fprintf(pFile, "\n/************************************************************** \n FILENA
 4190              	LM149:
 4191 1a45 C7442404 		movl	$LC51, 4(%esp)
 4191      60140000 
 4192 1a4d 8B45F0   		movl	-16(%ebp), %eax
 4193 1a50 890424   		movl	%eax, (%esp)
 4194 1a53 E8000000 		call	_fprintf
 4194      00
1294:mtk_resgenerator.cpp ****         fprintf(pFile, "#include \"CustDataRes.h\"\n");
 4196              	LM150:
 4197 1a58 C7442404 		movl	$LC52, 4(%esp)
 4197      4A150000 
 4198 1a60 8B45F0   		movl	-16(%ebp), %eax
 4199 1a63 890424   		movl	%eax, (%esp)
 4200 1a66 E8000000 		call	_fprintf
 4200      00
1295:mtk_resgenerator.cpp ****         fprintf(pFile, "#include \"CustResDef.h\"\n\n");
 4202              	LM151:
 4203 1a6b C7442404 		movl	$LC53, 4(%esp)
 4203      64150000 
 4204 1a73 8B45F0   		movl	-16(%ebp), %eax
 4205 1a76 890424   		movl	%eax, (%esp)
 4206 1a79 E8000000 		call	_fprintf
 4206      00
1296:mtk_resgenerator.cpp **** 
1297:mtk_resgenerator.cpp **** #ifdef __MMI_FONT_THIRD_ROM_SUPPORT__
1298:mtk_resgenerator.cpp ****         if(type == RES_FONT)
1299:mtk_resgenerator.cpp ****         {
1300:mtk_resgenerator.cpp ****             fprintf(pFile, "#ifdef __MMI_FONT_THIRD_ROM_SUPPORT__\n");
1301:mtk_resgenerator.cpp ****             fprintf(pFile, "#include \"GlobalResDef.h\"\n");
1302:mtk_resgenerator.cpp ****             fprintf(pFile, "#endif\n");
1303:mtk_resgenerator.cpp ****         }
1304:mtk_resgenerator.cpp **** #endif
1305:mtk_resgenerator.cpp ****         if(type == RES_FONT)
 4208              	LM152:
 4209 1a7e 837D0C04 		cmpl	$4, 12(%ebp)
 4210 1a82 752B     		jne	L58
1306:mtk_resgenerator.cpp ****         {
GAS LISTING d:/software/ovi_2503a_s3trc/ovi_2503a_s3trc/plutommi/Customer/ResGenerator/gcctmp/ccgnaaaa.s 			page 55


1307:mtk_resgenerator.cpp ****             fprintf(pFile, "extern CUSTOM_FONT_MAP mtk_CustFontMapEXT[];\n");
 4212              	LM153:
 4213 1a84 C7442404 		movl	$LC54, 4(%esp)
 4213      80150000 
 4214 1a8c 8B45F0   		movl	-16(%ebp), %eax
 4215 1a8f 890424   		movl	%eax, (%esp)
 4216 1a92 E8000000 		call	_fprintf
 4216      00
1308:mtk_resgenerator.cpp ****             fprintf(pFile, "extern CUSTOM_FONT_SEARCH_MAP mtk_CustFontSearchMapEXT[];\n");
 4218              	LM154:
 4219 1a97 C7442404 		movl	$LC55, 4(%esp)
 4219      C0150000 
 4220 1a9f 8B45F0   		movl	-16(%ebp), %eax
 4221 1aa2 890424   		movl	%eax, (%esp)
 4222 1aa5 E8000000 		call	_fprintf
 4222      00
 4223 1aaa E9850000 		jmp	L59
 4223      00
 4224              	L58:
1309:mtk_resgenerator.cpp ****         }
1310:mtk_resgenerator.cpp ****         else if(type == RES_IMAGE)
 4226              	LM155:
 4227 1aaf 837D0C00 		cmpl	$0, 12(%ebp)
 4228 1ab3 7530     		jne	L60
1311:mtk_resgenerator.cpp ****         {
1312:mtk_resgenerator.cpp ****             if(flag == FALSE)
 4230              	LM156:
 4231 1ab5 837D0800 		cmpl	$0, 8(%ebp)
 4232 1ab9 7515     		jne	L61
1313:mtk_resgenerator.cpp ****             {
1314:mtk_resgenerator.cpp ****                 fprintf(pFile, "const S8 CustImgPath[]=CUST_IMG_PATH;\n");
 4234              	LM157:
 4235 1abb C7442404 		movl	$LC56, 4(%esp)
 4235      00160000 
 4236 1ac3 8B45F0   		movl	-16(%ebp), %eax
 4237 1ac6 890424   		movl	%eax, (%esp)
 4238 1ac9 E8000000 		call	_fprintf
 4238      00
 4239 1ace EB64     		jmp	L59
 4240              	L61:
1315:mtk_resgenerator.cpp ****             }
1316:mtk_resgenerator.cpp ****             else
1317:mtk_resgenerator.cpp ****             {
1318:mtk_resgenerator.cpp ****                 fprintf(pFile, "\/\/const S8 CustImgPath[]=CUST_IMG_PATH;\n");
 4242              	LM158:
 4243 1ad0 C7442404 		movl	$LC57, 4(%esp)
 4243      40160000 
 4244 1ad8 8B45F0   		movl	-16(%ebp), %eax
 4245 1adb 890424   		movl	%eax, (%esp)
 4246 1ade E8000000 		call	_fprintf
 4246      00
 4247 1ae3 EB4F     		jmp	L59
 4248              	L60:
1319:mtk_resgenerator.cpp **** // Append a dummy image for CAT reserved space only when __CAT_SUPPORT__ is defined
1320:mtk_resgenerator.cpp **** #if defined(__CAT_SUPPORT__) && defined(MMIRESOURCE_CAT_IMG_RESERVED_SIZE_BYTE) && (MMIRESOURCE_CAT
1321:mtk_resgenerator.cpp ****                 fprintf(pFile, "extern const U8 cat_reserved_space[];\n");
1322:mtk_resgenerator.cpp **** #endif
GAS LISTING d:/software/ovi_2503a_s3trc/ovi_2503a_s3trc/plutommi/Customer/ResGenerator/gcctmp/ccgnaaaa.s 			page 56


1323:mtk_resgenerator.cpp ****             }
1324:mtk_resgenerator.cpp ****         }
1325:mtk_resgenerator.cpp ****         else if(type == RES_AUDIO)
 4250              	LM159:
 4251 1ae5 837D0C02 		cmpl	$2, 12(%ebp)
 4252 1ae9 7530     		jne	L64
1326:mtk_resgenerator.cpp ****         {
1327:mtk_resgenerator.cpp ****             if(flag == FALSE)
 4254              	LM160:
 4255 1aeb 837D0800 		cmpl	$0, 8(%ebp)
 4256 1aef 7515     		jne	L65
1328:mtk_resgenerator.cpp ****             {
1329:mtk_resgenerator.cpp ****                 fprintf(pFile, "const S8 CustAdoPath[]=CUST_ADO_PATH;\n");
 4258              	LM161:
 4259 1af1 C7442404 		movl	$LC58, 4(%esp)
 4259      80160000 
 4260 1af9 8B45F0   		movl	-16(%ebp), %eax
 4261 1afc 890424   		movl	%eax, (%esp)
 4262 1aff E8000000 		call	_fprintf
 4262      00
 4263 1b04 EB2E     		jmp	L59
 4264              	L65:
1330:mtk_resgenerator.cpp ****             }
1331:mtk_resgenerator.cpp ****             else
1332:mtk_resgenerator.cpp ****             {
1333:mtk_resgenerator.cpp ****                 fprintf(pFile, "\/\/const S8 CustAdoPath[]=CUST_ADO_PATH;\n");
 4266              	LM162:
 4267 1b06 C7442404 		movl	$LC59, 4(%esp)
 4267      C0160000 
 4268 1b0e 8B45F0   		movl	-16(%ebp), %eax
 4269 1b11 890424   		movl	%eax, (%esp)
 4270 1b14 E8000000 		call	_fprintf
 4270      00
 4271 1b19 EB19     		jmp	L59
 4272              	L64:
1334:mtk_resgenerator.cpp ****             }
1335:mtk_resgenerator.cpp ****         }
1336:mtk_resgenerator.cpp ****         else if(type == RES_BINARY)
 4274              	LM163:
 4275 1b1b 837D0C05 		cmpl	$5, 12(%ebp)
 4276 1b1f 7513     		jne	L59
1337:mtk_resgenerator.cpp ****         {
1338:mtk_resgenerator.cpp ****             fprintf(pFile, "const S8 CustBinaryPath[]=CUST_BINARY_PATH;\n");
 4278              	LM164:
 4279 1b21 C7442404 		movl	$LC60, 4(%esp)
 4279      00170000 
 4280 1b29 8B45F0   		movl	-16(%ebp), %eax
 4281 1b2c 890424   		movl	%eax, (%esp)
 4282 1b2f E8000000 		call	_fprintf
 4282      00
 4283              	L59:
1339:mtk_resgenerator.cpp ****         }
1340:mtk_resgenerator.cpp **** 
1341:mtk_resgenerator.cpp **** #ifdef __MULTI_BIN_LOAD__
1342:mtk_resgenerator.cpp ****         fprintf(pFile, "const unsigned short  %s=%d;\n", str_mtk_CurrMaxNum, nSize);
 4285              	LM165:
 4286 1b34 0FB745F6 		movzwl	-10(%ebp), %eax
GAS LISTING d:/software/ovi_2503a_s3trc/ovi_2503a_s3trc/plutommi/Customer/ResGenerator/gcctmp/ccgnaaaa.s 			page 57


 4287 1b38 8944240C 		movl	%eax, 12(%esp)
 4288 1b3c 8B451C   		movl	28(%ebp), %eax
 4289 1b3f 89442408 		movl	%eax, 8(%esp)
 4290 1b43 C7442404 		movl	$LC61, 4(%esp)
 4290      2D170000 
 4291 1b4b 8B45F0   		movl	-16(%ebp), %eax
 4292 1b4e 890424   		movl	%eax, (%esp)
 4293 1b51 E8000000 		call	_fprintf
 4293      00
1343:mtk_resgenerator.cpp **** #else
1344:mtk_resgenerator.cpp ****         fprintf(pFile, "unsigned short  %s=%d;\n", str_CurrMaxNum, nSize);
1345:mtk_resgenerator.cpp **** #endif
1346:mtk_resgenerator.cpp **** 
1347:mtk_resgenerator.cpp ****         if((type == RES_IMAGE) && (flag == FALSE))
 4295              	LM166:
 4296 1b56 837D0C00 		cmpl	$0, 12(%ebp)
 4297 1b5a 755B     		jne	L69
 4298 1b5c 837D0800 		cmpl	$0, 8(%ebp)
 4299 1b60 7555     		jne	L69
1348:mtk_resgenerator.cpp ****         {
1349:mtk_resgenerator.cpp ****         
1350:mtk_resgenerator.cpp ****             fputs("\n#include \"ResCompressConfig.h\"\n\n", pFile);
 4301              	LM167:
 4302 1b62 8B45F0   		movl	-16(%ebp), %eax
 4303 1b65 89442404 		movl	%eax, 4(%esp)
 4304 1b69 C7042460 		movl	$LC62, (%esp)
 4304      170000
 4305 1b70 E8000000 		call	_fputs
 4305      00
1351:mtk_resgenerator.cpp ****             fprintf( pFile, "#include \"CustGameDataHW.h\"\n");
 4307              	LM168:
 4308 1b75 C7442404 		movl	$LC63, 4(%esp)
 4308      82170000 
 4309 1b7d 8B45F0   		movl	-16(%ebp), %eax
 4310 1b80 890424   		movl	%eax, (%esp)
 4311 1b83 E8000000 		call	_fprintf
 4311      00
1352:mtk_resgenerator.cpp ****             fprintf( pFile, "#if !defined(__MMI_RESOURCE_IMAGE_GROUP_COMPRESS__) || defined(__MMI_R
 4313              	LM169:
 4314 1b88 C7442404 		movl	$LC64, 4(%esp)
 4314      A0170000 
 4315 1b90 8B45F0   		movl	-16(%ebp), %eax
 4316 1b93 890424   		movl	%eax, (%esp)
 4317 1b96 E8000000 		call	_fprintf
 4317      00
1353:mtk_resgenerator.cpp ****             fprintf( pFile, "#include \"%s\"\n", str_CustDataHW);
 4319              	LM170:
 4320 1b9b 8B4518   		movl	24(%ebp), %eax
 4321 1b9e 89442408 		movl	%eax, 8(%esp)
 4322 1ba2 C7442404 		movl	$LC65, 4(%esp)
 4322      11180000 
 4323 1baa 8B45F0   		movl	-16(%ebp), %eax
 4324 1bad 890424   		movl	%eax, (%esp)
 4325 1bb0 E8000000 		call	_fprintf
 4325      00
 4326 1bb5 EB1A     		jmp	L70
 4327              	L69:
GAS LISTING d:/software/ovi_2503a_s3trc/ovi_2503a_s3trc/plutommi/Customer/ResGenerator/gcctmp/ccgnaaaa.s 			page 58


1354:mtk_resgenerator.cpp ****         }else{
1355:mtk_resgenerator.cpp ****             fprintf(pFile, "#include \"%s\"\n", str_CustDataHW);	        
 4329              	LM171:
 4330 1bb7 8B4518   		movl	24(%ebp), %eax
 4331 1bba 89442408 		movl	%eax, 8(%esp)
 4332 1bbe C7442404 		movl	$LC65, 4(%esp)
 4332      11180000 
 4333 1bc6 8B45F0   		movl	-16(%ebp), %eax
 4334 1bc9 890424   		movl	%eax, (%esp)
 4335 1bcc E8000000 		call	_fprintf
 4335      00
 4336              	L70:
1356:mtk_resgenerator.cpp ****         }
1357:mtk_resgenerator.cpp **** 
1358:mtk_resgenerator.cpp **** 
1359:mtk_resgenerator.cpp ****         /* writing the image filename inside the file. */
1360:mtk_resgenerator.cpp ****         if(nSize)
 4338              	LM172:
 4339              	LBB12:
 4340 1bd1 66837DF6 		cmpw	$0, -10(%ebp)
 4340      00
 4341 1bd6 0F849500 		je	L71
 4341      0000
1361:mtk_resgenerator.cpp ****         {
1362:mtk_resgenerator.cpp ****             int i = 0;
 4343              	LM173:
 4344              	LBB13:
 4345 1bdc C745EC00 		movl	$0, -20(%ebp)
 4345      000000
1363:mtk_resgenerator.cpp **** 
1364:mtk_resgenerator.cpp **** #ifdef __MULTI_BIN_LOAD__
1365:mtk_resgenerator.cpp ****             fprintf(pFile, "const %s	%s[]={\n", str_CustType, str_mtk_nCustNames);
 4347              	LM174:
 4348 1be3 8B4524   		movl	36(%ebp), %eax
 4349 1be6 8944240C 		movl	%eax, 12(%esp)
 4350 1bea 8B4530   		movl	48(%ebp), %eax
 4351 1bed 89442408 		movl	%eax, 8(%esp)
 4352 1bf1 C7442404 		movl	$LC66, 4(%esp)
 4352      20180000 
 4353 1bf9 8B45F0   		movl	-16(%ebp), %eax
 4354 1bfc 890424   		movl	%eax, (%esp)
 4355 1bff E8000000 		call	_fprintf
 4355      00
1366:mtk_resgenerator.cpp **** #else
1367:mtk_resgenerator.cpp ****             fprintf(pFile, "const %s	%s[]={\n", str_CustType, str_nCustNames);
1368:mtk_resgenerator.cpp **** #endif
1369:mtk_resgenerator.cpp **** 
1370:mtk_resgenerator.cpp ****             for(i = 0; i < nSize; i++)
 4357              	LM175:
 4358              	LBB14:
 4359 1c04 C745EC00 		movl	$0, -20(%ebp)
 4359      000000
 4360              	L72:
 4361 1c0b 0FB745F6 		movzwl	-10(%ebp), %eax
 4362 1c0f 3945EC   		cmpl	%eax, -20(%ebp)
 4363 1c12 7C02     		jl	L75
 4364 1c14 EB46     		jmp	L73
GAS LISTING d:/software/ovi_2503a_s3trc/ovi_2503a_s3trc/plutommi/Customer/ResGenerator/gcctmp/ccgnaaaa.s 			page 59


 4365              	L75:
1371:mtk_resgenerator.cpp ****             {
1372:mtk_resgenerator.cpp ****                 S8 pBuffName[512];
1373:mtk_resgenerator.cpp **** 
1374:mtk_resgenerator.cpp ****                 Extract_Name(pBuffName, pName[i].filename, extFlag);
 4367              	LM176:
 4368              	LBB15:
 4369              	LBB16:
 4370 1c16 8B4538   		movl	56(%ebp), %eax
 4371 1c19 89442408 		movl	%eax, 8(%esp)
 4372 1c1d 8B45EC   		movl	-20(%ebp), %eax
 4373 1c20 C1E009   		sall	$9, %eax
 4374 1c23 034510   		addl	16(%ebp), %eax
 4375 1c26 89442404 		movl	%eax, 4(%esp)
 4376 1c2a 8D85E8FD 		leal	-536(%ebp), %eax
 4376      FFFF
 4377 1c30 890424   		movl	%eax, (%esp)
 4378 1c33 E8000000 		call	_Extract_Name
 4378      00
1375:mtk_resgenerator.cpp ****                 #ifdef __MMI_FONT_THIRD_ROM_SUPPORT__
1376:mtk_resgenerator.cpp ****                 if(type == RES_FONT)
1377:mtk_resgenerator.cpp ****                     fprintf(pFile, "(U8*)NULL,\n");
1378:mtk_resgenerator.cpp ****                 else
1379:mtk_resgenerator.cpp ****                 #endif
1380:mtk_resgenerator.cpp ****                 fprintf(pFile, "(U8*)&%s,\n", pBuffName);
 4380              	LM177:
 4381 1c38 8D85E8FD 		leal	-536(%ebp), %eax
 4381      FFFF
 4382 1c3e 89442408 		movl	%eax, 8(%esp)
 4383 1c42 C7442404 		movl	$LC67, 4(%esp)
 4383      31180000 
 4384 1c4a 8B45F0   		movl	-16(%ebp), %eax
 4385 1c4d 890424   		movl	%eax, (%esp)
 4386 1c50 E8000000 		call	_fprintf
 4386      00
 4388              	LM178:
 4389 1c55 8D45EC   		leal	-20(%ebp), %eax
 4390              	LBE16:
 4391              	LBE15:
 4392 1c58 FF00     		incl	(%eax)
 4393 1c5a EBAF     		jmp	L72
 4394              	L73:
1381:mtk_resgenerator.cpp ****             }
1382:mtk_resgenerator.cpp **** 
1383:mtk_resgenerator.cpp **** #if defined(__CAT_SUPPORT__) && defined(MMIRESOURCE_CAT_IMG_RESERVED_SIZE_BYTE) && (MMIRESOURCE_CAT
1384:mtk_resgenerator.cpp ****             /* Add reserved space for CAT tool to image RES regions*/
1385:mtk_resgenerator.cpp ****             if(type == RES_IMAGE && flag != FALSE){
1386:mtk_resgenerator.cpp ****                 fprintf(pFile, "(U8*)&cat_reserved_space,\n");
1387:mtk_resgenerator.cpp ****             }
1388:mtk_resgenerator.cpp **** #endif
1389:mtk_resgenerator.cpp ****             fprintf(pFile, "};\n\n\n\n");
 4396              	LM179:
 4397              	LBE14:
 4398 1c5c C7442404 		movl	$LC68, 4(%esp)
 4398      3C180000 
 4399 1c64 8B45F0   		movl	-16(%ebp), %eax
 4400 1c67 890424   		movl	%eax, (%esp)
GAS LISTING d:/software/ovi_2503a_s3trc/ovi_2503a_s3trc/plutommi/Customer/ResGenerator/gcctmp/ccgnaaaa.s 			page 60


 4401 1c6a E8000000 		call	_fprintf
 4401      00
 4402              	LBE13:
 4403 1c6f EB21     		jmp	L76
 4404              	L71:
1390:mtk_resgenerator.cpp ****         }
1391:mtk_resgenerator.cpp ****         else
1392:mtk_resgenerator.cpp ****         {
1393:mtk_resgenerator.cpp **** #ifdef __MULTI_BIN_LOAD__
1394:mtk_resgenerator.cpp ****             fprintf(pFile, "const %s	%s[1] = {NULL};\n", str_CustType, str_mtk_nCustNames);
 4406              	LM180:
 4407 1c71 8B4524   		movl	36(%ebp), %eax
 4408 1c74 8944240C 		movl	%eax, 12(%esp)
 4409 1c78 8B4530   		movl	48(%ebp), %eax
 4410 1c7b 89442408 		movl	%eax, 8(%esp)
 4411 1c7f C7442404 		movl	$LC69, 4(%esp)
 4411      43180000 
 4412 1c87 8B45F0   		movl	-16(%ebp), %eax
 4413 1c8a 890424   		movl	%eax, (%esp)
 4414 1c8d E8000000 		call	_fprintf
 4414      00
 4415              	L76:
1395:mtk_resgenerator.cpp **** #else
1396:mtk_resgenerator.cpp ****             fprintf(pFile, "const %s	%s[1] = {NULL};\n", str_CustType, str_nCustNames);
1397:mtk_resgenerator.cpp **** #endif
1398:mtk_resgenerator.cpp ****         }
1399:mtk_resgenerator.cpp **** 
1400:mtk_resgenerator.cpp ****         if(flag == TRUE)
 4417              	LM181:
 4418              	LBE12:
 4419              	LBB17:
 4420 1c92 837D0801 		cmpl	$1, 8(%ebp)
 4421 1c96 0F85D000 		jne	L77
 4421      0000
1401:mtk_resgenerator.cpp ****         {
1402:mtk_resgenerator.cpp ****             if(type == RES_IMAGE)
 4423              	LM182:
 4424              	LBB18:
 4425 1c9c 837D0C00 		cmpl	$0, 12(%ebp)
 4426 1ca0 7529     		jne	L78
1403:mtk_resgenerator.cpp ****             {
1404:mtk_resgenerator.cpp **** #ifdef __MULTI_BIN_LOAD__
1405:mtk_resgenerator.cpp ****                 fprintf(pFile, "const CUSTPACK_IMAGE_HEADER mtk_image_header={%d, (%s *)%s};", nSiz
 4428              	LM183:
 4429 1ca2 8B4524   		movl	36(%ebp), %eax
 4430 1ca5 89442410 		movl	%eax, 16(%esp)
 4431 1ca9 8B4530   		movl	48(%ebp), %eax
 4432 1cac 8944240C 		movl	%eax, 12(%esp)
 4433 1cb0 0FB745F6 		movzwl	-10(%ebp), %eax
 4434 1cb4 89442408 		movl	%eax, 8(%esp)
 4435 1cb8 C7442404 		movl	$LC70, 4(%esp)
 4435      60180000 
 4436 1cc0 8B45F0   		movl	-16(%ebp), %eax
 4437 1cc3 890424   		movl	%eax, (%esp)
 4438 1cc6 E8000000 		call	_fprintf
 4438      00
 4439              	L78:
GAS LISTING d:/software/ovi_2503a_s3trc/ovi_2503a_s3trc/plutommi/Customer/ResGenerator/gcctmp/ccgnaaaa.s 			page 61


1406:mtk_resgenerator.cpp **** #else
1407:mtk_resgenerator.cpp ****                 fprintf(pFile, "const CUSTPACK_IMAGE_HEADER mtk_image_header={%d, (%s *)%s};", nSiz
1408:mtk_resgenerator.cpp **** #endif
1409:mtk_resgenerator.cpp ****             }
1410:mtk_resgenerator.cpp **** 
1411:mtk_resgenerator.cpp ****             if(type == RES_AUDIO)
 4441              	LM184:
 4442 1ccb 837D0C02 		cmpl	$2, 12(%ebp)
 4443 1ccf 7529     		jne	L79
1412:mtk_resgenerator.cpp ****             {
1413:mtk_resgenerator.cpp **** #ifdef __MULTI_BIN_LOAD__
1414:mtk_resgenerator.cpp ****                 fprintf(pFile, "const CUSTPACK_AUDIO_HEADER mtk_audio_header={%d, (%s *)%s};", nSiz
 4445              	LM185:
 4446 1cd1 8B4524   		movl	36(%ebp), %eax
 4447 1cd4 89442410 		movl	%eax, 16(%esp)
 4448 1cd8 8B4530   		movl	48(%ebp), %eax
 4449 1cdb 8944240C 		movl	%eax, 12(%esp)
 4450 1cdf 0FB745F6 		movzwl	-10(%ebp), %eax
 4451 1ce3 89442408 		movl	%eax, 8(%esp)
 4452 1ce7 C7442404 		movl	$LC71, 4(%esp)
 4452      A0180000 
 4453 1cef 8B45F0   		movl	-16(%ebp), %eax
 4454 1cf2 890424   		movl	%eax, (%esp)
 4455 1cf5 E8000000 		call	_fprintf
 4455      00
 4456              	L79:
1415:mtk_resgenerator.cpp **** #else
1416:mtk_resgenerator.cpp ****                 fprintf(pFile, "const CUSTPACK_AUDIO_HEADER mtk_audio_header={%d, (%s *)%s};", nSiz
1417:mtk_resgenerator.cpp **** #endif
1418:mtk_resgenerator.cpp ****             }
1419:mtk_resgenerator.cpp **** 
1420:mtk_resgenerator.cpp ****             if(type == RES_BINARY)
 4458              	LM186:
 4459 1cfa 837D0C05 		cmpl	$5, 12(%ebp)
 4460 1cfe 7529     		jne	L80
1421:mtk_resgenerator.cpp ****             {
1422:mtk_resgenerator.cpp ****                 fprintf(pFile, "const CUSTPACK_BINARY_HEADER mtk_binary_header={%d, (%s *)%s};", nS
 4462              	LM187:
 4463 1d00 8B4528   		movl	40(%ebp), %eax
 4464 1d03 89442410 		movl	%eax, 16(%esp)
 4465 1d07 8B4530   		movl	48(%ebp), %eax
 4466 1d0a 8944240C 		movl	%eax, 12(%esp)
 4467 1d0e 0FB745F6 		movzwl	-10(%ebp), %eax
 4468 1d12 89442408 		movl	%eax, 8(%esp)
 4469 1d16 C7442404 		movl	$LC72, 4(%esp)
 4469      E0180000 
 4470 1d1e 8B45F0   		movl	-16(%ebp), %eax
 4471 1d21 890424   		movl	%eax, (%esp)
 4472 1d24 E8000000 		call	_fprintf
 4472      00
 4473              	L80:
1423:mtk_resgenerator.cpp ****             }
1424:mtk_resgenerator.cpp **** 
1425:mtk_resgenerator.cpp ****             if(type == RES_FONT)
 4475              	LM188:
 4476              	LBB19:
 4477 1d29 837D0C04 		cmpl	$4, 12(%ebp)
GAS LISTING d:/software/ovi_2503a_s3trc/ovi_2503a_s3trc/plutommi/Customer/ResGenerator/gcctmp/ccgnaaaa.s 			page 62


 4478 1d2d 7556     		jne	L82
1426:mtk_resgenerator.cpp ****             {
1427:mtk_resgenerator.cpp ****                 int i = 0;
 4480              	LM189:
 4481              	LBB20:
 4482 1d2f C745EC00 		movl	$0, -20(%ebp)
 4482      000000
1428:mtk_resgenerator.cpp **** 				
1429:mtk_resgenerator.cpp **** #ifdef __MULTI_BIN_LOAD__
1430:mtk_resgenerator.cpp ****                 fprintf(pFile, "const CUSTPACK_FONT_HEADER mtk_font_header={%d, %d, (%s *)%s, mtk_C
 4484              	LM190:
 4485 1d36 8B4524   		movl	36(%ebp), %eax
 4486 1d39 89442414 		movl	%eax, 20(%esp)
 4487 1d3d 8B4530   		movl	48(%ebp), %eax
 4488 1d40 89442410 		movl	%eax, 16(%esp)
 4489 1d44 0FB70500 		movzwl	_CurrMaxSearchFontIdEXT, %eax
 4489      000000
 4490 1d4b 8944240C 		movl	%eax, 12(%esp)
 4491 1d4f 0FB745F6 		movzwl	-10(%ebp), %eax
 4492 1d53 89442408 		movl	%eax, 8(%esp)
 4493 1d57 C7442404 		movl	$LC73, 4(%esp)
 4493      20190000 
 4494 1d5f 8B45F0   		movl	-16(%ebp), %eax
 4495 1d62 890424   		movl	%eax, (%esp)
 4496 1d65 E8000000 		call	_fprintf
 4496      00
 4497              	LBE20:
 4498              	LBE19:
 4499              	LBE18:
 4500 1d6a EB19     		jmp	L82
 4501              	L77:
1431:mtk_resgenerator.cpp **** #else
1432:mtk_resgenerator.cpp ****                 fprintf(pFile, "const CUSTPACK_FONT_HEADER mtk_font_header={%d, %d, (%s *)%s, mtk_C
1433:mtk_resgenerator.cpp **** #endif
1434:mtk_resgenerator.cpp ****                 #ifdef __MMI_FONT_THIRD_ROM_SUPPORT__
1435:mtk_resgenerator.cpp ****                 fprintf(pFile, "\n\n#ifdef __MMI_FONT_THIRD_ROM_SUPPORT__\n");
1436:mtk_resgenerator.cpp ****                 fprintf(pFile, "ENFB_Font_Res_Info ENFBFontResInfo[] = {\n");
1437:mtk_resgenerator.cpp ****                 for(i = 0; i < nSize; i++)
1438:mtk_resgenerator.cpp ****                 {
1439:mtk_resgenerator.cpp ****                     fprintf(pFile, "{%s%d, 0x%x, 0x%x},\n", "IMG_GLOBAL_FONT_", ENFBFontResInfo[i].
1440:mtk_resgenerator.cpp ****                 }
1441:mtk_resgenerator.cpp ****                 fprintf(pFile, "};\n");
1442:mtk_resgenerator.cpp ****                 fprintf(pFile, "#endif\n");
1443:mtk_resgenerator.cpp ****                 #endif
1444:mtk_resgenerator.cpp ****             }
1445:mtk_resgenerator.cpp **** 
1446:mtk_resgenerator.cpp ****         }else{
1447:mtk_resgenerator.cpp ****             if((type == RES_IMAGE))
 4503              	LM191:
 4504 1d6c 837D0C00 		cmpl	$0, 12(%ebp)
 4505 1d70 7513     		jne	L82
1448:mtk_resgenerator.cpp **** 	    {
1449:mtk_resgenerator.cpp **** 	        fprintf( pFile, "#endif//!__MMI_RESOURCE_IMAGE_GROUP_COMPRESS__ || __MMI_RESOURCE_UT_UNCOM
 4507              	LM192:
 4508 1d72 C7442404 		movl	$LC74, 4(%esp)
 4508      A0190000 
 4509 1d7a 8B45F0   		movl	-16(%ebp), %eax
GAS LISTING d:/software/ovi_2503a_s3trc/ovi_2503a_s3trc/plutommi/Customer/ResGenerator/gcctmp/ccgnaaaa.s 			page 63


 4510 1d7d 890424   		movl	%eax, (%esp)
 4511 1d80 E8000000 		call	_fprintf
 4511      00
 4512              	L82:
1450:mtk_resgenerator.cpp ****             }
1451:mtk_resgenerator.cpp ****         }
1452:mtk_resgenerator.cpp ****         fclose(pFile);
 4514              	LM193:
 4515              	LBE17:
 4516 1d85 8B45F0   		movl	-16(%ebp), %eax
 4517 1d88 890424   		movl	%eax, (%esp)
 4518 1d8b E8000000 		call	_fclose
 4518      00
1453:mtk_resgenerator.cpp ****     }
1454:mtk_resgenerator.cpp **** }
 4520              	LM194:
 4521              	L56:
 4522 1d90 C9       		leave
 4523 1d91 C3       		ret
 4524              	LBE11:
 4525              	LBE10:
 4526              	LBE9:
 4540              	Lscope8:
 4546 1d92 8DB42600 		.align 32
 4546      0000008D 
 4546      BC270000 
 4546      0000
 4547              	LC75:
 4548 1da0 47656E65 		.ascii "GenerateImageResFile(): File output: CustImgDataHW.h CustImgDataHWExt.h\0"
 4548      72617465 
 4548      496D6167 
 4548      65526573 
 4548      46696C65 
 4549 1de8 90909090 		.align 32
 4549      90909090 
 4549      90909090 
 4549      90909090 
 4549      90909090 
 4550              	LC76:
 4551 1e00 2E2E5C2E 		.ascii "..\\..\\Customer\\CustResource\\CustImgMapMeta.txt\0"
 4551      2E5C4375 
 4551      73746F6D 
 4551      65725C43 
 4551      75737452 
 4552 1e2f 90909090 		.align 32
 4552      90909090 
 4552      90909090 
 4552      90909090 
 4552      90
 4553              	LC77:
 4554 1e40 2E2E5C2E 		.ascii "..\\..\\Customer\\CustResource\\CustImgRes.c\0"
 4554      2E5C4375 
 4554      73746F6D 
 4554      65725C43 
 4554      75737452 
 4555              	LC78:
 4556 1e69 43555354 		.ascii "CUSTOM_IMAGE\0"
GAS LISTING d:/software/ovi_2503a_s3trc/ovi_2503a_s3trc/plutommi/Customer/ResGenerator/gcctmp/ccgnaaaa.s 			page 64


 4556      4F4D5F49 
 4556      4D414745 
 4556      00
 4557              	LC79:
 4558 1e76 496D6167 		.ascii "ImageNameList\0"
 4558      654E616D 
 4558      654C6973 
 4558      7400
 4559              	LC80:
 4560 1e84 6E437573 		.ascii "nCustImageNames\0"
 4560      74496D61 
 4560      67654E61 
 4560      6D657300 
 4561              	LC81:
 4562 1e94 6D746B5F 		.ascii "mtk_nCustImageNames\0"
 4562      6E437573 
 4562      74496D61 
 4562      67654E61 
 4562      6D657300 
 4563              	LC82:
 4564 1ea8 43757272 		.ascii "CurrMaxImageNum\0"
 4564      4D617849 
 4564      6D616765 
 4564      4E756D00 
 4565              	LC83:
 4566 1eb8 6D746B5F 		.ascii "mtk_CurrMaxImageNum\0"
 4566      43757272 
 4566      4D617849 
 4566      6D616765 
 4566      4E756D00 
 4567              	LC84:
 4568 1ecc 43757374 		.ascii "CustImgDataHW.h\0"
 4568      496D6744 
 4568      61746148 
 4568      572E6800 
 4569 1edc 8D742600 		.align 32
 4570              	LC85:
 4571 1ee0 2E2E5C2E 		.ascii "..\\..\\Customer\\CustResource\\CustImgResExt.c\0"
 4571      2E5C4375 
 4571      73746F6D 
 4571      65725C43 
 4571      75737452 
 4572              	LC86:
 4573 1f0c 496D6167 		.ascii "ImageNameListEXT\0"
 4573      654E616D 
 4573      654C6973 
 4573      74455854 
 4573      00
 4574              	LC87:
 4575 1f1d 6E437573 		.ascii "nCustImageNamesEXT\0"
 4575      74496D61 
 4575      67654E61 
 4575      6D657345 
 4575      585400
 4576              	LC88:
 4577 1f30 6D746B5F 		.ascii "mtk_nCustImageNamesEXT\0"
 4577      6E437573 
GAS LISTING d:/software/ovi_2503a_s3trc/ovi_2503a_s3trc/plutommi/Customer/ResGenerator/gcctmp/ccgnaaaa.s 			page 65


 4577      74496D61 
 4577      67654E61 
 4577      6D657345 
 4578              	LC89:
 4579 1f47 43757272 		.ascii "CurrMaxImageNumEXT\0"
 4579      4D617849 
 4579      6D616765 
 4579      4E756D45 
 4579      585400
 4580              	LC90:
 4581 1f5a 6D746B5F 		.ascii "mtk_CurrMaxImageNumEXT\0"
 4581      43757272 
 4581      4D617849 
 4581      6D616765 
 4581      4E756D45 
 4582              	LC91:
 4583 1f71 43757374 		.ascii "CustImgDataHWExt.h\0"
 4583      496D6744 
 4583      61746148 
 4583      57457874 
 4583      2E6800
 4584              		.align 2
 4587              	__Z20GenerateImageResFilev:
1455:mtk_resgenerator.cpp **** 
1456:mtk_resgenerator.cpp **** 
1457:mtk_resgenerator.cpp **** 
1458:mtk_resgenerator.cpp **** /*****************************************************************************
1459:mtk_resgenerator.cpp **** * FUNCTION
1460:mtk_resgenerator.cpp **** *  GenerateImageResFile
1461:mtk_resgenerator.cpp **** * DESCRIPTION
1462:mtk_resgenerator.cpp **** *  generate image resource file
1463:mtk_resgenerator.cpp **** * PARAMETERS
1464:mtk_resgenerator.cpp **** *  void
1465:mtk_resgenerator.cpp **** * RETURNS
1466:mtk_resgenerator.cpp **** *  void
1467:mtk_resgenerator.cpp **** *****************************************************************************/
1468:mtk_resgenerator.cpp **** static void GenerateImageResFile(void)
1469:mtk_resgenerator.cpp **** {
 4589              	LM195:
 4590 1f84 55       		pushl	%ebp
 4591 1f85 89E5     		movl	%esp, %ebp
 4592 1f87 57       		pushl	%edi
 4593 1f88 56       		pushl	%esi
 4594 1f89 53       		pushl	%ebx
 4595 1f8a 81EC9C02 		subl	$668, %esp
 4595      0000
 4596 1f90 C785C4FD 		movl	$___gxx_personality_sj0, -572(%ebp)
 4596      FFFF0000 
 4596      0000
 4597 1f9a C785C8FD 		movl	$LLSDA2030, -568(%ebp)
 4597      FFFF0000 
 4597      0000
 4598 1fa4 8D85CCFD 		leal	-564(%ebp), %eax
 4598      FFFF
 4599 1faa 8D55E8   		leal	-24(%ebp), %edx
 4600 1fad 8910     		movl	%edx, (%eax)
 4601 1faf BA2A2000 		movl	$L97, %edx
GAS LISTING d:/software/ovi_2503a_s3trc/ovi_2503a_s3trc/plutommi/Customer/ResGenerator/gcctmp/ccgnaaaa.s 			page 66


 4601      00
 4602 1fb4 895004   		movl	%edx, 4(%eax)
 4603 1fb7 896008   		movl	%esp, 8(%eax)
 4604 1fba 8D85ACFD 		leal	-596(%ebp), %eax
 4604      FFFF
 4605 1fc0 890424   		movl	%eax, (%esp)
 4606 1fc3 E8000000 		call	__Unwind_SjLj_Register
 4606      00
1470:mtk_resgenerator.cpp ****     /*----------------------------------------------------------------*/
1471:mtk_resgenerator.cpp ****     /* Local Variables                                                */
1472:mtk_resgenerator.cpp ****     /*----------------------------------------------------------------*/
1473:mtk_resgenerator.cpp **** 
1474:mtk_resgenerator.cpp ****     /*----------------------------------------------------------------*/
1475:mtk_resgenerator.cpp ****     /* Code Body                                                      */
1476:mtk_resgenerator.cpp ****     /*----------------------------------------------------------------*/
1477:mtk_resgenerator.cpp ****     RESGEN_LOG_V("GenerateImageResFile(): File output: CustImgDataHW.h CustImgDataHWExt.h");
 4608              	LM196:
 4609              	LBB21:
 4610 1fc8 C7442408 		movl	$LC75, 8(%esp)
 4610      A01D0000 
 4611 1fd0 C7442404 		movl	$LC1, 4(%esp)
 4611      3E000000 
 4612 1fd8 C7042401 		movl	$1, (%esp)
 4612      000000
 4613 1fdf C785B0FD 		movl	$-1, -592(%ebp)
 4613      FFFFFFFF 
 4613      FFFF
 4614 1fe9 E8000000 		call	_reslog_adaptor_log
 4614      00
1478:mtk_resgenerator.cpp ****     // create group image meta file
1479:mtk_resgenerator.cpp ****     ImageGroupMappingMetaCreator * metaCreator = new ImageGroupMappingMetaCreator();
 4616              	LM197:
 4617 1fee C704240C 		movl	$12, (%esp)
 4617      000000
 4618 1ff5 E8000000 		call	__Znwj
 4618      00
 4619 1ffa 8985A8FD 		movl	%eax, -600(%ebp)
 4619      FFFF
 4620 2000 C685A7FD 		movb	$1, -601(%ebp)
 4620      FFFF01
 4621 2007 8B85A8FD 		movl	-600(%ebp), %eax
 4621      FFFF
 4622 200d 890424   		movl	%eax, (%esp)
 4623 2010 C785B0FD 		movl	$1, -592(%ebp)
 4623      FFFF0100 
 4623      0000
 4624 201a E8000000 		call	__ZN28ImageGroupMappingMetaCreatorC1Ev
 4624      00
 4625 201f 8B95A8FD 		movl	-600(%ebp), %edx
 4625      FFFF
 4626 2025 8955E4   		movl	%edx, -28(%ebp)
 4627 2028 EB56     		jmp	L86
 4628              	L97:
 4629 202a 8D6D18   		leal	24(%ebp), %ebp
 4630 202d 8B85B4FD 		movl	-588(%ebp), %eax
 4630      FFFF
 4631 2033 89859CFD 		movl	%eax, -612(%ebp)
GAS LISTING d:/software/ovi_2503a_s3trc/ovi_2503a_s3trc/plutommi/Customer/ResGenerator/gcctmp/ccgnaaaa.s 			page 67


 4631      FFFF
 4632              	L85:
 4633 2039 8B959CFD 		movl	-612(%ebp), %edx
 4633      FFFF
 4634 203f 8995A0FD 		movl	%edx, -608(%ebp)
 4634      FFFF
 4635 2045 80BDA7FD 		cmpb	$0, -601(%ebp)
 4635      FFFF00
 4636 204c 740E     		je	L88
 4637 204e 8B85A8FD 		movl	-600(%ebp), %eax
 4637      FFFF
 4638 2054 890424   		movl	%eax, (%esp)
 4639 2057 E8000000 		call	__ZdlPv
 4639      00
 4640              	L88:
 4641 205c 8B95A0FD 		movl	-608(%ebp), %edx
 4641      FFFF
 4642 2062 89959CFD 		movl	%edx, -612(%ebp)
 4642      FFFF
 4643              	L89:
 4644 2068 8B859CFD 		movl	-612(%ebp), %eax
 4644      FFFF
 4645 206e 890424   		movl	%eax, (%esp)
 4646 2071 C785B0FD 		movl	$-1, -592(%ebp)
 4646      FFFFFFFF 
 4646      FFFF
 4647 207b E8000000 		call	__Unwind_SjLj_Resume
 4647      00
 4648              	L86:
1480:mtk_resgenerator.cpp ****     for(int i =0; i< CurrMaxImageNum; i++ ){
 4650              	LM198:
 4651              	LBB22:
 4652 2080 C745E000 		movl	$0, -32(%ebp)
 4652      000000
 4653              	L91:
 4654 2087 0FB70500 		movzwl	_CurrMaxImageNum, %eax
 4654      000000
 4655 208e 3945E0   		cmpl	%eax, -32(%ebp)
 4656 2091 7C02     		jl	L94
 4657 2093 EB4B     		jmp	L92
 4658              	L94:
1481:mtk_resgenerator.cpp ****         S8 pBuffName[512];
1482:mtk_resgenerator.cpp ****         Extract_Name(pBuffName, ImageNameList[i].filename, SYSTEM_IMAGE);
 4660              	LM199:
 4661              	LBB23:
 4662              	LBB24:
 4663 2095 C7442408 		movl	$0, 8(%esp)
 4663      00000000 
 4664 209d 8B45E0   		movl	-32(%ebp), %eax
 4665 20a0 C1E009   		sall	$9, %eax
 4666 20a3 05000000 		addl	$_ImageNameList, %eax
 4666      00
 4667 20a8 89442404 		movl	%eax, 4(%esp)
 4668 20ac 8D85D8FD 		leal	-552(%ebp), %eax
 4668      FFFF
 4669 20b2 890424   		movl	%eax, (%esp)
 4670 20b5 C785B0FD 		movl	$-1, -592(%ebp)
GAS LISTING d:/software/ovi_2503a_s3trc/ovi_2503a_s3trc/plutommi/Customer/ResGenerator/gcctmp/ccgnaaaa.s 			page 68


 4670      FFFFFFFF 
 4670      FFFF
 4671 20bf E8000000 		call	_Extract_Name
 4671      00
1483:mtk_resgenerator.cpp ****         metaCreator->addImage(pBuffName);
 4673              	LM200:
 4674 20c4 8D85D8FD 		leal	-552(%ebp), %eax
 4674      FFFF
 4675 20ca 89442404 		movl	%eax, 4(%esp)
 4676 20ce 8B45E4   		movl	-28(%ebp), %eax
 4677 20d1 890424   		movl	%eax, (%esp)
 4678 20d4 E8000000 		call	__ZN28ImageGroupMappingMetaCreator8addImageEPKc
 4678      00
 4680              	LM201:
 4681 20d9 8D45E0   		leal	-32(%ebp), %eax
 4682              	LBE24:
 4683              	LBE23:
 4684 20dc FF00     		incl	(%eax)
 4685 20de EBA7     		jmp	L91
 4686              	L92:
1484:mtk_resgenerator.cpp ****     }
1485:mtk_resgenerator.cpp ****     metaCreator->generateMetaFile("..\\..\\Customer\\CustResource\\CustImgMapMeta.txt");
 4688              	LM202:
 4689              	LBE22:
 4690 20e0 C7442404 		movl	$LC76, 4(%esp)
 4690      001E0000 
 4691 20e8 8B45E4   		movl	-28(%ebp), %eax
 4692 20eb 890424   		movl	%eax, (%esp)
 4693 20ee C785B0FD 		movl	$-1, -592(%ebp)
 4693      FFFFFFFF 
 4693      FFFF
 4694 20f8 E8000000 		call	__ZN28ImageGroupMappingMetaCreator16generateMetaFileEPKc
 4694      00
1486:mtk_resgenerator.cpp ****     delete metaCreator;
 4696              	LM203:
 4697 20fd 8B55E4   		movl	-28(%ebp), %edx
 4698 2100 899598FD 		movl	%edx, -616(%ebp)
 4698      FFFF
 4699 2106 83BD98FD 		cmpl	$0, -616(%ebp)
 4699      FFFF00
 4700 210d 741C     		je	L96
 4701 210f 8B8598FD 		movl	-616(%ebp), %eax
 4701      FFFF
 4702 2115 890424   		movl	%eax, (%esp)
 4703 2118 E8000000 		call	__ZN28ImageGroupMappingMetaCreatorD1Ev
 4703      00
 4704 211d 8B9598FD 		movl	-616(%ebp), %edx
 4704      FFFF
 4705 2123 891424   		movl	%edx, (%esp)
 4706 2126 E8000000 		call	__ZdlPv
 4706      00
 4707              	L96:
1487:mtk_resgenerator.cpp **** 	
1488:mtk_resgenerator.cpp ****     GenerateResFile_Ext(
 4709              	LM204:
 4710 212b C7442430 		movl	$0, 48(%esp)
 4710      00000000 
GAS LISTING d:/software/ovi_2503a_s3trc/ovi_2503a_s3trc/plutommi/Customer/ResGenerator/gcctmp/ccgnaaaa.s 			page 69


 4711 2133 C744242C 		movl	$LC77, 44(%esp)
 4711      401E0000 
 4712 213b C7442428 		movl	$LC78, 40(%esp)
 4712      691E0000 
 4713 2143 C7442424 		movl	$LC79, 36(%esp)
 4713      761E0000 
 4714 214b C7442420 		movl	$LC80, 32(%esp)
 4714      841E0000 
 4715 2153 C744241C 		movl	$LC81, 28(%esp)
 4715      941E0000 
 4716 215b C7442418 		movl	$LC82, 24(%esp)
 4716      A81E0000 
 4717 2163 C7442414 		movl	$LC83, 20(%esp)
 4717      B81E0000 
 4718 216b C7442410 		movl	$LC84, 16(%esp)
 4718      CC1E0000 
 4719 2173 0FB70500 		movzwl	_CurrMaxImageNum, %eax
 4719      000000
 4720 217a 8944240C 		movl	%eax, 12(%esp)
 4721 217e C7442408 		movl	$_ImageNameList, 8(%esp)
 4721      00000000 
 4722 2186 C7442404 		movl	$0, 4(%esp)
 4722      00000000 
 4723 218e C7042400 		movl	$0, (%esp)
 4723      000000
 4724 2195 C785B0FD 		movl	$-1, -592(%ebp)
 4724      FFFFFFFF 
 4724      FFFF
 4725 219f E85EF8FF 		call	__Z19GenerateResFile_Exti18RESOURCE_TYPE_LISTP16CUSTOM_NAME_LISTtPcS2_S2_S2_S2_S2_S2_S2_j
 4725      FF
1489:mtk_resgenerator.cpp ****         FALSE,
1490:mtk_resgenerator.cpp ****         RES_IMAGE,
1491:mtk_resgenerator.cpp ****         (CUSTOM_NAME_LIST *)ImageNameList,
1492:mtk_resgenerator.cpp ****         CurrMaxImageNum,
1493:mtk_resgenerator.cpp ****         "CustImgDataHW.h",
1494:mtk_resgenerator.cpp ****         "mtk_CurrMaxImageNum",
1495:mtk_resgenerator.cpp ****         "CurrMaxImageNum",
1496:mtk_resgenerator.cpp ****         "mtk_nCustImageNames",
1497:mtk_resgenerator.cpp ****         "nCustImageNames",
1498:mtk_resgenerator.cpp ****         "ImageNameList",
1499:mtk_resgenerator.cpp ****         "CUSTOM_IMAGE",
1500:mtk_resgenerator.cpp ****         IMG_DATA_FILENAME,
1501:mtk_resgenerator.cpp ****         SYSTEM_IMAGE);
1502:mtk_resgenerator.cpp ****     GenerateResFile_Ext(
 4727              	LM205:
 4728 21a4 C7442430 		movl	$1, 48(%esp)
 4728      01000000 
 4729 21ac C744242C 		movl	$LC85, 44(%esp)
 4729      E01E0000 
 4730 21b4 C7442428 		movl	$LC78, 40(%esp)
 4730      691E0000 
 4731 21bc C7442424 		movl	$LC86, 36(%esp)
 4731      0C1F0000 
 4732 21c4 C7442420 		movl	$LC87, 32(%esp)
 4732      1D1F0000 
 4733 21cc C744241C 		movl	$LC88, 28(%esp)
 4733      301F0000 
GAS LISTING d:/software/ovi_2503a_s3trc/ovi_2503a_s3trc/plutommi/Customer/ResGenerator/gcctmp/ccgnaaaa.s 			page 70


 4734 21d4 C7442418 		movl	$LC89, 24(%esp)
 4734      471F0000 
 4735 21dc C7442414 		movl	$LC90, 20(%esp)
 4735      5A1F0000 
 4736 21e4 C7442410 		movl	$LC91, 16(%esp)
 4736      711F0000 
 4737 21ec 0FB70500 		movzwl	_CurrMaxImageNumEXT, %eax
 4737      000000
 4738 21f3 8944240C 		movl	%eax, 12(%esp)
 4739 21f7 C7442408 		movl	$_ImageNameListEXT, 8(%esp)
 4739      00000000 
 4740 21ff C7442404 		movl	$0, 4(%esp)
 4740      00000000 
 4741 2207 C7042401 		movl	$1, (%esp)
 4741      000000
 4742 220e E8EFF7FF 		call	__Z19GenerateResFile_Exti18RESOURCE_TYPE_LISTP16CUSTOM_NAME_LISTtPcS2_S2_S2_S2_S2_S2_S2_j
 4742      FF
1503:mtk_resgenerator.cpp ****         TRUE,
1504:mtk_resgenerator.cpp ****         RES_IMAGE,
1505:mtk_resgenerator.cpp ****         (CUSTOM_NAME_LIST *)ImageNameListEXT,
1506:mtk_resgenerator.cpp ****         CurrMaxImageNumEXT,
1507:mtk_resgenerator.cpp ****         "CustImgDataHWExt.h",
1508:mtk_resgenerator.cpp ****         "mtk_CurrMaxImageNumEXT",
1509:mtk_resgenerator.cpp ****         "CurrMaxImageNumEXT",
1510:mtk_resgenerator.cpp ****         "mtk_nCustImageNamesEXT",
1511:mtk_resgenerator.cpp ****         "nCustImageNamesEXT",
1512:mtk_resgenerator.cpp ****         "ImageNameListEXT",
1513:mtk_resgenerator.cpp ****         "CUSTOM_IMAGE",
1514:mtk_resgenerator.cpp ****         IMG_DATA_FILENAME_EXT,
1515:mtk_resgenerator.cpp ****         EXT_IMAGE);
1516:mtk_resgenerator.cpp **** }
 4744              	LM206:
 4745              	L84:
 4746 2213 8D85ACFD 		leal	-596(%ebp), %eax
 4746      FFFF
 4747 2219 890424   		movl	%eax, (%esp)
 4748 221c E8000000 		call	__Unwind_SjLj_Unregister
 4748      00
 4749 2221 81C49C02 		addl	$668, %esp
 4749      0000
 4750 2227 5B       		popl	%ebx
 4751 2228 5E       		popl	%esi
 4752 2229 5F       		popl	%edi
 4753 222a 5D       		popl	%ebp
 4754 222b C3       		ret
 4755              	LBE21:
 4756              		.section	.gcc_except_table,""
 4757              	LLSDA2030:
 4758 0000 FF       		.byte	0xff
 4759 0001 FF       		.byte	0xff
 4760 0002 01       		.byte	0x1
 4761 0003 02       		.uleb128 LLSDACSE2030-LLSDACSB2030
 4762              	LLSDACSB2030:
 4763 0004 00       		.uleb128 0x0
 4764 0005 00       		.uleb128 0x0
 4765              	LLSDACSE2030:
 4766              		.text
GAS LISTING d:/software/ovi_2503a_s3trc/ovi_2503a_s3trc/plutommi/Customer/ResGenerator/gcctmp/ccgnaaaa.s 			page 71


 4776              	Lscope9:
 4778 222c 90909090 		.align 32
 4778      90909090 
 4778      90909090 
 4778      90909090 
 4778      90909090 
 4779              	LC92:
 4780 2240 47656E65 		.ascii "GenerateAudioResFile(): File output: CustAdoDataHW.h CustAdoDataHWExt.h\0"
 4780      72617465 
 4780      41756469 
 4780      6F526573 
 4780      46696C65 
 4781 2288 90909090 		.align 32
 4781      90909090 
 4781      90909090 
 4781      90909090 
 4781      90909090 
 4782              	LC93:
 4783 22a0 2E2E5C2E 		.ascii "..\\..\\Customer\\CustResource\\CustAdoRes.c\0"
 4783      2E5C4375 
 4783      73746F6D 
 4783      65725C43 
 4783      75737452 
 4784              	LC94:
 4785 22c9 43555354 		.ascii "CUSTOM_AUDIO\0"
 4785      4F4D5F41 
 4785      5544494F 
 4785      00
 4786              	LC95:
 4787 22d6 41756469 		.ascii "AudioNameList\0"
 4787      6F4E616D 
 4787      654C6973 
 4787      7400
 4788              	LC96:
 4789 22e4 6E437573 		.ascii "nCustAudioNames\0"
 4789      74417564 
 4789      696F4E61 
 4789      6D657300 
 4790              	LC97:
 4791 22f4 6D746B5F 		.ascii "mtk_nCustAudioNames\0"
 4791      6E437573 
 4791      74417564 
 4791      696F4E61 
 4791      6D657300 
 4792              	LC98:
 4793 2308 43757272 		.ascii "CurrMaxAudioNum\0"
 4793      4D617841 
 4793      7564696F 
 4793      4E756D00 
 4794              	LC99:
 4795 2318 6D746B5F 		.ascii "mtk_CurrMaxAudioNum\0"
 4795      43757272 
 4795      4D617841 
 4795      7564696F 
 4795      4E756D00 
 4796              	LC100:
 4797 232c 43757374 		.ascii "CustAdoDataHW.h\0"
GAS LISTING d:/software/ovi_2503a_s3trc/ovi_2503a_s3trc/plutommi/Customer/ResGenerator/gcctmp/ccgnaaaa.s 			page 72


 4797      41646F44 
 4797      61746148 
 4797      572E6800 
 4798 233c 8D742600 		.align 32
 4799              	LC101:
 4800 2340 2E2E5C2E 		.ascii "..\\..\\Customer\\CustResource\\CustAdoResExt.c\0"
 4800      2E5C4375 
 4800      73746F6D 
 4800      65725C43 
 4800      75737452 
 4801              	LC102:
 4802 236c 41756469 		.ascii "AudioNameListEXT\0"
 4802      6F4E616D 
 4802      654C6973 
 4802      74455854 
 4802      00
 4803              	LC103:
 4804 237d 6E437573 		.ascii "nCustAudioNamesEXT\0"
 4804      74417564 
 4804      696F4E61 
 4804      6D657345 
 4804      585400
 4805              	LC104:
 4806 2390 6D746B5F 		.ascii "mtk_nCustAudioNamesEXT\0"
 4806      6E437573 
 4806      74417564 
 4806      696F4E61 
 4806      6D657345 
 4807              	LC105:
 4808 23a7 43757272 		.ascii "CurrMaxAudioNumEXT\0"
 4808      4D617841 
 4808      7564696F 
 4808      4E756D45 
 4808      585400
 4809              	LC106:
 4810 23ba 6D746B5F 		.ascii "mtk_CurrMaxAudioNumEXT\0"
 4810      43757272 
 4810      4D617841 
 4810      7564696F 
 4810      4E756D45 
 4811              	LC107:
 4812 23d1 43757374 		.ascii "CustAdoDataHWExt.h\0"
 4812      41646F44 
 4812      61746148 
 4812      57457874 
 4812      2E6800
 4813              		.align 2
 4816              	__Z20GenerateAudioResFilev:
1517:mtk_resgenerator.cpp **** 
1518:mtk_resgenerator.cpp **** 
1519:mtk_resgenerator.cpp **** /*****************************************************************************
1520:mtk_resgenerator.cpp **** * FUNCTION
1521:mtk_resgenerator.cpp **** *  GenerateAudioResFile
1522:mtk_resgenerator.cpp **** * DESCRIPTION
1523:mtk_resgenerator.cpp **** *  generate aurio resource file
1524:mtk_resgenerator.cpp **** * PARAMETERS
1525:mtk_resgenerator.cpp **** *  void
GAS LISTING d:/software/ovi_2503a_s3trc/ovi_2503a_s3trc/plutommi/Customer/ResGenerator/gcctmp/ccgnaaaa.s 			page 73


1526:mtk_resgenerator.cpp **** * RETURNS
1527:mtk_resgenerator.cpp **** *  void
1528:mtk_resgenerator.cpp **** *****************************************************************************/
1529:mtk_resgenerator.cpp **** static void GenerateAudioResFile(void)
1530:mtk_resgenerator.cpp **** {
 4818              	LM207:
 4819 23e4 55       		pushl	%ebp
 4820 23e5 89E5     		movl	%esp, %ebp
 4821 23e7 83EC38   		subl	$56, %esp
1531:mtk_resgenerator.cpp ****     /*----------------------------------------------------------------*/
1532:mtk_resgenerator.cpp ****     /* Local Variables                                                */
1533:mtk_resgenerator.cpp ****     /*----------------------------------------------------------------*/
1534:mtk_resgenerator.cpp **** 
1535:mtk_resgenerator.cpp ****     /*----------------------------------------------------------------*/
1536:mtk_resgenerator.cpp ****     /* Code Body                                                      */
1537:mtk_resgenerator.cpp ****     /*----------------------------------------------------------------*/
1538:mtk_resgenerator.cpp ****     RESGEN_LOG_V("GenerateAudioResFile(): File output: CustAdoDataHW.h CustAdoDataHWExt.h");
 4823              	LM208:
 4824              	LBB25:
 4825 23ea C7442408 		movl	$LC92, 8(%esp)
 4825      40220000 
 4826 23f2 C7442404 		movl	$LC1, 4(%esp)
 4826      3E000000 
 4827 23fa C7042401 		movl	$1, (%esp)
 4827      000000
 4828 2401 E8000000 		call	_reslog_adaptor_log
 4828      00
1539:mtk_resgenerator.cpp ****     GenerateResFile_Ext(
 4830              	LM209:
 4831 2406 C7442430 		movl	$0, 48(%esp)
 4831      00000000 
 4832 240e C744242C 		movl	$LC93, 44(%esp)
 4832      A0220000 
 4833 2416 C7442428 		movl	$LC94, 40(%esp)
 4833      C9220000 
 4834 241e C7442424 		movl	$LC95, 36(%esp)
 4834      D6220000 
 4835 2426 C7442420 		movl	$LC96, 32(%esp)
 4835      E4220000 
 4836 242e C744241C 		movl	$LC97, 28(%esp)
 4836      F4220000 
 4837 2436 C7442418 		movl	$LC98, 24(%esp)
 4837      08230000 
 4838 243e C7442414 		movl	$LC99, 20(%esp)
 4838      18230000 
 4839 2446 C7442410 		movl	$LC100, 16(%esp)
 4839      2C230000 
 4840 244e 0FB70500 		movzwl	_CurrMaxAudioNum, %eax
 4840      000000
 4841 2455 8944240C 		movl	%eax, 12(%esp)
 4842 2459 C7442408 		movl	$_AudioNameList, 8(%esp)
 4842      00000000 
 4843 2461 C7442404 		movl	$2, 4(%esp)
 4843      02000000 
 4844 2469 C7042400 		movl	$0, (%esp)
 4844      000000
 4845 2470 E88DF5FF 		call	__Z19GenerateResFile_Exti18RESOURCE_TYPE_LISTP16CUSTOM_NAME_LISTtPcS2_S2_S2_S2_S2_S2_S2_j
GAS LISTING d:/software/ovi_2503a_s3trc/ovi_2503a_s3trc/plutommi/Customer/ResGenerator/gcctmp/ccgnaaaa.s 			page 74


 4845      FF
1540:mtk_resgenerator.cpp ****         FALSE,
1541:mtk_resgenerator.cpp ****         RES_AUDIO,
1542:mtk_resgenerator.cpp ****         (CUSTOM_NAME_LIST *)AudioNameList,
1543:mtk_resgenerator.cpp ****         CurrMaxAudioNum,
1544:mtk_resgenerator.cpp ****         "CustAdoDataHW.h",
1545:mtk_resgenerator.cpp ****         "mtk_CurrMaxAudioNum",
1546:mtk_resgenerator.cpp ****         "CurrMaxAudioNum",
1547:mtk_resgenerator.cpp ****         "mtk_nCustAudioNames",
1548:mtk_resgenerator.cpp ****         "nCustAudioNames",
1549:mtk_resgenerator.cpp ****         "AudioNameList",
1550:mtk_resgenerator.cpp ****         "CUSTOM_AUDIO",
1551:mtk_resgenerator.cpp ****         ADO_DATA_FILENAME,
1552:mtk_resgenerator.cpp ****         FALSE);
1553:mtk_resgenerator.cpp ****     GenerateResFile_Ext(
 4847              	LM210:
 4848 2475 C7442430 		movl	$1, 48(%esp)
 4848      01000000 
 4849 247d C744242C 		movl	$LC101, 44(%esp)
 4849      40230000 
 4850 2485 C7442428 		movl	$LC94, 40(%esp)
 4850      C9220000 
 4851 248d C7442424 		movl	$LC102, 36(%esp)
 4851      6C230000 
 4852 2495 C7442420 		movl	$LC103, 32(%esp)
 4852      7D230000 
 4853 249d C744241C 		movl	$LC104, 28(%esp)
 4853      90230000 
 4854 24a5 C7442418 		movl	$LC105, 24(%esp)
 4854      A7230000 
 4855 24ad C7442414 		movl	$LC106, 20(%esp)
 4855      BA230000 
 4856 24b5 C7442410 		movl	$LC107, 16(%esp)
 4856      D1230000 
 4857 24bd 0FB70500 		movzwl	_CurrMaxAudioNumEXT, %eax
 4857      000000
 4858 24c4 8944240C 		movl	%eax, 12(%esp)
 4859 24c8 C7442408 		movl	$_AudioNameListEXT, 8(%esp)
 4859      00000000 
 4860 24d0 C7442404 		movl	$2, 4(%esp)
 4860      02000000 
 4861 24d8 C7042401 		movl	$1, (%esp)
 4861      000000
 4862 24df E81EF5FF 		call	__Z19GenerateResFile_Exti18RESOURCE_TYPE_LISTP16CUSTOM_NAME_LISTtPcS2_S2_S2_S2_S2_S2_S2_j
 4862      FF
1554:mtk_resgenerator.cpp ****         TRUE,
1555:mtk_resgenerator.cpp ****         RES_AUDIO,
1556:mtk_resgenerator.cpp ****         (CUSTOM_NAME_LIST *)AudioNameListEXT,
1557:mtk_resgenerator.cpp ****         CurrMaxAudioNumEXT,
1558:mtk_resgenerator.cpp ****         "CustAdoDataHWExt.h",
1559:mtk_resgenerator.cpp ****         "mtk_CurrMaxAudioNumEXT",
1560:mtk_resgenerator.cpp ****         "CurrMaxAudioNumEXT",
1561:mtk_resgenerator.cpp ****         "mtk_nCustAudioNamesEXT",
1562:mtk_resgenerator.cpp ****         "nCustAudioNamesEXT",
1563:mtk_resgenerator.cpp ****         "AudioNameListEXT",
1564:mtk_resgenerator.cpp ****         "CUSTOM_AUDIO",
1565:mtk_resgenerator.cpp ****         ADO_DATA_FILENAME_EXT,
GAS LISTING d:/software/ovi_2503a_s3trc/ovi_2503a_s3trc/plutommi/Customer/ResGenerator/gcctmp/ccgnaaaa.s 			page 75


1566:mtk_resgenerator.cpp ****         TRUE);
1567:mtk_resgenerator.cpp **** }
 4864              	LM211:
 4865 24e4 C9       		leave
 4866 24e5 C3       		ret
 4867              	LBE25:
 4868              	Lscope10:
 4870 24e6 90909090 		.align 32
 4870      90909090 
 4870      90909090 
 4870      90909090 
 4870      90909090 
 4871              	LC108:
 4872 2500 47656E65 		.ascii "GenerateFontResFile(): File output: CustFontRes.c CustFontResExt.c\0"
 4872      72617465 
 4872      466F6E74 
 4872      52657346 
 4872      696C6528 
 4873 2543 90909090 		.align 32
 4873      90909090 
 4873      90909090 
 4873      90909090 
 4873      90909090 
 4874              	LC109:
 4875 2560 2E2E5C2E 		.ascii "..\\..\\Customer\\CustResource\\CustFontResExt.c\0"
 4875      2E5C4375 
 4875      73746F6D 
 4875      65725C43 
 4875      75737452 
 4876              	LC110:
 4877 258d 43555354 		.ascii "CUSTOM_FONT\0"
 4877      4F4D5F46 
 4877      4F4E5400 
 4878              	LC111:
 4879 2599 466F6E74 		.ascii "FontNameListEXT\0"
 4879      4E616D65 
 4879      4C697374 
 4879      45585400 
 4880              	LC112:
 4881 25a9 6E437573 		.ascii "nCustFontNamesEXT\0"
 4881      74466F6E 
 4881      744E616D 
 4881      65734558 
 4881      5400
 4882              	LC113:
 4883 25bb 6D746B5F 		.ascii "mtk_nCustFontNamesEXT\0"
 4883      6E437573 
 4883      74466F6E 
 4883      744E616D 
 4883      65734558 
 4884              	LC114:
 4885 25d1 43757272 		.ascii "CurrMaxFontNumEXT\0"
 4885      4D617846 
 4885      6F6E744E 
 4885      756D4558 
 4885      5400
 4886              	LC115:
GAS LISTING d:/software/ovi_2503a_s3trc/ovi_2503a_s3trc/plutommi/Customer/ResGenerator/gcctmp/ccgnaaaa.s 			page 76


 4887 25e3 6D746B5F 		.ascii "mtk_CurrMaxFontNumEXT\0"
 4887      43757272 
 4887      4D617846 
 4887      6F6E744E 
 4887      756D4558 
 4888              	LC116:
 4889 25f9 43757374 		.ascii "CustFontDataHW.h\0"
 4889      466F6E74 
 4889      44617461 
 4889      48572E68 
 4889      00
 4890              		.align 2
 4893              	__Z19GenerateFontResFilev:
1568:mtk_resgenerator.cpp **** 
1569:mtk_resgenerator.cpp **** 
1570:mtk_resgenerator.cpp **** 
1571:mtk_resgenerator.cpp **** /*****************************************************************************
1572:mtk_resgenerator.cpp **** * FUNCTION
1573:mtk_resgenerator.cpp **** *  GenerateFontResFile
1574:mtk_resgenerator.cpp **** * DESCRIPTION
1575:mtk_resgenerator.cpp **** *  generate Font resource file
1576:mtk_resgenerator.cpp **** * PARAMETERS
1577:mtk_resgenerator.cpp **** *  void
1578:mtk_resgenerator.cpp **** * RETURNS
1579:mtk_resgenerator.cpp **** *  void
1580:mtk_resgenerator.cpp **** *****************************************************************************/
1581:mtk_resgenerator.cpp **** static void GenerateFontResFile(void)
1582:mtk_resgenerator.cpp **** {
 4895              	LM212:
 4896 260a 55       		pushl	%ebp
 4897 260b 89E5     		movl	%esp, %ebp
 4898 260d 83EC38   		subl	$56, %esp
1583:mtk_resgenerator.cpp ****     /*----------------------------------------------------------------*/
1584:mtk_resgenerator.cpp ****     /* Local Variables                                                */
1585:mtk_resgenerator.cpp ****     /*----------------------------------------------------------------*/
1586:mtk_resgenerator.cpp **** 
1587:mtk_resgenerator.cpp ****     /*----------------------------------------------------------------*/
1588:mtk_resgenerator.cpp ****     /* Code Body                                                      */
1589:mtk_resgenerator.cpp ****     /*----------------------------------------------------------------*/
1590:mtk_resgenerator.cpp ****     RESGEN_LOG_V("GenerateFontResFile(): File output: CustFontRes.c CustFontResExt.c");
 4900              	LM213:
 4901              	LBB26:
 4902 2610 C7442408 		movl	$LC108, 8(%esp)
 4902      00250000 
 4903 2618 C7442404 		movl	$LC1, 4(%esp)
 4903      3E000000 
 4904 2620 C7042401 		movl	$1, (%esp)
 4904      000000
 4905 2627 E8000000 		call	_reslog_adaptor_log
 4905      00
1591:mtk_resgenerator.cpp **** 
1592:mtk_resgenerator.cpp ****     GenerateResFile_Ext(
 4907              	LM214:
 4908 262c C7442430 		movl	$3, 48(%esp)
 4908      03000000 
 4909 2634 C744242C 		movl	$LC109, 44(%esp)
 4909      60250000 
GAS LISTING d:/software/ovi_2503a_s3trc/ovi_2503a_s3trc/plutommi/Customer/ResGenerator/gcctmp/ccgnaaaa.s 			page 77


 4910 263c C7442428 		movl	$LC110, 40(%esp)
 4910      8D250000 
 4911 2644 C7442424 		movl	$LC111, 36(%esp)
 4911      99250000 
 4912 264c C7442420 		movl	$LC112, 32(%esp)
 4912      A9250000 
 4913 2654 C744241C 		movl	$LC113, 28(%esp)
 4913      BB250000 
 4914 265c C7442418 		movl	$LC114, 24(%esp)
 4914      D1250000 
 4915 2664 C7442414 		movl	$LC115, 20(%esp)
 4915      E3250000 
 4916 266c C7442410 		movl	$LC116, 16(%esp)
 4916      F9250000 
 4917 2674 0FB70500 		movzwl	_CurrMaxFontNumEXT, %eax
 4917      000000
 4918 267b 8944240C 		movl	%eax, 12(%esp)
 4919 267f C7442408 		movl	$_FontNameListEXT, 8(%esp)
 4919      00000000 
 4920 2687 C7442404 		movl	$4, 4(%esp)
 4920      04000000 
 4921 268f C7042401 		movl	$1, (%esp)
 4921      000000
 4922 2696 E867F3FF 		call	__Z19GenerateResFile_Exti18RESOURCE_TYPE_LISTP16CUSTOM_NAME_LISTtPcS2_S2_S2_S2_S2_S2_S2_j
 4922      FF
1593:mtk_resgenerator.cpp ****         TRUE,
1594:mtk_resgenerator.cpp ****         RES_FONT,
1595:mtk_resgenerator.cpp ****         (CUSTOM_NAME_LIST *)FontNameListEXT,
1596:mtk_resgenerator.cpp ****         CurrMaxFontNumEXT,
1597:mtk_resgenerator.cpp ****         "CustFontDataHW.h",
1598:mtk_resgenerator.cpp ****         "mtk_CurrMaxFontNumEXT",
1599:mtk_resgenerator.cpp ****         "CurrMaxFontNumEXT",
1600:mtk_resgenerator.cpp ****         "mtk_nCustFontNamesEXT",
1601:mtk_resgenerator.cpp ****         "nCustFontNamesEXT",
1602:mtk_resgenerator.cpp ****         "FontNameListEXT",
1603:mtk_resgenerator.cpp ****         "CUSTOM_FONT",
1604:mtk_resgenerator.cpp ****         FONT_DATA_FILENAME_EXT,
1605:mtk_resgenerator.cpp ****         EXT_FONT);
1606:mtk_resgenerator.cpp **** }
 4924              	LM215:
 4925 269b C9       		leave
 4926 269c C3       		ret
 4927              	LBE26:
 4928              	Lscope11:
 4930 269d 8D7600   		.align 32
 4931              	LC117:
 4932 26a0 0A2F2A2A 		.ascii "\12/************************************************************** \12 FILENAME\11: %s \12
 4932      2A2A2A2A 
 4932      2A2A2A2A 
 4932      2A2A2A2A 
 4932      2A2A2A2A 
 4933              	LC118:
 4934 2790 23696E63 		.ascii "#include \"CustDataRes.h\"\12\12\12\0"
 4934      6C756465 
 4934      20224375 
 4934      73744461 
 4934      74615265 
GAS LISTING d:/software/ovi_2503a_s3trc/ovi_2503a_s3trc/plutommi/Customer/ResGenerator/gcctmp/ccgnaaaa.s 			page 78


 4935              	LC119:
 4936 27ac 756E7369 		.ascii "unsigned short %s=%d;\12\0"
 4936      676E6564 
 4936      2073686F 
 4936      72742025 
 4936      733D2564 
 4937              	LC120:
 4938 27c3 636F6E73 		.ascii "const %s %s[]={\12\0"
 4938      74202573 
 4938      2025735B 
 4938      5D3D7B0A 
 4938      00
 4939              	LC121:
 4940 27d4 097B2564 		.ascii "\11{%d},\12\0"
 4940      7D2C0A00 
 4941              	LC122:
 4942 27dc 636F6E73 		.ascii "const %s %s[1];\12\0"
 4942      74202573 
 4942      2025735B 
 4942      315D3B0A 
 4942      00
 4943 27ed 90       		.align 2
 4953              	__Z19GenerateMapFile_ExtP13CUSTOM_ID_MAPtPcS1_S1_S1_S1_:
1607:mtk_resgenerator.cpp **** 
1608:mtk_resgenerator.cpp **** 
1609:mtk_resgenerator.cpp **** /*****************************************************************************
1610:mtk_resgenerator.cpp **** * FUNCTION
1611:mtk_resgenerator.cpp **** *  GenerateMapFile_Ext
1612:mtk_resgenerator.cpp **** * DESCRIPTION
1613:mtk_resgenerator.cpp **** *  generate ID map file
1614:mtk_resgenerator.cpp **** * PARAMETERS
1615:mtk_resgenerator.cpp **** *  pMap                [IN]    ID map
1616:mtk_resgenerator.cpp **** *  nSize               [IN]    size
1617:mtk_resgenerator.cpp **** *  str_IdMap           [IN]    output variable name
1618:mtk_resgenerator.cpp **** *  str_CustMap         [IN]    output variable name
1619:mtk_resgenerator.cpp **** *  str_CurrMaxId       [IN]    output variable name
1620:mtk_resgenerator.cpp **** *  str_CustType        [IN]    output variable name
1621:mtk_resgenerator.cpp **** *  curr_map_filename   [IN]    output file name
1622:mtk_resgenerator.cpp **** * RETURNS
1623:mtk_resgenerator.cpp **** *  void
1624:mtk_resgenerator.cpp **** *****************************************************************************/
1625:mtk_resgenerator.cpp **** static void GenerateMapFile_Ext(
1626:mtk_resgenerator.cpp ****                                 CUSTOM_ID_MAP *pMap,
1627:mtk_resgenerator.cpp ****                                 U16 nSize,
1628:mtk_resgenerator.cpp ****                                 char *str_IdMap,
1629:mtk_resgenerator.cpp ****                                 char *str_CustMap,
1630:mtk_resgenerator.cpp ****                                 char *str_CurrMaxId,
1631:mtk_resgenerator.cpp ****                                 char *str_CustType,
1632:mtk_resgenerator.cpp ****                                 char *curr_map_filename)
1633:mtk_resgenerator.cpp **** {
 4955              	LM216:
 4956 27ee 55       		pushl	%ebp
 4957 27ef 89E5     		movl	%esp, %ebp
 4958 27f1 83EC28   		subl	$40, %esp
 4959 27f4 8B450C   		movl	12(%ebp), %eax
 4960 27f7 668945FE 		movw	%ax, -2(%ebp)
1634:mtk_resgenerator.cpp ****     /*----------------------------------------------------------------*/
GAS LISTING d:/software/ovi_2503a_s3trc/ovi_2503a_s3trc/plutommi/Customer/ResGenerator/gcctmp/ccgnaaaa.s 			page 79


1635:mtk_resgenerator.cpp ****     /* Local Variables                                                */
1636:mtk_resgenerator.cpp ****     /*----------------------------------------------------------------*/
1637:mtk_resgenerator.cpp ****     FILE *pFile;
1638:mtk_resgenerator.cpp **** 
1639:mtk_resgenerator.cpp ****     /*----------------------------------------------------------------*/
1640:mtk_resgenerator.cpp ****     /* Code Body                                                      */
1641:mtk_resgenerator.cpp ****     /*----------------------------------------------------------------*/
1642:mtk_resgenerator.cpp ****     if(pFile = fopen(curr_map_filename, "w"))
 4962              	LM217:
 4963              	LBB27:
 4964              	LBB28:
 4965 27fb C7442404 		movl	$LC2, 4(%esp)
 4965      4F000000 
 4966 2803 8B4520   		movl	32(%ebp), %eax
 4967 2806 890424   		movl	%eax, (%esp)
 4968 2809 E8000000 		call	_fopen
 4968      00
 4969 280e 8945F8   		movl	%eax, -8(%ebp)
 4970 2811 837DF800 		cmpl	$0, -8(%ebp)
 4971 2815 0F840801 		je	L100
 4971      0000
1643:mtk_resgenerator.cpp ****     {
1644:mtk_resgenerator.cpp ****         fprintf(pFile, "/**\n *	Copyright Notice\n *	?2002 - 2003, Pixtel Communications, Inc., 148
 4973              	LM218:
 4974              	LBB29:
 4975 281b C7442404 		movl	$LC4, 4(%esp)
 4975      A0000000 
 4976 2823 8B45F8   		movl	-8(%ebp), %eax
 4977 2826 890424   		movl	%eax, (%esp)
 4978 2829 E8000000 		call	_fprintf
 4978      00
1645:mtk_resgenerator.cpp ****         fprintf(pFile, "\n/************************************************************** \n FILENA
 4980              	LM219:
 4981 282e 8B4514   		movl	20(%ebp), %eax
 4982 2831 89442408 		movl	%eax, 8(%esp)
 4983 2835 C7442404 		movl	$LC117, 4(%esp)
 4983      A0260000 
 4984 283d 8B45F8   		movl	-8(%ebp), %eax
 4985 2840 890424   		movl	%eax, (%esp)
 4986 2843 E8000000 		call	_fprintf
 4986      00
1646:mtk_resgenerator.cpp ****         fprintf(pFile, "#include \"CustDataRes.h\"\n\n\n");
 4988              	LM220:
 4989 2848 C7442404 		movl	$LC118, 4(%esp)
 4989      90270000 
 4990 2850 8B45F8   		movl	-8(%ebp), %eax
 4991 2853 890424   		movl	%eax, (%esp)
 4992 2856 E8000000 		call	_fprintf
 4992      00
1647:mtk_resgenerator.cpp ****         fprintf(pFile, "unsigned short %s=%d;\n", str_CurrMaxId, nSize);
 4994              	LM221:
 4995 285b 0FB745FE 		movzwl	-2(%ebp), %eax
 4996 285f 8944240C 		movl	%eax, 12(%esp)
 4997 2863 8B4518   		movl	24(%ebp), %eax
 4998 2866 89442408 		movl	%eax, 8(%esp)
 4999 286a C7442404 		movl	$LC119, 4(%esp)
 4999      AC270000 
GAS LISTING d:/software/ovi_2503a_s3trc/ovi_2503a_s3trc/plutommi/Customer/ResGenerator/gcctmp/ccgnaaaa.s 			page 80


 5000 2872 8B45F8   		movl	-8(%ebp), %eax
 5001 2875 890424   		movl	%eax, (%esp)
 5002 2878 E8000000 		call	_fprintf
 5002      00
1648:mtk_resgenerator.cpp **** 
1649:mtk_resgenerator.cpp ****         /* writing the map array inside the file. */
1650:mtk_resgenerator.cpp ****         if(nSize)
 5004              	LM222:
 5005              	LBB30:
 5006 287d 66837DFE 		cmpw	$0, -2(%ebp)
 5006      00
 5007 2882 7473     		je	L102
1651:mtk_resgenerator.cpp ****         {
1652:mtk_resgenerator.cpp ****             int i;
1653:mtk_resgenerator.cpp **** 
1654:mtk_resgenerator.cpp ****             fprintf(pFile, "const %s %s[]={\n", str_CustType, str_IdMap);
 5009              	LM223:
 5010              	LBB31:
 5011 2884 8B4510   		movl	16(%ebp), %eax
 5012 2887 8944240C 		movl	%eax, 12(%esp)
 5013 288b 8B451C   		movl	28(%ebp), %eax
 5014 288e 89442408 		movl	%eax, 8(%esp)
 5015 2892 C7442404 		movl	$LC120, 4(%esp)
 5015      C3270000 
 5016 289a 8B45F8   		movl	-8(%ebp), %eax
 5017 289d 890424   		movl	%eax, (%esp)
 5018 28a0 E8000000 		call	_fprintf
 5018      00
1655:mtk_resgenerator.cpp ****             for(i = 0; i < nSize; i++)
 5020              	LM224:
 5021 28a5 C745F400 		movl	$0, -12(%ebp)
 5021      000000
 5022              	L103:
 5023 28ac 0FB745FE 		movzwl	-2(%ebp), %eax
 5024 28b0 3945F4   		cmpl	%eax, -12(%ebp)
 5025 28b3 7C02     		jl	L106
 5026 28b5 EB2B     		jmp	L104
 5027              	L106:
1656:mtk_resgenerator.cpp ****             {
1657:mtk_resgenerator.cpp ****                 fprintf(pFile,"\t{%d},\n", pMap[i].Num);
 5029              	LM225:
 5030 28b7 8B45F4   		movl	-12(%ebp), %eax
 5031 28ba 8D1400   		leal	(%eax,%eax), %edx
 5032 28bd 8B4508   		movl	8(%ebp), %eax
 5033 28c0 0FB70410 		movzwl	(%eax,%edx), %eax
 5034 28c4 89442408 		movl	%eax, 8(%esp)
 5035 28c8 C7442404 		movl	$LC121, 4(%esp)
 5035      D4270000 
 5036 28d0 8B45F8   		movl	-8(%ebp), %eax
 5037 28d3 890424   		movl	%eax, (%esp)
 5038 28d6 E8000000 		call	_fprintf
 5038      00
 5040              	LM226:
 5041 28db 8D45F4   		leal	-12(%ebp), %eax
 5042 28de FF00     		incl	(%eax)
 5043 28e0 EBCA     		jmp	L103
 5044              	L104:
GAS LISTING d:/software/ovi_2503a_s3trc/ovi_2503a_s3trc/plutommi/Customer/ResGenerator/gcctmp/ccgnaaaa.s 			page 81


1658:mtk_resgenerator.cpp ****             }
1659:mtk_resgenerator.cpp ****             fprintf(pFile, "};\n\n\n\n");
 5046              	LM227:
 5047 28e2 C7442404 		movl	$LC68, 4(%esp)
 5047      3C180000 
 5048 28ea 8B45F8   		movl	-8(%ebp), %eax
 5049 28ed 890424   		movl	%eax, (%esp)
 5050 28f0 E8000000 		call	_fprintf
 5050      00
 5051              	LBE31:
 5052 28f5 EB21     		jmp	L107
 5053              	L102:
1660:mtk_resgenerator.cpp ****         }
1661:mtk_resgenerator.cpp ****         else
1662:mtk_resgenerator.cpp ****         {
1663:mtk_resgenerator.cpp ****             fprintf(pFile, "const %s %s[1];\n", str_CustType, str_IdMap);
 5055              	LM228:
 5056 28f7 8B4510   		movl	16(%ebp), %eax
 5057 28fa 8944240C 		movl	%eax, 12(%esp)
 5058 28fe 8B451C   		movl	28(%ebp), %eax
 5059 2901 89442408 		movl	%eax, 8(%esp)
 5060 2905 C7442404 		movl	$LC122, 4(%esp)
 5060      DC270000 
 5061 290d 8B45F8   		movl	-8(%ebp), %eax
 5062 2910 890424   		movl	%eax, (%esp)
 5063 2913 E8000000 		call	_fprintf
 5063      00
 5064              	L107:
1664:mtk_resgenerator.cpp ****         }
1665:mtk_resgenerator.cpp ****         fclose(pFile);
 5066              	LM229:
 5067              	LBE30:
 5068 2918 8B45F8   		movl	-8(%ebp), %eax
 5069 291b 890424   		movl	%eax, (%esp)
 5070 291e E8000000 		call	_fclose
 5070      00
1666:mtk_resgenerator.cpp ****     }
1667:mtk_resgenerator.cpp **** }
 5072              	LM230:
 5073              	L100:
 5074 2923 C9       		leave
 5075 2924 C3       		ret
 5076              	LBE29:
 5077              	LBE28:
 5078              	LBE27:
 5086              	Lscope12:
 5088 2925 90909090 		.align 32
 5088      90909090 
 5088      90909090 
 5088      90909090 
 5088      90909090 
 5089              	LC123:
 5090 2940 47656E65 		.ascii "GenerateImageMapFile(): File output: CustImageMap.c CustImageMapExt.c\0"
 5090      72617465 
 5090      496D6167 
 5090      654D6170 
 5090      46696C65 
GAS LISTING d:/software/ovi_2503a_s3trc/ovi_2503a_s3trc/plutommi/Customer/ResGenerator/gcctmp/ccgnaaaa.s 			page 82


 5091 2986 90909090 		.align 32
 5091      90909090 
 5091      90909090 
 5091      90909090 
 5091      90909090 
 5092              	LC124:
 5093 29a0 2E2E5C2E 		.ascii "..\\..\\Customer\\CustResource\\CustImgMap.c\0"
 5093      2E5C4375 
 5093      73746F6D 
 5093      65725C43 
 5093      75737452 
 5094              	LC125:
 5095 29c9 43555354 		.ascii "CUSTOM_IMAGE_MAP\0"
 5095      4F4D5F49 
 5095      4D414745 
 5095      5F4D4150 
 5095      00
 5096              	LC126:
 5097 29da 43757272 		.ascii "CurrMaxImageId\0"
 5097      4D617849 
 5097      6D616765 
 5097      496400
 5098              	LC127:
 5099 29e9 43757374 		.ascii "CustImageMap.c\0"
 5099      496D6167 
 5099      654D6170 
 5099      2E6300
 5100              	LC128:
 5101 29f8 496D6167 		.ascii "ImageIdMap\0"
 5101      6549644D 
 5101      617000
 5102 2a03 90909090 		.align 32
 5102      90909090 
 5102      90909090 
 5102      90909090 
 5102      90909090 
 5103              	LC129:
 5104 2a20 2E2E5C2E 		.ascii "..\\..\\Customer\\CustResource\\CustImgMapExt.c\0"
 5104      2E5C4375 
 5104      73746F6D 
 5104      65725C43 
 5104      75737452 
 5105              	LC130:
 5106 2a4c 43757272 		.ascii "CurrMaxImageIdEXT\0"
 5106      4D617849 
 5106      6D616765 
 5106      49644558 
 5106      5400
 5107              	LC131:
 5108 2a5e 43757374 		.ascii "CustImageMapExt.c\0"
 5108      496D6167 
 5108      654D6170 
 5108      4578742E 
 5108      6300
 5109              	LC132:
 5110 2a70 496D6167 		.ascii "ImageIdMapEXT\0"
 5110      6549644D 
GAS LISTING d:/software/ovi_2503a_s3trc/ovi_2503a_s3trc/plutommi/Customer/ResGenerator/gcctmp/ccgnaaaa.s 			page 83


 5110      61704558 
 5110      5400
 5111              		.align 2
 5114              	__Z20GenerateImageMapFilev:
1668:mtk_resgenerator.cpp **** 
1669:mtk_resgenerator.cpp **** 
1670:mtk_resgenerator.cpp **** /*****************************************************************************
1671:mtk_resgenerator.cpp **** * FUNCTION
1672:mtk_resgenerator.cpp **** *  GenerateImageMapFile
1673:mtk_resgenerator.cpp **** * DESCRIPTION
1674:mtk_resgenerator.cpp **** *  generate image ID map file
1675:mtk_resgenerator.cpp **** * PARAMETERS
1676:mtk_resgenerator.cpp **** *  void
1677:mtk_resgenerator.cpp **** * RETURNS
1678:mtk_resgenerator.cpp **** *  void
1679:mtk_resgenerator.cpp **** *****************************************************************************/
1680:mtk_resgenerator.cpp **** static void GenerateImageMapFile(void)
1681:mtk_resgenerator.cpp **** {
 5116              	LM231:
 5117 2a7e 55       		pushl	%ebp
 5118 2a7f 89E5     		movl	%esp, %ebp
 5119 2a81 83EC28   		subl	$40, %esp
1682:mtk_resgenerator.cpp ****     /*----------------------------------------------------------------*/
1683:mtk_resgenerator.cpp ****     /* Local Variables                                                */
1684:mtk_resgenerator.cpp ****     /*----------------------------------------------------------------*/
1685:mtk_resgenerator.cpp **** 
1686:mtk_resgenerator.cpp ****     /*----------------------------------------------------------------*/
1687:mtk_resgenerator.cpp ****     /* Code Body                                                      */
1688:mtk_resgenerator.cpp ****     /*----------------------------------------------------------------*/
1689:mtk_resgenerator.cpp ****     RESGEN_LOG_V("GenerateImageMapFile(): File output: CustImageMap.c CustImageMapExt.c");
 5121              	LM232:
 5122              	LBB32:
 5123 2a84 C7442408 		movl	$LC123, 8(%esp)
 5123      40290000 
 5124 2a8c C7442404 		movl	$LC1, 4(%esp)
 5124      3E000000 
 5125 2a94 C7042401 		movl	$1, (%esp)
 5125      000000
 5126 2a9b E8000000 		call	_reslog_adaptor_log
 5126      00
1690:mtk_resgenerator.cpp ****     GenerateMapFile_Ext(
 5128              	LM233:
 5129 2aa0 C7442418 		movl	$LC124, 24(%esp)
 5129      A0290000 
 5130 2aa8 C7442414 		movl	$LC125, 20(%esp)
 5130      C9290000 
 5131 2ab0 C7442410 		movl	$LC126, 16(%esp)
 5131      DA290000 
 5132 2ab8 C744240C 		movl	$LC127, 12(%esp)
 5132      E9290000 
 5133 2ac0 C7442408 		movl	$LC128, 8(%esp)
 5133      F8290000 
 5134 2ac8 0FB70500 		movzwl	_CurrMaxImageId, %eax
 5134      000000
 5135 2acf 89442404 		movl	%eax, 4(%esp)
 5136 2ad3 C7042400 		movl	$_ImageIdMap, (%esp)
 5136      000000
GAS LISTING d:/software/ovi_2503a_s3trc/ovi_2503a_s3trc/plutommi/Customer/ResGenerator/gcctmp/ccgnaaaa.s 			page 84


 5137 2ada E80FFDFF 		call	__Z19GenerateMapFile_ExtP13CUSTOM_ID_MAPtPcS1_S1_S1_S1_
 5137      FF
1691:mtk_resgenerator.cpp ****         (CUSTOM_ID_MAP *)ImageIdMap,
1692:mtk_resgenerator.cpp ****         CurrMaxImageId,
1693:mtk_resgenerator.cpp ****         "ImageIdMap",
1694:mtk_resgenerator.cpp ****         "CustImageMap.c",
1695:mtk_resgenerator.cpp ****         "CurrMaxImageId",
1696:mtk_resgenerator.cpp ****         "CUSTOM_IMAGE_MAP",
1697:mtk_resgenerator.cpp ****         IMG_MAP_FILENAME);
1698:mtk_resgenerator.cpp ****     GenerateMapFile_Ext(
 5139              	LM234:
 5140 2adf C7442418 		movl	$LC129, 24(%esp)
 5140      202A0000 
 5141 2ae7 C7442414 		movl	$LC125, 20(%esp)
 5141      C9290000 
 5142 2aef C7442410 		movl	$LC130, 16(%esp)
 5142      4C2A0000 
 5143 2af7 C744240C 		movl	$LC131, 12(%esp)
 5143      5E2A0000 
 5144 2aff C7442408 		movl	$LC132, 8(%esp)
 5144      702A0000 
 5145 2b07 0FB70500 		movzwl	_CurrMaxImageIdEXT, %eax
 5145      000000
 5146 2b0e 89442404 		movl	%eax, 4(%esp)
 5147 2b12 C7042400 		movl	$_ImageIdMapEXT, (%esp)
 5147      000000
 5148 2b19 E8D0FCFF 		call	__Z19GenerateMapFile_ExtP13CUSTOM_ID_MAPtPcS1_S1_S1_S1_
 5148      FF
1699:mtk_resgenerator.cpp ****         (CUSTOM_ID_MAP *)ImageIdMapEXT,
1700:mtk_resgenerator.cpp ****         CurrMaxImageIdEXT,
1701:mtk_resgenerator.cpp ****         "ImageIdMapEXT",
1702:mtk_resgenerator.cpp ****         "CustImageMapExt.c",
1703:mtk_resgenerator.cpp ****         "CurrMaxImageIdEXT",
1704:mtk_resgenerator.cpp ****         "CUSTOM_IMAGE_MAP",
1705:mtk_resgenerator.cpp ****         IMG_MAP_FILENAME_EXT);
1706:mtk_resgenerator.cpp **** }
 5150              	LM235:
 5151 2b1e C9       		leave
 5152 2b1f C3       		ret
 5153              	LBE32:
 5154              	Lscope13:
 5156              		.align 32
 5157              	LC133:
 5158 2b20 47656E65 		.ascii "GenerateAudioMapFile(): File output: CustAdoMap.c CustAdoMapExt.c\0"
 5158      72617465 
 5158      41756469 
 5158      6F4D6170 
 5158      46696C65 
 5159 2b62 90909090 		.align 32
 5159      90909090 
 5159      90909090 
 5159      90909090 
 5159      90909090 
 5160              	LC134:
 5161 2b80 2E2E5C2E 		.ascii "..\\..\\Customer\\CustResource\\CustAdoMap.c\0"
 5161      2E5C4375 
 5161      73746F6D 
GAS LISTING d:/software/ovi_2503a_s3trc/ovi_2503a_s3trc/plutommi/Customer/ResGenerator/gcctmp/ccgnaaaa.s 			page 85


 5161      65725C43 
 5161      75737452 
 5162              	LC135:
 5163 2ba9 43555354 		.ascii "CUSTOM_AUDIO_MAP\0"
 5163      4F4D5F41 
 5163      5544494F 
 5163      5F4D4150 
 5163      00
 5164              	LC136:
 5165 2bba 43757272 		.ascii "CurrMaxAudioId\0"
 5165      4D617841 
 5165      7564696F 
 5165      496400
 5166              	LC137:
 5167 2bc9 43757374 		.ascii "CustAudioMap.c\0"
 5167      41756469 
 5167      6F4D6170 
 5167      2E6300
 5168              	LC138:
 5169 2bd8 41756469 		.ascii "AudioIdMap\0"
 5169      6F49644D 
 5169      617000
 5170 2be3 90909090 		.align 32
 5170      90909090 
 5170      90909090 
 5170      90909090 
 5170      90909090 
 5171              	LC139:
 5172 2c00 2E2E5C2E 		.ascii "..\\..\\Customer\\CustResource\\CustAdoMapExt.c\0"
 5172      2E5C4375 
 5172      73746F6D 
 5172      65725C43 
 5172      75737452 
 5173              	LC140:
 5174 2c2c 43757272 		.ascii "CurrMaxAudioIdEXT\0"
 5174      4D617841 
 5174      7564696F 
 5174      49644558 
 5174      5400
 5175              	LC141:
 5176 2c3e 43757374 		.ascii "CustAudioMapExt.c\0"
 5176      41756469 
 5176      6F4D6170 
 5176      4578742E 
 5176      6300
 5177              	LC142:
 5178 2c50 41756469 		.ascii "AudioIdMapEXT\0"
 5178      6F49644D 
 5178      61704558 
 5178      5400
 5179              		.align 2
 5182              	__Z20GenerateAudioMapFilev:
1707:mtk_resgenerator.cpp **** 
1708:mtk_resgenerator.cpp **** 
1709:mtk_resgenerator.cpp **** /*****************************************************************************
1710:mtk_resgenerator.cpp **** * FUNCTION
1711:mtk_resgenerator.cpp **** *  GenerateAudioMapFile
GAS LISTING d:/software/ovi_2503a_s3trc/ovi_2503a_s3trc/plutommi/Customer/ResGenerator/gcctmp/ccgnaaaa.s 			page 86


1712:mtk_resgenerator.cpp **** * DESCRIPTION
1713:mtk_resgenerator.cpp **** *  generate audio ID map file
1714:mtk_resgenerator.cpp **** * PARAMETERS
1715:mtk_resgenerator.cpp **** *  void
1716:mtk_resgenerator.cpp **** * RETURNS
1717:mtk_resgenerator.cpp **** *  void
1718:mtk_resgenerator.cpp **** *****************************************************************************/
1719:mtk_resgenerator.cpp **** static void GenerateAudioMapFile(void)
1720:mtk_resgenerator.cpp **** {
 5184              	LM236:
 5185 2c5e 55       		pushl	%ebp
 5186 2c5f 89E5     		movl	%esp, %ebp
 5187 2c61 83EC28   		subl	$40, %esp
1721:mtk_resgenerator.cpp ****     /*----------------------------------------------------------------*/
1722:mtk_resgenerator.cpp ****     /* Local Variables                                                */
1723:mtk_resgenerator.cpp ****     /*----------------------------------------------------------------*/
1724:mtk_resgenerator.cpp **** 
1725:mtk_resgenerator.cpp ****     /*----------------------------------------------------------------*/
1726:mtk_resgenerator.cpp ****     /* Code Body                                                      */
1727:mtk_resgenerator.cpp ****     /*----------------------------------------------------------------*/
1728:mtk_resgenerator.cpp ****     RESGEN_LOG_V("GenerateAudioMapFile(): File output: CustAdoMap.c CustAdoMapExt.c");
 5189              	LM237:
 5190              	LBB33:
 5191 2c64 C7442408 		movl	$LC133, 8(%esp)
 5191      202B0000 
 5192 2c6c C7442404 		movl	$LC1, 4(%esp)
 5192      3E000000 
 5193 2c74 C7042401 		movl	$1, (%esp)
 5193      000000
 5194 2c7b E8000000 		call	_reslog_adaptor_log
 5194      00
1729:mtk_resgenerator.cpp **** 
1730:mtk_resgenerator.cpp ****     GenerateMapFile_Ext(
 5196              	LM238:
 5197 2c80 C7442418 		movl	$LC134, 24(%esp)
 5197      802B0000 
 5198 2c88 C7442414 		movl	$LC135, 20(%esp)
 5198      A92B0000 
 5199 2c90 C7442410 		movl	$LC136, 16(%esp)
 5199      BA2B0000 
 5200 2c98 C744240C 		movl	$LC137, 12(%esp)
 5200      C92B0000 
 5201 2ca0 C7442408 		movl	$LC138, 8(%esp)
 5201      D82B0000 
 5202 2ca8 0FB70500 		movzwl	_CurrMaxAudioId, %eax
 5202      000000
 5203 2caf 89442404 		movl	%eax, 4(%esp)
 5204 2cb3 C7042400 		movl	$_AudioIdMap, (%esp)
 5204      000000
 5205 2cba E82FFBFF 		call	__Z19GenerateMapFile_ExtP13CUSTOM_ID_MAPtPcS1_S1_S1_S1_
 5205      FF
1731:mtk_resgenerator.cpp ****         (CUSTOM_ID_MAP *)AudioIdMap,
1732:mtk_resgenerator.cpp ****         CurrMaxAudioId,
1733:mtk_resgenerator.cpp ****         "AudioIdMap",
1734:mtk_resgenerator.cpp ****         "CustAudioMap.c",
1735:mtk_resgenerator.cpp ****         "CurrMaxAudioId",
1736:mtk_resgenerator.cpp ****         "CUSTOM_AUDIO_MAP",
GAS LISTING d:/software/ovi_2503a_s3trc/ovi_2503a_s3trc/plutommi/Customer/ResGenerator/gcctmp/ccgnaaaa.s 			page 87


1737:mtk_resgenerator.cpp ****         ADO_MAP_FILENAME);
1738:mtk_resgenerator.cpp ****     GenerateMapFile_Ext(
 5207              	LM239:
 5208 2cbf C7442418 		movl	$LC139, 24(%esp)
 5208      002C0000 
 5209 2cc7 C7442414 		movl	$LC135, 20(%esp)
 5209      A92B0000 
 5210 2ccf C7442410 		movl	$LC140, 16(%esp)
 5210      2C2C0000 
 5211 2cd7 C744240C 		movl	$LC141, 12(%esp)
 5211      3E2C0000 
 5212 2cdf C7442408 		movl	$LC142, 8(%esp)
 5212      502C0000 
 5213 2ce7 0FB70500 		movzwl	_CurrMaxAudioIdEXT, %eax
 5213      000000
 5214 2cee 89442404 		movl	%eax, 4(%esp)
 5215 2cf2 C7042400 		movl	$_AudioIdMapEXT, (%esp)
 5215      000000
 5216 2cf9 E8F0FAFF 		call	__Z19GenerateMapFile_ExtP13CUSTOM_ID_MAPtPcS1_S1_S1_S1_
 5216      FF
1739:mtk_resgenerator.cpp ****         (CUSTOM_ID_MAP *)AudioIdMapEXT,
1740:mtk_resgenerator.cpp ****         CurrMaxAudioIdEXT,
1741:mtk_resgenerator.cpp ****         "AudioIdMapEXT",
1742:mtk_resgenerator.cpp ****         "CustAudioMapExt.c",
1743:mtk_resgenerator.cpp ****         "CurrMaxAudioIdEXT",
1744:mtk_resgenerator.cpp ****         "CUSTOM_AUDIO_MAP",
1745:mtk_resgenerator.cpp ****         ADO_MAP_FILENAME_EXT);
1746:mtk_resgenerator.cpp **** }
 5218              	LM240:
 5219 2cfe C9       		leave
 5220 2cff C3       		ret
 5221              	LBE33:
 5222              	Lscope14:
 5224              		.align 32
 5225              	LC143:
 5226 2d00 47656E65 		.ascii "GenerateFontMapFile(): File output: CustFontMap.c CustFontMapExt.c\0"
 5226      72617465 
 5226      466F6E74 
 5226      4D617046 
 5226      696C6528 
 5227 2d43 90909090 		.align 32
 5227      90909090 
 5227      90909090 
 5227      90909090 
 5227      90909090 
 5228              	LC144:
 5229 2d60 2E2E5C2E 		.ascii "..\\..\\Customer\\CustResource\\CustFontMapExt.c\0"
 5229      2E5C4375 
 5229      73746F6D 
 5229      65725C43 
 5229      75737452 
 5230              	LC145:
 5231 2d8d 43555354 		.ascii "CUSTOM_FONT_MAP\0"
 5231      4F4D5F46 
 5231      4F4E545F 
 5231      4D415000 
 5232              	LC146:
GAS LISTING d:/software/ovi_2503a_s3trc/ovi_2503a_s3trc/plutommi/Customer/ResGenerator/gcctmp/ccgnaaaa.s 			page 88


 5233 2d9d 6D746B5F 		.ascii "mtk_CurrMaxFontIdEXT\0"
 5233      43757272 
 5233      4D617846 
 5233      6F6E7449 
 5233      64455854 
 5234              	LC147:
 5235 2db2 43757374 		.ascii "CustFontMapExt.c\0"
 5235      466F6E74 
 5235      4D617045 
 5235      78742E63 
 5235      00
 5236              	LC148:
 5237 2dc3 6D746B5F 		.ascii "mtk_CustFontMapEXT\0"
 5237      43757374 
 5237      466F6E74 
 5237      4D617045 
 5237      585400
 5238              		.align 2
 5241              	__Z19GenerateFontMapFilev:
1747:mtk_resgenerator.cpp **** 
1748:mtk_resgenerator.cpp **** 
1749:mtk_resgenerator.cpp **** 
1750:mtk_resgenerator.cpp **** /*****************************************************************************
1751:mtk_resgenerator.cpp **** * FUNCTION
1752:mtk_resgenerator.cpp **** *  GenerateFontMapFile
1753:mtk_resgenerator.cpp **** * DESCRIPTION
1754:mtk_resgenerator.cpp **** *  generate Font ID map file
1755:mtk_resgenerator.cpp **** * PARAMETERS
1756:mtk_resgenerator.cpp **** *  void
1757:mtk_resgenerator.cpp **** * RETURNS
1758:mtk_resgenerator.cpp **** *  void
1759:mtk_resgenerator.cpp **** *****************************************************************************/
1760:mtk_resgenerator.cpp **** static void GenerateFontMapFile(void)
1761:mtk_resgenerator.cpp **** {
 5243              	LM241:
 5244 2dd6 55       		pushl	%ebp
 5245 2dd7 89E5     		movl	%esp, %ebp
 5246 2dd9 83EC28   		subl	$40, %esp
1762:mtk_resgenerator.cpp ****     /*----------------------------------------------------------------*/
1763:mtk_resgenerator.cpp ****     /* Local Variables                                                */
1764:mtk_resgenerator.cpp ****     /*----------------------------------------------------------------*/
1765:mtk_resgenerator.cpp **** 
1766:mtk_resgenerator.cpp ****     /*----------------------------------------------------------------*/
1767:mtk_resgenerator.cpp ****     /* Code Body                                                      */
1768:mtk_resgenerator.cpp ****     /*----------------------------------------------------------------*/
1769:mtk_resgenerator.cpp ****     RESGEN_LOG_V("GenerateFontMapFile(): File output: CustFontMap.c CustFontMapExt.c");
 5248              	LM242:
 5249              	LBB34:
 5250 2ddc C7442408 		movl	$LC143, 8(%esp)
 5250      002D0000 
 5251 2de4 C7442404 		movl	$LC1, 4(%esp)
 5251      3E000000 
 5252 2dec C7042401 		movl	$1, (%esp)
 5252      000000
 5253 2df3 E8000000 		call	_reslog_adaptor_log
 5253      00
1770:mtk_resgenerator.cpp **** 
GAS LISTING d:/software/ovi_2503a_s3trc/ovi_2503a_s3trc/plutommi/Customer/ResGenerator/gcctmp/ccgnaaaa.s 			page 89


1771:mtk_resgenerator.cpp ****     GenerateMapFile_Ext(
 5255              	LM243:
 5256 2df8 C7442418 		movl	$LC144, 24(%esp)
 5256      602D0000 
 5257 2e00 C7442414 		movl	$LC145, 20(%esp)
 5257      8D2D0000 
 5258 2e08 C7442410 		movl	$LC146, 16(%esp)
 5258      9D2D0000 
 5259 2e10 C744240C 		movl	$LC147, 12(%esp)
 5259      B22D0000 
 5260 2e18 C7442408 		movl	$LC148, 8(%esp)
 5260      C32D0000 
 5261 2e20 0FB70500 		movzwl	_CurrMaxFontIdEXT, %eax
 5261      000000
 5262 2e27 89442404 		movl	%eax, 4(%esp)
 5263 2e2b C7042400 		movl	$_FontIdMapEXT, (%esp)
 5263      000000
 5264 2e32 E8B7F9FF 		call	__Z19GenerateMapFile_ExtP13CUSTOM_ID_MAPtPcS1_S1_S1_S1_
 5264      FF
1772:mtk_resgenerator.cpp ****         (CUSTOM_ID_MAP *)FontIdMapEXT,
1773:mtk_resgenerator.cpp ****         CurrMaxFontIdEXT,
1774:mtk_resgenerator.cpp ****         "mtk_CustFontMapEXT",
1775:mtk_resgenerator.cpp ****         "CustFontMapExt.c",
1776:mtk_resgenerator.cpp ****         "mtk_CurrMaxFontIdEXT",
1777:mtk_resgenerator.cpp ****         "CUSTOM_FONT_MAP",
1778:mtk_resgenerator.cpp ****         FONT_MAP_FILENAME_EXT);
1779:mtk_resgenerator.cpp **** }
 5266              	LM244:
 5267 2e37 C9       		leave
 5268 2e38 C3       		ret
 5269              	LBE34:
 5270              	Lscope15:
 5272              	LC149:
 5273 2e39 6100     		.ascii "a\0"
 5274              	LC150:
 5275 2e3b 636F6E73 		.ascii "const unsigned short %s=%d;\12\0"
 5275      7420756E 
 5275      7369676E 
 5275      65642073 
 5275      686F7274 
 5276              	LC151:
 5277 2e58 097B2564 		.ascii "\11{%d,%d,%d},\12\0"
 5277      2C25642C 
 5277      25647D2C 
 5277      0A00
 5278              	LC152:
 5279 2e66 25732025 		.ascii "%s %s[1];\0"
 5279      735B315D 
 5279      3B00
 5280              		.align 2
 5289              	__Z25GenerateMapSearchFile_ExtP20CUSTOM_ID_SEARCH_MAPtPcS1_S1_S1_:
1780:mtk_resgenerator.cpp **** 
1781:mtk_resgenerator.cpp **** /*****************************************************************************
1782:mtk_resgenerator.cpp **** * FUNCTION
1783:mtk_resgenerator.cpp **** *  GenerateMapSearchFile_Ext
1784:mtk_resgenerator.cpp **** * DESCRIPTION
1785:mtk_resgenerator.cpp **** *  generate ID search map file
GAS LISTING d:/software/ovi_2503a_s3trc/ovi_2503a_s3trc/plutommi/Customer/ResGenerator/gcctmp/ccgnaaaa.s 			page 90


1786:mtk_resgenerator.cpp **** * PARAMETERS
1787:mtk_resgenerator.cpp **** *  pMap                [IN]    ID search map
1788:mtk_resgenerator.cpp **** *  nSize               [IN]    size
1789:mtk_resgenerator.cpp **** *  str_CurrMaxSearchId [IN]    output variable name
1790:mtk_resgenerator.cpp **** *  str_IdSearchMap     [IN]    output variable name
1791:mtk_resgenerator.cpp **** *  str_CustType        [IN]    output variable name
1792:mtk_resgenerator.cpp **** *  curr_map_filename   [IN]    output file name
1793:mtk_resgenerator.cpp **** * RETURNS
1794:mtk_resgenerator.cpp **** *  void
1795:mtk_resgenerator.cpp **** *****************************************************************************/
1796:mtk_resgenerator.cpp **** static void GenerateMapSearchFile_Ext(
1797:mtk_resgenerator.cpp ****                                       CUSTOM_ID_SEARCH_MAP *pMap,
1798:mtk_resgenerator.cpp ****                                       U16 nSize,
1799:mtk_resgenerator.cpp ****                                       char *str_CurrMaxSearchId,
1800:mtk_resgenerator.cpp ****                                       char *str_IdSearchMap,
1801:mtk_resgenerator.cpp ****                                       char *str_CustType,
1802:mtk_resgenerator.cpp ****                                       char *curr_map_filename)
1803:mtk_resgenerator.cpp **** {
 5291              	LM245:
 5292 2e70 55       		pushl	%ebp
 5293 2e71 89E5     		movl	%esp, %ebp
 5294 2e73 83EC28   		subl	$40, %esp
 5295 2e76 8B450C   		movl	12(%ebp), %eax
 5296 2e79 668945FE 		movw	%ax, -2(%ebp)
1804:mtk_resgenerator.cpp ****     /*----------------------------------------------------------------*/
1805:mtk_resgenerator.cpp ****     /* Local Variables                                                */
1806:mtk_resgenerator.cpp ****     /*----------------------------------------------------------------*/
1807:mtk_resgenerator.cpp ****     FILE *pFile;
1808:mtk_resgenerator.cpp ****     int i;
1809:mtk_resgenerator.cpp **** 
1810:mtk_resgenerator.cpp ****     /*----------------------------------------------------------------*/
1811:mtk_resgenerator.cpp ****     /* Code Body                                                      */
1812:mtk_resgenerator.cpp ****     /*----------------------------------------------------------------*/
1813:mtk_resgenerator.cpp ****     if(pFile = fopen(curr_map_filename, "a"))
 5298              	LM246:
 5299              	LBB35:
 5300 2e7d C7442404 		movl	$LC149, 4(%esp)
 5300      392E0000 
 5301 2e85 8B451C   		movl	28(%ebp), %eax
 5302 2e88 890424   		movl	%eax, (%esp)
 5303 2e8b E8000000 		call	_fopen
 5303      00
 5304 2e90 8945F8   		movl	%eax, -8(%ebp)
 5305 2e93 837DF800 		cmpl	$0, -8(%ebp)
 5306 2e97 0F840201 		je	L111
 5306      0000
1814:mtk_resgenerator.cpp ****     {
1815:mtk_resgenerator.cpp ****         fprintf(pFile, "const unsigned short %s=%d;\n", str_CurrMaxSearchId, nSize);
 5308              	LM247:
 5309 2e9d 0FB745FE 		movzwl	-2(%ebp), %eax
 5310 2ea1 8944240C 		movl	%eax, 12(%esp)
 5311 2ea5 8B4510   		movl	16(%ebp), %eax
 5312 2ea8 89442408 		movl	%eax, 8(%esp)
 5313 2eac C7442404 		movl	$LC150, 4(%esp)
 5313      3B2E0000 
 5314 2eb4 8B45F8   		movl	-8(%ebp), %eax
 5315 2eb7 890424   		movl	%eax, (%esp)
GAS LISTING d:/software/ovi_2503a_s3trc/ovi_2503a_s3trc/plutommi/Customer/ResGenerator/gcctmp/ccgnaaaa.s 			page 91


 5316 2eba E8000000 		call	_fprintf
 5316      00
1816:mtk_resgenerator.cpp **** 
1817:mtk_resgenerator.cpp ****         /* writing the search map array inside the file. */
1818:mtk_resgenerator.cpp ****         if(nSize)
 5318              	LM248:
 5319 2ebf 66837DFE 		cmpw	$0, -2(%ebp)
 5319      00
 5320 2ec4 0F84A900 		je	L113
 5320      0000
1819:mtk_resgenerator.cpp ****         {
1820:mtk_resgenerator.cpp ****             fprintf(pFile, "const %s %s[]={\n", str_CustType, str_IdSearchMap);
 5322              	LM249:
 5323 2eca 8B4514   		movl	20(%ebp), %eax
 5324 2ecd 8944240C 		movl	%eax, 12(%esp)
 5325 2ed1 8B4518   		movl	24(%ebp), %eax
 5326 2ed4 89442408 		movl	%eax, 8(%esp)
 5327 2ed8 C7442404 		movl	$LC120, 4(%esp)
 5327      C3270000 
 5328 2ee0 8B45F8   		movl	-8(%ebp), %eax
 5329 2ee3 890424   		movl	%eax, (%esp)
 5330 2ee6 E8000000 		call	_fprintf
 5330      00
1821:mtk_resgenerator.cpp ****             for(i = 0; i < nSize; i++)
 5332              	LM250:
 5333 2eeb C745F400 		movl	$0, -12(%ebp)
 5333      000000
 5334              	L114:
 5335 2ef2 0FB745FE 		movzwl	-2(%ebp), %eax
 5336 2ef6 3945F4   		cmpl	%eax, -12(%ebp)
 5337 2ef9 7C02     		jl	L117
 5338 2efb EB61     		jmp	L115
 5339              	L117:
1822:mtk_resgenerator.cpp ****             {
1823:mtk_resgenerator.cpp ****                 fprintf(pFile, "\t{%d,%d,%d},\n", pMap[i].minId, pMap[i].maxId, pMap[i].index);
 5341              	LM251:
 5342 2efd 8B55F4   		movl	-12(%ebp), %edx
 5343 2f00 89D0     		movl	%edx, %eax
 5344 2f02 01C0     		addl	%eax, %eax
 5345 2f04 01D0     		addl	%edx, %eax
 5346 2f06 8D1400   		leal	(%eax,%eax), %edx
 5347 2f09 8B4508   		movl	8(%ebp), %eax
 5348 2f0c 0FB74410 		movzwl	4(%eax,%edx), %eax
 5348      04
 5349 2f11 89442410 		movl	%eax, 16(%esp)
 5350 2f15 8B55F4   		movl	-12(%ebp), %edx
 5351 2f18 89D0     		movl	%edx, %eax
 5352 2f1a 01C0     		addl	%eax, %eax
 5353 2f1c 01D0     		addl	%edx, %eax
 5354 2f1e 8D1400   		leal	(%eax,%eax), %edx
 5355 2f21 8B4508   		movl	8(%ebp), %eax
 5356 2f24 0FB74410 		movzwl	2(%eax,%edx), %eax
 5356      02
 5357 2f29 8944240C 		movl	%eax, 12(%esp)
 5358 2f2d 8B55F4   		movl	-12(%ebp), %edx
 5359 2f30 89D0     		movl	%edx, %eax
 5360 2f32 01C0     		addl	%eax, %eax
GAS LISTING d:/software/ovi_2503a_s3trc/ovi_2503a_s3trc/plutommi/Customer/ResGenerator/gcctmp/ccgnaaaa.s 			page 92


 5361 2f34 01D0     		addl	%edx, %eax
 5362 2f36 8D1400   		leal	(%eax,%eax), %edx
 5363 2f39 8B4508   		movl	8(%ebp), %eax
 5364 2f3c 0FB70410 		movzwl	(%eax,%edx), %eax
 5365 2f40 89442408 		movl	%eax, 8(%esp)
 5366 2f44 C7442404 		movl	$LC151, 4(%esp)
 5366      582E0000 
 5367 2f4c 8B45F8   		movl	-8(%ebp), %eax
 5368 2f4f 890424   		movl	%eax, (%esp)
 5369 2f52 E8000000 		call	_fprintf
 5369      00
 5371              	LM252:
 5372 2f57 8D45F4   		leal	-12(%ebp), %eax
 5373 2f5a FF00     		incl	(%eax)
 5374 2f5c EB94     		jmp	L114
 5375              	L115:
1824:mtk_resgenerator.cpp ****             }
1825:mtk_resgenerator.cpp ****             fprintf(pFile, "};\n\n\n\n");
 5377              	LM253:
 5378 2f5e C7442404 		movl	$LC68, 4(%esp)
 5378      3C180000 
 5379 2f66 8B45F8   		movl	-8(%ebp), %eax
 5380 2f69 890424   		movl	%eax, (%esp)
 5381 2f6c E8000000 		call	_fprintf
 5381      00
 5382 2f71 EB21     		jmp	L118
 5383              	L113:
1826:mtk_resgenerator.cpp ****         }
1827:mtk_resgenerator.cpp ****         else
1828:mtk_resgenerator.cpp ****         {
1829:mtk_resgenerator.cpp ****             fprintf(pFile, "%s %s[1];", str_CustType, str_IdSearchMap);
 5385              	LM254:
 5386 2f73 8B4514   		movl	20(%ebp), %eax
 5387 2f76 8944240C 		movl	%eax, 12(%esp)
 5388 2f7a 8B4518   		movl	24(%ebp), %eax
 5389 2f7d 89442408 		movl	%eax, 8(%esp)
 5390 2f81 C7442404 		movl	$LC152, 4(%esp)
 5390      662E0000 
 5391 2f89 8B45F8   		movl	-8(%ebp), %eax
 5392 2f8c 890424   		movl	%eax, (%esp)
 5393 2f8f E8000000 		call	_fprintf
 5393      00
 5394              	L118:
1830:mtk_resgenerator.cpp ****         }
1831:mtk_resgenerator.cpp ****         fclose(pFile);
 5396              	LM255:
 5397 2f94 8B45F8   		movl	-8(%ebp), %eax
 5398 2f97 890424   		movl	%eax, (%esp)
 5399 2f9a E8000000 		call	_fclose
 5399      00
1832:mtk_resgenerator.cpp ****     }
1833:mtk_resgenerator.cpp **** }
 5401              	LM256:
 5402              	L111:
 5403 2f9f C9       		leave
 5404 2fa0 C3       		ret
 5405              	LBE35:
GAS LISTING d:/software/ovi_2503a_s3trc/ovi_2503a_s3trc/plutommi/Customer/ResGenerator/gcctmp/ccgnaaaa.s 			page 93


 5411              	Lscope16:
 5413 2fa1 90909090 		.align 32
 5413      90909090 
 5413      90909090 
 5413      90909090 
 5413      90909090 
 5414              	LC153:
 5415 2fc0 47656E65 		.ascii "GenerateImageMapSearchFile(): File output: CustImgMap.c CustImgMapExt.c\0"
 5415      72617465 
 5415      496D6167 
 5415      654D6170 
 5415      53656172 
 5416              	LC154:
 5417 3008 43555354 		.ascii "CUSTOM_IMAGE_SEARCH_MAP\0"
 5417      4F4D5F49 
 5417      4D414745 
 5417      5F534541 
 5417      5243485F 
 5418              	LC155:
 5419 3020 496D6167 		.ascii "ImageIdSearchMap\0"
 5419      65496453 
 5419      65617263 
 5419      684D6170 
 5419      00
 5420              	LC156:
 5421 3031 43757272 		.ascii "CurrMaxSearchImageId\0"
 5421      4D617853 
 5421      65617263 
 5421      68496D61 
 5421      67654964 
 5422              	LC157:
 5423 3046 496D6167 		.ascii "ImageIdSearchMapEXT\0"
 5423      65496453 
 5423      65617263 
 5423      684D6170 
 5423      45585400 
 5424              	LC158:
 5425 305a 43757272 		.ascii "CurrMaxSearchImageIdEXT\0"
 5425      4D617853 
 5425      65617263 
 5425      68496D61 
 5425      67654964 
 5426              		.align 2
 5429              	__Z26GenerateImageMapSearchFilev:
1834:mtk_resgenerator.cpp **** 
1835:mtk_resgenerator.cpp **** 
1836:mtk_resgenerator.cpp **** /*****************************************************************************
1837:mtk_resgenerator.cpp **** * FUNCTION
1838:mtk_resgenerator.cpp **** *  GenerateImageMapSearchFile
1839:mtk_resgenerator.cpp **** * DESCRIPTION
1840:mtk_resgenerator.cpp **** *  generate image search map file
1841:mtk_resgenerator.cpp **** * PARAMETERS
1842:mtk_resgenerator.cpp **** *  void
1843:mtk_resgenerator.cpp **** * RETURNS
1844:mtk_resgenerator.cpp **** *  void
1845:mtk_resgenerator.cpp **** *****************************************************************************/
1846:mtk_resgenerator.cpp **** static void GenerateImageMapSearchFile(void)
GAS LISTING d:/software/ovi_2503a_s3trc/ovi_2503a_s3trc/plutommi/Customer/ResGenerator/gcctmp/ccgnaaaa.s 			page 94


1847:mtk_resgenerator.cpp **** {
 5431              	LM257:
 5432 3072 55       		pushl	%ebp
 5433 3073 89E5     		movl	%esp, %ebp
 5434 3075 83EC18   		subl	$24, %esp
1848:mtk_resgenerator.cpp ****     /*----------------------------------------------------------------*/
1849:mtk_resgenerator.cpp ****     /* Local Variables                                                */
1850:mtk_resgenerator.cpp ****     /*----------------------------------------------------------------*/
1851:mtk_resgenerator.cpp **** 
1852:mtk_resgenerator.cpp ****     /*----------------------------------------------------------------*/
1853:mtk_resgenerator.cpp ****     /* Code Body                                                      */
1854:mtk_resgenerator.cpp ****     /*----------------------------------------------------------------*/
1855:mtk_resgenerator.cpp ****     RESGEN_LOG_V("GenerateImageMapSearchFile(): File output: CustImgMap.c CustImgMapExt.c");
 5436              	LM258:
 5437              	LBB36:
 5438 3078 C7442408 		movl	$LC153, 8(%esp)
 5438      C02F0000 
 5439 3080 C7442404 		movl	$LC1, 4(%esp)
 5439      3E000000 
 5440 3088 C7042401 		movl	$1, (%esp)
 5440      000000
 5441 308f E8000000 		call	_reslog_adaptor_log
 5441      00
1856:mtk_resgenerator.cpp **** 
1857:mtk_resgenerator.cpp ****     GenerateMapSearchFile_Ext(
 5443              	LM259:
 5444 3094 C7442414 		movl	$LC124, 20(%esp)
 5444      A0290000 
 5445 309c C7442410 		movl	$LC154, 16(%esp)
 5445      08300000 
 5446 30a4 C744240C 		movl	$LC155, 12(%esp)
 5446      20300000 
 5447 30ac C7442408 		movl	$LC156, 8(%esp)
 5447      31300000 
 5448 30b4 0FB70500 		movzwl	_CurrMaxSearchImageId, %eax
 5448      000000
 5449 30bb 89442404 		movl	%eax, 4(%esp)
 5450 30bf C7042400 		movl	$_ImageIdSearchMap, (%esp)
 5450      000000
 5451 30c6 E8A5FDFF 		call	__Z25GenerateMapSearchFile_ExtP20CUSTOM_ID_SEARCH_MAPtPcS1_S1_S1_
 5451      FF
1858:mtk_resgenerator.cpp ****         (CUSTOM_ID_SEARCH_MAP *)ImageIdSearchMap,
1859:mtk_resgenerator.cpp ****         CurrMaxSearchImageId,
1860:mtk_resgenerator.cpp ****         "CurrMaxSearchImageId",
1861:mtk_resgenerator.cpp ****         "ImageIdSearchMap",
1862:mtk_resgenerator.cpp ****         "CUSTOM_IMAGE_SEARCH_MAP",
1863:mtk_resgenerator.cpp ****         IMG_MAP_FILENAME);
1864:mtk_resgenerator.cpp ****     GenerateMapSearchFile_Ext(
 5453              	LM260:
 5454 30cb C7442414 		movl	$LC129, 20(%esp)
 5454      202A0000 
 5455 30d3 C7442410 		movl	$LC154, 16(%esp)
 5455      08300000 
 5456 30db C744240C 		movl	$LC157, 12(%esp)
 5456      46300000 
 5457 30e3 C7442408 		movl	$LC158, 8(%esp)
 5457      5A300000 
GAS LISTING d:/software/ovi_2503a_s3trc/ovi_2503a_s3trc/plutommi/Customer/ResGenerator/gcctmp/ccgnaaaa.s 			page 95


 5458 30eb 0FB70500 		movzwl	_CurrMaxSearchImageIdEXT, %eax
 5458      000000
 5459 30f2 89442404 		movl	%eax, 4(%esp)
 5460 30f6 C7042400 		movl	$_ImageIdSearchMapEXT, (%esp)
 5460      000000
 5461 30fd E86EFDFF 		call	__Z25GenerateMapSearchFile_ExtP20CUSTOM_ID_SEARCH_MAPtPcS1_S1_S1_
 5461      FF
1865:mtk_resgenerator.cpp ****         (CUSTOM_ID_SEARCH_MAP *)ImageIdSearchMapEXT,
1866:mtk_resgenerator.cpp ****         CurrMaxSearchImageIdEXT,
1867:mtk_resgenerator.cpp ****         "CurrMaxSearchImageIdEXT",
1868:mtk_resgenerator.cpp ****         "ImageIdSearchMapEXT",
1869:mtk_resgenerator.cpp ****         "CUSTOM_IMAGE_SEARCH_MAP",
1870:mtk_resgenerator.cpp ****         IMG_MAP_FILENAME_EXT);
1871:mtk_resgenerator.cpp **** }
 5463              	LM261:
 5464 3102 C9       		leave
 5465 3103 C3       		ret
 5466              	LBE36:
 5467              	Lscope17:
 5469 3104 90909090 		.align 32
 5469      90909090 
 5469      90909090 
 5469      90909090 
 5469      90909090 
 5470              	LC159:
 5471 3120 47656E65 		.ascii "GenerateAudioMapSearchFile(): File output: CustAdoMap.c CustAdoMapExt.c\0"
 5471      72617465 
 5471      41756469 
 5471      6F4D6170 
 5471      53656172 
 5472              	LC160:
 5473 3168 43555354 		.ascii "CUSTOM_AUDIO_SEARCH_MAP\0"
 5473      4F4D5F41 
 5473      5544494F 
 5473      5F534541 
 5473      5243485F 
 5474              	LC161:
 5475 3180 41756469 		.ascii "AudioIdSearchMap\0"
 5475      6F496453 
 5475      65617263 
 5475      684D6170 
 5475      00
 5476              	LC162:
 5477 3191 43757272 		.ascii "CurrMaxSearchAudioId\0"
 5477      4D617853 
 5477      65617263 
 5477      68417564 
 5477      696F4964 
 5478              	LC163:
 5479 31a6 41756469 		.ascii "AudioIdSearchMapEXT\0"
 5479      6F496453 
 5479      65617263 
 5479      684D6170 
 5479      45585400 
 5480              	LC164:
 5481 31ba 43757272 		.ascii "CurrMaxSearchAudioIdEXT\0"
 5481      4D617853 
GAS LISTING d:/software/ovi_2503a_s3trc/ovi_2503a_s3trc/plutommi/Customer/ResGenerator/gcctmp/ccgnaaaa.s 			page 96


 5481      65617263 
 5481      68417564 
 5481      696F4964 
 5482              		.align 2
 5485              	__Z26GenerateAudioMapSearchFilev:
1872:mtk_resgenerator.cpp **** 
1873:mtk_resgenerator.cpp **** 
1874:mtk_resgenerator.cpp **** /*****************************************************************************
1875:mtk_resgenerator.cpp **** * FUNCTION
1876:mtk_resgenerator.cpp **** *  GenerateAudioMapSearchFile
1877:mtk_resgenerator.cpp **** * DESCRIPTION
1878:mtk_resgenerator.cpp **** *  generate audio search map file
1879:mtk_resgenerator.cpp **** * PARAMETERS
1880:mtk_resgenerator.cpp **** *  void
1881:mtk_resgenerator.cpp **** * RETURNS
1882:mtk_resgenerator.cpp **** *  void
1883:mtk_resgenerator.cpp **** *****************************************************************************/
1884:mtk_resgenerator.cpp **** static void GenerateAudioMapSearchFile(void)
1885:mtk_resgenerator.cpp **** {
 5487              	LM262:
 5488 31d2 55       		pushl	%ebp
 5489 31d3 89E5     		movl	%esp, %ebp
 5490 31d5 83EC18   		subl	$24, %esp
1886:mtk_resgenerator.cpp ****     /*----------------------------------------------------------------*/
1887:mtk_resgenerator.cpp ****     /* Local Variables                                                */
1888:mtk_resgenerator.cpp ****     /*----------------------------------------------------------------*/
1889:mtk_resgenerator.cpp **** 
1890:mtk_resgenerator.cpp ****     /*----------------------------------------------------------------*/
1891:mtk_resgenerator.cpp ****     /* Code Body                                                      */
1892:mtk_resgenerator.cpp ****     /*----------------------------------------------------------------*/
1893:mtk_resgenerator.cpp ****     RESGEN_LOG_V("GenerateAudioMapSearchFile(): File output: CustAdoMap.c CustAdoMapExt.c");
 5492              	LM263:
 5493              	LBB37:
 5494 31d8 C7442408 		movl	$LC159, 8(%esp)
 5494      20310000 
 5495 31e0 C7442404 		movl	$LC1, 4(%esp)
 5495      3E000000 
 5496 31e8 C7042401 		movl	$1, (%esp)
 5496      000000
 5497 31ef E8000000 		call	_reslog_adaptor_log
 5497      00
1894:mtk_resgenerator.cpp **** 
1895:mtk_resgenerator.cpp ****     GenerateMapSearchFile_Ext(
 5499              	LM264:
 5500 31f4 C7442414 		movl	$LC134, 20(%esp)
 5500      802B0000 
 5501 31fc C7442410 		movl	$LC160, 16(%esp)
 5501      68310000 
 5502 3204 C744240C 		movl	$LC161, 12(%esp)
 5502      80310000 
 5503 320c C7442408 		movl	$LC162, 8(%esp)
 5503      91310000 
 5504 3214 0FB70500 		movzwl	_CurrMaxSearchAudioId, %eax
 5504      000000
 5505 321b 89442404 		movl	%eax, 4(%esp)
 5506 321f C7042400 		movl	$_AudioIdSearchMap, (%esp)
 5506      000000
GAS LISTING d:/software/ovi_2503a_s3trc/ovi_2503a_s3trc/plutommi/Customer/ResGenerator/gcctmp/ccgnaaaa.s 			page 97


 5507 3226 E845FCFF 		call	__Z25GenerateMapSearchFile_ExtP20CUSTOM_ID_SEARCH_MAPtPcS1_S1_S1_
 5507      FF
1896:mtk_resgenerator.cpp ****         (CUSTOM_ID_SEARCH_MAP *)AudioIdSearchMap,
1897:mtk_resgenerator.cpp ****         CurrMaxSearchAudioId,
1898:mtk_resgenerator.cpp ****         "CurrMaxSearchAudioId",
1899:mtk_resgenerator.cpp ****         "AudioIdSearchMap",
1900:mtk_resgenerator.cpp ****         "CUSTOM_AUDIO_SEARCH_MAP",
1901:mtk_resgenerator.cpp ****         ADO_MAP_FILENAME);
1902:mtk_resgenerator.cpp ****     GenerateMapSearchFile_Ext(
 5509              	LM265:
 5510 322b C7442414 		movl	$LC139, 20(%esp)
 5510      002C0000 
 5511 3233 C7442410 		movl	$LC160, 16(%esp)
 5511      68310000 
 5512 323b C744240C 		movl	$LC163, 12(%esp)
 5512      A6310000 
 5513 3243 C7442408 		movl	$LC164, 8(%esp)
 5513      BA310000 
 5514 324b 0FB70500 		movzwl	_CurrMaxSearchAudioIdEXT, %eax
 5514      000000
 5515 3252 89442404 		movl	%eax, 4(%esp)
 5516 3256 C7042400 		movl	$_AudioIdSearchMapEXT, (%esp)
 5516      000000
 5517 325d E80EFCFF 		call	__Z25GenerateMapSearchFile_ExtP20CUSTOM_ID_SEARCH_MAPtPcS1_S1_S1_
 5517      FF
1903:mtk_resgenerator.cpp ****         (CUSTOM_ID_SEARCH_MAP *)AudioIdSearchMapEXT,
1904:mtk_resgenerator.cpp ****         CurrMaxSearchAudioIdEXT,
1905:mtk_resgenerator.cpp ****         "CurrMaxSearchAudioIdEXT",
1906:mtk_resgenerator.cpp ****         "AudioIdSearchMapEXT",
1907:mtk_resgenerator.cpp ****         "CUSTOM_AUDIO_SEARCH_MAP",
1908:mtk_resgenerator.cpp ****         ADO_MAP_FILENAME_EXT);
1909:mtk_resgenerator.cpp **** }
 5519              	LM266:
 5520 3262 C9       		leave
 5521 3263 C3       		ret
 5522              	LBE37:
 5523              	Lscope18:
 5525 3264 90909090 		.align 32
 5525      90909090 
 5525      90909090 
 5525      90909090 
 5525      90909090 
 5526              	LC165:
 5527 3280 47656E65 		.ascii "GenerateFontMapSearchFile(): File output: CustFontMap.c CustFontMapExt.c\0"
 5527      72617465 
 5527      466F6E74 
 5527      4D617053 
 5527      65617263 
 5528              	LC166:
 5529 32c9 43555354 		.ascii "CUSTOM_FONT_SEARCH_MAP\0"
 5529      4F4D5F46 
 5529      4F4E545F 
 5529      53454152 
 5529      43485F4D 
 5530              	LC167:
 5531 32e0 6D746B5F 		.ascii "mtk_CustFontSearchMapEXT\0"
 5531      43757374 
GAS LISTING d:/software/ovi_2503a_s3trc/ovi_2503a_s3trc/plutommi/Customer/ResGenerator/gcctmp/ccgnaaaa.s 			page 98


 5531      466F6E74 
 5531      53656172 
 5531      63684D61 
 5532              	LC168:
 5533 32f9 6D746B5F 		.ascii "mtk_CurrMaxSearchFontIdEXT\0"
 5533      43757272 
 5533      4D617853 
 5533      65617263 
 5533      68466F6E 
 5534              		.align 2
 5537              	__Z25GenerateFontMapSearchFilev:
1910:mtk_resgenerator.cpp **** 
1911:mtk_resgenerator.cpp **** 
1912:mtk_resgenerator.cpp **** 
1913:mtk_resgenerator.cpp **** #if defined(__MMI_RESOURCE_AUDIO_COMPRESS__) || defined(__MMI_RESOURCE_IMAGE_COMPRESS__)
1914:mtk_resgenerator.cpp **** /*****************************************************************************
1915:mtk_resgenerator.cpp **** * FUNCTION
1916:mtk_resgenerator.cpp **** *  GenerateAudioZipList
1917:mtk_resgenerator.cpp **** * DESCRIPTION
1918:mtk_resgenerator.cpp **** *  generate Zip list structure
1919:mtk_resgenerator.cpp **** * PARAMETERS
1920:mtk_resgenerator.cpp **** *  pMap                [IN]    ID map
1921:mtk_resgenerator.cpp **** *  nSize               [IN]    size
1922:mtk_resgenerator.cpp **** *  str_IdMap           [IN]    output variable name
1923:mtk_resgenerator.cpp **** *  str_CustMap         [IN]    output variable name
1924:mtk_resgenerator.cpp **** *  str_CurrMaxId       [IN]    output variable name
1925:mtk_resgenerator.cpp **** *  str_CustType        [IN]    output variable name
1926:mtk_resgenerator.cpp **** *  curr_map_filename   [IN]    output file name
1927:mtk_resgenerator.cpp **** * RETURNS
1928:mtk_resgenerator.cpp **** *  void
1929:mtk_resgenerator.cpp **** *****************************************************************************/
1930:mtk_resgenerator.cpp **** static void GenerateZipList(
1931:mtk_resgenerator.cpp ****                             res_compress_struct *pCompress,
1932:mtk_resgenerator.cpp ****                             U16 nSize,
1933:mtk_resgenerator.cpp ****                             char *str_zip_count,
1934:mtk_resgenerator.cpp ****                             char *str_zip_struct,
1935:mtk_resgenerator.cpp ****                             char *str_zip_type,
1936:mtk_resgenerator.cpp ****                             char *curr_map_filename)
1937:mtk_resgenerator.cpp **** {
1938:mtk_resgenerator.cpp ****     /*----------------------------------------------------------------*/
1939:mtk_resgenerator.cpp ****     /* Local Variables                                                */
1940:mtk_resgenerator.cpp ****     /*----------------------------------------------------------------*/
1941:mtk_resgenerator.cpp ****     FILE *pFile;
1942:mtk_resgenerator.cpp ****     U32 i;
1943:mtk_resgenerator.cpp **** 
1944:mtk_resgenerator.cpp ****     /*----------------------------------------------------------------*/
1945:mtk_resgenerator.cpp ****     /* Code Body                                                      */
1946:mtk_resgenerator.cpp ****     /*----------------------------------------------------------------*/
1947:mtk_resgenerator.cpp ****     if(pFile = fopen(curr_map_filename, "a"))
1948:mtk_resgenerator.cpp ****     {
1949:mtk_resgenerator.cpp **** 
1950:mtk_resgenerator.cpp ****         /* Write extern of array */
1951:mtk_resgenerator.cpp ****         for(i = 0; i < nSize; i++)
1952:mtk_resgenerator.cpp ****         {
1953:mtk_resgenerator.cpp ****             fprintf(pFile, "extern __align(4) U8 %s[];\n", pCompress[i].zi_name);
1954:mtk_resgenerator.cpp ****             fprintf(pFile, "extern __align(4) const U8 %s[];\n", pCompress[i].ro_name);
1955:mtk_resgenerator.cpp ****         }
GAS LISTING d:/software/ovi_2503a_s3trc/ovi_2503a_s3trc/plutommi/Customer/ResGenerator/gcctmp/ccgnaaaa.s 			page 99


1956:mtk_resgenerator.cpp **** 
1957:mtk_resgenerator.cpp **** 
1958:mtk_resgenerator.cpp ****         fprintf(pFile, "const unsigned short %s=%d;\n", str_zip_count, nSize);
1959:mtk_resgenerator.cpp **** 
1960:mtk_resgenerator.cpp ****         /* writing the search map array inside the file. */
1961:mtk_resgenerator.cpp ****         if(nSize != 0)
1962:mtk_resgenerator.cpp ****         {
1963:mtk_resgenerator.cpp ****             fprintf(pFile, "const %s %s[]={\n", str_zip_type, str_zip_struct);
1964:mtk_resgenerator.cpp ****             for(i = 0; i < nSize; i++)
1965:mtk_resgenerator.cpp ****             {
1966:mtk_resgenerator.cpp ****                 fprintf(pFile, "\t{(U8*)&%s, %d, (U8*)&%s, %d},\n",
1967:mtk_resgenerator.cpp ****                     pCompress[i].zi_name,
1968:mtk_resgenerator.cpp ****                     pCompress[i].zi_len,
1969:mtk_resgenerator.cpp ****                     pCompress[i].ro_name,
1970:mtk_resgenerator.cpp ****                     pCompress[i].ro_len);
1971:mtk_resgenerator.cpp ****             }
1972:mtk_resgenerator.cpp ****             fprintf(pFile, "};\n\n\n\n");
1973:mtk_resgenerator.cpp ****         }
1974:mtk_resgenerator.cpp ****         else
1975:mtk_resgenerator.cpp ****         {
1976:mtk_resgenerator.cpp ****             fprintf(pFile, "%s %s[1];", str_zip_type, str_zip_struct);
1977:mtk_resgenerator.cpp ****         }
1978:mtk_resgenerator.cpp ****         fclose(pFile);
1979:mtk_resgenerator.cpp ****     }
1980:mtk_resgenerator.cpp **** }
1981:mtk_resgenerator.cpp **** 
1982:mtk_resgenerator.cpp **** #endif /* define(__MMI_RESOURCE_AUDIO_COMPRESS__) || defined(__MMI_RESOURCE_IMAGE_COMPRESS__) */
1983:mtk_resgenerator.cpp **** 
1984:mtk_resgenerator.cpp **** 
1985:mtk_resgenerator.cpp **** #if defined(__MMI_RESOURCE_AUDIO_COMPRESS__)
1986:mtk_resgenerator.cpp **** 
1987:mtk_resgenerator.cpp **** extern res_compress_struct res_compress_data[];
1988:mtk_resgenerator.cpp **** extern U32 res_compress_count;
1989:mtk_resgenerator.cpp **** 
1990:mtk_resgenerator.cpp **** static void GenerateAudioZipList(void)
1991:mtk_resgenerator.cpp **** {
1992:mtk_resgenerator.cpp ****     RESGEN_LOG_V("GenerateImageZipList(): File output: Append zipped image table to CustAdoRes.c Cu
1993:mtk_resgenerator.cpp **** 
1994:mtk_resgenerator.cpp ****     GenerateZipList(
1995:mtk_resgenerator.cpp ****         res_compress_data,
1996:mtk_resgenerator.cpp ****         res_compress_count,
1997:mtk_resgenerator.cpp ****         "mmi_res_zip_aud_count",
1998:mtk_resgenerator.cpp ****         "mmi_res_zip_aud_struct",
1999:mtk_resgenerator.cpp ****         "res_compress_list_struct",
2000:mtk_resgenerator.cpp ****         ADO_DATA_FILENAME);
2001:mtk_resgenerator.cpp **** }
2002:mtk_resgenerator.cpp **** 
2003:mtk_resgenerator.cpp **** #endif
2004:mtk_resgenerator.cpp **** 
2005:mtk_resgenerator.cpp **** #if defined(__MMI_RESOURCE_IMAGE_COMPRESS__)
2006:mtk_resgenerator.cpp **** 
2007:mtk_resgenerator.cpp **** extern res_compress_struct g_res_compress_data_image[];
2008:mtk_resgenerator.cpp **** extern U32 g_res_compress_count_image;
2009:mtk_resgenerator.cpp **** 
2010:mtk_resgenerator.cpp **** static void GenerateImageZipList(void)
2011:mtk_resgenerator.cpp **** {
2012:mtk_resgenerator.cpp ****     RESGEN_LOG_V("GenerateImageZipList(): File output: Append zipped image table to CustImgRes.c Cu
GAS LISTING d:/software/ovi_2503a_s3trc/ovi_2503a_s3trc/plutommi/Customer/ResGenerator/gcctmp/ccgnaaaa.s 			page 100


2013:mtk_resgenerator.cpp ****     GenerateZipList(
2014:mtk_resgenerator.cpp ****         g_res_compress_data_image,
2015:mtk_resgenerator.cpp ****         g_res_compress_count_image,
2016:mtk_resgenerator.cpp ****         "mmi_res_zip_img_count",
2017:mtk_resgenerator.cpp ****         "mmi_res_zip_img_struct",
2018:mtk_resgenerator.cpp ****         "res_compress_list_struct",
2019:mtk_resgenerator.cpp ****         IMG_DATA_FILENAME);
2020:mtk_resgenerator.cpp **** }
2021:mtk_resgenerator.cpp **** 
2022:mtk_resgenerator.cpp **** #endif
2023:mtk_resgenerator.cpp **** 
2024:mtk_resgenerator.cpp **** 
2025:mtk_resgenerator.cpp **** 
2026:mtk_resgenerator.cpp **** /*****************************************************************************
2027:mtk_resgenerator.cpp **** * FUNCTION
2028:mtk_resgenerator.cpp **** *  GenerateFontMapSearchFile
2029:mtk_resgenerator.cpp **** * DESCRIPTION
2030:mtk_resgenerator.cpp **** *  generate Font search map file
2031:mtk_resgenerator.cpp **** * PARAMETERS
2032:mtk_resgenerator.cpp **** *  void
2033:mtk_resgenerator.cpp **** * RETURNS
2034:mtk_resgenerator.cpp **** *  void
2035:mtk_resgenerator.cpp **** *****************************************************************************/
2036:mtk_resgenerator.cpp **** static void GenerateFontMapSearchFile(void)
2037:mtk_resgenerator.cpp **** {
 5539              	LM267:
 5540 3314 55       		pushl	%ebp
 5541 3315 89E5     		movl	%esp, %ebp
 5542 3317 83EC18   		subl	$24, %esp
2038:mtk_resgenerator.cpp ****     /*----------------------------------------------------------------*/
2039:mtk_resgenerator.cpp ****     /* Local Variables                                                */
2040:mtk_resgenerator.cpp ****     /*----------------------------------------------------------------*/
2041:mtk_resgenerator.cpp **** 
2042:mtk_resgenerator.cpp ****     /*----------------------------------------------------------------*/
2043:mtk_resgenerator.cpp ****     /* Code Body                                                      */
2044:mtk_resgenerator.cpp ****     /*----------------------------------------------------------------*/
2045:mtk_resgenerator.cpp ****     RESGEN_LOG_V("GenerateFontMapSearchFile(): File output: CustFontMap.c CustFontMapExt.c");
 5544              	LM268:
 5545              	LBB38:
 5546 331a C7442408 		movl	$LC165, 8(%esp)
 5546      80320000 
 5547 3322 C7442404 		movl	$LC1, 4(%esp)
 5547      3E000000 
 5548 332a C7042401 		movl	$1, (%esp)
 5548      000000
 5549 3331 E8000000 		call	_reslog_adaptor_log
 5549      00
2046:mtk_resgenerator.cpp **** 
2047:mtk_resgenerator.cpp ****     GenerateMapSearchFile_Ext(
 5551              	LM269:
 5552 3336 C7442414 		movl	$LC144, 20(%esp)
 5552      602D0000 
 5553 333e C7442410 		movl	$LC166, 16(%esp)
 5553      C9320000 
 5554 3346 C744240C 		movl	$LC167, 12(%esp)
 5554      E0320000 
 5555 334e C7442408 		movl	$LC168, 8(%esp)
GAS LISTING d:/software/ovi_2503a_s3trc/ovi_2503a_s3trc/plutommi/Customer/ResGenerator/gcctmp/ccgnaaaa.s 			page 101


 5555      F9320000 
 5556 3356 0FB70500 		movzwl	_CurrMaxSearchFontIdEXT, %eax
 5556      000000
 5557 335d 89442404 		movl	%eax, 4(%esp)
 5558 3361 C7042400 		movl	$_FontIdSearchMapEXT, (%esp)
 5558      000000
 5559 3368 E803FBFF 		call	__Z25GenerateMapSearchFile_ExtP20CUSTOM_ID_SEARCH_MAPtPcS1_S1_S1_
 5559      FF
2048:mtk_resgenerator.cpp ****         (CUSTOM_ID_SEARCH_MAP *)FontIdSearchMapEXT,
2049:mtk_resgenerator.cpp ****         CurrMaxSearchFontIdEXT,
2050:mtk_resgenerator.cpp ****         "mtk_CurrMaxSearchFontIdEXT",
2051:mtk_resgenerator.cpp ****         "mtk_CustFontSearchMapEXT",
2052:mtk_resgenerator.cpp ****         "CUSTOM_FONT_SEARCH_MAP",
2053:mtk_resgenerator.cpp ****         FONT_MAP_FILENAME_EXT);
2054:mtk_resgenerator.cpp **** }
 5561              	LM270:
 5562 336d C9       		leave
 5563 336e C3       		ret
 5564              	LBE38:
 5565              	Lscope19:
 5567 336f 90909090 		.align 32
 5567      90909090 
 5567      90909090 
 5567      90909090 
 5567      90
 5568              	LC169:
 5569 3380 47656E65 		.ascii "GenerateMenuFile(): nSize = %d\0"
 5569      72617465 
 5569      4D656E75 
 5569      46696C65 
 5569      28293A20 
 5570 339f 90       		.align 32
 5571              	LC170:
 5572 33a0 2E2E5C2E 		.ascii "..\\..\\Customer\\CustResource\\CustMenuRes.c\0"
 5572      2E5C4375 
 5572      73746F6D 
 5572      65725C43 
 5572      75737452 
 5573 33ca 90909090 		.align 32
 5573      90909090 
 5573      90909090 
 5573      90909090 
 5573      90909090 
 5574              	LC171:
 5575 33e0 0A2F2A2A 		.ascii "\12/************************************************************** \12 FILENAME\11: CustMe
 5575      2A2A2A2A 
 5575      2A2A2A2A 
 5575      2A2A2A2A 
 5575      2A2A2A2A 
 5576              	LC172:
 5577 34dc 23696E63 		.ascii "#include \"CustMenuRes.h\"\12\12\12\0"
 5577      6C756465 
 5577      20224375 
 5577      73744D65 
 5577      6E755265 
 5578 34f8 908DB426 		.align 32
 5578      00000000 
GAS LISTING d:/software/ovi_2503a_s3trc/ovi_2503a_s3trc/plutommi/Customer/ResGenerator/gcctmp/ccgnaaaa.s 			page 102


 5579              	LC173:
 5580 3500 756E7369 		.ascii "unsigned short  CurrMaxMenuItemIndex=%d;\12\0"
 5580      676E6564 
 5580      2073686F 
 5580      72742020 
 5580      43757272 
 5581 352a 90909090 		.align 32
 5581      90909090 
 5581      90909090 
 5581      90909090 
 5581      90909090 
 5582              	LC174:
 5583 3540 636F6E73 		.ascii "const U16 nOrderMenuItem_%d[]={\0"
 5583      74205531 
 5583      36206E4F 
 5583      72646572 
 5583      4D656E75 
 5584              	LC175:
 5585 3560 25642C00 		.ascii "%d,\0"
 5586              	LC176:
 5587 3564 25647D3B 		.ascii "%d};\0"
 5587      00
 5588              	LC177:
 5589 3569 25730A00 		.ascii "%s\12\0"
 5590 356d 90909090 		.align 32
 5590      90909090 
 5590      90909090 
 5590      90909090 
 5590      909090
 5591              	LC178:
 5592 3580 0A20636F 		.ascii "\12 const CUSTOM_MENU\11\11mtk_nCustMenus[]={\12\0"
 5592      6E737420 
 5592      43555354 
 5592      4F4D5F4D 
 5592      454E5509 
 5593 35a9 90909090 		.align 32
 5593      90909090 
 5593      90909090 
 5593      90909090 
 5593      90909090 
 5594              	LC179:
 5595 35c0 7B302C20 		.ascii "{0, 0, 0, 0, 0, 0, (U16 *)0},\12\0"
 5595      302C2030 
 5595      2C20302C 
 5595      20302C20 
 5595      302C2028 
 5596 35df 90       		.align 32
 5597              	LC180:
 5598 35e0 7B25642C 		.ascii "{%d,%d,%d,%d,%d,%d,(U16 *)nOrderMenuItem_%d},\0"
 5598      25642C25 
 5598      642C2564 
 5598      2C25642C 
 5598      25642C28 
 5599              	LC181:
 5600 360e 7B25642C 		.ascii "{%d,%d,%d,%d,%d,%d,(U16 *)0},\0"
 5600      25642C25 
 5600      642C2564 
GAS LISTING d:/software/ovi_2503a_s3trc/ovi_2503a_s3trc/plutommi/Customer/ResGenerator/gcctmp/ccgnaaaa.s 			page 103


 5600      2C25642C 
 5600      25642C28 
 5601 362c 90909090 		.align 32
 5601      90909090 
 5601      90909090 
 5601      90909090 
 5601      90909090 
 5602              	LC182:
 5603 3640 0A0A2369 		.ascii "\12\12#ifdef __MULTIPLE_BINARY_FILES__\12\0"
 5603      66646566 
 5603      205F5F4D 
 5603      554C5449 
 5603      504C455F 
 5604 3664 90909090 		.align 32
 5604      90909090 
 5604      90909090 
 5604      90909090 
 5604      90909090 
 5605              	LC183:
 5606 3680 20202020 		.ascii "    /* we give more 50% ram for multiple bin, if Menus more than this, will be assert. */\
 5606      2F2A2077 
 5606      65206769 
 5606      7665206D 
 5606      6F726520 
 5607 36db 908D7426 		.align 32
 5607      00
 5608              	LC184:
 5609 36e0 20202020 		.ascii "    #define AV_TOTAL_MENU_ITEM ((sizeof(mtk_nCustMenus)/sizeof(CUSTOM_MENU))*1.5)\12\0"
 5609      23646566 
 5609      696E6520 
 5609      41565F54 
 5609      4F54414C 
 5610              	LC185:
 5611 3733 23656C73 		.ascii "#else\12\0"
 5611      650A00
 5612 373a 8DB60000 		.align 32
 5612      0000
 5613              	LC186:
 5614 3740 20202020 		.ascii "    #define AV_TOTAL_MENU_ITEM (sizeof(mtk_nCustMenus)/sizeof(CUSTOM_MENU))\12\0"
 5614      23646566 
 5614      696E6520 
 5614      41565F54 
 5614      4F54414C 
 5615              	LC187:
 5616 378d 23656E64 		.ascii "#endif\12\12\0"
 5616      69660A0A 
 5616      00
 5617 3796 8D76008D 		.align 32
 5617      BC270000 
 5617      0000
 5618              	LC188:
 5619 37a0 636F6E73 		.ascii "const S32 mtk_gAv_total_menuitem = ((U32)AV_TOTAL_MENU_ITEM);\12\0"
 5619      74205333 
 5619      32206D74 
 5619      6B5F6741 
 5619      765F746F 
 5620 37df 90       		.align 32
GAS LISTING d:/software/ovi_2503a_s3trc/ovi_2503a_s3trc/plutommi/Customer/ResGenerator/gcctmp/ccgnaaaa.s 			page 104


 5621              	LC189:
 5622 37e0 2F2A2048 		.ascii "/* Hide menu item mask */\12U8 MenuItemMask[(((U32)AV_TOTAL_MENU_ITEM) / 8) + 1];\12\0"
 5622      69646520 
 5622      6D656E75 
 5622      20697465 
 5622      6D206D61 
 5623 3831 EB0D9090 		.align 32
 5623      90909090 
 5623      90909090 
 5623      909090
 5624              	LC190:
 5625 3840 2F2A2044 		.ascii "/* Disable (dimmed) menu item mask */\12U8 g_menuitem_disable_mask[(((U32)AV_TOTAL_MENU_IT
 5625      69736162 
 5625      6C652028 
 5625      64696D6D 
 5625      65642920 
 5626 38aa 90909090 		.align 32
 5626      90909090 
 5626      90909090 
 5626      90909090 
 5626      90909090 
 5627              	LC191:
 5628 38c0 0A20636F 		.ascii "\12 const CUSTOM_MENU_SEARCH_MAP\11\11CustMenuSearchMap[]={\12\0"
 5628      6E737420 
 5628      43555354 
 5628      4F4D5F4D 
 5628      454E555F 
 5629              	LC192:
 5630 38f7 097B2564 		.ascii "\11{%d, %d, %d},\12\0"
 5630      2C202564 
 5630      2C202564 
 5630      7D2C0A00 
 5631 3907 90909090 		.align 32
 5631      90909090 
 5631      90909090 
 5631      90909090 
 5631      90909090 
 5632              	LC193:
 5633 3920 636F6E73 		.ascii "const CUSTOM_MENU_RES_ENTRY mtk_gMenuResEntry = {(CUSTOM_MENU*)mtk_nCustMenus, (CUSTOM_MEN
 5633      74204355 
 5633      53544F4D 
 5633      5F4D454E 
 5633      555F5245 
 5634 39a1 90909090 		.align 32
 5634      90909090 
 5634      90909090 
 5634      90909090 
 5634      90909090 
 5635              	LC194:
 5636 39c0 636F6E73 		.ascii "const CUSTOM_MENU\11\11nCustMenus[1];\0"
 5636      74204355 
 5636      53544F4D 
 5636      5F4D454E 
 5636      5509096E 
 5637 39e2 90909090 		.align 32
 5637      90909090 
 5637      90909090 
GAS LISTING d:/software/ovi_2503a_s3trc/ovi_2503a_s3trc/plutommi/Customer/ResGenerator/gcctmp/ccgnaaaa.s 			page 105


 5637      90909090 
 5637      90909090 
 5638              	LC195:
 5639 3a00 2E2E5C2E 		.ascii "..\\..\\Framework\\EventHandling\\EventsInc\\mmi_menu_handlers.h\0"
 5639      2E5C4672 
 5639      616D6577 
 5639      6F726B5C 
 5639      4576656E 
 5640 3a3c 8D742600 		.align 32
 5641              	LC196:
 5642 3a40 2F2A2A2A 		.ascii "/*****************************************************************************\12*  Copyri
 5642      2A2A2A2A 
 5642      2A2A2A2A 
 5642      2A2A2A2A 
 5642      2A2A2A2A 
 5643 4210 4C204348 		.ascii "L CHAMBER OF COMMERCE (ICC).\12*\12*******************************************************
 5643      414D4245 
 5643      52204F46 
 5643      20434F4D 
 5643      4D455243 
 5644              		.align 32
 5645              	LC197:
 5646 4280 2F2A2A2A 		.ascii "/*******************************************************************************\12 * File
 5646      2A2A2A2A 
 5646      2A2A2A2A 
 5646      2A2A2A2A 
 5646      2A2A2A2A 
 5647 4602 90909090 		.align 32
 5647      90909090 
 5647      90909090 
 5647      90909090 
 5647      90909090 
 5648              	LC198:
 5649 4620 0A236966 		.ascii "\12#ifndef _MENUHANDLER_H\12#define _MENUHANDLER_H\12\0"
 5649      6E646566 
 5649      205F4D45 
 5649      4E554841 
 5649      4E444C45 
 5650 4650 90909090 		.align 32
 5650      90909090 
 5650      90909090 
 5650      90909090 
 5651              	LC199:
 5652 4660 0A2F2A20 		.ascii "\12/* need typedef void (*FuncPtr) (void); before include this file */\12\12\0"
 5652      6E656564 
 5652      20747970 
 5652      65646566 
 5652      20766F69 
 5653 46a7 90909090 		.align 32
 5653      90909090 
 5653      90909090 
 5653      90909090 
 5653      90909090 
 5654              	LC200:
 5655 46c0 2F2A2023 		.ascii "/* #define MENU_HILITE_HANDLER_COUNT   %d; */\12/* #define MENU_HINT_HANDLER_COUNT     %d;
 5655      64656669 
 5655      6E65204D 
GAS LISTING d:/software/ovi_2503a_s3trc/ovi_2503a_s3trc/plutommi/Customer/ResGenerator/gcctmp/ccgnaaaa.s 			page 106


 5655      454E555F 
 5655      48494C49 
 5656              	LC201:
 5657 471e 23696E63 		.ascii "#include \"mmi_rp_all_defs.h\"\12\0"
 5657      6C756465 
 5657      20226D6D 
 5657      695F7270 
 5657      5F616C6C 
 5658 473c 8D742600 		.align 32
 5659              	LC202:
 5660 4740 2F2A2045 		.ascii "/* Extern functions of Hilite Handler */\12\0"
 5660      78746572 
 5660      6E206675 
 5660      6E637469 
 5660      6F6E7320 
 5661              	LC203:
 5662 476a 65787465 		.ascii "extern void %s(void);\12\0"
 5662      726E2076 
 5662      6F696420 
 5662      25732876 
 5662      6F696429 
 5663 4781 90909090 		.align 32
 5663      90909090 
 5663      90909090 
 5663      90909090 
 5663      90909090 
 5664              	LC204:
 5665 47a0 0A0A2F2A 		.ascii "\12\12/* Extern functions of Hint Handler */\12\0"
 5665      20457874 
 5665      65726E20 
 5665      66756E63 
 5665      74696F6E 
 5666              	LC205:
 5667 47ca 65787465 		.ascii "extern void %s(U16);\12\0"
 5667      726E2076 
 5667      6F696420 
 5667      25732855 
 5667      3136293B 
 5668              		.align 32
 5669              	LC206:
 5670 47e0 0A636F6E 		.ascii "\12const mmi_frm_hilite_hdlr_struct mmi_frm_const_hilite_hdlr_table[] = {\12\0"
 5670      7374206D 
 5670      6D695F66 
 5670      726D5F68 
 5670      696C6974 
 5671              	LC207:
 5672 4829 20202020 		.ascii "    {%s, %s},\12\0"
 5672      7B25732C 
 5672      2025737D 
 5672      2C0A00
 5673 4838 908DB426 		.align 32
 5673      00000000 
 5674              	LC208:
 5675 4840 0A636F6E 		.ascii "\12const mmi_frm_hilite_hdlr_struct mmi_frm_const_hilite_hdlr_table[1] = {{0, NULL}};\12\0
 5675      7374206D 
 5675      6D695F66 
 5675      726D5F68 
GAS LISTING d:/software/ovi_2503a_s3trc/ovi_2503a_s3trc/plutommi/Customer/ResGenerator/gcctmp/ccgnaaaa.s 			page 107


 5675      696C6974 
 5676 4895 8D742600 		.align 32
 5676      8DBC2700 
 5676      000000
 5677              	LC209:
 5678 48a0 0A636F6E 		.ascii "\12const mmi_frm_hint_hdlr_struct mmi_frm_const_hint_hdlr_table[] = {\12\0"
 5678      7374206D 
 5678      6D695F66 
 5678      726D5F68 
 5678      696E745F 
 5679 48e5 90909090 		.align 32
 5679      90909090 
 5679      90909090 
 5679      90909090 
 5679      90909090 
 5680              	LC210:
 5681 4900 0A636F6E 		.ascii "\12const mmi_frm_hint_hdlr_struct mmi_frm_const_hint_hdlr_table[1] = {{0, NULL}};\12\0"
 5681      7374206D 
 5681      6D695F66 
 5681      726D5F68 
 5681      696E745F 
 5682 4951 EB0D9090 		.align 32
 5682      90909090 
 5682      90909090 
 5682      909090
 5683              	LC211:
 5684 4960 0A23656E 		.ascii "\12#endif /* _MENUHANDLER_H */ \12\0"
 5684      64696620 
 5684      2F2A205F 
 5684      4D454E55 
 5684      48414E44 
 5685 497f 90       		.align 2
 5689              	__Z16GenerateMenuFilet:
2055:mtk_resgenerator.cpp **** 
2056:mtk_resgenerator.cpp **** 
2057:mtk_resgenerator.cpp **** 
2058:mtk_resgenerator.cpp **** /*****************************************************************************
2059:mtk_resgenerator.cpp **** * FUNCTION
2060:mtk_resgenerator.cpp **** *  GenerateMenuFile
2061:mtk_resgenerator.cpp **** * DESCRIPTION
2062:mtk_resgenerator.cpp **** *  generate menu resource file
2063:mtk_resgenerator.cpp **** * PARAMETERS
2064:mtk_resgenerator.cpp **** *  nSize       [IN]    size
2065:mtk_resgenerator.cpp **** * RETURNS
2066:mtk_resgenerator.cpp **** *  int
2067:mtk_resgenerator.cpp **** *****************************************************************************/
2068:mtk_resgenerator.cpp **** static int GenerateMenuFile(U16 nSize)
2069:mtk_resgenerator.cpp **** {
 5691              	LM271:
 5692 4980 55       		pushl	%ebp
 5693 4981 89E5     		movl	%esp, %ebp
 5694 4983 53       		pushl	%ebx
 5695 4984 81ECD402 		subl	$724, %esp
 5695      0000
 5696 498a 8B4508   		movl	8(%ebp), %eax
 5697 498d 668945F6 		movw	%ax, -10(%ebp)
2070:mtk_resgenerator.cpp ****     /*----------------------------------------------------------------*/
GAS LISTING d:/software/ovi_2503a_s3trc/ovi_2503a_s3trc/plutommi/Customer/ResGenerator/gcctmp/ccgnaaaa.s 			page 108


2071:mtk_resgenerator.cpp ****     /* Local Variables                                                */
2072:mtk_resgenerator.cpp ****     /*----------------------------------------------------------------*/
2073:mtk_resgenerator.cpp ****     FILE* pFile;
2074:mtk_resgenerator.cpp ****     CUSTOM_MENU* pCustMenu = (CUSTOM_MENU*)nCustMenus;
 5699              	LM272:
 5700              	LBB39:
 5701 4991 C745EC00 		movl	$_nCustMenus, -20(%ebp)
 5701      000000
2075:mtk_resgenerator.cpp ****     S8 nItemData[100];      /* Assumed ..*/
2076:mtk_resgenerator.cpp ****     S8 MenuItemString[500]; /* Assumed ..*/
2077:mtk_resgenerator.cpp ****     int i,j;
2078:mtk_resgenerator.cpp ****     int start = 0, index = 0, num_map_search = 0;
 5703              	LM273:
 5704 4998 C7856CFD 		movl	$0, -660(%ebp)
 5704      FFFF0000 
 5704      0000
 5705 49a2 C78568FD 		movl	$0, -664(%ebp)
 5705      FFFF0000 
 5705      0000
 5706 49ac C78564FD 		movl	$0, -668(%ebp)
 5706      FFFF0000 
 5706      0000
2079:mtk_resgenerator.cpp ****     int min_id = 0, max_id = 0;
 5708              	LM274:
 5709 49b6 C78560FD 		movl	$0, -672(%ebp)
 5709      FFFF0000 
 5709      0000
 5710 49c0 C7855CFD 		movl	$0, -676(%ebp)
 5710      FFFF0000 
 5710      0000
2080:mtk_resgenerator.cpp **** 
2081:mtk_resgenerator.cpp ****     /*----------------------------------------------------------------*/
2082:mtk_resgenerator.cpp ****     /* Code Body                                                      */
2083:mtk_resgenerator.cpp ****     /*----------------------------------------------------------------*/
2084:mtk_resgenerator.cpp ****     RESGEN_LOG_V("GenerateMenuFile(): nSize = %d",nSize);
 5712              	LM275:
 5713 49ca 0FB745F6 		movzwl	-10(%ebp), %eax
 5714 49ce 8944240C 		movl	%eax, 12(%esp)
 5715 49d2 C7442408 		movl	$LC169, 8(%esp)
 5715      80330000 
 5716 49da C7442404 		movl	$LC1, 4(%esp)
 5716      3E000000 
 5717 49e2 C7042401 		movl	$1, (%esp)
 5717      000000
 5718 49e9 E8000000 		call	_reslog_adaptor_log
 5718      00
2085:mtk_resgenerator.cpp **** 
2086:mtk_resgenerator.cpp ****     if(pFile = fopen(MENU_DATA_FILENAME, "w"))
 5720              	LM276:
 5721 49ee C7442404 		movl	$LC2, 4(%esp)
 5721      4F000000 
 5722 49f6 C70424A0 		movl	$LC170, (%esp)
 5722      330000
 5723 49fd E8000000 		call	_fopen
 5723      00
 5724 4a02 8945F0   		movl	%eax, -16(%ebp)
 5725 4a05 837DF000 		cmpl	$0, -16(%ebp)
GAS LISTING d:/software/ovi_2503a_s3trc/ovi_2503a_s3trc/plutommi/Customer/ResGenerator/gcctmp/ccgnaaaa.s 			page 109


 5726 4a09 0F849D05 		je	L123
 5726      0000
2087:mtk_resgenerator.cpp ****     {
2088:mtk_resgenerator.cpp ****         fprintf(pFile, "/**\n *	Copyright Notice\n *	?2002 - 2003, Pixtel Communications, Inc., 148
 5728              	LM277:
 5729 4a0f C7442404 		movl	$LC4, 4(%esp)
 5729      A0000000 
 5730 4a17 8B45F0   		movl	-16(%ebp), %eax
 5731 4a1a 890424   		movl	%eax, (%esp)
 5732 4a1d E8000000 		call	_fprintf
 5732      00
2089:mtk_resgenerator.cpp ****         fprintf(pFile, "\n/************************************************************** \n FILENA
 5734              	LM278:
 5735 4a22 C7442404 		movl	$LC171, 4(%esp)
 5735      E0330000 
 5736 4a2a 8B45F0   		movl	-16(%ebp), %eax
 5737 4a2d 890424   		movl	%eax, (%esp)
 5738 4a30 E8000000 		call	_fprintf
 5738      00
2090:mtk_resgenerator.cpp **** 
2091:mtk_resgenerator.cpp ****         /* put the headers needed here */
2092:mtk_resgenerator.cpp ****         fprintf(pFile, "#include \"CustMenuRes.h\"\n\n\n");
 5740              	LM279:
 5741 4a35 C7442404 		movl	$LC172, 4(%esp)
 5741      DC340000 
 5742 4a3d 8B45F0   		movl	-16(%ebp), %eax
 5743 4a40 890424   		movl	%eax, (%esp)
 5744 4a43 E8000000 		call	_fprintf
 5744      00
2093:mtk_resgenerator.cpp ****         fprintf(pFile, "unsigned short  CurrMaxMenuItemIndex=%d;\n", nSize);
 5746              	LM280:
 5747 4a48 0FB745F6 		movzwl	-10(%ebp), %eax
 5748 4a4c 89442408 		movl	%eax, 8(%esp)
 5749 4a50 C7442404 		movl	$LC173, 4(%esp)
 5749      00350000 
 5750 4a58 8B45F0   		movl	-16(%ebp), %eax
 5751 4a5b 890424   		movl	%eax, (%esp)
 5752 4a5e E8000000 		call	_fprintf
 5752      00
2094:mtk_resgenerator.cpp **** 
2095:mtk_resgenerator.cpp ****         /* writing the string array inside the file. */
2096:mtk_resgenerator.cpp ****         if(nSize)
 5754              	LM281:
 5755 4a63 66837DF6 		cmpw	$0, -10(%ebp)
 5755      00
 5756 4a68 0F841E05 		je	L124
 5756      0000
2097:mtk_resgenerator.cpp ****         {
2098:mtk_resgenerator.cpp ****             for(i = 0; i < nSize; i++)
 5758              	LM282:
 5759 4a6e C78574FD 		movl	$0, -652(%ebp)
 5759      FFFF0000 
 5759      0000
 5760              	L125:
 5761 4a78 0FB745F6 		movzwl	-10(%ebp), %eax
 5762 4a7c 398574FD 		cmpl	%eax, -652(%ebp)
 5762      FFFF
GAS LISTING d:/software/ovi_2503a_s3trc/ovi_2503a_s3trc/plutommi/Customer/ResGenerator/gcctmp/ccgnaaaa.s 			page 110


 5763 4a82 7C05     		jl	L128
 5764 4a84 E9380100 		jmp	L126
 5764      00
 5765              	L128:
2099:mtk_resgenerator.cpp ****             {
2100:mtk_resgenerator.cpp ****                 if(pCustMenu[i].nNumofMenuItem)
 5767              	LM283:
 5768 4a89 8B8574FD 		movl	-652(%ebp), %eax
 5768      FFFF
 5769 4a8f 89C2     		movl	%eax, %edx
 5770 4a91 C1E204   		sall	$4, %edx
 5771 4a94 8B45EC   		movl	-20(%ebp), %eax
 5772 4a97 66837C10 		cmpw	$0, 2(%eax,%edx)
 5772      0200
 5773 4a9d 0F841101 		je	L127
 5773      0000
2101:mtk_resgenerator.cpp ****                 {
2102:mtk_resgenerator.cpp ****                     sprintf(MenuItemString, "const U16 nOrderMenuItem_%d[]={", i);
 5775              	LM284:
 5776 4aa3 8B8574FD 		movl	-652(%ebp), %eax
 5776      FFFF
 5777 4aa9 89442408 		movl	%eax, 8(%esp)
 5778 4aad C7442404 		movl	$LC174, 4(%esp)
 5778      40350000 
 5779 4ab5 8D8578FD 		leal	-648(%ebp), %eax
 5779      FFFF
 5780 4abb 890424   		movl	%eax, (%esp)
 5781 4abe E8000000 		call	_sprintf
 5781      00
2103:mtk_resgenerator.cpp ****                     for(j = 0; j < (pCustMenu[i].nNumofMenuItem - 1); j++)
 5783              	LM285:
 5784 4ac3 C78570FD 		movl	$0, -656(%ebp)
 5784      FFFF0000 
 5784      0000
 5785              	L130:
 5786 4acd 8B8574FD 		movl	-652(%ebp), %eax
 5786      FFFF
 5787 4ad3 89C2     		movl	%eax, %edx
 5788 4ad5 C1E204   		sall	$4, %edx
 5789 4ad8 8B45EC   		movl	-20(%ebp), %eax
 5790 4adb 0FB74410 		movzwl	2(%eax,%edx), %eax
 5790      02
 5791 4ae0 48       		decl	%eax
 5792 4ae1 398570FD 		cmpl	%eax, -656(%ebp)
 5792      FFFF
 5793 4ae7 7C02     		jl	L133
 5794 4ae9 EB5B     		jmp	L131
 5795              	L133:
2104:mtk_resgenerator.cpp ****                     {
2105:mtk_resgenerator.cpp ****                         sprintf(nItemData, "%d,", pCustMenu[i].nOrderMenuItemId[j]);
 5797              	LM286:
 5798 4aeb 8B8574FD 		movl	-652(%ebp), %eax
 5798      FFFF
 5799 4af1 89C3     		movl	%eax, %ebx
 5800 4af3 C1E304   		sall	$4, %ebx
 5801 4af6 8B4DEC   		movl	-20(%ebp), %ecx
 5802 4af9 8B8570FD 		movl	-656(%ebp), %eax
GAS LISTING d:/software/ovi_2503a_s3trc/ovi_2503a_s3trc/plutommi/Customer/ResGenerator/gcctmp/ccgnaaaa.s 			page 111


 5802      FFFF
 5803 4aff 8D1400   		leal	(%eax,%eax), %edx
 5804 4b02 8B44190C 		movl	12(%ecx,%ebx), %eax
 5805 4b06 0FB70410 		movzwl	(%eax,%edx), %eax
 5806 4b0a 89442408 		movl	%eax, 8(%esp)
 5807 4b0e C7442404 		movl	$LC175, 4(%esp)
 5807      60350000 
 5808 4b16 8D8578FF 		leal	-136(%ebp), %eax
 5808      FFFF
 5809 4b1c 890424   		movl	%eax, (%esp)
 5810 4b1f E8000000 		call	_sprintf
 5810      00
2106:mtk_resgenerator.cpp ****                         strcat(MenuItemString, nItemData);
 5812              	LM287:
 5813 4b24 8D8578FF 		leal	-136(%ebp), %eax
 5813      FFFF
 5814 4b2a 89442404 		movl	%eax, 4(%esp)
 5815 4b2e 8D8578FD 		leal	-648(%ebp), %eax
 5815      FFFF
 5816 4b34 890424   		movl	%eax, (%esp)
 5817 4b37 E8000000 		call	_strcat
 5817      00
 5819              	LM288:
 5820 4b3c 8D8570FD 		leal	-656(%ebp), %eax
 5820      FFFF
 5821 4b42 FF00     		incl	(%eax)
 5822 4b44 EB87     		jmp	L130
 5823              	L131:
2107:mtk_resgenerator.cpp ****                     }
2108:mtk_resgenerator.cpp ****                     sprintf(nItemData, "%d};", pCustMenu[i].nOrderMenuItemId[j]);
 5825              	LM289:
 5826 4b46 8B8574FD 		movl	-652(%ebp), %eax
 5826      FFFF
 5827 4b4c 89C3     		movl	%eax, %ebx
 5828 4b4e C1E304   		sall	$4, %ebx
 5829 4b51 8B4DEC   		movl	-20(%ebp), %ecx
 5830 4b54 8B8570FD 		movl	-656(%ebp), %eax
 5830      FFFF
 5831 4b5a 8D1400   		leal	(%eax,%eax), %edx
 5832 4b5d 8B44190C 		movl	12(%ecx,%ebx), %eax
 5833 4b61 0FB70410 		movzwl	(%eax,%edx), %eax
 5834 4b65 89442408 		movl	%eax, 8(%esp)
 5835 4b69 C7442404 		movl	$LC176, 4(%esp)
 5835      64350000 
 5836 4b71 8D8578FF 		leal	-136(%ebp), %eax
 5836      FFFF
 5837 4b77 890424   		movl	%eax, (%esp)
 5838 4b7a E8000000 		call	_sprintf
 5838      00
2109:mtk_resgenerator.cpp ****                     strcat(MenuItemString, nItemData);
 5840              	LM290:
 5841 4b7f 8D8578FF 		leal	-136(%ebp), %eax
 5841      FFFF
 5842 4b85 89442404 		movl	%eax, 4(%esp)
 5843 4b89 8D8578FD 		leal	-648(%ebp), %eax
 5843      FFFF
 5844 4b8f 890424   		movl	%eax, (%esp)
GAS LISTING d:/software/ovi_2503a_s3trc/ovi_2503a_s3trc/plutommi/Customer/ResGenerator/gcctmp/ccgnaaaa.s 			page 112


 5845 4b92 E8000000 		call	_strcat
 5845      00
2110:mtk_resgenerator.cpp ****                     fprintf(pFile, "%s\n", MenuItemString);
 5847              	LM291:
 5848 4b97 8D8578FD 		leal	-648(%ebp), %eax
 5848      FFFF
 5849 4b9d 89442408 		movl	%eax, 8(%esp)
 5850 4ba1 C7442404 		movl	$LC177, 4(%esp)
 5850      69350000 
 5851 4ba9 8B45F0   		movl	-16(%ebp), %eax
 5852 4bac 890424   		movl	%eax, (%esp)
 5853 4baf E8000000 		call	_fprintf
 5853      00
 5855              	LM292:
 5856              	L127:
 5857 4bb4 8D8574FD 		leal	-652(%ebp), %eax
 5857      FFFF
 5858 4bba FF00     		incl	(%eax)
 5859 4bbc E9B7FEFF 		jmp	L125
 5859      FF
 5860              	L126:
2111:mtk_resgenerator.cpp ****                 }
2112:mtk_resgenerator.cpp **** 
2113:mtk_resgenerator.cpp ****             }
2114:mtk_resgenerator.cpp ****             fprintf(pFile, "\n const CUSTOM_MENU		mtk_nCustMenus[]={\n");
 5862              	LM293:
 5863 4bc1 C7442404 		movl	$LC178, 4(%esp)
 5863      80350000 
 5864 4bc9 8B45F0   		movl	-16(%ebp), %eax
 5865 4bcc 890424   		movl	%eax, (%esp)
 5866 4bcf E8000000 		call	_fprintf
 5866      00
2115:mtk_resgenerator.cpp ****             /* write a dummy entry at index 0 */
2116:mtk_resgenerator.cpp ****             fprintf(pFile, "{0, 0, 0, 0, 0, 0, (U16 *)0},\n");
 5868              	LM294:
 5869 4bd4 C7442404 		movl	$LC179, 4(%esp)
 5869      C0350000 
 5870 4bdc 8B45F0   		movl	-16(%ebp), %eax
 5871 4bdf 890424   		movl	%eax, (%esp)
 5872 4be2 E8000000 		call	_fprintf
 5872      00
2117:mtk_resgenerator.cpp ****             for(i = 0; i < nSize; i++)
 5874              	LM295:
 5875 4be7 C78574FD 		movl	$0, -652(%ebp)
 5875      FFFF0000 
 5875      0000
 5876              	L134:
 5877 4bf1 0FB745F6 		movzwl	-10(%ebp), %eax
 5878 4bf5 398574FD 		cmpl	%eax, -652(%ebp)
 5878      FFFF
 5879 4bfb 7C05     		jl	L137
 5880 4bfd E9AA0100 		jmp	L135
 5880      00
 5881              	L137:
2118:mtk_resgenerator.cpp ****             {
2119:mtk_resgenerator.cpp ****                 if(pCustMenu[i].nParentId < MAX_MENU_ITEMS)
 5883              	LM296:
GAS LISTING d:/software/ovi_2503a_s3trc/ovi_2503a_s3trc/plutommi/Customer/ResGenerator/gcctmp/ccgnaaaa.s 			page 113


 5884 4c02 8B8574FD 		movl	-652(%ebp), %eax
 5884      FFFF
 5885 4c08 89C2     		movl	%eax, %edx
 5886 4c0a C1E204   		sall	$4, %edx
 5887 4c0d 8B45EC   		movl	-20(%ebp), %eax
 5888 4c10 66833C10 		cmpw	$-1, (%eax,%edx)
 5888      FF
 5889 4c15 0F848401 		je	L136
 5889      0000
2120:mtk_resgenerator.cpp ****                 {
2121:mtk_resgenerator.cpp ****                     if(pCustMenu[i].nNumofMenuItem)
 5891              	LM297:
 5892 4c1b 8B8574FD 		movl	-652(%ebp), %eax
 5892      FFFF
 5893 4c21 89C2     		movl	%eax, %edx
 5894 4c23 C1E204   		sall	$4, %edx
 5895 4c26 8B45EC   		movl	-20(%ebp), %eax
 5896 4c29 66837C10 		cmpw	$0, 2(%eax,%edx)
 5896      0200
 5897 4c2f 0F84AE00 		je	L139
 5897      0000
2122:mtk_resgenerator.cpp ****                         sprintf(MenuItemString, "{%d,%d,%d,%d,%d,%d,(U16 *)nOrderMenuItem_%d},",  p
 5899              	LM298:
 5900 4c35 8B8574FD 		movl	-652(%ebp), %eax
 5900      FFFF
 5901 4c3b 89442420 		movl	%eax, 32(%esp)
 5902 4c3f 8B8574FD 		movl	-652(%ebp), %eax
 5902      FFFF
 5903 4c45 89C2     		movl	%eax, %edx
 5904 4c47 C1E204   		sall	$4, %edx
 5905 4c4a 8B45EC   		movl	-20(%ebp), %eax
 5906 4c4d 0FB74410 		movzwl	8(%eax,%edx), %eax
 5906      08
 5907 4c52 8944241C 		movl	%eax, 28(%esp)
 5908 4c56 8B8574FD 		movl	-652(%ebp), %eax
 5908      FFFF
 5909 4c5c 89C2     		movl	%eax, %edx
 5910 4c5e C1E204   		sall	$4, %edx
 5911 4c61 8B45EC   		movl	-20(%ebp), %eax
 5912 4c64 0FB74410 		movzwl	6(%eax,%edx), %eax
 5912      06
 5913 4c69 89442418 		movl	%eax, 24(%esp)
 5914 4c6d 8B8574FD 		movl	-652(%ebp), %eax
 5914      FFFF
 5915 4c73 89C2     		movl	%eax, %edx
 5916 4c75 C1E204   		sall	$4, %edx
 5917 4c78 8B45EC   		movl	-20(%ebp), %eax
 5918 4c7b 0FB64410 		movzbl	5(%eax,%edx), %eax
 5918      05
 5919 4c80 89442414 		movl	%eax, 20(%esp)
 5920 4c84 8B8574FD 		movl	-652(%ebp), %eax
 5920      FFFF
 5921 4c8a 89C2     		movl	%eax, %edx
 5922 4c8c C1E204   		sall	$4, %edx
 5923 4c8f 8B45EC   		movl	-20(%ebp), %eax
 5924 4c92 0FB64410 		movzbl	4(%eax,%edx), %eax
 5924      04
GAS LISTING d:/software/ovi_2503a_s3trc/ovi_2503a_s3trc/plutommi/Customer/ResGenerator/gcctmp/ccgnaaaa.s 			page 114


 5925 4c97 89442410 		movl	%eax, 16(%esp)
 5926 4c9b 8B8574FD 		movl	-652(%ebp), %eax
 5926      FFFF
 5927 4ca1 89C2     		movl	%eax, %edx
 5928 4ca3 C1E204   		sall	$4, %edx
 5929 4ca6 8B45EC   		movl	-20(%ebp), %eax
 5930 4ca9 0FB74410 		movzwl	2(%eax,%edx), %eax
 5930      02
 5931 4cae 8944240C 		movl	%eax, 12(%esp)
 5932 4cb2 8B8574FD 		movl	-652(%ebp), %eax
 5932      FFFF
 5933 4cb8 89C2     		movl	%eax, %edx
 5934 4cba C1E204   		sall	$4, %edx
 5935 4cbd 8B45EC   		movl	-20(%ebp), %eax
 5936 4cc0 0FB70410 		movzwl	(%eax,%edx), %eax
 5937 4cc4 89442408 		movl	%eax, 8(%esp)
 5938 4cc8 C7442404 		movl	$LC180, 4(%esp)
 5938      E0350000 
 5939 4cd0 8D8578FD 		leal	-648(%ebp), %eax
 5939      FFFF
 5940 4cd6 890424   		movl	%eax, (%esp)
 5941 4cd9 E8000000 		call	_sprintf
 5941      00
 5942 4cde E99F0000 		jmp	L140
 5942      00
 5943              	L139:
2123:mtk_resgenerator.cpp ****                     else
2124:mtk_resgenerator.cpp ****                         sprintf(MenuItemString, "{%d,%d,%d,%d,%d,%d,(U16 *)0},", pCustMenu[i].nPare
 5945              	LM299:
 5946 4ce3 8B8574FD 		movl	-652(%ebp), %eax
 5946      FFFF
 5947 4ce9 89C2     		movl	%eax, %edx
 5948 4ceb C1E204   		sall	$4, %edx
 5949 4cee 8B45EC   		movl	-20(%ebp), %eax
 5950 4cf1 0FB74410 		movzwl	8(%eax,%edx), %eax
 5950      08
 5951 4cf6 8944241C 		movl	%eax, 28(%esp)
 5952 4cfa 8B8574FD 		movl	-652(%ebp), %eax
 5952      FFFF
 5953 4d00 89C2     		movl	%eax, %edx
 5954 4d02 C1E204   		sall	$4, %edx
 5955 4d05 8B45EC   		movl	-20(%ebp), %eax
 5956 4d08 0FB74410 		movzwl	6(%eax,%edx), %eax
 5956      06
 5957 4d0d 89442418 		movl	%eax, 24(%esp)
 5958 4d11 8B8574FD 		movl	-652(%ebp), %eax
 5958      FFFF
 5959 4d17 89C2     		movl	%eax, %edx
 5960 4d19 C1E204   		sall	$4, %edx
 5961 4d1c 8B45EC   		movl	-20(%ebp), %eax
 5962 4d1f 0FB64410 		movzbl	5(%eax,%edx), %eax
 5962      05
 5963 4d24 89442414 		movl	%eax, 20(%esp)
 5964 4d28 8B8574FD 		movl	-652(%ebp), %eax
 5964      FFFF
 5965 4d2e 89C2     		movl	%eax, %edx
 5966 4d30 C1E204   		sall	$4, %edx
GAS LISTING d:/software/ovi_2503a_s3trc/ovi_2503a_s3trc/plutommi/Customer/ResGenerator/gcctmp/ccgnaaaa.s 			page 115


 5967 4d33 8B45EC   		movl	-20(%ebp), %eax
 5968 4d36 0FB64410 		movzbl	4(%eax,%edx), %eax
 5968      04
 5969 4d3b 89442410 		movl	%eax, 16(%esp)
 5970 4d3f 8B8574FD 		movl	-652(%ebp), %eax
 5970      FFFF
 5971 4d45 89C2     		movl	%eax, %edx
 5972 4d47 C1E204   		sall	$4, %edx
 5973 4d4a 8B45EC   		movl	-20(%ebp), %eax
 5974 4d4d 0FB74410 		movzwl	2(%eax,%edx), %eax
 5974      02
 5975 4d52 8944240C 		movl	%eax, 12(%esp)
 5976 4d56 8B8574FD 		movl	-652(%ebp), %eax
 5976      FFFF
 5977 4d5c 89C2     		movl	%eax, %edx
 5978 4d5e C1E204   		sall	$4, %edx
 5979 4d61 8B45EC   		movl	-20(%ebp), %eax
 5980 4d64 0FB70410 		movzwl	(%eax,%edx), %eax
 5981 4d68 89442408 		movl	%eax, 8(%esp)
 5982 4d6c C7442404 		movl	$LC181, 4(%esp)
 5982      0E360000 
 5983 4d74 8D8578FD 		leal	-648(%ebp), %eax
 5983      FFFF
 5984 4d7a 890424   		movl	%eax, (%esp)
 5985 4d7d E8000000 		call	_sprintf
 5985      00
 5986              	L140:
2125:mtk_resgenerator.cpp ****                     fprintf(pFile, "%s\n", MenuItemString);
 5988              	LM300:
 5989 4d82 8D8578FD 		leal	-648(%ebp), %eax
 5989      FFFF
 5990 4d88 89442408 		movl	%eax, 8(%esp)
 5991 4d8c C7442404 		movl	$LC177, 4(%esp)
 5991      69350000 
 5992 4d94 8B45F0   		movl	-16(%ebp), %eax
 5993 4d97 890424   		movl	%eax, (%esp)
 5994 4d9a E8000000 		call	_fprintf
 5994      00
 5996              	LM301:
 5997              	L136:
 5998 4d9f 8D8574FD 		leal	-652(%ebp), %eax
 5998      FFFF
 5999 4da5 FF00     		incl	(%eax)
 6000 4da7 E945FEFF 		jmp	L134
 6000      FF
 6001              	L135:
2126:mtk_resgenerator.cpp ****                 }
2127:mtk_resgenerator.cpp ****             }
2128:mtk_resgenerator.cpp ****             fprintf(pFile, "};\n");
 6003              	LM302:
 6004 4dac C7442404 		movl	$LC17, 4(%esp)
 6004      02040000 
 6005 4db4 8B45F0   		movl	-16(%ebp), %eax
 6006 4db7 890424   		movl	%eax, (%esp)
 6007 4dba E8000000 		call	_fprintf
 6007      00
2129:mtk_resgenerator.cpp **** 
GAS LISTING d:/software/ovi_2503a_s3trc/ovi_2503a_s3trc/plutommi/Customer/ResGenerator/gcctmp/ccgnaaaa.s 			page 116


2130:mtk_resgenerator.cpp ****             fprintf(pFile, "\n\n#ifdef __MULTIPLE_BINARY_FILES__\n");
 6009              	LM303:
 6010 4dbf C7442404 		movl	$LC182, 4(%esp)
 6010      40360000 
 6011 4dc7 8B45F0   		movl	-16(%ebp), %eax
 6012 4dca 890424   		movl	%eax, (%esp)
 6013 4dcd E8000000 		call	_fprintf
 6013      00
2131:mtk_resgenerator.cpp ****             fprintf(pFile, "    /* we give more 50% ram for multiple bin, if Menus more than this, 
 6015              	LM304:
 6016 4dd2 C7442404 		movl	$LC183, 4(%esp)
 6016      80360000 
 6017 4dda 8B45F0   		movl	-16(%ebp), %eax
 6018 4ddd 890424   		movl	%eax, (%esp)
 6019 4de0 E8000000 		call	_fprintf
 6019      00
2132:mtk_resgenerator.cpp ****             fprintf(pFile, "    #define AV_TOTAL_MENU_ITEM ((sizeof(mtk_nCustMenus)/sizeof(CUSTOM_M
 6021              	LM305:
 6022 4de5 C7442404 		movl	$LC184, 4(%esp)
 6022      E0360000 
 6023 4ded 8B45F0   		movl	-16(%ebp), %eax
 6024 4df0 890424   		movl	%eax, (%esp)
 6025 4df3 E8000000 		call	_fprintf
 6025      00
2133:mtk_resgenerator.cpp ****             fprintf(pFile, "#else\n");
 6027              	LM306:
 6028 4df8 C7442404 		movl	$LC185, 4(%esp)
 6028      33370000 
 6029 4e00 8B45F0   		movl	-16(%ebp), %eax
 6030 4e03 890424   		movl	%eax, (%esp)
 6031 4e06 E8000000 		call	_fprintf
 6031      00
2134:mtk_resgenerator.cpp ****             fprintf(pFile, "    #define AV_TOTAL_MENU_ITEM (sizeof(mtk_nCustMenus)/sizeof(CUSTOM_ME
 6033              	LM307:
 6034 4e0b C7442404 		movl	$LC186, 4(%esp)
 6034      40370000 
 6035 4e13 8B45F0   		movl	-16(%ebp), %eax
 6036 4e16 890424   		movl	%eax, (%esp)
 6037 4e19 E8000000 		call	_fprintf
 6037      00
2135:mtk_resgenerator.cpp ****             fprintf(pFile, "#endif\n\n");
 6039              	LM308:
 6040 4e1e C7442404 		movl	$LC187, 4(%esp)
 6040      8D370000 
 6041 4e26 8B45F0   		movl	-16(%ebp), %eax
 6042 4e29 890424   		movl	%eax, (%esp)
 6043 4e2c E8000000 		call	_fprintf
 6043      00
2136:mtk_resgenerator.cpp ****             fprintf(pFile, "const S32 mtk_gAv_total_menuitem = ((U32)AV_TOTAL_MENU_ITEM);\n");
 6045              	LM309:
 6046 4e31 C7442404 		movl	$LC188, 4(%esp)
 6046      A0370000 
 6047 4e39 8B45F0   		movl	-16(%ebp), %eax
 6048 4e3c 890424   		movl	%eax, (%esp)
 6049 4e3f E8000000 		call	_fprintf
 6049      00
2137:mtk_resgenerator.cpp ****             fprintf(pFile, "/* Hide menu item mask */\nU8 MenuItemMask[(((U32)AV_TOTAL_MENU_ITEM) /
GAS LISTING d:/software/ovi_2503a_s3trc/ovi_2503a_s3trc/plutommi/Customer/ResGenerator/gcctmp/ccgnaaaa.s 			page 117


 6051              	LM310:
 6052 4e44 C7442404 		movl	$LC189, 4(%esp)
 6052      E0370000 
 6053 4e4c 8B45F0   		movl	-16(%ebp), %eax
 6054 4e4f 890424   		movl	%eax, (%esp)
 6055 4e52 E8000000 		call	_fprintf
 6055      00
2138:mtk_resgenerator.cpp ****             fprintf(pFile, "/* Disable (dimmed) menu item mask */\nU8 g_menuitem_disable_mask[(((U3
 6057              	LM311:
 6058 4e57 C7442404 		movl	$LC190, 4(%esp)
 6058      40380000 
 6059 4e5f 8B45F0   		movl	-16(%ebp), %eax
 6060 4e62 890424   		movl	%eax, (%esp)
 6061 4e65 E8000000 		call	_fprintf
 6061      00
2139:mtk_resgenerator.cpp **** 
2140:mtk_resgenerator.cpp ****             fprintf(pFile, "\n const CUSTOM_MENU_SEARCH_MAP		CustMenuSearchMap[]={\n");
 6063              	LM312:
 6064 4e6a C7442404 		movl	$LC191, 4(%esp)
 6064      C0380000 
 6065 4e72 8B45F0   		movl	-16(%ebp), %eax
 6066 4e75 890424   		movl	%eax, (%esp)
 6067 4e78 E8000000 		call	_fprintf
 6067      00
2141:mtk_resgenerator.cpp ****             for(i = 0; i < nSize; i++)
 6069              	LM313:
 6070 4e7d C78574FD 		movl	$0, -652(%ebp)
 6070      FFFF0000 
 6070      0000
 6071              	L141:
 6072 4e87 0FB745F6 		movzwl	-10(%ebp), %eax
 6073 4e8b 398574FD 		cmpl	%eax, -652(%ebp)
 6073      FFFF
 6074 4e91 7C05     		jl	L144
 6075 4e93 E9C20000 		jmp	L142
 6075      00
 6076              	L144:
2142:mtk_resgenerator.cpp ****             {
2143:mtk_resgenerator.cpp ****                 if(pCustMenu[i].nParentId < MAX_MENU_ITEMS)
 6078              	LM314:
 6079 4e98 8B8574FD 		movl	-652(%ebp), %eax
 6079      FFFF
 6080 4e9e 89C2     		movl	%eax, %edx
 6081 4ea0 C1E204   		sall	$4, %edx
 6082 4ea3 8B45EC   		movl	-20(%ebp), %eax
 6083 4ea6 66833C10 		cmpw	$-1, (%eax,%edx)
 6083      FF
 6084 4eab 7438     		je	L145
2144:mtk_resgenerator.cpp ****                 {
2145:mtk_resgenerator.cpp ****                     if (!start)
 6086              	LM315:
 6087 4ead 83BD6CFD 		cmpl	$0, -660(%ebp)
 6087      FFFF00
 6088 4eb4 7525     		jne	L146
2146:mtk_resgenerator.cpp ****                     {
2147:mtk_resgenerator.cpp ****                         min_id = max_id = i + 1;
 6090              	LM316:
GAS LISTING d:/software/ovi_2503a_s3trc/ovi_2503a_s3trc/plutommi/Customer/ResGenerator/gcctmp/ccgnaaaa.s 			page 118


 6091 4eb6 8B8574FD 		movl	-652(%ebp), %eax
 6091      FFFF
 6092 4ebc 40       		incl	%eax
 6093 4ebd 89855CFD 		movl	%eax, -676(%ebp)
 6093      FFFF
 6094 4ec3 8B855CFD 		movl	-676(%ebp), %eax
 6094      FFFF
 6095 4ec9 898560FD 		movl	%eax, -672(%ebp)
 6095      FFFF
2148:mtk_resgenerator.cpp ****                         start = 1;
 6097              	LM317:
 6098 4ecf C7856CFD 		movl	$1, -660(%ebp)
 6098      FFFF0100 
 6098      0000
 6099 4ed9 EB72     		jmp	L143
 6100              	L146:
2149:mtk_resgenerator.cpp ****                     }
2150:mtk_resgenerator.cpp ****                     else
2151:mtk_resgenerator.cpp ****                     {
2152:mtk_resgenerator.cpp ****                         max_id++;
 6102              	LM318:
 6103 4edb 8D855CFD 		leal	-676(%ebp), %eax
 6103      FFFF
 6104 4ee1 FF00     		incl	(%eax)
 6105 4ee3 EB68     		jmp	L143
 6106              	L145:
2153:mtk_resgenerator.cpp ****                     }
2154:mtk_resgenerator.cpp ****                 }
2155:mtk_resgenerator.cpp ****                 else
2156:mtk_resgenerator.cpp ****                 {
2157:mtk_resgenerator.cpp ****                     if (start)
 6108              	LM319:
 6109 4ee5 83BD6CFD 		cmpl	$0, -660(%ebp)
 6109      FFFF00
 6110 4eec 745F     		je	L143
2158:mtk_resgenerator.cpp ****                     {
2159:mtk_resgenerator.cpp ****                         fprintf(pFile, "\t{%d, %d, %d},\n", min_id, max_id, index + 1); /* index + 
 6112              	LM320:
 6113 4eee 8B8568FD 		movl	-664(%ebp), %eax
 6113      FFFF
 6114 4ef4 40       		incl	%eax
 6115 4ef5 89442410 		movl	%eax, 16(%esp)
 6116 4ef9 8B855CFD 		movl	-676(%ebp), %eax
 6116      FFFF
 6117 4eff 8944240C 		movl	%eax, 12(%esp)
 6118 4f03 8B8560FD 		movl	-672(%ebp), %eax
 6118      FFFF
 6119 4f09 89442408 		movl	%eax, 8(%esp)
 6120 4f0d C7442404 		movl	$LC192, 4(%esp)
 6120      F7380000 
 6121 4f15 8B45F0   		movl	-16(%ebp), %eax
 6122 4f18 890424   		movl	%eax, (%esp)
 6123 4f1b E8000000 		call	_fprintf
 6123      00
2160:mtk_resgenerator.cpp ****                         index += max_id - min_id + 1;
 6125              	LM321:
 6126 4f20 8B9560FD 		movl	-672(%ebp), %edx
GAS LISTING d:/software/ovi_2503a_s3trc/ovi_2503a_s3trc/plutommi/Customer/ResGenerator/gcctmp/ccgnaaaa.s 			page 119


 6126      FFFF
 6127 4f26 8B855CFD 		movl	-676(%ebp), %eax
 6127      FFFF
 6128 4f2c 29D0     		subl	%edx, %eax
 6129 4f2e 038568FD 		addl	-664(%ebp), %eax
 6129      FFFF
 6130 4f34 40       		incl	%eax
 6131 4f35 898568FD 		movl	%eax, -664(%ebp)
 6131      FFFF
2161:mtk_resgenerator.cpp ****                         num_map_search++;
 6133              	LM322:
 6134 4f3b 8D8564FD 		leal	-668(%ebp), %eax
 6134      FFFF
 6135 4f41 FF00     		incl	(%eax)
2162:mtk_resgenerator.cpp ****                         start = 0;
 6137              	LM323:
 6138 4f43 C7856CFD 		movl	$0, -660(%ebp)
 6138      FFFF0000 
 6138      0000
 6140              	LM324:
 6141              	L143:
 6142 4f4d 8D8574FD 		leal	-652(%ebp), %eax
 6142      FFFF
 6143 4f53 FF00     		incl	(%eax)
 6144 4f55 E92DFFFF 		jmp	L141
 6144      FF
 6145              	L142:
2163:mtk_resgenerator.cpp ****                     }
2164:mtk_resgenerator.cpp ****                 }
2165:mtk_resgenerator.cpp ****             }
2166:mtk_resgenerator.cpp **** 
2167:mtk_resgenerator.cpp ****             fprintf(pFile, "};\n");
 6147              	LM325:
 6148 4f5a C7442404 		movl	$LC17, 4(%esp)
 6148      02040000 
 6149 4f62 8B45F0   		movl	-16(%ebp), %eax
 6150 4f65 890424   		movl	%eax, (%esp)
 6151 4f68 E8000000 		call	_fprintf
 6151      00
2168:mtk_resgenerator.cpp ****             fprintf(pFile, "const CUSTOM_MENU_RES_ENTRY mtk_gMenuResEntry = {(CUSTOM_MENU*)mtk_nCus
 6153              	LM326:
 6154 4f6d 8B8564FD 		movl	-668(%ebp), %eax
 6154      FFFF
 6155 4f73 89442408 		movl	%eax, 8(%esp)
 6156 4f77 C7442404 		movl	$LC193, 4(%esp)
 6156      20390000 
 6157 4f7f 8B45F0   		movl	-16(%ebp), %eax
 6158 4f82 890424   		movl	%eax, (%esp)
 6159 4f85 E8000000 		call	_fprintf
 6159      00
 6160 4f8a EB13     		jmp	L150
 6161              	L124:
2169:mtk_resgenerator.cpp ****         }
2170:mtk_resgenerator.cpp ****         else
2171:mtk_resgenerator.cpp ****         {
2172:mtk_resgenerator.cpp ****             fprintf(pFile, "const CUSTOM_MENU		nCustMenus[1];");
 6163              	LM327:
GAS LISTING d:/software/ovi_2503a_s3trc/ovi_2503a_s3trc/plutommi/Customer/ResGenerator/gcctmp/ccgnaaaa.s 			page 120


 6164 4f8c C7442404 		movl	$LC194, 4(%esp)
 6164      C0390000 
 6165 4f94 8B45F0   		movl	-16(%ebp), %eax
 6166 4f97 890424   		movl	%eax, (%esp)
 6167 4f9a E8000000 		call	_fprintf
 6167      00
 6168              	L150:
2173:mtk_resgenerator.cpp ****         }
2174:mtk_resgenerator.cpp ****         fclose(pFile);
 6170              	LM328:
 6171 4f9f 8B45F0   		movl	-16(%ebp), %eax
 6172 4fa2 890424   		movl	%eax, (%esp)
 6173 4fa5 E8000000 		call	_fclose
 6173      00
 6174 4faa EB0F     		jmp	L151
 6175              	L123:
2175:mtk_resgenerator.cpp ****     }
2176:mtk_resgenerator.cpp ****     else
2177:mtk_resgenerator.cpp ****     {
2178:mtk_resgenerator.cpp ****         return 0;
 6177              	LM329:
 6178 4fac C78558FD 		movl	$0, -680(%ebp)
 6178      FFFF0000 
 6178      0000
 6179 4fb6 E9590300 		jmp	L122
 6179      00
 6180              	L151:
2179:mtk_resgenerator.cpp ****     }
2180:mtk_resgenerator.cpp **** 
2181:mtk_resgenerator.cpp ****     /* Menuitem reduce memory, move registe hilite handlers to resgen */
2182:mtk_resgenerator.cpp ****     if(pFile = fopen(MENU_HANDLER_FILENAME, "w"))
 6182              	LM330:
 6183 4fbb C7442404 		movl	$LC2, 4(%esp)
 6183      4F000000 
 6184 4fc3 C7042400 		movl	$LC195, (%esp)
 6184      3A0000
 6185 4fca E8000000 		call	_fopen
 6185      00
 6186 4fcf 8945F0   		movl	%eax, -16(%ebp)
 6187 4fd2 837DF000 		cmpl	$0, -16(%ebp)
 6188 4fd6 0F842203 		je	L152
 6188      0000
2183:mtk_resgenerator.cpp ****     {
2184:mtk_resgenerator.cpp ****         /* Output to head file MENU_HANDLER_FILENAME */
2185:mtk_resgenerator.cpp ****         /* File Header */
2186:mtk_resgenerator.cpp ****         fprintf(pFile, "/**************************************************************************
 6190              	LM331:
 6191 4fdc C7442404 		movl	$LC196, 4(%esp)
 6191      403A0000 
 6192 4fe4 8B45F0   		movl	-16(%ebp), %eax
 6193 4fe7 890424   		movl	%eax, (%esp)
 6194 4fea E8000000 		call	_fprintf
 6194      00
2187:mtk_resgenerator.cpp ****         fprintf(pFile, "/**************************************************************************
 6196              	LM332:
 6197 4fef C7442404 		movl	$LC197, 4(%esp)
 6197      80420000 
GAS LISTING d:/software/ovi_2503a_s3trc/ovi_2503a_s3trc/plutommi/Customer/ResGenerator/gcctmp/ccgnaaaa.s 			page 121


 6198 4ff7 8B45F0   		movl	-16(%ebp), %eax
 6199 4ffa 890424   		movl	%eax, (%esp)
 6200 4ffd E8000000 		call	_fprintf
 6200      00
2188:mtk_resgenerator.cpp ****         /* Define Extern and Include */
2189:mtk_resgenerator.cpp ****         fprintf(pFile, "\n#ifndef _MENUHANDLER_H\n#define _MENUHANDLER_H\n");
 6202              	LM333:
 6203 5002 C7442404 		movl	$LC198, 4(%esp)
 6203      20460000 
 6204 500a 8B45F0   		movl	-16(%ebp), %eax
 6205 500d 890424   		movl	%eax, (%esp)
 6206 5010 E8000000 		call	_fprintf
 6206      00
2190:mtk_resgenerator.cpp ****         fprintf(pFile, "\n/* need typedef void (*FuncPtr) (void); before include this file */\n\n")
 6208              	LM334:
 6209 5015 C7442404 		movl	$LC199, 4(%esp)
 6209      60460000 
 6210 501d 8B45F0   		movl	-16(%ebp), %eax
 6211 5020 890424   		movl	%eax, (%esp)
 6212 5023 E8000000 		call	_fprintf
 6212      00
2191:mtk_resgenerator.cpp ****         fprintf(pFile, "/* #define MENU_HILITE_HANDLER_COUNT   %d; */\n/* #define MENU_HINT_HANDLER
 6214              	LM335:
 6215 5028 A1000000 		movl	_HintHdlrCount, %eax
 6215      00
 6216 502d 8944240C 		movl	%eax, 12(%esp)
 6217 5031 A1000000 		movl	_HiliteHdlrCount, %eax
 6217      00
 6218 5036 89442408 		movl	%eax, 8(%esp)
 6219 503a C7442404 		movl	$LC200, 4(%esp)
 6219      C0460000 
 6220 5042 8B45F0   		movl	-16(%ebp), %eax
 6221 5045 890424   		movl	%eax, (%esp)
 6222 5048 E8000000 		call	_fprintf
 6222      00
2192:mtk_resgenerator.cpp **** 
2193:mtk_resgenerator.cpp ****         fprintf(pFile, "#include \"mmi_rp_all_defs.h\"\n");
 6224              	LM336:
 6225 504d C7442404 		movl	$LC201, 4(%esp)
 6225      1E470000 
 6226 5055 8B45F0   		movl	-16(%ebp), %eax
 6227 5058 890424   		movl	%eax, (%esp)
 6228 505b E8000000 		call	_fprintf
 6228      00
2194:mtk_resgenerator.cpp ****         /* Extern of handler functions */
2195:mtk_resgenerator.cpp ****         fprintf(pFile, "/* Extern functions of Hilite Handler */\n");
 6230              	LM337:
 6231 5060 C7442404 		movl	$LC202, 4(%esp)
 6231      40470000 
 6232 5068 8B45F0   		movl	-16(%ebp), %eax
 6233 506b 890424   		movl	%eax, (%esp)
 6234 506e E8000000 		call	_fprintf
 6234      00
2196:mtk_resgenerator.cpp ****         for (i=0; i<MAX_MENU_ITEMS; i++)
 6236              	LM338:
 6237 5073 C78574FD 		movl	$0, -652(%ebp)
 6237      FFFF0000 
GAS LISTING d:/software/ovi_2503a_s3trc/ovi_2503a_s3trc/plutommi/Customer/ResGenerator/gcctmp/ccgnaaaa.s 			page 122


 6237      0000
 6238              	L153:
 6239 507d 81BD74FD 		cmpl	$65534, -652(%ebp)
 6239      FFFFFEFF 
 6239      0000
 6240 5087 7E02     		jle	L156
 6241 5089 EB4E     		jmp	L154
 6242              	L156:
2197:mtk_resgenerator.cpp ****         {
2198:mtk_resgenerator.cpp ****             if (nMenuHiliteHandlers[i].nMenuItemId != 0)
 6244              	LM339:
 6245 508b 8B9574FD 		movl	-652(%ebp), %edx
 6245      FFFF
 6246 5091 89D0     		movl	%edx, %eax
 6247 5093 C1E007   		sall	$7, %eax
 6248 5096 01D0     		addl	%edx, %eax
 6249 5098 01C0     		addl	%eax, %eax
 6250 509a 6683B800 		cmpw	$0, _nMenuHiliteHandlers(%eax)
 6250      00000000 
 6251 50a2 742B     		je	L155
2199:mtk_resgenerator.cpp ****             {
2200:mtk_resgenerator.cpp ****                 fprintf(pFile, "extern void %s(void);\n", nMenuHiliteHandlers[i].HiliteFuncName);
 6253              	LM340:
 6254 50a4 8B9574FD 		movl	-652(%ebp), %edx
 6254      FFFF
 6255 50aa 89D0     		movl	%edx, %eax
 6256 50ac C1E007   		sall	$7, %eax
 6257 50af 01D0     		addl	%edx, %eax
 6258 50b1 01C0     		addl	%eax, %eax
 6259 50b3 05820000 		addl	$_nMenuHiliteHandlers+130, %eax
 6259      00
 6260 50b8 89442408 		movl	%eax, 8(%esp)
 6261 50bc C7442404 		movl	$LC203, 4(%esp)
 6261      6A470000 
 6262 50c4 8B45F0   		movl	-16(%ebp), %eax
 6263 50c7 890424   		movl	%eax, (%esp)
 6264 50ca E8000000 		call	_fprintf
 6264      00
 6266              	LM341:
 6267              	L155:
 6268 50cf 8D8574FD 		leal	-652(%ebp), %eax
 6268      FFFF
 6269 50d5 FF00     		incl	(%eax)
 6270 50d7 EBA4     		jmp	L153
 6271              	L154:
2201:mtk_resgenerator.cpp ****             }
2202:mtk_resgenerator.cpp ****         }
2203:mtk_resgenerator.cpp ****         fprintf(pFile, "\n\n/* Extern functions of Hint Handler */\n");
 6273              	LM342:
 6274 50d9 C7442404 		movl	$LC204, 4(%esp)
 6274      A0470000 
 6275 50e1 8B45F0   		movl	-16(%ebp), %eax
 6276 50e4 890424   		movl	%eax, (%esp)
 6277 50e7 E8000000 		call	_fprintf
 6277      00
2204:mtk_resgenerator.cpp ****         for (i=0; i<MAX_MENU_ITEMS; i++)
 6279              	LM343:
GAS LISTING d:/software/ovi_2503a_s3trc/ovi_2503a_s3trc/plutommi/Customer/ResGenerator/gcctmp/ccgnaaaa.s 			page 123


 6280 50ec C78574FD 		movl	$0, -652(%ebp)
 6280      FFFF0000 
 6280      0000
 6281              	L158:
 6282 50f6 81BD74FD 		cmpl	$65534, -652(%ebp)
 6282      FFFFFEFF 
 6282      0000
 6283 5100 7E02     		jle	L161
 6284 5102 EB4E     		jmp	L159
 6285              	L161:
2205:mtk_resgenerator.cpp ****         {
2206:mtk_resgenerator.cpp ****             if (nMenuHintHandlers[i].nMenuItemId != 0)
 6287              	LM344:
 6288 5104 8B9574FD 		movl	-652(%ebp), %edx
 6288      FFFF
 6289 510a 89D0     		movl	%edx, %eax
 6290 510c C1E007   		sall	$7, %eax
 6291 510f 01D0     		addl	%edx, %eax
 6292 5111 01C0     		addl	%eax, %eax
 6293 5113 6683B800 		cmpw	$0, _nMenuHintHandlers(%eax)
 6293      00000000 
 6294 511b 742B     		je	L160
2207:mtk_resgenerator.cpp ****             {
2208:mtk_resgenerator.cpp ****                 fprintf(pFile, "extern void %s(U16);\n", nMenuHintHandlers[i].HintFuncName);
 6296              	LM345:
 6297 511d 8B9574FD 		movl	-652(%ebp), %edx
 6297      FFFF
 6298 5123 89D0     		movl	%edx, %eax
 6299 5125 C1E007   		sall	$7, %eax
 6300 5128 01D0     		addl	%edx, %eax
 6301 512a 01C0     		addl	%eax, %eax
 6302 512c 05820000 		addl	$_nMenuHintHandlers+130, %eax
 6302      00
 6303 5131 89442408 		movl	%eax, 8(%esp)
 6304 5135 C7442404 		movl	$LC205, 4(%esp)
 6304      CA470000 
 6305 513d 8B45F0   		movl	-16(%ebp), %eax
 6306 5140 890424   		movl	%eax, (%esp)
 6307 5143 E8000000 		call	_fprintf
 6307      00
 6309              	LM346:
 6310              	L160:
 6311 5148 8D8574FD 		leal	-652(%ebp), %eax
 6311      FFFF
 6312 514e FF00     		incl	(%eax)
 6313 5150 EBA4     		jmp	L158
 6314              	L159:
2209:mtk_resgenerator.cpp ****             }
2210:mtk_resgenerator.cpp ****         }
2211:mtk_resgenerator.cpp ****         /* MenuHiliteHandlers Array */
2212:mtk_resgenerator.cpp ****         if (HiliteHdlrCount != 0)
 6316              	LM347:
 6317 5152 833D0000 		cmpl	$0, _HiliteHdlrCount
 6317      000000
 6318 5159 0F84A600 		je	L163
 6318      0000
2213:mtk_resgenerator.cpp ****         {
GAS LISTING d:/software/ovi_2503a_s3trc/ovi_2503a_s3trc/plutommi/Customer/ResGenerator/gcctmp/ccgnaaaa.s 			page 124


2214:mtk_resgenerator.cpp ****             fprintf(pFile, "\nconst mmi_frm_hilite_hdlr_struct mmi_frm_const_hilite_hdlr_table[] = 
 6320              	LM348:
 6321 515f C7442404 		movl	$LC206, 4(%esp)
 6321      E0470000 
 6322 5167 8B45F0   		movl	-16(%ebp), %eax
 6323 516a 890424   		movl	%eax, (%esp)
 6324 516d E8000000 		call	_fprintf
 6324      00
2215:mtk_resgenerator.cpp ****             for (i=0; i<MAX_MENU_ITEMS; i++)
 6326              	LM349:
 6327 5172 C78574FD 		movl	$0, -652(%ebp)
 6327      FFFF0000 
 6327      0000
 6328              	L164:
 6329 517c 81BD74FD 		cmpl	$65534, -652(%ebp)
 6329      FFFFFEFF 
 6329      0000
 6330 5186 7E02     		jle	L167
 6331 5188 EB66     		jmp	L165
 6332              	L167:
2216:mtk_resgenerator.cpp ****             {
2217:mtk_resgenerator.cpp ****                 if (nMenuHiliteHandlers[i].nMenuItemId != 0)
 6334              	LM350:
 6335 518a 8B9574FD 		movl	-652(%ebp), %edx
 6335      FFFF
 6336 5190 89D0     		movl	%edx, %eax
 6337 5192 C1E007   		sall	$7, %eax
 6338 5195 01D0     		addl	%edx, %eax
 6339 5197 01C0     		addl	%eax, %eax
 6340 5199 6683B800 		cmpw	$0, _nMenuHiliteHandlers(%eax)
 6340      00000000 
 6341 51a1 7443     		je	L166
2218:mtk_resgenerator.cpp ****                 {
2219:mtk_resgenerator.cpp ****                     fprintf(pFile, "    {%s, %s},\n", nMenuHiliteHandlers[i].MenuItemIdEnum, nMenuH
 6343              	LM351:
 6344 51a3 8B9574FD 		movl	-652(%ebp), %edx
 6344      FFFF
 6345 51a9 89D0     		movl	%edx, %eax
 6346 51ab C1E007   		sall	$7, %eax
 6347 51ae 01D0     		addl	%edx, %eax
 6348 51b0 01C0     		addl	%eax, %eax
 6349 51b2 05820000 		addl	$_nMenuHiliteHandlers+130, %eax
 6349      00
 6350 51b7 8944240C 		movl	%eax, 12(%esp)
 6351 51bb 8B9574FD 		movl	-652(%ebp), %edx
 6351      FFFF
 6352 51c1 89D0     		movl	%edx, %eax
 6353 51c3 C1E007   		sall	$7, %eax
 6354 51c6 01D0     		addl	%edx, %eax
 6355 51c8 01C0     		addl	%eax, %eax
 6356 51ca 05020000 		addl	$_nMenuHiliteHandlers+2, %eax
 6356      00
 6357 51cf 89442408 		movl	%eax, 8(%esp)
 6358 51d3 C7442404 		movl	$LC207, 4(%esp)
 6358      29480000 
 6359 51db 8B45F0   		movl	-16(%ebp), %eax
 6360 51de 890424   		movl	%eax, (%esp)
GAS LISTING d:/software/ovi_2503a_s3trc/ovi_2503a_s3trc/plutommi/Customer/ResGenerator/gcctmp/ccgnaaaa.s 			page 125


 6361 51e1 E8000000 		call	_fprintf
 6361      00
 6363              	LM352:
 6364              	L166:
 6365 51e6 8D8574FD 		leal	-652(%ebp), %eax
 6365      FFFF
 6366 51ec FF00     		incl	(%eax)
 6367 51ee EB8C     		jmp	L164
 6368              	L165:
2220:mtk_resgenerator.cpp ****                 }
2221:mtk_resgenerator.cpp ****             }
2222:mtk_resgenerator.cpp ****             fprintf(pFile, "};\n");
 6370              	LM353:
 6371 51f0 C7442404 		movl	$LC17, 4(%esp)
 6371      02040000 
 6372 51f8 8B45F0   		movl	-16(%ebp), %eax
 6373 51fb 890424   		movl	%eax, (%esp)
 6374 51fe E8000000 		call	_fprintf
 6374      00
 6375 5203 EB13     		jmp	L169
 6376              	L163:
2223:mtk_resgenerator.cpp ****         }
2224:mtk_resgenerator.cpp ****         else
2225:mtk_resgenerator.cpp ****         {
2226:mtk_resgenerator.cpp ****             fprintf(pFile, "\nconst mmi_frm_hilite_hdlr_struct mmi_frm_const_hilite_hdlr_table[1] =
 6378              	LM354:
 6379 5205 C7442404 		movl	$LC208, 4(%esp)
 6379      40480000 
 6380 520d 8B45F0   		movl	-16(%ebp), %eax
 6381 5210 890424   		movl	%eax, (%esp)
 6382 5213 E8000000 		call	_fprintf
 6382      00
 6383              	L169:
2227:mtk_resgenerator.cpp ****         }
2228:mtk_resgenerator.cpp **** 
2229:mtk_resgenerator.cpp ****         /* MenuHintHandlers Array */
2230:mtk_resgenerator.cpp ****         if (HintHdlrCount != 0)
 6385              	LM355:
 6386 5218 833D0000 		cmpl	$0, _HintHdlrCount
 6386      000000
 6387 521f 0F84A600 		je	L170
 6387      0000
2231:mtk_resgenerator.cpp ****         {
2232:mtk_resgenerator.cpp ****             fprintf(pFile, "\nconst mmi_frm_hint_hdlr_struct mmi_frm_const_hint_hdlr_table[] = {\n"
 6389              	LM356:
 6390 5225 C7442404 		movl	$LC209, 4(%esp)
 6390      A0480000 
 6391 522d 8B45F0   		movl	-16(%ebp), %eax
 6392 5230 890424   		movl	%eax, (%esp)
 6393 5233 E8000000 		call	_fprintf
 6393      00
2233:mtk_resgenerator.cpp ****             for (i=0; i<MAX_MENU_ITEMS; i++)
 6395              	LM357:
 6396 5238 C78574FD 		movl	$0, -652(%ebp)
 6396      FFFF0000 
 6396      0000
 6397              	L171:
GAS LISTING d:/software/ovi_2503a_s3trc/ovi_2503a_s3trc/plutommi/Customer/ResGenerator/gcctmp/ccgnaaaa.s 			page 126


 6398 5242 81BD74FD 		cmpl	$65534, -652(%ebp)
 6398      FFFFFEFF 
 6398      0000
 6399 524c 7E02     		jle	L174
 6400 524e EB66     		jmp	L172
 6401              	L174:
2234:mtk_resgenerator.cpp ****             {
2235:mtk_resgenerator.cpp ****                 if (nMenuHintHandlers[i].nMenuItemId != 0)
 6403              	LM358:
 6404 5250 8B9574FD 		movl	-652(%ebp), %edx
 6404      FFFF
 6405 5256 89D0     		movl	%edx, %eax
 6406 5258 C1E007   		sall	$7, %eax
 6407 525b 01D0     		addl	%edx, %eax
 6408 525d 01C0     		addl	%eax, %eax
 6409 525f 6683B800 		cmpw	$0, _nMenuHintHandlers(%eax)
 6409      00000000 
 6410 5267 7443     		je	L173
2236:mtk_resgenerator.cpp ****                 {
2237:mtk_resgenerator.cpp ****                     fprintf(pFile, "    {%s, %s},\n", nMenuHintHandlers[i].MenuItemIdEnum, nMenuHin
 6412              	LM359:
 6413 5269 8B9574FD 		movl	-652(%ebp), %edx
 6413      FFFF
 6414 526f 89D0     		movl	%edx, %eax
 6415 5271 C1E007   		sall	$7, %eax
 6416 5274 01D0     		addl	%edx, %eax
 6417 5276 01C0     		addl	%eax, %eax
 6418 5278 05820000 		addl	$_nMenuHintHandlers+130, %eax
 6418      00
 6419 527d 8944240C 		movl	%eax, 12(%esp)
 6420 5281 8B9574FD 		movl	-652(%ebp), %edx
 6420      FFFF
 6421 5287 89D0     		movl	%edx, %eax
 6422 5289 C1E007   		sall	$7, %eax
 6423 528c 01D0     		addl	%edx, %eax
 6424 528e 01C0     		addl	%eax, %eax
 6425 5290 05020000 		addl	$_nMenuHintHandlers+2, %eax
 6425      00
 6426 5295 89442408 		movl	%eax, 8(%esp)
 6427 5299 C7442404 		movl	$LC207, 4(%esp)
 6427      29480000 
 6428 52a1 8B45F0   		movl	-16(%ebp), %eax
 6429 52a4 890424   		movl	%eax, (%esp)
 6430 52a7 E8000000 		call	_fprintf
 6430      00
 6432              	LM360:
 6433              	L173:
 6434 52ac 8D8574FD 		leal	-652(%ebp), %eax
 6434      FFFF
 6435 52b2 FF00     		incl	(%eax)
 6436 52b4 EB8C     		jmp	L171
 6437              	L172:
2238:mtk_resgenerator.cpp ****                 }
2239:mtk_resgenerator.cpp ****             }
2240:mtk_resgenerator.cpp ****             fprintf(pFile, "};\n");
 6439              	LM361:
 6440 52b6 C7442404 		movl	$LC17, 4(%esp)
GAS LISTING d:/software/ovi_2503a_s3trc/ovi_2503a_s3trc/plutommi/Customer/ResGenerator/gcctmp/ccgnaaaa.s 			page 127


 6440      02040000 
 6441 52be 8B45F0   		movl	-16(%ebp), %eax
 6442 52c1 890424   		movl	%eax, (%esp)
 6443 52c4 E8000000 		call	_fprintf
 6443      00
 6444 52c9 EB13     		jmp	L176
 6445              	L170:
2241:mtk_resgenerator.cpp ****         }
2242:mtk_resgenerator.cpp ****         else
2243:mtk_resgenerator.cpp ****         {
2244:mtk_resgenerator.cpp ****             fprintf(pFile, "\nconst mmi_frm_hint_hdlr_struct mmi_frm_const_hint_hdlr_table[1] = {{0
 6447              	LM362:
 6448 52cb C7442404 		movl	$LC210, 4(%esp)
 6448      00490000 
 6449 52d3 8B45F0   		movl	-16(%ebp), %eax
 6450 52d6 890424   		movl	%eax, (%esp)
 6451 52d9 E8000000 		call	_fprintf
 6451      00
 6452              	L176:
2245:mtk_resgenerator.cpp ****         }
2246:mtk_resgenerator.cpp ****         /* endif */
2247:mtk_resgenerator.cpp ****         fprintf(pFile, "\n#endif /* _MENUHANDLER_H */ \n");
 6454              	LM363:
 6455 52de C7442404 		movl	$LC211, 4(%esp)
 6455      60490000 
 6456 52e6 8B45F0   		movl	-16(%ebp), %eax
 6457 52e9 890424   		movl	%eax, (%esp)
 6458 52ec E8000000 		call	_fprintf
 6458      00
2248:mtk_resgenerator.cpp **** 
2249:mtk_resgenerator.cpp ****         fclose(pFile);
 6460              	LM364:
 6461 52f1 8B45F0   		movl	-16(%ebp), %eax
 6462 52f4 890424   		movl	%eax, (%esp)
 6463 52f7 E8000000 		call	_fclose
 6463      00
 6464 52fc EB0C     		jmp	L177
 6465              	L152:
2250:mtk_resgenerator.cpp ****     }
2251:mtk_resgenerator.cpp ****     else
2252:mtk_resgenerator.cpp ****     {
2253:mtk_resgenerator.cpp ****         return 0;
 6467              	LM365:
 6468 52fe C78558FD 		movl	$0, -680(%ebp)
 6468      FFFF0000 
 6468      0000
 6469 5308 EB0A     		jmp	L122
 6470              	L177:
2254:mtk_resgenerator.cpp ****     }
2255:mtk_resgenerator.cpp ****     return 1;
 6472              	LM366:
 6473 530a C78558FD 		movl	$1, -680(%ebp)
 6473      FFFF0100 
 6473      0000
2256:mtk_resgenerator.cpp **** }
 6475              	LM367:
 6476              	L122:
GAS LISTING d:/software/ovi_2503a_s3trc/ovi_2503a_s3trc/plutommi/Customer/ResGenerator/gcctmp/ccgnaaaa.s 			page 128


 6477              	LBE39:
 6478 5314 8B8558FD 		movl	-680(%ebp), %eax
 6478      FFFF
 6479 531a 81C4D402 		addl	$724, %esp
 6479      0000
 6480 5320 5B       		popl	%ebx
 6481 5321 5D       		popl	%ebp
 6482 5322 C3       		ret
 6497              	Lscope20:
 6499 5323 90909090 		.align 32
 6499      90909090 
 6499      90909090 
 6499      90909090 
 6499      90909090 
 6500              	LC212:
 6501 5340 2E2E5C2E 		.ascii "..\\..\\customer\\custresource\\CustImgDataRes_0.c\0"
 6501      2E5C6375 
 6501      73746F6D 
 6501      65725C63 
 6501      75737472 
 6502 536f 90909090 		.align 32
 6502      90909090 
 6502      90909090 
 6502      90909090 
 6502      90
 6503              	LC213:
 6504 5380 2E2E5C2E 		.ascii "..\\..\\customer\\custresource\\CustImgDataRes_1.c\0"
 6504      2E5C6375 
 6504      73746F6D 
 6504      65725C63 
 6504      75737472 
 6505 53af 90909090 		.align 32
 6505      90909090 
 6505      90909090 
 6505      90909090 
 6505      90
 6506              	LC214:
 6507 53c0 2E2E5C2E 		.ascii "..\\..\\customer\\custresource\\CustImgDataRes_2.c\0"
 6507      2E5C6375 
 6507      73746F6D 
 6507      65725C63 
 6507      75737472 
 6508 53ef 90909090 		.align 32
 6508      90909090 
 6508      90909090 
 6508      90909090 
 6508      90
 6509              	LC215:
 6510 5400 2E2E5C2E 		.ascii "..\\..\\customer\\custresource\\CustImgDataRes_3.c\0"
 6510      2E5C6375 
 6510      73746F6D 
 6510      65725C63 
 6510      75737472 
 6511              	.globl _output_file_name
 6512              		.data
 6513              		.align 4
 6514              	_output_file_name:
GAS LISTING d:/software/ovi_2503a_s3trc/ovi_2503a_s3trc/plutommi/Customer/ResGenerator/gcctmp/ccgnaaaa.s 			page 129


 6515 0000 40530000 		.long	LC212
 6516 0004 80530000 		.long	LC213
 6517 0008 C0530000 		.long	LC214
 6518 000c 00540000 		.long	LC215
 6520              	.lcomm _ZZ19process_line_bufferPcE5bjump,16
 6521              		.text
 6522 542f 90       		.align 2
 6525              	.globl __Z19process_line_bufferPc
 6527              	__Z19process_line_bufferPc:
2257:mtk_resgenerator.cpp **** 
2258:mtk_resgenerator.cpp **** #if 0
2259:mtk_resgenerator.cpp **** /* under construction !*/
2260:mtk_resgenerator.cpp **** /* under construction !*/
2261:mtk_resgenerator.cpp **** /* under construction !*/
2262:mtk_resgenerator.cpp **** /* under construction !*/
2263:mtk_resgenerator.cpp **** /* under construction !*/
2264:mtk_resgenerator.cpp **** /* under construction !*/
2265:mtk_resgenerator.cpp **** /* under construction !*/
2266:mtk_resgenerator.cpp **** /* under construction !*/
2267:mtk_resgenerator.cpp **** /* under construction !*/
2268:mtk_resgenerator.cpp **** /* under construction !*/
2269:mtk_resgenerator.cpp **** /* under construction !*/
2270:mtk_resgenerator.cpp **** /* under construction !*/
2271:mtk_resgenerator.cpp **** /* under construction !*/
2272:mtk_resgenerator.cpp **** /* under construction !*/
2273:mtk_resgenerator.cpp **** /* under construction !*/
2274:mtk_resgenerator.cpp **** /* under construction !*/
2275:mtk_resgenerator.cpp **** /* under construction !*/
2276:mtk_resgenerator.cpp **** /* under construction !*/
2277:mtk_resgenerator.cpp **** /* under construction !*/
2278:mtk_resgenerator.cpp **** /* under construction !*/
2279:mtk_resgenerator.cpp **** /* under construction !*/
2280:mtk_resgenerator.cpp **** /* under construction !*/
2281:mtk_resgenerator.cpp **** /* under construction !*/
2282:mtk_resgenerator.cpp **** /* under construction !*/
2283:mtk_resgenerator.cpp **** /* under construction !*/
2284:mtk_resgenerator.cpp **** /* under construction !*/
2285:mtk_resgenerator.cpp **** /* under construction !*/
2286:mtk_resgenerator.cpp **** /* under construction !*/
2287:mtk_resgenerator.cpp **** /* under construction !*/
2288:mtk_resgenerator.cpp **** /* under construction !*/
2289:mtk_resgenerator.cpp **** /* under construction !*/
2290:mtk_resgenerator.cpp **** /* under construction !*/
2291:mtk_resgenerator.cpp **** /* under construction !*/
2292:mtk_resgenerator.cpp **** /* under construction !*/
2293:mtk_resgenerator.cpp **** #endif
2294:mtk_resgenerator.cpp **** /* start split image data */
2295:mtk_resgenerator.cpp **** 
2296:mtk_resgenerator.cpp **** const char HEADER[] = "__align(4)";
2297:mtk_resgenerator.cpp **** const char REP_HEADER[] =  ("extern ");
2298:mtk_resgenerator.cpp **** #define START_FLAG    ('{')
2299:mtk_resgenerator.cpp **** #define END_FLAG      ('}')
2300:mtk_resgenerator.cpp **** #define AVERAGE_IMG_NUMBER    (2000)
2301:mtk_resgenerator.cpp **** 
2302:mtk_resgenerator.cpp **** #define CUST_RES_FILE_COUNT    (4)
2303:mtk_resgenerator.cpp **** const char *output_file_name[CUST_RES_FILE_COUNT] = {
2304:mtk_resgenerator.cpp ****     "..\\..\\customer\\custresource\\CustImgDataRes_0.c",
GAS LISTING d:/software/ovi_2503a_s3trc/ovi_2503a_s3trc/plutommi/Customer/ResGenerator/gcctmp/ccgnaaaa.s 			page 130


2305:mtk_resgenerator.cpp ****     "..\\..\\customer\\custresource\\CustImgDataRes_1.c",
2306:mtk_resgenerator.cpp ****     "..\\..\\customer\\custresource\\CustImgDataRes_2.c",
2307:mtk_resgenerator.cpp ****     "..\\..\\customer\\custresource\\CustImgDataRes_3.c",
2308:mtk_resgenerator.cpp **** };
2309:mtk_resgenerator.cpp **** 
2310:mtk_resgenerator.cpp **** #ifdef __RESOURCE_GEN_
2311:mtk_resgenerator.cpp **** #define CUST_IMG_DATA_PATH    "..\\..\\customer\\custresource"
2312:mtk_resgenerator.cpp **** #define CUST_IMG_DATA_FILE    "..\\..\\customer\\custresource\\custimgdatahw.h"
2313:mtk_resgenerator.cpp **** #define CUST_IMG_DATA_O_FILE    "..\\..\\customer\\custresource\\custimgdatahwBak.h"
2314:mtk_resgenerator.cpp **** #define CUST_IMG_HEADER_FILE  "..\\..\\customer\\custresource\\tmp_imgdata.h"
2315:mtk_resgenerator.cpp **** #else
2316:mtk_resgenerator.cpp **** #define CUST_IMG_DATA_PATH    ".\\"
2317:mtk_resgenerator.cpp **** #define CUST_IMG_DATA_FILE    ".\\custimgdatahw.h"
2318:mtk_resgenerator.cpp **** #endif
2319:mtk_resgenerator.cpp **** 
2320:mtk_resgenerator.cpp **** typedef char(* BUFFER_HEADER)[1024];
2321:mtk_resgenerator.cpp **** 
2322:mtk_resgenerator.cpp **** 
2323:mtk_resgenerator.cpp **** /*
2324:mtk_resgenerator.cpp **** * here we supporse the line content as following three lines:
2325:mtk_resgenerator.cpp **** * __align(4) const U8 __MAINLCD__ACTIVE__POWERONOFF__LOGO_BMP_[] =
2326:mtk_resgenerator.cpp **** * const U8 __MAINLCD__ACTIVE__POWERONOFF__LOGO_BMP_[] =
2327:mtk_resgenerator.cpp **** * other content without '=' and "__align(4)"
2328:mtk_resgenerator.cpp **** */
2329:mtk_resgenerator.cpp **** char *process_line_buffer(char *buffer)
2330:mtk_resgenerator.cpp **** {
 6529              	LM368:
 6530 5430 55       		pushl	%ebp
 6531 5431 89E5     		movl	%esp, %ebp
 6532 5433 83EC18   		subl	$24, %esp
2331:mtk_resgenerator.cpp ****     char *tmp_buff = NULL;
 6534              	LM369:
 6535              	LBB40:
 6536 5436 C745FC00 		movl	$0, -4(%ebp)
 6536      000000
2332:mtk_resgenerator.cpp ****     static bool bjump = false;
2333:mtk_resgenerator.cpp ****     int len = strlen(REP_HEADER);
 6538              	LM370:
 6539 543d C7042433 		movl	$_REP_HEADER, (%esp)
 6539      920000
 6540 5444 E8000000 		call	_strlen
 6540      00
 6541 5449 8945F8   		movl	%eax, -8(%ebp)
2334:mtk_resgenerator.cpp **** 
2335:mtk_resgenerator.cpp ****     if(buffer != NULL)
 6543              	LM371:
 6544              	LBB41:
 6545 544c 837D0800 		cmpl	$0, 8(%ebp)
 6546 5450 0F84F200 		je	L179
 6546      0000
2336:mtk_resgenerator.cpp ****     {
2337:mtk_resgenerator.cpp ****         if(!bjump)
 6548              	LM372:
 6549              	LBB42:
 6550              	LBB43:
 6551 5456 803D1800 		cmpb	$0, _ZZ19process_line_bufferPcE5bjump
 6551      000000
GAS LISTING d:/software/ovi_2503a_s3trc/ovi_2503a_s3trc/plutommi/Customer/ResGenerator/gcctmp/ccgnaaaa.s 			page 131


 6552 545d 0F85C700 		jne	L180
 6552      0000
2338:mtk_resgenerator.cpp ****         {
2339:mtk_resgenerator.cpp ****             if(strchr(buffer, START_FLAG) != NULL)
 6554              	LM373:
 6555              	LBB44:
 6556 5463 C7442404 		movl	$123, 4(%esp)
 6556      7B000000 
 6557 546b 8B4508   		movl	8(%ebp), %eax
 6558 546e 890424   		movl	%eax, (%esp)
 6559 5471 E8000000 		call	__ZSt6strchrPci
 6559      00
 6560 5476 85C0     		testl	%eax, %eax
 6561 5478 7407     		je	L181
2340:mtk_resgenerator.cpp ****             {
2341:mtk_resgenerator.cpp ****                 bjump = true;
 6563              	LM374:
 6564 547a C6051800 		movb	$1, _ZZ19process_line_bufferPcE5bjump
 6564      000001
 6565              	L181:
2342:mtk_resgenerator.cpp ****             }
2343:mtk_resgenerator.cpp ****             if(!bjump)
 6567              	LM375:
 6568              	LBB45:
 6569 5481 803D1800 		cmpb	$0, _ZZ19process_line_bufferPcE5bjump
 6569      000000
 6570 5488 0F85BA00 		jne	L179
 6570      0000
2344:mtk_resgenerator.cpp ****             {
2345:mtk_resgenerator.cpp ****                 tmp_buff = strchr(buffer, '=');
 6572              	LM376:
 6573              	LBB46:
 6574 548e C7442404 		movl	$61, 4(%esp)
 6574      3D000000 
 6575 5496 8B4508   		movl	8(%ebp), %eax
 6576 5499 890424   		movl	%eax, (%esp)
 6577 549c E8000000 		call	__ZSt6strchrPci
 6577      00
 6578 54a1 8945FC   		movl	%eax, -4(%ebp)
2346:mtk_resgenerator.cpp ****                 if(tmp_buff != NULL) /* this line have '=', and we will change '=' to ';' */
 6580              	LM377:
 6581              	LBB47:
 6582 54a4 837DFC00 		cmpl	$0, -4(%ebp)
 6583 54a8 7472     		je	L183
2347:mtk_resgenerator.cpp ****                 {
2348:mtk_resgenerator.cpp ****                     *tmp_buff = ';';
 6585              	LM378:
 6586              	LBB48:
 6587 54aa 8B45FC   		movl	-4(%ebp), %eax
 6588 54ad C6003B   		movb	$59, (%eax)
2349:mtk_resgenerator.cpp **** 
2350:mtk_resgenerator.cpp ****                     /* in this line maybe have "__align(4)", so we will check it at the following p
2351:mtk_resgenerator.cpp ****                     tmp_buff = strstr(buffer, HEADER);
 6590              	LM379:
 6591 54b0 C7442404 		movl	$_HEADER, 4(%esp)
 6591      28920000 
 6592 54b8 8B4508   		movl	8(%ebp), %eax
GAS LISTING d:/software/ovi_2503a_s3trc/ovi_2503a_s3trc/plutommi/Customer/ResGenerator/gcctmp/ccgnaaaa.s 			page 132


 6593 54bb 890424   		movl	%eax, (%esp)
 6594 54be E8000000 		call	__ZSt6strstrPcPKc
 6594      00
 6595 54c3 8945FC   		movl	%eax, -4(%ebp)
2352:mtk_resgenerator.cpp ****                     if(tmp_buff == NULL) /* this line do not have "__align(4)" */
 6597              	LM380:
 6598 54c6 837DFC00 		cmpl	$0, -4(%ebp)
 6599 54ca 7508     		jne	L184
2353:mtk_resgenerator.cpp ****                         tmp_buff = buffer;
 6601              	LM381:
 6602 54cc 8B4508   		movl	8(%ebp), %eax
 6603 54cf 8945FC   		movl	%eax, -4(%ebp)
 6604 54d2 EB13     		jmp	L185
 6605              	L184:
2354:mtk_resgenerator.cpp ****                     else /* remove header: "__align(4)" */
2355:mtk_resgenerator.cpp ****                         tmp_buff = tmp_buff + strlen(HEADER) + 1;
 6607              	LM382:
 6608 54d4 C7042428 		movl	$_HEADER, (%esp)
 6608      920000
 6609 54db E8000000 		call	_strlen
 6609      00
 6610 54e0 0345FC   		addl	-4(%ebp), %eax
 6611 54e3 40       		incl	%eax
 6612 54e4 8945FC   		movl	%eax, -4(%ebp)
 6613              	L185:
2356:mtk_resgenerator.cpp **** 
2357:mtk_resgenerator.cpp ****                     tmp_buff = tmp_buff - len;
 6615              	LM383:
 6616 54e7 8B55F8   		movl	-8(%ebp), %edx
 6617 54ea 8D45FC   		leal	-4(%ebp), %eax
 6618 54ed 2910     		subl	%edx, (%eax)
2358:mtk_resgenerator.cpp ****                     for(int i = 0; i < len; ++i)
 6620              	LM384:
 6621              	LBB49:
 6622 54ef C745F400 		movl	$0, -12(%ebp)
 6622      000000
 6623              	L186:
 6624 54f6 8B45F4   		movl	-12(%ebp), %eax
 6625 54f9 3B45F8   		cmpl	-8(%ebp), %eax
 6626 54fc 7C02     		jl	L189
 6627 54fe EB22     		jmp	L190
 6628              	L189:
2359:mtk_resgenerator.cpp ****                     {
2360:mtk_resgenerator.cpp ****                         tmp_buff[i] = REP_HEADER[i];
 6630              	LM385:
 6631 5500 8B45F4   		movl	-12(%ebp), %eax
 6632 5503 8B55FC   		movl	-4(%ebp), %edx
 6633 5506 01C2     		addl	%eax, %edx
 6634 5508 8B45F4   		movl	-12(%ebp), %eax
 6635 550b 05339200 		addl	$_REP_HEADER, %eax
 6635      00
 6636 5510 0FB600   		movzbl	(%eax), %eax
 6637 5513 8802     		movb	%al, (%edx)
 6639              	LM386:
 6640 5515 8D45F4   		leal	-12(%ebp), %eax
 6641 5518 FF00     		incl	(%eax)
 6642 551a EBDA     		jmp	L186
GAS LISTING d:/software/ovi_2503a_s3trc/ovi_2503a_s3trc/plutommi/Customer/ResGenerator/gcctmp/ccgnaaaa.s 			page 133


 6643              	L183:
2361:mtk_resgenerator.cpp ****                     }
2362:mtk_resgenerator.cpp ****                 }
2363:mtk_resgenerator.cpp ****                 else
2364:mtk_resgenerator.cpp ****                 {
2365:mtk_resgenerator.cpp ****                     tmp_buff = buffer;
 6645              	LM387:
 6646              	LBE49:
 6647              	LBE48:
 6648 551c 8B4508   		movl	8(%ebp), %eax
 6649 551f 8945FC   		movl	%eax, -4(%ebp)
 6650              	L190:
2366:mtk_resgenerator.cpp ****                 }
2367:mtk_resgenerator.cpp **** 
2368:mtk_resgenerator.cpp ****                 /* we will return buffer pointer after this line is processed */
2369:mtk_resgenerator.cpp ****                 return tmp_buff;
 6652              	LM388:
 6653              	LBE47:
 6654 5522 8B45FC   		movl	-4(%ebp), %eax
 6655 5525 8945F0   		movl	%eax, -16(%ebp)
 6656 5528 EB25     		jmp	L178
 6657              	L180:
2370:mtk_resgenerator.cpp ****             }
2371:mtk_resgenerator.cpp ****         }
2372:mtk_resgenerator.cpp ****         else
2373:mtk_resgenerator.cpp ****         {
2374:mtk_resgenerator.cpp ****             if(strchr(buffer, END_FLAG) != NULL)
 6659              	LM389:
 6660              	LBE46:
 6661              	LBE45:
 6662              	LBE44:
 6663 552a C7442404 		movl	$125, 4(%esp)
 6663      7D000000 
 6664 5532 8B4508   		movl	8(%ebp), %eax
 6665 5535 890424   		movl	%eax, (%esp)
 6666 5538 E8000000 		call	__ZSt6strchrPci
 6666      00
 6667 553d 85C0     		testl	%eax, %eax
 6668 553f 7407     		je	L179
2375:mtk_resgenerator.cpp ****             {
2376:mtk_resgenerator.cpp ****                 bjump = false;
 6670              	LM390:
 6671 5541 C6051800 		movb	$0, _ZZ19process_line_bufferPcE5bjump
 6671      000000
 6672              	L179:
2377:mtk_resgenerator.cpp ****             }
2378:mtk_resgenerator.cpp ****         }
2379:mtk_resgenerator.cpp ****     }
2380:mtk_resgenerator.cpp ****     return NULL;
 6674              	LM391:
 6675              	LBE43:
 6676              	LBE42:
 6677              	LBE41:
 6678 5548 C745F000 		movl	$0, -16(%ebp)
 6678      000000
2381:mtk_resgenerator.cpp **** }
 6680              	LM392:
GAS LISTING d:/software/ovi_2503a_s3trc/ovi_2503a_s3trc/plutommi/Customer/ResGenerator/gcctmp/ccgnaaaa.s 			page 134


 6681              	L178:
 6682              	LBE40:
 6683 554f 8B45F0   		movl	-16(%ebp), %eax
 6684 5552 C9       		leave
 6685 5553 C3       		ret
 6694              	Lscope21:
 6696              	.lcomm _ZZ16get_file_headersPcPPA1024_cPiE5bjump,16
 6697              	LC216:
 6698 5554 553800   		.ascii "U8\0"
 6699 5557 90       		.align 2
 6704              	.globl __Z16get_file_headersPcPPA1024_cPi
 6706              	__Z16get_file_headersPcPPA1024_cPi:
2382:mtk_resgenerator.cpp **** 
2383:mtk_resgenerator.cpp **** 
2384:mtk_resgenerator.cpp **** /*************************************************************************
2385:mtk_resgenerator.cpp **** * FUNCTION
2386:mtk_resgenerator.cpp **** *  get_file_headers
2387:mtk_resgenerator.cpp **** *
2388:mtk_resgenerator.cpp **** * DESCRIPTION
2389:mtk_resgenerator.cpp **** *   get file header of data.h, we supporse that before "U8" line will be the
2390:mtk_resgenerator.cpp **** *   header line
2391:mtk_resgenerator.cpp **** *
2392:mtk_resgenerator.cpp **** * PARAMETERS
2393:mtk_resgenerator.cpp **** *   sourc           :[IN]      one line data of data.h
2394:mtk_resgenerator.cpp **** *   dest            :[OTU]     we will put the header data in this array
2395:mtk_resgenerator.cpp **** *   num             :[IN/OUT]  this if total line numbers of header 
2396:mtk_resgenerator.cpp **** *
2397:mtk_resgenerator.cpp **** * RETURNS
2398:mtk_resgenerator.cpp **** *   TRUE means current line is header line, FALSE means current line is not header line
2399:mtk_resgenerator.cpp **** *
2400:mtk_resgenerator.cpp **** *************************************************************************/
2401:mtk_resgenerator.cpp **** bool get_file_headers(char *sourc, BUFFER_HEADER *dest, int *num)
2402:mtk_resgenerator.cpp **** {
 6708              	LM393:
 6709 5558 55       		pushl	%ebp
 6710 5559 89E5     		movl	%esp, %ebp
 6711 555b 83EC08   		subl	$8, %esp
2403:mtk_resgenerator.cpp ****     static bool bjump = false;
2404:mtk_resgenerator.cpp **** 
2405:mtk_resgenerator.cpp ****     if(!bjump)
 6713              	LM394:
 6714              	LBB50:
 6715 555e 803D2800 		cmpb	$0, _ZZ16get_file_headersPcPPA1024_cPiE5bjump
 6715      000000
 6716 5565 7555     		jne	L194
2406:mtk_resgenerator.cpp ****     {
2407:mtk_resgenerator.cpp ****         if(sourc != NULL)
 6718              	LM395:
 6719 5567 837D0800 		cmpl	$0, 8(%ebp)
 6720 556b 744F     		je	L194
2408:mtk_resgenerator.cpp ****         {
2409:mtk_resgenerator.cpp ****             if(strstr(sourc, "U8") != NULL)
 6722              	LM396:
 6723 556d C7442404 		movl	$LC216, 4(%esp)
 6723      54550000 
 6724 5575 8B4508   		movl	8(%ebp), %eax
 6725 5578 890424   		movl	%eax, (%esp)
GAS LISTING d:/software/ovi_2503a_s3trc/ovi_2503a_s3trc/plutommi/Customer/ResGenerator/gcctmp/ccgnaaaa.s 			page 135


 6726 557b E8000000 		call	__ZSt6strstrPcPKc
 6726      00
 6727 5580 85C0     		testl	%eax, %eax
 6728 5582 7409     		je	L196
2410:mtk_resgenerator.cpp ****             {
2411:mtk_resgenerator.cpp ****                 bjump = true;
 6730              	LM397:
 6731 5584 C6052800 		movb	$1, _ZZ16get_file_headersPcPPA1024_cPiE5bjump
 6731      000001
 6732 558b EB2F     		jmp	L194
 6733              	L196:
2412:mtk_resgenerator.cpp ****             }
2413:mtk_resgenerator.cpp ****             else
2414:mtk_resgenerator.cpp ****             {
2415:mtk_resgenerator.cpp ****                 if(*num < 32)
 6735              	LM398:
 6736 558d 8B4510   		movl	16(%ebp), %eax
 6737 5590 83381F   		cmpl	$31, (%eax)
 6738 5593 7F27     		jg	L194
2416:mtk_resgenerator.cpp ****                 {
2417:mtk_resgenerator.cpp ****                     strcpy((*dest)[*num], sourc);
 6740              	LM399:
 6741 5595 8B4508   		movl	8(%ebp), %eax
 6742 5598 89442404 		movl	%eax, 4(%esp)
 6743 559c 8B550C   		movl	12(%ebp), %edx
 6744 559f 8B4510   		movl	16(%ebp), %eax
 6745 55a2 8B00     		movl	(%eax), %eax
 6746 55a4 C1E00A   		sall	$10, %eax
 6747 55a7 0302     		addl	(%edx), %eax
 6748 55a9 890424   		movl	%eax, (%esp)
 6749 55ac E8000000 		call	_strcpy
 6749      00
2418:mtk_resgenerator.cpp ****                     *num += 1;
 6751              	LM400:
 6752 55b1 8B5510   		movl	16(%ebp), %edx
 6753 55b4 8B4510   		movl	16(%ebp), %eax
 6754 55b7 8B00     		movl	(%eax), %eax
 6755 55b9 40       		incl	%eax
 6756 55ba 8902     		movl	%eax, (%edx)
 6757              	L194:
2419:mtk_resgenerator.cpp ****                 }
2420:mtk_resgenerator.cpp ****             }
2421:mtk_resgenerator.cpp ****         }
2422:mtk_resgenerator.cpp ****     }
2423:mtk_resgenerator.cpp **** 
2424:mtk_resgenerator.cpp ****     return bjump;
 6759              	LM401:
 6760 55bc 0FB60528 		movzbl	_ZZ16get_file_headersPcPPA1024_cPiE5bjump, %eax
 6760      000000
2425:mtk_resgenerator.cpp **** }
 6762              	LM402:
 6763 55c3 C9       		leave
 6764 55c4 C3       		ret
 6765              	LBE50:
 6769              	Lscope22:
 6771              	.lcomm _ZZ22generate_img_data_fileP6_iobufPA1024_ciiE5count,16
 6772              	LC217:
GAS LISTING d:/software/ovi_2503a_s3trc/ovi_2503a_s3trc/plutommi/Customer/ResGenerator/gcctmp/ccgnaaaa.s 			page 136


 6773 55c5 67656E65 		.ascii "generate file failed.\0"
 6773      72617465 
 6773      2066696C 
 6773      65206661 
 6773      696C6564 
 6774              	LC218:
 6775 55db 63726561 		.ascii "create data file \"%s\" failed.\0"
 6775      74652064 
 6775      61746120 
 6775      66696C65 
 6775      20222573 
 6776              	LC219:
 6777 55f9 7D00     		.ascii "}\0"
 6778              	LC220:
 6779 55fb 72656164 		.ascii "read source file error.\0"
 6779      20736F75 
 6779      72636520 
 6779      66696C65 
 6779      20657272 
 6780 5613 8DB60000 		.align 32
 6780      00008DBC 
 6780      27000000 
 6780      00
 6781              	LC221:
 6782 5620 23656E64 		.ascii "#endif //!defined(__MMI_RESOURCE_IMAGE_GROUP_COMPRESS__) || defined(__MMI_RESOURCE_UT_UNCO
 6782      6966202F 
 6782      2F216465 
 6782      66696E65 
 6782      64285F5F 
 6783              		.align 2
 6789              	.globl __Z22generate_img_data_fileP6_iobufPA1024_cii
 6791              	__Z22generate_img_data_fileP6_iobufPA1024_cii:
2426:mtk_resgenerator.cpp **** 
2427:mtk_resgenerator.cpp **** /*************************************************************************
2428:mtk_resgenerator.cpp **** * FUNCTION
2429:mtk_resgenerator.cpp **** *  generate_img_data_file
2430:mtk_resgenerator.cpp **** *
2431:mtk_resgenerator.cpp **** * DESCRIPTION
2432:mtk_resgenerator.cpp **** *   get file header of data.h, we supporse that before "U8" line will be the
2433:mtk_resgenerator.cpp **** *   header line
2434:mtk_resgenerator.cpp **** *
2435:mtk_resgenerator.cpp **** * PARAMETERS
2436:mtk_resgenerator.cpp **** *   fp             :[IN]  one line data of data.h
2437:mtk_resgenerator.cpp **** *   header         :[IN]  we will put the header data in this array
2438:mtk_resgenerator.cpp **** *   header_count   :[IN]  this if total line numbers of header 
2439:mtk_resgenerator.cpp **** *   img_count      :[IN]  this if total line numbers of header 
2440:mtk_resgenerator.cpp **** *
2441:mtk_resgenerator.cpp **** * RETURNS
2442:mtk_resgenerator.cpp **** *   TRUE means current line is header line, FALSE means current line is not header line
2443:mtk_resgenerator.cpp **** *
2444:mtk_resgenerator.cpp **** *************************************************************************/
2445:mtk_resgenerator.cpp **** #ifndef RESGEN_IMG_SPLIT_OUTPUT_ROUND_ROBIN
2446:mtk_resgenerator.cpp **** bool generate_img_data_file(FILE* fp, BUFFER_HEADER header, int header_count, int img_count)
2447:mtk_resgenerator.cpp **** {
2448:mtk_resgenerator.cpp ****     static int count = 0;
2449:mtk_resgenerator.cpp ****     char buffer[2048];
2450:mtk_resgenerator.cpp ****     char *tmp_buff = NULL;
GAS LISTING d:/software/ovi_2503a_s3trc/ovi_2503a_s3trc/plutommi/Customer/ResGenerator/gcctmp/ccgnaaaa.s 			page 137


2451:mtk_resgenerator.cpp ****     FILE *out_fp = NULL;
2452:mtk_resgenerator.cpp ****     int fc = img_count/CUST_RES_FILE_COUNT + 1;
2453:mtk_resgenerator.cpp **** 
2454:mtk_resgenerator.cpp ****     if(fp == NULL)
2455:mtk_resgenerator.cpp ****     {
2456:mtk_resgenerator.cpp ****         return false;
2457:mtk_resgenerator.cpp ****     }
2458:mtk_resgenerator.cpp **** 
2459:mtk_resgenerator.cpp ****     for(int i = 0; i < header_count; ++i)
2460:mtk_resgenerator.cpp ****     {
2461:mtk_resgenerator.cpp ****         if(fgets(buffer, 2048, fp) == NULL)
2462:mtk_resgenerator.cpp ****         {
2463:mtk_resgenerator.cpp ****             RESGEN_LOG_E("generate file failed.");
2464:mtk_resgenerator.cpp ****             return false;
2465:mtk_resgenerator.cpp ****         }
2466:mtk_resgenerator.cpp ****     }
2467:mtk_resgenerator.cpp **** 
2468:mtk_resgenerator.cpp ****     while(!feof(fp))
2469:mtk_resgenerator.cpp ****     {
2470:mtk_resgenerator.cpp **** 
2471:mtk_resgenerator.cpp ****         if(fgets(buffer, 2048, fp) != NULL)
2472:mtk_resgenerator.cpp ****         {
2473:mtk_resgenerator.cpp ****             if(count % fc/*AVERAGE_IMG_NUMBER*/ == 0 && out_fp == NULL)
2474:mtk_resgenerator.cpp ****             {
2475:mtk_resgenerator.cpp ****                 /* 
2476:mtk_resgenerator.cpp ****                 * create output file, if create failed,
2477:mtk_resgenerator.cpp ****                 * we will return directly else we will write data into it
2478:mtk_resgenerator.cpp ****                 */
2479:mtk_resgenerator.cpp ****                 out_fp = fopen(output_file_name[count/fc/*AVERAGE_IMG_NUMBER*/], "w");
2480:mtk_resgenerator.cpp ****                 if(out_fp == NULL)
2481:mtk_resgenerator.cpp ****                 {
2482:mtk_resgenerator.cpp ****                     RESGEN_LOG_E("create data file \"%s\" failed.", output_file_name[count/fc/*AVER
2483:mtk_resgenerator.cpp ****                     return false;
2484:mtk_resgenerator.cpp ****                 }
2485:mtk_resgenerator.cpp **** 
2486:mtk_resgenerator.cpp ****                 fputs("#include \"CustDataRes.h\"\n", out_fp);
2487:mtk_resgenerator.cpp ****                 fputs("n#include \"ResCompressConfig.h\"\n\n", out_fp);
2488:mtk_resgenerator.cpp ****                 fputs("#if !defined(__MMI_RESOURCE_IMAGE_GROUP_COMPRESS__) || defined(__MMI_RESOURC
2489:mtk_resgenerator.cpp ****                 /* write header information to new file */
2490:mtk_resgenerator.cpp ****                 for(int i = 0; i < header_count; ++i)
2491:mtk_resgenerator.cpp ****                 {
2492:mtk_resgenerator.cpp ****                     fputs(header[i], out_fp);
2493:mtk_resgenerator.cpp ****                 }
2494:mtk_resgenerator.cpp ****             }
2495:mtk_resgenerator.cpp ****             /* write data into dest file */
2496:mtk_resgenerator.cpp ****             fputs(buffer, out_fp);
2497:mtk_resgenerator.cpp **** 
2498:mtk_resgenerator.cpp ****             /* get count of image data*/
2499:mtk_resgenerator.cpp ****             if(strstr(buffer, "}") != NULL)
2500:mtk_resgenerator.cpp ****             {
2501:mtk_resgenerator.cpp ****                 count++;
2502:mtk_resgenerator.cpp ****                 if(count % fc/*AVERAGE_IMG_NUMBER*/ == 0)
2503:mtk_resgenerator.cpp ****                 {
2504:mtk_resgenerator.cpp ****                     /* reset the file handler */
2505:mtk_resgenerator.cpp ****                     if(out_fp != NULL)
2506:mtk_resgenerator.cpp ****                     {
2507:mtk_resgenerator.cpp ****                         fclose(out_fp);
GAS LISTING d:/software/ovi_2503a_s3trc/ovi_2503a_s3trc/plutommi/Customer/ResGenerator/gcctmp/ccgnaaaa.s 			page 138


2508:mtk_resgenerator.cpp ****                         out_fp = NULL;
2509:mtk_resgenerator.cpp ****                     }
2510:mtk_resgenerator.cpp **** 
2511:mtk_resgenerator.cpp ****                 }
2512:mtk_resgenerator.cpp ****             }
2513:mtk_resgenerator.cpp ****         }
2514:mtk_resgenerator.cpp ****         else
2515:mtk_resgenerator.cpp ****         {
2516:mtk_resgenerator.cpp ****             if(!feof(fp))
2517:mtk_resgenerator.cpp ****             {
2518:mtk_resgenerator.cpp ****                 RESGEN_LOG_E("read source file error.");
2519:mtk_resgenerator.cpp ****                 if(out_fp != NULL)
2520:mtk_resgenerator.cpp ****                 {
2521:mtk_resgenerator.cpp ****                     fclose(out_fp);
2522:mtk_resgenerator.cpp ****                     out_fp = NULL;
2523:mtk_resgenerator.cpp ****                 }
2524:mtk_resgenerator.cpp ****                 return false;
2525:mtk_resgenerator.cpp ****             }
2526:mtk_resgenerator.cpp ****         }
2527:mtk_resgenerator.cpp ****     }
2528:mtk_resgenerator.cpp **** 
2529:mtk_resgenerator.cpp ****     /* close the last file */
2530:mtk_resgenerator.cpp ****     if(out_fp != NULL)
2531:mtk_resgenerator.cpp ****     {
2532:mtk_resgenerator.cpp ****         fputs("#endif //!defined(__MMI_RESOURCE_IMAGE_GROUP_COMPRESS__) || defined(__MMI_RESOURCE_U
2533:mtk_resgenerator.cpp ****         fclose(out_fp);
2534:mtk_resgenerator.cpp ****         out_fp = NULL;
2535:mtk_resgenerator.cpp ****     }
2536:mtk_resgenerator.cpp **** 
2537:mtk_resgenerator.cpp ****     return true;
2538:mtk_resgenerator.cpp **** }
2539:mtk_resgenerator.cpp **** #else //RESGEN_IMG_SPLIT_OUTPUT_ROUND_ROBIN
2540:mtk_resgenerator.cpp **** bool generate_img_data_file(FILE* fp, BUFFER_HEADER header, int header_count, int img_count)
2541:mtk_resgenerator.cpp **** {
 6793              	LM403:
 6794 5696 55       		pushl	%ebp
 6795 5697 89E5     		movl	%esp, %ebp
 6796 5699 81EC6808 		subl	$2152, %esp
 6796      0000
2542:mtk_resgenerator.cpp ****     static int count = 0;
2543:mtk_resgenerator.cpp ****     char buffer[2048];
2544:mtk_resgenerator.cpp ****     char *tmp_buff = NULL;
 6798              	LM404:
 6799              	LBB51:
 6800 569f C785F4F7 		movl	$0, -2060(%ebp)
 6800      FFFF0000 
 6800      0000
2545:mtk_resgenerator.cpp ****     FILE * out_file[CUST_RES_FILE_COUNT];
2546:mtk_resgenerator.cpp ****     FILE *out_fp = NULL;
 6802              	LM405:
 6803 56a9 C785D4F7 		movl	$0, -2092(%ebp)
 6803      FFFF0000 
 6803      0000
2547:mtk_resgenerator.cpp ****     int fc = img_count/CUST_RES_FILE_COUNT + 1;
 6805              	LM406:
 6806 56b3 8B4514   		movl	20(%ebp), %eax
 6807 56b6 8985BCF7 		movl	%eax, -2116(%ebp)
GAS LISTING d:/software/ovi_2503a_s3trc/ovi_2503a_s3trc/plutommi/Customer/ResGenerator/gcctmp/ccgnaaaa.s 			page 139


 6807      FFFF
 6808 56bc 83BDBCF7 		cmpl	$0, -2116(%ebp)
 6808      FFFF00
 6809 56c3 7907     		jns	L200
 6810 56c5 8385BCF7 		addl	$3, -2116(%ebp)
 6810      FFFF03
 6811              	L200:
 6812 56cc 8B85BCF7 		movl	-2116(%ebp), %eax
 6812      FFFF
 6813 56d2 C1F802   		sarl	$2, %eax
 6814 56d5 40       		incl	%eax
 6815 56d6 8985D0F7 		movl	%eax, -2096(%ebp)
 6815      FFFF
2548:mtk_resgenerator.cpp ****     bool result = true;
 6817              	LM407:
 6818 56dc C685CFF7 		movb	$1, -2097(%ebp)
 6818      FFFF01
2549:mtk_resgenerator.cpp **** 
2550:mtk_resgenerator.cpp ****     if(fp == NULL)
 6820              	LM408:
 6821 56e3 837D0800 		cmpl	$0, 8(%ebp)
 6822 56e7 750F     		jne	L201
2551:mtk_resgenerator.cpp ****     {
2552:mtk_resgenerator.cpp ****         return false;
 6824              	LM409:
 6825 56e9 C785C0F7 		movl	$0, -2112(%ebp)
 6825      FFFF0000 
 6825      0000
 6826 56f3 E9F90200 		jmp	L199
 6826      00
 6827              	L201:
2553:mtk_resgenerator.cpp ****     }
2554:mtk_resgenerator.cpp **** 
2555:mtk_resgenerator.cpp ****     // Check Header
2556:mtk_resgenerator.cpp ****     for(int i = 0; i < header_count; ++i)
 6829              	LM410:
 6830              	LBB52:
 6831 56f8 C785C8F7 		movl	$0, -2104(%ebp)
 6831      FFFF0000 
 6831      0000
 6832              	L202:
 6833 5702 8B85C8F7 		movl	-2104(%ebp), %eax
 6833      FFFF
 6834 5708 3B4510   		cmpl	16(%ebp), %eax
 6835 570b 7C02     		jl	L205
 6836 570d EB56     		jmp	L203
 6837              	L205:
2557:mtk_resgenerator.cpp ****     {
2558:mtk_resgenerator.cpp ****         if(fgets(buffer, 2048, fp) == NULL)
 6839              	LM411:
 6840 570f 8B4508   		movl	8(%ebp), %eax
 6841 5712 89442408 		movl	%eax, 8(%esp)
 6842 5716 C7442404 		movl	$2048, 4(%esp)
 6842      00080000 
 6843 571e 8D85F8F7 		leal	-2056(%ebp), %eax
 6843      FFFF
 6844 5724 890424   		movl	%eax, (%esp)
GAS LISTING d:/software/ovi_2503a_s3trc/ovi_2503a_s3trc/plutommi/Customer/ResGenerator/gcctmp/ccgnaaaa.s 			page 140


 6845 5727 E8000000 		call	_fgets
 6845      00
 6846 572c 85C0     		testl	%eax, %eax
 6847 572e 752B     		jne	L204
2559:mtk_resgenerator.cpp ****         {
2560:mtk_resgenerator.cpp ****             RESGEN_LOG_E("generate file failed.");
 6849              	LM412:
 6850 5730 C7442408 		movl	$LC217, 8(%esp)
 6850      C5550000 
 6851 5738 C7442404 		movl	$LC1, 4(%esp)
 6851      3E000000 
 6852 5740 C7042403 		movl	$3, (%esp)
 6852      000000
 6853 5747 E8000000 		call	_reslog_adaptor_log
 6853      00
2561:mtk_resgenerator.cpp ****             return false;
 6855              	LM413:
 6856 574c C785C0F7 		movl	$0, -2112(%ebp)
 6856      FFFF0000 
 6856      0000
 6857 5756 E9960200 		jmp	L199
 6857      00
 6859              	LM414:
 6860              	L204:
 6861 575b 8D85C8F7 		leal	-2104(%ebp), %eax
 6861      FFFF
 6862 5761 FF00     		incl	(%eax)
 6863 5763 EB9D     		jmp	L202
 6864              	L203:
2562:mtk_resgenerator.cpp ****         }
2563:mtk_resgenerator.cpp ****     }
2564:mtk_resgenerator.cpp **** 
2565:mtk_resgenerator.cpp ****     // Write Header if this is the first input for this file.
2566:mtk_resgenerator.cpp ****     for(int i = 0 ;i < CUST_RES_FILE_COUNT ;i++){
 6866              	LM415:
 6867              	LBE52:
 6868              	LBB53:
 6869 5765 C785C8F7 		movl	$0, -2104(%ebp)
 6869      FFFF0000 
 6869      0000
 6870              	L207:
 6871 576f 83BDC8F7 		cmpl	$3, -2104(%ebp)
 6871      FFFF03
 6872 5776 7E05     		jle	L210
 6873 5778 E9030100 		jmp	L217
 6873      00
 6874              	L210:
2567:mtk_resgenerator.cpp ****         out_fp = fopen(output_file_name[i], "w");
 6876              	LM416:
 6877              	LBB54:
 6878              	LBB55:
 6879 577d C7442404 		movl	$LC2, 4(%esp)
 6879      4F000000 
 6880 5785 8B85C8F7 		movl	-2104(%ebp), %eax
 6880      FFFF
 6881 578b 8B048500 		movl	_output_file_name(,%eax,4), %eax
 6881      000000
GAS LISTING d:/software/ovi_2503a_s3trc/ovi_2503a_s3trc/plutommi/Customer/ResGenerator/gcctmp/ccgnaaaa.s 			page 141


 6882 5792 890424   		movl	%eax, (%esp)
 6883 5795 E8000000 		call	_fopen
 6883      00
 6884 579a 8985D4F7 		movl	%eax, -2092(%ebp)
 6884      FFFF
2568:mtk_resgenerator.cpp ****         fputs("#include \"CustDataRes.h\"\n", out_fp);
 6886              	LM417:
 6887 57a0 8B85D4F7 		movl	-2092(%ebp), %eax
 6887      FFFF
 6888 57a6 89442404 		movl	%eax, 4(%esp)
 6889 57aa C704244A 		movl	$LC52, (%esp)
 6889      150000
 6890 57b1 E8000000 		call	_fputs
 6890      00
2569:mtk_resgenerator.cpp ****         fputs("\n#include \"ResCompressConfig.h\"\n\n", out_fp);
 6892              	LM418:
 6893 57b6 8B85D4F7 		movl	-2092(%ebp), %eax
 6893      FFFF
 6894 57bc 89442404 		movl	%eax, 4(%esp)
 6895 57c0 C7042460 		movl	$LC62, (%esp)
 6895      170000
 6896 57c7 E8000000 		call	_fputs
 6896      00
2570:mtk_resgenerator.cpp ****         fputs("#if !defined(__MMI_RESOURCE_IMAGE_GROUP_COMPRESS__) || defined(__MMI_RESOURCE_UT_UNC
 6898              	LM419:
 6899 57cc 8B85D4F7 		movl	-2092(%ebp), %eax
 6899      FFFF
 6900 57d2 89442404 		movl	%eax, 4(%esp)
 6901 57d6 C70424A0 		movl	$LC64, (%esp)
 6901      170000
 6902 57dd E8000000 		call	_fputs
 6902      00
2571:mtk_resgenerator.cpp **** 
2572:mtk_resgenerator.cpp ****         if(out_fp != NULL){
 6904              	LM420:
 6905              	LBB56:
 6906 57e2 83BDD4F7 		cmpl	$0, -2092(%ebp)
 6906      FFFF00
 6907 57e9 7454     		je	L211
2573:mtk_resgenerator.cpp ****             for(int j = 0; j < header_count; j++){
 6909              	LM421:
 6910              	LBB57:
 6911              	LBB58:
 6912 57eb C785C4F7 		movl	$0, -2108(%ebp)
 6912      FFFF0000 
 6912      0000
 6913              	L212:
 6914 57f5 8B85C4F7 		movl	-2108(%ebp), %eax
 6914      FFFF
 6915 57fb 3B4510   		cmpl	16(%ebp), %eax
 6916 57fe 7C02     		jl	L215
 6917 5800 EB28     		jmp	L213
 6918              	L215:
2574:mtk_resgenerator.cpp ****                 fputs(header[j], out_fp);
 6920              	LM422:
 6921 5802 8B85D4F7 		movl	-2092(%ebp), %eax
 6921      FFFF
GAS LISTING d:/software/ovi_2503a_s3trc/ovi_2503a_s3trc/plutommi/Customer/ResGenerator/gcctmp/ccgnaaaa.s 			page 142


 6922 5808 89442404 		movl	%eax, 4(%esp)
 6923 580c 8B85C4F7 		movl	-2108(%ebp), %eax
 6923      FFFF
 6924 5812 C1E00A   		sall	$10, %eax
 6925 5815 03450C   		addl	12(%ebp), %eax
 6926 5818 890424   		movl	%eax, (%esp)
 6927 581b E8000000 		call	_fputs
 6927      00
 6929              	LM423:
 6930 5820 8D85C4F7 		leal	-2108(%ebp), %eax
 6930      FFFF
 6931 5826 FF00     		incl	(%eax)
 6932 5828 EBCB     		jmp	L212
 6933              	L213:
2575:mtk_resgenerator.cpp ****             }
2576:mtk_resgenerator.cpp ****             // Save the file descriptor 
2577:mtk_resgenerator.cpp ****             out_file[i] = out_fp; 
 6935              	LM424:
 6936              	LBE58:
 6937 582a 8B95C8F7 		movl	-2104(%ebp), %edx
 6937      FFFF
 6938 5830 8B85D4F7 		movl	-2092(%ebp), %eax
 6938      FFFF
 6939 5836 898495D8 		movl	%eax, -2088(%ebp,%edx,4)
 6939      F7FFFF
 6940              	LBE57:
 6941 583d EB34     		jmp	L209
 6942              	L211:
2578:mtk_resgenerator.cpp ****         }else{
2579:mtk_resgenerator.cpp ****             RESGEN_LOG_E("create data file \"%s\" failed.", output_file_name[i]);
 6944              	LM425:
 6945 583f 8B85C8F7 		movl	-2104(%ebp), %eax
 6945      FFFF
 6946 5845 8B048500 		movl	_output_file_name(,%eax,4), %eax
 6946      000000
 6947 584c 8944240C 		movl	%eax, 12(%esp)
 6948 5850 C7442408 		movl	$LC218, 8(%esp)
 6948      DB550000 
 6949 5858 C7442404 		movl	$LC1, 4(%esp)
 6949      3E000000 
 6950 5860 C7042403 		movl	$3, (%esp)
 6950      000000
 6951 5867 E8000000 		call	_reslog_adaptor_log
 6951      00
2580:mtk_resgenerator.cpp ****             result = false;
 6953              	LM426:
 6954 586c C685CFF7 		movb	$0, -2097(%ebp)
 6954      FFFF00
 6956              	LM427:
 6957              	L209:
 6958 5873 8D85C8F7 		leal	-2104(%ebp), %eax
 6958      FFFF
 6959              	LBE56:
 6960              	LBE55:
 6961              	LBE54:
 6962 5879 FF00     		incl	(%eax)
 6963 587b E9EFFEFF 		jmp	L207
GAS LISTING d:/software/ovi_2503a_s3trc/ovi_2503a_s3trc/plutommi/Customer/ResGenerator/gcctmp/ccgnaaaa.s 			page 143


 6963      FF
2581:mtk_resgenerator.cpp ****         }
2582:mtk_resgenerator.cpp ****     }
2583:mtk_resgenerator.cpp **** 
2584:mtk_resgenerator.cpp ****     while(!feof(fp) && result != false)
 6965              	LM428:
 6966              	L217:
 6967              	LBE53:
 6968 5880 8B4508   		movl	8(%ebp), %eax
 6969 5883 890424   		movl	%eax, (%esp)
 6970 5886 E8000000 		call	_feof
 6970      00
 6971 588b 85C0     		testl	%eax, %eax
 6972 588d 0F85F000 		jne	L218
 6972      0000
 6973 5893 80BDCFF7 		cmpb	$0, -2097(%ebp)
 6973      FFFF00
 6974 589a 7505     		jne	L219
 6975 589c E9E20000 		jmp	L218
 6975      00
 6976              	L219:
2585:mtk_resgenerator.cpp ****     {
2586:mtk_resgenerator.cpp ****         out_fp = out_file[count % CUST_RES_FILE_COUNT];
 6978              	LM429:
 6979 58a1 A1380000 		movl	_ZZ22generate_img_data_fileP6_iobufPA1024_ciiE5count, %eax
 6979      00
 6980 58a6 8985B8F7 		movl	%eax, -2120(%ebp)
 6980      FFFF
 6981 58ac 8B95B8F7 		movl	-2120(%ebp), %edx
 6981      FFFF
 6982 58b2 8995B4F7 		movl	%edx, -2124(%ebp)
 6982      FFFF
 6983 58b8 83BDB4F7 		cmpl	$0, -2124(%ebp)
 6983      FFFF00
 6984 58bf 7907     		jns	L221
 6985 58c1 8385B4F7 		addl	$3, -2124(%ebp)
 6985      FFFF03
 6986              	L221:
 6987 58c8 8B85B4F7 		movl	-2124(%ebp), %eax
 6987      FFFF
 6988 58ce C1F802   		sarl	$2, %eax
 6989 58d1 C1E002   		sall	$2, %eax
 6990 58d4 8B95B8F7 		movl	-2120(%ebp), %edx
 6990      FFFF
 6991 58da 29C2     		subl	%eax, %edx
 6992 58dc 89D0     		movl	%edx, %eax
 6993 58de 8B8485D8 		movl	-2088(%ebp,%eax,4), %eax
 6993      F7FFFF
 6994 58e5 8985D4F7 		movl	%eax, -2092(%ebp)
 6994      FFFF
2587:mtk_resgenerator.cpp **** 
2588:mtk_resgenerator.cpp ****         if(fgets(buffer, 2048, fp) != NULL)
 6996              	LM430:
 6997 58eb 8B4508   		movl	8(%ebp), %eax
 6998 58ee 89442408 		movl	%eax, 8(%esp)
 6999 58f2 C7442404 		movl	$2048, 4(%esp)
 6999      00080000 
GAS LISTING d:/software/ovi_2503a_s3trc/ovi_2503a_s3trc/plutommi/Customer/ResGenerator/gcctmp/ccgnaaaa.s 			page 144


 7000 58fa 8D85F8F7 		leal	-2056(%ebp), %eax
 7000      FFFF
 7001 5900 890424   		movl	%eax, (%esp)
 7002 5903 E8000000 		call	_fgets
 7002      00
 7003 5908 85C0     		testl	%eax, %eax
 7004 590a 7441     		je	L222
2589:mtk_resgenerator.cpp ****         {
2590:mtk_resgenerator.cpp ****             /* write data into dest file */
2591:mtk_resgenerator.cpp ****             fputs(buffer, out_fp);
 7006              	LM431:
 7007 590c 8B85D4F7 		movl	-2092(%ebp), %eax
 7007      FFFF
 7008 5912 89442404 		movl	%eax, 4(%esp)
 7009 5916 8D85F8F7 		leal	-2056(%ebp), %eax
 7009      FFFF
 7010 591c 890424   		movl	%eax, (%esp)
 7011 591f E8000000 		call	_fputs
 7011      00
2592:mtk_resgenerator.cpp **** 
2593:mtk_resgenerator.cpp ****             /* get count of image data*/
2594:mtk_resgenerator.cpp ****             if(strstr(buffer, "}") != NULL)
 7013              	LM432:
 7014 5924 C7442404 		movl	$LC219, 4(%esp)
 7014      F9550000 
 7015 592c 8D85F8F7 		leal	-2056(%ebp), %eax
 7015      FFFF
 7016 5932 890424   		movl	%eax, (%esp)
 7017 5935 E8000000 		call	__ZSt6strstrPcPKc
 7017      00
 7018 593a 85C0     		testl	%eax, %eax
 7019 593c 0F843EFF 		je	L217
 7019      FFFF
2595:mtk_resgenerator.cpp ****             {
2596:mtk_resgenerator.cpp ****                 count++;
 7021              	LM433:
 7022 5942 FF053800 		incl	_ZZ22generate_img_data_fileP6_iobufPA1024_ciiE5count
 7022      0000
 7023 5948 E933FFFF 		jmp	L217
 7023      FF
 7024              	L222:
2597:mtk_resgenerator.cpp ****             }
2598:mtk_resgenerator.cpp ****         }
2599:mtk_resgenerator.cpp ****         else
2600:mtk_resgenerator.cpp ****         {
2601:mtk_resgenerator.cpp ****             if(!feof(fp))
 7026              	LM434:
 7027 594d 8B4508   		movl	8(%ebp), %eax
 7028 5950 890424   		movl	%eax, (%esp)
 7029 5953 E8000000 		call	_feof
 7029      00
 7030 5958 85C0     		testl	%eax, %eax
 7031 595a 0F8520FF 		jne	L217
 7031      FFFF
2602:mtk_resgenerator.cpp ****             {
2603:mtk_resgenerator.cpp ****                 RESGEN_LOG_E("read source file error.");
 7033              	LM435:
GAS LISTING d:/software/ovi_2503a_s3trc/ovi_2503a_s3trc/plutommi/Customer/ResGenerator/gcctmp/ccgnaaaa.s 			page 145


 7034 5960 C7442408 		movl	$LC220, 8(%esp)
 7034      FB550000 
 7035 5968 C7442404 		movl	$LC1, 4(%esp)
 7035      3E000000 
 7036 5970 C7042403 		movl	$3, (%esp)
 7036      000000
 7037 5977 E8000000 		call	_reslog_adaptor_log
 7037      00
2604:mtk_resgenerator.cpp ****                 result= false;
 7039              	LM436:
 7040 597c C685CFF7 		movb	$0, -2097(%ebp)
 7040      FFFF00
 7041              	L218:
2605:mtk_resgenerator.cpp ****                 break;
2606:mtk_resgenerator.cpp ****             }
2607:mtk_resgenerator.cpp ****         }
2608:mtk_resgenerator.cpp ****     }
2609:mtk_resgenerator.cpp **** 
2610:mtk_resgenerator.cpp ****     for(int i = 0; i< CUST_RES_FILE_COUNT; i++){
 7043              	LM437:
 7044              	LBB59:
 7045 5983 C785C4F7 		movl	$0, -2108(%ebp)
 7045      FFFF0000 
 7045      0000
 7046              	L226:
 7047 598d 83BDC4F7 		cmpl	$3, -2108(%ebp)
 7047      FFFF03
 7048 5994 7E02     		jle	L229
 7049 5996 EB4C     		jmp	L227
 7050              	L229:
2611:mtk_resgenerator.cpp ****         /* close the files */
2612:mtk_resgenerator.cpp ****         if( out_file[i] != NULL)
 7052              	LM438:
 7053 5998 8B85C4F7 		movl	-2108(%ebp), %eax
 7053      FFFF
 7054 599e 83BC85D8 		cmpl	$0, -2088(%ebp,%eax,4)
 7054      F7FFFF00 
 7055 59a6 7432     		je	L228
2613:mtk_resgenerator.cpp ****         {
2614:mtk_resgenerator.cpp ****             fputs("#endif //!defined(__MMI_RESOURCE_IMAGE_GROUP_COMPRESS__) || defined(__MMI_RESOUR
 7057              	LM439:
 7058 59a8 8B85C4F7 		movl	-2108(%ebp), %eax
 7058      FFFF
 7059 59ae 8B8485D8 		movl	-2088(%ebp,%eax,4), %eax
 7059      F7FFFF
 7060 59b5 89442404 		movl	%eax, 4(%esp)
 7061 59b9 C7042420 		movl	$LC221, (%esp)
 7061      560000
 7062 59c0 E8000000 		call	_fputs
 7062      00
2615:mtk_resgenerator.cpp ****             fclose( out_file[i]);
 7064              	LM440:
 7065 59c5 8B85C4F7 		movl	-2108(%ebp), %eax
 7065      FFFF
 7066 59cb 8B8485D8 		movl	-2088(%ebp,%eax,4), %eax
 7066      F7FFFF
 7067 59d2 890424   		movl	%eax, (%esp)
GAS LISTING d:/software/ovi_2503a_s3trc/ovi_2503a_s3trc/plutommi/Customer/ResGenerator/gcctmp/ccgnaaaa.s 			page 146


 7068 59d5 E8000000 		call	_fclose
 7068      00
 7070              	LM441:
 7071              	L228:
 7072 59da 8D85C4F7 		leal	-2108(%ebp), %eax
 7072      FFFF
 7073 59e0 FF00     		incl	(%eax)
 7074 59e2 EBA9     		jmp	L226
 7075              	L227:
2616:mtk_resgenerator.cpp ****         }
2617:mtk_resgenerator.cpp ****     }
2618:mtk_resgenerator.cpp **** 
2619:mtk_resgenerator.cpp ****     return result;
 7077              	LM442:
 7078              	LBE59:
 7079 59e4 0FB685CF 		movzbl	-2097(%ebp), %eax
 7079      F7FFFF
 7080 59eb 8985C0F7 		movl	%eax, -2112(%ebp)
 7080      FFFF
2620:mtk_resgenerator.cpp **** }
 7082              	LM443:
 7083              	L199:
 7084              	LBE51:
 7085 59f1 8B85C0F7 		movl	-2112(%ebp), %eax
 7085      FFFF
 7086 59f7 C9       		leave
 7087 59f8 C3       		ret
 7109              	Lscope23:
 7111              	.lcomm _ZZ13get_img_countP6_iobufE9const_num,16
 7112              	LC222:
 7113 59f9 67657420 		.ascii "get image count failed, L=%d\12\0"
 7113      696D6167 
 7113      6520636F 
 7113      756E7420 
 7113      6661696C 
 7114 5a17 90       		.align 2
 7117              	.globl __Z13get_img_countP6_iobuf
 7119              	__Z13get_img_countP6_iobuf:
2621:mtk_resgenerator.cpp **** #endif ////RESGEN_IMG_SPLIT_OUTPUT_ROUND_ROBIN
2622:mtk_resgenerator.cpp **** 
2623:mtk_resgenerator.cpp **** int get_img_count(FILE *fp)
2624:mtk_resgenerator.cpp **** {
 7121              	LM444:
 7122 5a18 55       		pushl	%ebp
 7123 5a19 89E5     		movl	%esp, %ebp
 7124 5a1b 81EC2804 		subl	$1064, %esp
 7124      0000
2625:mtk_resgenerator.cpp ****     char buffer[1024];
2626:mtk_resgenerator.cpp ****     static int const_num = 0;
2627:mtk_resgenerator.cpp **** 
2628:mtk_resgenerator.cpp ****     if(fp == NULL)
 7126              	LM445:
 7127              	LBB60:
 7128 5a21 837D0800 		cmpl	$0, 8(%ebp)
 7129 5a25 750F     		jne	L232
2629:mtk_resgenerator.cpp ****         return -1;
 7131              	LM446:
GAS LISTING d:/software/ovi_2503a_s3trc/ovi_2503a_s3trc/plutommi/Customer/ResGenerator/gcctmp/ccgnaaaa.s 			page 147


 7132 5a27 C785F4FB 		movl	$-1, -1036(%ebp)
 7132      FFFFFFFF 
 7132      FFFF
 7133 5a31 E98C0000 		jmp	L231
 7133      00
 7134              	L232:
 7135 5a36 90       		nop
2630:mtk_resgenerator.cpp **** 
2631:mtk_resgenerator.cpp ****     while(!feof(fp))
 7137              	LM447:
 7138              	L233:
 7139 5a37 8B4508   		movl	8(%ebp), %eax
 7140 5a3a 890424   		movl	%eax, (%esp)
 7141 5a3d E8000000 		call	_feof
 7141      00
 7142 5a42 85C0     		testl	%eax, %eax
 7143 5a44 7402     		je	L235
 7144 5a46 EB6F     		jmp	L234
 7145              	L235:
2632:mtk_resgenerator.cpp ****     {
2633:mtk_resgenerator.cpp ****         if((fgets(buffer, 1024, fp) != NULL))
 7147              	LM448:
 7148 5a48 8B4508   		movl	8(%ebp), %eax
 7149 5a4b 89442408 		movl	%eax, 8(%esp)
 7150 5a4f C7442404 		movl	$1024, 4(%esp)
 7150      00040000 
 7151 5a57 8D85F8FB 		leal	-1032(%ebp), %eax
 7151      FFFF
 7152 5a5d 890424   		movl	%eax, (%esp)
 7153 5a60 E8000000 		call	_fgets
 7153      00
 7154 5a65 85C0     		testl	%eax, %eax
 7155 5a67 7422     		je	L236
2634:mtk_resgenerator.cpp ****         {
2635:mtk_resgenerator.cpp ****             if(strstr(buffer, "U8") != NULL)
 7157              	LM449:
 7158 5a69 C7442404 		movl	$LC216, 4(%esp)
 7158      54550000 
 7159 5a71 8D85F8FB 		leal	-1032(%ebp), %eax
 7159      FFFF
 7160 5a77 890424   		movl	%eax, (%esp)
 7161 5a7a E8000000 		call	__ZSt6strstrPcPKc
 7161      00
 7162 5a7f 85C0     		testl	%eax, %eax
 7163 5a81 74B4     		je	L233
2636:mtk_resgenerator.cpp ****             {
2637:mtk_resgenerator.cpp ****                 const_num++;
 7165              	LM450:
 7166 5a83 FF054800 		incl	_ZZ13get_img_countP6_iobufE9const_num
 7166      0000
 7167 5a89 EBAC     		jmp	L233
 7168              	L236:
2638:mtk_resgenerator.cpp ****             }
2639:mtk_resgenerator.cpp ****         }
2640:mtk_resgenerator.cpp ****         else
2641:mtk_resgenerator.cpp ****         {
2642:mtk_resgenerator.cpp ****             fprintf(stderr, "get image count failed, L=%d\n", __LINE__);
GAS LISTING d:/software/ovi_2503a_s3trc/ovi_2503a_s3trc/plutommi/Customer/ResGenerator/gcctmp/ccgnaaaa.s 			page 148


 7170              	LM451:
 7171 5a8b C7442408 		movl	$2642, 8(%esp)
 7171      520A0000 
 7172 5a93 C7442404 		movl	$LC222, 4(%esp)
 7172      F9590000 
 7173 5a9b A1000000 		movl	__imp___iob, %eax
 7173      00
 7174 5aa0 83C040   		addl	$64, %eax
 7175 5aa3 890424   		movl	%eax, (%esp)
 7176 5aa6 E8000000 		call	_fprintf
 7176      00
2643:mtk_resgenerator.cpp ****             return -1;
 7178              	LM452:
 7179 5aab C785F4FB 		movl	$-1, -1036(%ebp)
 7179      FFFFFFFF 
 7179      FFFF
 7180 5ab5 EB0B     		jmp	L231
 7181              	L234:
2644:mtk_resgenerator.cpp ****         }
2645:mtk_resgenerator.cpp **** 
2646:mtk_resgenerator.cpp ****     }
2647:mtk_resgenerator.cpp **** 
2648:mtk_resgenerator.cpp ****     return const_num;
 7183              	LM453:
 7184 5ab7 A1480000 		movl	_ZZ13get_img_countP6_iobufE9const_num, %eax
 7184      00
 7185 5abc 8985F4FB 		movl	%eax, -1036(%ebp)
 7185      FFFF
2649:mtk_resgenerator.cpp **** }
 7187              	LM454:
 7188              	L231:
 7189              	LBE60:
 7190 5ac2 8B85F4FB 		movl	-1036(%ebp), %eax
 7190      FFFF
 7191 5ac8 C9       		leave
 7192 5ac9 C3       		ret
 7197              	Lscope24:
 7199 5aca 90909090 		.align 32
 7199      90909090 
 7199      90909090 
 7199      90909090 
 7199      90909090 
 7200              	LC223:
 7201 5ae0 73706C69 		.ascii "split_img_data_file(): split custimgdatahw.h into CustImgDataRes_[0..3]\0"
 7201      745F696D 
 7201      675F6461 
 7201      74615F66 
 7201      696C6528 
 7202              	LC224:
 7203 5b28 7200     		.ascii "r\0"
 7204 5b2a 90909090 		.align 32
 7204      90909090 
 7204      90909090 
 7204      90909090 
 7204      90909090 
 7205              	LC225:
 7206 5b40 2E2E5C2E 		.ascii "..\\..\\customer\\custresource\\custimgdatahw.h\0"
GAS LISTING d:/software/ovi_2503a_s3trc/ovi_2503a_s3trc/plutommi/Customer/ResGenerator/gcctmp/ccgnaaaa.s 			page 149


 7206      2E5C6375 
 7206      73746F6D 
 7206      65725C63 
 7206      75737472 
 7207 5b6c 90909090 		.align 32
 7207      90909090 
 7207      90909090 
 7207      90909090 
 7207      90909090 
 7208              	LC226:
 7209 5b80 53504C49 		.ascii "SPLIT:can not open file: custimgdatahw.h\12\0"
 7209      543A6361 
 7209      6E206E6F 
 7209      74206F70 
 7209      656E2066 
 7210              	LC227:
 7211 5baa 772B00   		.ascii "w+\0"
 7212 5bad 90909090 		.align 32
 7212      90909090 
 7212      90909090 
 7212      90909090 
 7212      909090
 7213              	LC228:
 7214 5bc0 2E2E5C2E 		.ascii "..\\..\\customer\\custresource\\tmp_imgdata.h\0"
 7214      2E5C6375 
 7214      73746F6D 
 7214      65725C63 
 7214      75737472 
 7215 5bea 90909090 		.align 32
 7215      90909090 
 7215      90909090 
 7215      90909090 
 7215      90909090 
 7216              	LC229:
 7217 5c00 53504C49 		.ascii "SPLIT:can not open file: tmp_imgdata.h\12\0"
 7217      543A6361 
 7217      6E206E6F 
 7217      74206F70 
 7217      656E2066 
 7218 5c28 90909090 		.align 32
 7218      90909090 
 7218      90909090 
 7218      90909090 
 7218      90909090 
 7219              	LC230:
 7220 5c40 2369666E 		.ascii "#ifndef __CUST_IMG_DATA_HW_H_\12\0"
 7220      64656620 
 7220      5F5F4355 
 7220      53545F49 
 7220      4D475F44 
 7221 5c5f 90       		.align 32
 7222              	LC231:
 7223 5c60 23646566 		.ascii "#define __CUST_IMG_DATA_HW_H_\12\0"
 7223      696E6520 
 7223      5F5F4355 
 7223      53545F49 
 7223      4D475F44 
GAS LISTING d:/software/ovi_2503a_s3trc/ovi_2503a_s3trc/plutommi/Customer/ResGenerator/gcctmp/ccgnaaaa.s 			page 150


 7224 5c7f 90       		.align 32
 7225              	LC232:
 7226 5c80 23696E63 		.ascii "#include \"CustDataRes.h\"\12#include \"ResCompressConfig.h\"\12\12\0"
 7226      6C756465 
 7226      20224375 
 7226      73744461 
 7226      74615265 
 7227 5cba 8DB60000 		.align 32
 7227      0000
 7228              	LC233:
 7229 5cc0 23656E64 		.ascii "#endif // !defined(__MMI_RESOURCE_IMAGE_GROUP_COMPRESS__) || defined(__MMI_RESOURCE_UT_UNC
 7229      6966202F 
 7229      2F202164 
 7229      6566696E 
 7229      6564285F 
 7230 5d37 89F68DBC 		.align 32
 7230      27000000 
 7230      00
 7231              	LC234:
 7232 5d40 23656E64 		.ascii "#endif /* __CUST_IMG_DATA_HW_H_ */\0"
 7232      6966202F 
 7232      2A205F5F 
 7232      43555354 
 7232      5F494D47 
 7233              	LC235:
 7234 5d63 73706C69 		.ascii "split file failed, Line=%d\0"
 7234      74206669 
 7234      6C652066 
 7234      61696C65 
 7234      642C204C 
 7235              	LC236:
 7236 5d7e 73706C69 		.ascii "split file successfully!!\12\0"
 7236      74206669 
 7236      6C652073 
 7236      75636365 
 7236      73736675 
 7237 5d99 8DB42600 		.align 32
 7237      000000
 7238              	LC237:
 7239 5da0 67656E65 		.ascii "generate image data file failed. %d\0"
 7239      72617465 
 7239      20696D61 
 7239      67652064 
 7239      61746120 
 7240 5dc4 90909090 		.align 32
 7240      90909090 
 7240      90909090 
 7240      90909090 
 7240      90909090 
 7241              	LC238:
 7242 5de0 2E2E5C2E 		.ascii "..\\..\\customer\\custresource\\custimgdatahwBak.h\0"
 7242      2E5C6375 
 7242      73746F6D 
 7242      65725C63 
 7242      75737472 
 7243              	LC239:
 7244 5e0f 64656C20 		.ascii "del %s\0"
GAS LISTING d:/software/ovi_2503a_s3trc/ovi_2503a_s3trc/plutommi/Customer/ResGenerator/gcctmp/ccgnaaaa.s 			page 151


 7244      257300
 7245              	LC240:
 7246 5e16 72656E61 		.ascii "rename %s custimgdatahwBak.h\0"
 7246      6D652025 
 7246      73206375 
 7246      7374696D 
 7246      67646174 
 7247              	LC241:
 7248 5e33 72656E61 		.ascii "rename %s custimgdatahw.h\0"
 7248      6D652025 
 7248      73206375 
 7248      7374696D 
 7248      67646174 
 7249 5e4d 90       		.align 2
 7251              	.globl __Z19split_img_data_filev
 7253              	__Z19split_img_data_filev:
2650:mtk_resgenerator.cpp **** 
2651:mtk_resgenerator.cpp **** bool split_img_data_file()
2652:mtk_resgenerator.cpp **** {   
 7255              	LM455:
 7256 5e4e 55       		pushl	%ebp
 7257 5e4f 89E5     		movl	%esp, %ebp
 7258 5e51 81EC4808 		subl	$2120, %esp
 7258      0000
2653:mtk_resgenerator.cpp ****     FILE *fp = NULL;
 7260              	LM456:
 7261              	LBB61:
 7262 5e57 C745F400 		movl	$0, -12(%ebp)
 7262      000000
2654:mtk_resgenerator.cpp ****     FILE *wfp = NULL;
 7264              	LM457:
 7265 5e5e C745F000 		movl	$0, -16(%ebp)
 7265      000000
2655:mtk_resgenerator.cpp ****     int header_num = 0;
 7267              	LM458:
 7268 5e65 C745EC00 		movl	$0, -20(%ebp)
 7268      000000
2656:mtk_resgenerator.cpp ****     char buffer[2048];
2657:mtk_resgenerator.cpp ****     char *tmp_buff = NULL;
 7270              	LM459:
 7271 5e6c C785E4F7 		movl	$0, -2076(%ebp)
 7271      FFFF0000 
 7271      0000
2658:mtk_resgenerator.cpp ****     int len = strlen(REP_HEADER);
 7273              	LM460:
 7274 5e76 C7042433 		movl	$_REP_HEADER, (%esp)
 7274      920000
 7275 5e7d E8000000 		call	_strlen
 7275      00
 7276 5e82 8985E0F7 		movl	%eax, -2080(%ebp)
 7276      FFFF
2659:mtk_resgenerator.cpp ****     int img_count = -1;
 7278              	LM461:
 7279 5e88 C785DCF7 		movl	$-1, -2084(%ebp)
 7279      FFFFFFFF 
 7279      FFFF
2660:mtk_resgenerator.cpp **** 
GAS LISTING d:/software/ovi_2503a_s3trc/ovi_2503a_s3trc/plutommi/Customer/ResGenerator/gcctmp/ccgnaaaa.s 			page 152


2661:mtk_resgenerator.cpp ****     bool bjump = false;
 7281              	LM462:
 7282 5e92 C685DBF7 		movb	$0, -2085(%ebp)
 7282      FFFF00
2662:mtk_resgenerator.cpp **** 
2663:mtk_resgenerator.cpp ****     /* record header of split file:datahw.h */
2664:mtk_resgenerator.cpp ****     BUFFER_HEADER hp = NULL;
 7284              	LM463:
 7285 5e99 C785D4F7 		movl	$0, -2092(%ebp)
 7285      FFFF0000 
 7285      0000
2665:mtk_resgenerator.cpp ****     RESGEN_LOG_V("split_img_data_file(): split custimgdatahw.h into CustImgDataRes_[0..3]");
 7287              	LM464:
 7288 5ea3 C7442408 		movl	$LC223, 8(%esp)
 7288      E05A0000 
 7289 5eab C7442404 		movl	$LC1, 4(%esp)
 7289      3E000000 
 7290 5eb3 C7042401 		movl	$1, (%esp)
 7290      000000
 7291 5eba E8000000 		call	_reslog_adaptor_log
 7291      00
2666:mtk_resgenerator.cpp ****     hp = (char(*)[1024]) malloc(32 * sizeof(char) * 1024);
 7293              	LM465:
 7294 5ebf C7042400 		movl	$32768, (%esp)
 7294      800000
 7295 5ec6 E8000000 		call	_malloc
 7295      00
 7296 5ecb 8985D4F7 		movl	%eax, -2092(%ebp)
 7296      FFFF
2667:mtk_resgenerator.cpp **** 
2668:mtk_resgenerator.cpp ****     fp = fopen(CUST_IMG_DATA_FILE, "r");
 7298              	LM466:
 7299 5ed1 C7442404 		movl	$LC224, 4(%esp)
 7299      285B0000 
 7300 5ed9 C7042440 		movl	$LC225, (%esp)
 7300      5B0000
 7301 5ee0 E8000000 		call	_fopen
 7301      00
 7302 5ee5 8945F4   		movl	%eax, -12(%ebp)
2669:mtk_resgenerator.cpp ****     if(fp == NULL)
 7304              	LM467:
 7305 5ee8 837DF400 		cmpl	$0, -12(%ebp)
 7306 5eec 7527     		jne	L240
2670:mtk_resgenerator.cpp ****     {
2671:mtk_resgenerator.cpp ****         fprintf(stderr, "SPLIT:can not open file: custimgdatahw.h\n");
 7308              	LM468:
 7309 5eee C7442404 		movl	$LC226, 4(%esp)
 7309      805B0000 
 7310 5ef6 A1000000 		movl	__imp___iob, %eax
 7310      00
 7311 5efb 83C040   		addl	$64, %eax
 7312 5efe 890424   		movl	%eax, (%esp)
 7313 5f01 E8000000 		call	_fprintf
 7313      00
2672:mtk_resgenerator.cpp ****         return false;
 7315              	LM469:
 7316 5f06 C785CCF7 		movl	$0, -2100(%ebp)
GAS LISTING d:/software/ovi_2503a_s3trc/ovi_2503a_s3trc/plutommi/Customer/ResGenerator/gcctmp/ccgnaaaa.s 			page 153


 7316      FFFF0000 
 7316      0000
 7317 5f10 E9630300 		jmp	L239
 7317      00
 7318              	L240:
2673:mtk_resgenerator.cpp ****     }
2674:mtk_resgenerator.cpp **** 
2675:mtk_resgenerator.cpp ****     wfp = fopen(CUST_IMG_HEADER_FILE, "w+");
 7320              	LM470:
 7321 5f15 C7442404 		movl	$LC227, 4(%esp)
 7321      AA5B0000 
 7322 5f1d C70424C0 		movl	$LC228, (%esp)
 7322      5B0000
 7323 5f24 E8000000 		call	_fopen
 7323      00
 7324 5f29 8945F0   		movl	%eax, -16(%ebp)
2676:mtk_resgenerator.cpp ****     if(wfp == NULL)
 7326              	LM471:
 7327 5f2c 837DF000 		cmpl	$0, -16(%ebp)
 7328 5f30 7532     		jne	L241
2677:mtk_resgenerator.cpp ****     {
2678:mtk_resgenerator.cpp ****         fprintf(stderr, "SPLIT:can not open file: tmp_imgdata.h\n");
 7330              	LM472:
 7331 5f32 C7442404 		movl	$LC229, 4(%esp)
 7331      005C0000 
 7332 5f3a A1000000 		movl	__imp___iob, %eax
 7332      00
 7333 5f3f 83C040   		addl	$64, %eax
 7334 5f42 890424   		movl	%eax, (%esp)
 7335 5f45 E8000000 		call	_fprintf
 7335      00
2679:mtk_resgenerator.cpp ****         fclose(fp);
 7337              	LM473:
 7338 5f4a 8B45F4   		movl	-12(%ebp), %eax
 7339 5f4d 890424   		movl	%eax, (%esp)
 7340 5f50 E8000000 		call	_fclose
 7340      00
2680:mtk_resgenerator.cpp ****         return false;
 7342              	LM474:
 7343 5f55 C785CCF7 		movl	$0, -2100(%ebp)
 7343      FFFF0000 
 7343      0000
 7344 5f5f E9140300 		jmp	L239
 7344      00
 7345              	L241:
2681:mtk_resgenerator.cpp ****     }
2682:mtk_resgenerator.cpp **** 
2683:mtk_resgenerator.cpp ****     /* add include guard */
2684:mtk_resgenerator.cpp ****     fputs("#ifndef __CUST_IMG_DATA_HW_H_\n", wfp);
 7347              	LM475:
 7348 5f64 8B45F0   		movl	-16(%ebp), %eax
 7349 5f67 89442404 		movl	%eax, 4(%esp)
 7350 5f6b C7042440 		movl	$LC230, (%esp)
 7350      5C0000
 7351 5f72 E8000000 		call	_fputs
 7351      00
2685:mtk_resgenerator.cpp ****     fputs("#define __CUST_IMG_DATA_HW_H_\n", wfp);
GAS LISTING d:/software/ovi_2503a_s3trc/ovi_2503a_s3trc/plutommi/Customer/ResGenerator/gcctmp/ccgnaaaa.s 			page 154


 7353              	LM476:
 7354 5f77 8B45F0   		movl	-16(%ebp), %eax
 7355 5f7a 89442404 		movl	%eax, 4(%esp)
 7356 5f7e C7042460 		movl	$LC231, (%esp)
 7356      5C0000
 7357 5f85 E8000000 		call	_fputs
 7357      00
2686:mtk_resgenerator.cpp ****     fputs("#include \"CustDataRes.h\"\n#include \"ResCompressConfig.h\"\n\n", wfp);
 7359              	LM477:
 7360 5f8a 8B45F0   		movl	-16(%ebp), %eax
 7361 5f8d 89442404 		movl	%eax, 4(%esp)
 7362 5f91 C7042480 		movl	$LC232, (%esp)
 7362      5C0000
 7363 5f98 E8000000 		call	_fputs
 7363      00
2687:mtk_resgenerator.cpp ****     fputs("#if !defined(__MMI_RESOURCE_IMAGE_GROUP_COMPRESS__) || defined(__MMI_RESOURCE_UT_UNCOMPR
 7365              	LM478:
 7366 5f9d 8B45F0   		movl	-16(%ebp), %eax
 7367 5fa0 89442404 		movl	%eax, 4(%esp)
 7368 5fa4 C70424A0 		movl	$LC64, (%esp)
 7368      170000
 7369 5fab E8000000 		call	_fputs
 7369      00
2688:mtk_resgenerator.cpp **** 			
2689:mtk_resgenerator.cpp ****     char *cache = buffer + len + 1;
 7371              	LM479:
 7372 5fb0 8D85E8F7 		leal	-2072(%ebp), %eax
 7372      FFFF
 7373 5fb6 0385E0F7 		addl	-2080(%ebp), %eax
 7373      FFFF
 7374 5fbc 40       		incl	%eax
 7375 5fbd 8985D0F7 		movl	%eax, -2096(%ebp)
 7375      FFFF
2690:mtk_resgenerator.cpp ****     while(!feof(fp))
 7377              	LM480:
 7378              	L242:
 7379 5fc3 8B45F4   		movl	-12(%ebp), %eax
 7380 5fc6 890424   		movl	%eax, (%esp)
 7381 5fc9 E8000000 		call	_feof
 7381      00
 7382 5fce 85C0     		testl	%eax, %eax
 7383 5fd0 7405     		je	L244
 7384 5fd2 E98C0000 		jmp	L243
 7384      00
 7385              	L244:
2691:mtk_resgenerator.cpp ****     {
2692:mtk_resgenerator.cpp ****         tmp_buff = fgets(/*buffer + len + 1*/cache, 2048, fp);
 7387              	LM481:
 7388 5fd7 8B45F4   		movl	-12(%ebp), %eax
 7389 5fda 89442408 		movl	%eax, 8(%esp)
 7390 5fde C7442404 		movl	$2048, 4(%esp)
 7390      00080000 
 7391 5fe6 8B85D0F7 		movl	-2096(%ebp), %eax
 7391      FFFF
 7392 5fec 890424   		movl	%eax, (%esp)
 7393 5fef E8000000 		call	_fgets
 7393      00
GAS LISTING d:/software/ovi_2503a_s3trc/ovi_2503a_s3trc/plutommi/Customer/ResGenerator/gcctmp/ccgnaaaa.s 			page 155


 7394 5ff4 8985E4F7 		movl	%eax, -2076(%ebp)
 7394      FFFF
2693:mtk_resgenerator.cpp **** 
2694:mtk_resgenerator.cpp ****         /* get data from the original data header file */
2695:mtk_resgenerator.cpp ****         if(!bjump)
 7396              	LM482:
 7397 5ffa 80BDDBF7 		cmpb	$0, -2085(%ebp)
 7397      FFFF00
 7398 6001 7525     		jne	L245
2696:mtk_resgenerator.cpp ****         {
2697:mtk_resgenerator.cpp ****             bjump = get_file_headers(tmp_buff, &hp, &header_num);
 7400              	LM483:
 7401 6003 8D45EC   		leal	-20(%ebp), %eax
 7402 6006 89442408 		movl	%eax, 8(%esp)
 7403 600a 8D85D4F7 		leal	-2092(%ebp), %eax
 7403      FFFF
 7404 6010 89442404 		movl	%eax, 4(%esp)
 7405 6014 8B85E4F7 		movl	-2076(%ebp), %eax
 7405      FFFF
 7406 601a 890424   		movl	%eax, (%esp)
 7407 601d E836F5FF 		call	__Z16get_file_headersPcPPA1024_cPi
 7407      FF
 7408 6022 8885DBF7 		movb	%al, -2085(%ebp)
 7408      FFFF
 7409              	L245:
2698:mtk_resgenerator.cpp ****         }
2699:mtk_resgenerator.cpp **** 
2700:mtk_resgenerator.cpp ****         /* process data and generate new header */
2701:mtk_resgenerator.cpp ****         tmp_buff = process_line_buffer(tmp_buff);
 7411              	LM484:
 7412 6028 8B85E4F7 		movl	-2076(%ebp), %eax
 7412      FFFF
 7413 602e 890424   		movl	%eax, (%esp)
 7414 6031 E8FAF3FF 		call	__Z19process_line_bufferPc
 7414      FF
 7415 6036 8985E4F7 		movl	%eax, -2076(%ebp)
 7415      FFFF
2702:mtk_resgenerator.cpp ****         if(tmp_buff != NULL)
 7417              	LM485:
 7418 603c 83BDE4F7 		cmpl	$0, -2076(%ebp)
 7418      FFFF00
 7419 6043 0F847AFF 		je	L242
 7419      FFFF
2703:mtk_resgenerator.cpp ****         {
2704:mtk_resgenerator.cpp ****             fputs(tmp_buff, wfp);
 7421              	LM486:
 7422 6049 8B45F0   		movl	-16(%ebp), %eax
 7423 604c 89442404 		movl	%eax, 4(%esp)
 7424 6050 8B85E4F7 		movl	-2076(%ebp), %eax
 7424      FFFF
 7425 6056 890424   		movl	%eax, (%esp)
 7426 6059 E8000000 		call	_fputs
 7426      00
 7427 605e E960FFFF 		jmp	L242
 7427      FF
 7428              	L243:
2705:mtk_resgenerator.cpp ****         }
GAS LISTING d:/software/ovi_2503a_s3trc/ovi_2503a_s3trc/plutommi/Customer/ResGenerator/gcctmp/ccgnaaaa.s 			page 156


2706:mtk_resgenerator.cpp ****     }
2707:mtk_resgenerator.cpp **** 
2708:mtk_resgenerator.cpp ****     fputs("#endif // !defined(__MMI_RESOURCE_IMAGE_GROUP_COMPRESS__) || defined(__MMI_RESOURCE_UT_U
 7430              	LM487:
 7431 6063 8B45F0   		movl	-16(%ebp), %eax
 7432 6066 89442404 		movl	%eax, 4(%esp)
 7433 606a C70424C0 		movl	$LC233, (%esp)
 7433      5C0000
 7434 6071 E8000000 		call	_fputs
 7434      00
2709:mtk_resgenerator.cpp ****     fputs("#endif /* __CUST_IMG_DATA_HW_H_ */", wfp);
 7436              	LM488:
 7437 6076 8B45F0   		movl	-16(%ebp), %eax
 7438 6079 89442404 		movl	%eax, 4(%esp)
 7439 607d C7042440 		movl	$LC234, (%esp)
 7439      5D0000
 7440 6084 E8000000 		call	_fputs
 7440      00
2710:mtk_resgenerator.cpp **** 
2711:mtk_resgenerator.cpp ****     /* get the image total count */
2712:mtk_resgenerator.cpp ****     rewind(wfp);
 7442              	LM489:
 7443 6089 8B45F0   		movl	-16(%ebp), %eax
 7444 608c 890424   		movl	%eax, (%esp)
 7445 608f E8000000 		call	_rewind
 7445      00
2713:mtk_resgenerator.cpp ****     img_count = get_img_count(wfp); /* get image count */
 7447              	LM490:
 7448 6094 8B45F0   		movl	-16(%ebp), %eax
 7449 6097 890424   		movl	%eax, (%esp)
 7450 609a E879F9FF 		call	__Z13get_img_countP6_iobuf
 7450      FF
 7451 609f 8985DCF7 		movl	%eax, -2084(%ebp)
 7451      FFFF
2714:mtk_resgenerator.cpp ****     /* error process */
2715:mtk_resgenerator.cpp ****     if(img_count == -1)
 7453              	LM491:
 7454 60a5 83BDDCF7 		cmpl	$-1, -2084(%ebp)
 7454      FFFFFF
 7455 60ac 7520     		jne	L247
2716:mtk_resgenerator.cpp ****         fprintf(stderr, "split file failed, Line=%d", __LINE__);
 7457              	LM492:
 7458 60ae C7442408 		movl	$2716, 8(%esp)
 7458      9C0A0000 
 7459 60b6 C7442404 		movl	$LC235, 4(%esp)
 7459      635D0000 
 7460 60be A1000000 		movl	__imp___iob, %eax
 7460      00
 7461 60c3 83C040   		addl	$64, %eax
 7462 60c6 890424   		movl	%eax, (%esp)
 7463 60c9 E8000000 		call	_fprintf
 7463      00
 7464              	L247:
2717:mtk_resgenerator.cpp **** 
2718:mtk_resgenerator.cpp ****     /* generate data file of image */
2719:mtk_resgenerator.cpp ****     rewind(fp);
 7466              	LM493:
GAS LISTING d:/software/ovi_2503a_s3trc/ovi_2503a_s3trc/plutommi/Customer/ResGenerator/gcctmp/ccgnaaaa.s 			page 157


 7467 60ce 8B45F4   		movl	-12(%ebp), %eax
 7468 60d1 890424   		movl	%eax, (%esp)
 7469 60d4 E8000000 		call	_rewind
 7469      00
2720:mtk_resgenerator.cpp ****     if(generate_img_data_file(fp, hp, header_num, img_count))
 7471              	LM494:
 7472 60d9 8B85DCF7 		movl	-2084(%ebp), %eax
 7472      FFFF
 7473 60df 8944240C 		movl	%eax, 12(%esp)
 7474 60e3 8B45EC   		movl	-20(%ebp), %eax
 7475 60e6 89442408 		movl	%eax, 8(%esp)
 7476 60ea 8B85D4F7 		movl	-2092(%ebp), %eax
 7476      FFFF
 7477 60f0 89442404 		movl	%eax, 4(%esp)
 7478 60f4 8B45F4   		movl	-12(%ebp), %eax
 7479 60f7 890424   		movl	%eax, (%esp)
 7480 60fa E897F5FF 		call	__Z22generate_img_data_fileP6_iobufPA1024_cii
 7480      FF
 7481 60ff 84C0     		testb	%al, %al
 7482 6101 741A     		je	L248
2721:mtk_resgenerator.cpp ****     {
2722:mtk_resgenerator.cpp ****         fprintf(stderr, "split file successfully!!\n");
 7484              	LM495:
 7485 6103 C7442404 		movl	$LC236, 4(%esp)
 7485      7E5D0000 
 7486 610b A1000000 		movl	__imp___iob, %eax
 7486      00
 7487 6110 83C040   		addl	$64, %eax
 7488 6113 890424   		movl	%eax, (%esp)
 7489 6116 E8000000 		call	_fprintf
 7489      00
 7490 611b EB20     		jmp	L249
 7491              	L248:
2723:mtk_resgenerator.cpp ****     }
2724:mtk_resgenerator.cpp ****     else
2725:mtk_resgenerator.cpp ****     {
2726:mtk_resgenerator.cpp ****         fprintf(stderr, "generate image data file failed. %d", __LINE__);
 7493              	LM496:
 7494 611d C7442408 		movl	$2726, 8(%esp)
 7494      A60A0000 
 7495 6125 C7442404 		movl	$LC237, 4(%esp)
 7495      A05D0000 
 7496 612d A1000000 		movl	__imp___iob, %eax
 7496      00
 7497 6132 83C040   		addl	$64, %eax
 7498 6135 890424   		movl	%eax, (%esp)
 7499 6138 E8000000 		call	_fprintf
 7499      00
 7500              	L249:
2727:mtk_resgenerator.cpp ****     }
2728:mtk_resgenerator.cpp **** 
2729:mtk_resgenerator.cpp ****     fclose(fp);
 7502              	LM497:
 7503 613d 8B45F4   		movl	-12(%ebp), %eax
 7504 6140 890424   		movl	%eax, (%esp)
 7505 6143 E8000000 		call	_fclose
 7505      00
GAS LISTING d:/software/ovi_2503a_s3trc/ovi_2503a_s3trc/plutommi/Customer/ResGenerator/gcctmp/ccgnaaaa.s 			page 158


2730:mtk_resgenerator.cpp ****     fp = NULL;
 7507              	LM498:
 7508 6148 C745F400 		movl	$0, -12(%ebp)
 7508      000000
2731:mtk_resgenerator.cpp **** 
2732:mtk_resgenerator.cpp ****     fclose(wfp);
 7510              	LM499:
 7511 614f 8B45F0   		movl	-16(%ebp), %eax
 7512 6152 890424   		movl	%eax, (%esp)
 7513 6155 E8000000 		call	_fclose
 7513      00
2733:mtk_resgenerator.cpp ****     wfp = NULL;
 7515              	LM500:
 7516 615a C745F000 		movl	$0, -16(%ebp)
 7516      000000
2734:mtk_resgenerator.cpp **** 
2735:mtk_resgenerator.cpp ****     fp = fopen(CUST_IMG_DATA_O_FILE, "r");
 7518              	LM501:
 7519 6161 C7442404 		movl	$LC224, 4(%esp)
 7519      285B0000 
 7520 6169 C70424E0 		movl	$LC238, (%esp)
 7520      5D0000
 7521 6170 E8000000 		call	_fopen
 7521      00
 7522 6175 8945F4   		movl	%eax, -12(%ebp)
2736:mtk_resgenerator.cpp ****     if(fp != NULL)
 7524              	LM502:
 7525 6178 837DF400 		cmpl	$0, -12(%ebp)
 7526 617c 745C     		je	L250
2737:mtk_resgenerator.cpp ****     {
2738:mtk_resgenerator.cpp ****         fclose(fp);
 7528              	LM503:
 7529 617e 8B45F4   		movl	-12(%ebp), %eax
 7530 6181 890424   		movl	%eax, (%esp)
 7531 6184 E8000000 		call	_fclose
 7531      00
2739:mtk_resgenerator.cpp ****         fp = 0;
 7533              	LM504:
 7534 6189 C745F400 		movl	$0, -12(%ebp)
 7534      000000
2740:mtk_resgenerator.cpp ****         memset(buffer, 0, 2048);
 7536              	LM505:
 7537 6190 C7442408 		movl	$2048, 8(%esp)
 7537      00080000 
 7538 6198 C7442404 		movl	$0, 4(%esp)
 7538      00000000 
 7539 61a0 8D85E8F7 		leal	-2072(%ebp), %eax
 7539      FFFF
 7540 61a6 890424   		movl	%eax, (%esp)
 7541 61a9 E8000000 		call	_memset
 7541      00
2741:mtk_resgenerator.cpp ****         sprintf(buffer, "del %s", CUST_IMG_DATA_O_FILE);
 7543              	LM506:
 7544 61ae C7442408 		movl	$LC238, 8(%esp)
 7544      E05D0000 
 7545 61b6 C7442404 		movl	$LC239, 4(%esp)
 7545      0F5E0000 
GAS LISTING d:/software/ovi_2503a_s3trc/ovi_2503a_s3trc/plutommi/Customer/ResGenerator/gcctmp/ccgnaaaa.s 			page 159


 7546 61be 8D85E8F7 		leal	-2072(%ebp), %eax
 7546      FFFF
 7547 61c4 890424   		movl	%eax, (%esp)
 7548 61c7 E8000000 		call	_sprintf
 7548      00
2742:mtk_resgenerator.cpp ****         execute_ext_command(buffer);
 7550              	LM507:
 7551 61cc 8D85E8F7 		leal	-2072(%ebp), %eax
 7551      FFFF
 7552 61d2 890424   		movl	%eax, (%esp)
 7553 61d5 E8000000 		call	_execute_ext_command
 7553      00
 7554              	L250:
2743:mtk_resgenerator.cpp ****     }
2744:mtk_resgenerator.cpp **** 
2745:mtk_resgenerator.cpp ****     memset(buffer, 0, 2048);
 7556              	LM508:
 7557 61da C7442408 		movl	$2048, 8(%esp)
 7557      00080000 
 7558 61e2 C7442404 		movl	$0, 4(%esp)
 7558      00000000 
 7559 61ea 8D85E8F7 		leal	-2072(%ebp), %eax
 7559      FFFF
 7560 61f0 890424   		movl	%eax, (%esp)
 7561 61f3 E8000000 		call	_memset
 7561      00
2746:mtk_resgenerator.cpp ****     sprintf(buffer, "rename %s custimgdatahwBak.h", CUST_IMG_DATA_FILE);
 7563              	LM509:
 7564 61f8 C7442408 		movl	$LC225, 8(%esp)
 7564      405B0000 
 7565 6200 C7442404 		movl	$LC240, 4(%esp)
 7565      165E0000 
 7566 6208 8D85E8F7 		leal	-2072(%ebp), %eax
 7566      FFFF
 7567 620e 890424   		movl	%eax, (%esp)
 7568 6211 E8000000 		call	_sprintf
 7568      00
2747:mtk_resgenerator.cpp ****     execute_ext_command(buffer);
 7570              	LM510:
 7571 6216 8D85E8F7 		leal	-2072(%ebp), %eax
 7571      FFFF
 7572 621c 890424   		movl	%eax, (%esp)
 7573 621f E8000000 		call	_execute_ext_command
 7573      00
2748:mtk_resgenerator.cpp **** 
2749:mtk_resgenerator.cpp ****     /* generate new extern data file */
2750:mtk_resgenerator.cpp ****     memset(buffer, 0, 2048);
 7575              	LM511:
 7576 6224 C7442408 		movl	$2048, 8(%esp)
 7576      00080000 
 7577 622c C7442404 		movl	$0, 4(%esp)
 7577      00000000 
 7578 6234 8D85E8F7 		leal	-2072(%ebp), %eax
 7578      FFFF
 7579 623a 890424   		movl	%eax, (%esp)
 7580 623d E8000000 		call	_memset
 7580      00
GAS LISTING d:/software/ovi_2503a_s3trc/ovi_2503a_s3trc/plutommi/Customer/ResGenerator/gcctmp/ccgnaaaa.s 			page 160


2751:mtk_resgenerator.cpp ****     sprintf(buffer, "rename %s custimgdatahw.h", CUST_IMG_HEADER_FILE);
 7582              	LM512:
 7583 6242 C7442408 		movl	$LC228, 8(%esp)
 7583      C05B0000 
 7584 624a C7442404 		movl	$LC241, 4(%esp)
 7584      335E0000 
 7585 6252 8D85E8F7 		leal	-2072(%ebp), %eax
 7585      FFFF
 7586 6258 890424   		movl	%eax, (%esp)
 7587 625b E8000000 		call	_sprintf
 7587      00
2752:mtk_resgenerator.cpp ****     execute_ext_command(buffer);
 7589              	LM513:
 7590 6260 8D85E8F7 		leal	-2072(%ebp), %eax
 7590      FFFF
 7591 6266 890424   		movl	%eax, (%esp)
 7592 6269 E8000000 		call	_execute_ext_command
 7592      00
2753:mtk_resgenerator.cpp **** 
2754:mtk_resgenerator.cpp ****     return true;
 7594              	LM514:
 7595 626e C785CCF7 		movl	$1, -2100(%ebp)
 7595      FFFF0100 
 7595      0000
2755:mtk_resgenerator.cpp **** }
 7597              	LM515:
 7598              	L239:
 7599              	LBE61:
 7600 6278 8B85CCF7 		movl	-2100(%ebp), %eax
 7600      FFFF
 7601 627e C9       		leave
 7602 627f C3       		ret
 7615              	Lscope25:
 7617              		.data
 7618              		.align 4
 7619              	_g_error:
 7620 0010 FFFFFFFF 		.long	-1
 7621              		.text
 7622              		.align 2
 7625              	__Z22launch_resgen_servicesv:
2756:mtk_resgenerator.cpp **** 
2757:mtk_resgenerator.cpp **** /* end split image data */
2758:mtk_resgenerator.cpp **** 
2759:mtk_resgenerator.cpp **** extern "C" void ToolPopulateInitial(void);
2760:mtk_resgenerator.cpp **** extern "C" void ToolPopulateDone(void);
2761:mtk_resgenerator.cpp **** extern "C" MMI_BOOL Aload(S8 *string, U16* pType);
2762:mtk_resgenerator.cpp **** 
2763:mtk_resgenerator.cpp **** #ifdef __MMI_RESOURCE_ENFB_SUPPORT__
2764:mtk_resgenerator.cpp **** extern "C" int disableENFB;
2765:mtk_resgenerator.cpp **** #endif
2766:mtk_resgenerator.cpp **** 
2767:mtk_resgenerator.cpp **** 
2768:mtk_resgenerator.cpp **** static S32 g_error = -1;
2769:mtk_resgenerator.cpp **** 
2770:mtk_resgenerator.cpp **** static void launch_resgen_services(){
 7627              	LM516:
 7628 6280 55       		pushl	%ebp
GAS LISTING d:/software/ovi_2503a_s3trc/ovi_2503a_s3trc/plutommi/Customer/ResGenerator/gcctmp/ccgnaaaa.s 			page 161


 7629 6281 89E5     		movl	%esp, %ebp
 7630 6283 83EC18   		subl	$24, %esp
2771:mtk_resgenerator.cpp ****     int debugLevelCfg = RES_LOG_LEVEL_VERBOSE;
 7632              	LM517:
 7633              	LBB62:
 7634 6286 C745FC01 		movl	$1, -4(%ebp)
 7634      000000
2772:mtk_resgenerator.cpp **** 
2773:mtk_resgenerator.cpp ****     // Start Resgen Log service
2774:mtk_resgenerator.cpp ****     reslog_adaptor_start_service();
 7636              	LM518:
 7637 628d E8000000 		call	_reslog_adaptor_start_service
 7637      00
2775:mtk_resgenerator.cpp **** 
2776:mtk_resgenerator.cpp ****     // Load configuration
2777:mtk_resgenerator.cpp ****     ResgenConfigurator *configObj = ResgenConfigurator::getInstance();
 7639              	LM519:
 7640 6292 E8000000 		call	__ZN18ResgenConfigurator11getInstanceEv
 7640      00
 7641 6297 8945F8   		movl	%eax, -8(%ebp)
2778:mtk_resgenerator.cpp ****     if(configObj!=NULL){
 7643              	LM520:
 7644 629a 837DF800 		cmpl	$0, -8(%ebp)
 7645 629e 7422     		je	L252
2779:mtk_resgenerator.cpp ****         configObj->loadConfiguration(ResgenConfigurator::DEFAULT_CONFIG_FILE);
 7647              	LM521:
 7648 62a0 A1000000 		movl	__ZN18ResgenConfigurator19DEFAULT_CONFIG_FILEE, %eax
 7648      00
 7649 62a5 89442404 		movl	%eax, 4(%esp)
 7650 62a9 8B45F8   		movl	-8(%ebp), %eax
 7651 62ac 890424   		movl	%eax, (%esp)
 7652 62af E8000000 		call	__ZN18ResgenConfigurator17loadConfigurationEPKc
 7652      00
2780:mtk_resgenerator.cpp ****         debugLevelCfg = configObj->getDebugLevel();
 7654              	LM522:
 7655 62b4 8B45F8   		movl	-8(%ebp), %eax
 7656 62b7 890424   		movl	%eax, (%esp)
 7657 62ba E8000000 		call	__ZN18ResgenConfigurator13getDebugLevelEv
 7657      00
 7658 62bf 8945FC   		movl	%eax, -4(%ebp)
 7659              	L252:
2781:mtk_resgenerator.cpp ****     }
2782:mtk_resgenerator.cpp **** 
2783:mtk_resgenerator.cpp ****     // Set default log level
2784:mtk_resgenerator.cpp ****     reslog_adaptor_set_max_level(debugLevelCfg);
 7661              	LM523:
 7662 62c2 8B45FC   		movl	-4(%ebp), %eax
 7663 62c5 890424   		movl	%eax, (%esp)
 7664 62c8 E8000000 		call	_reslog_adaptor_set_max_level
 7664      00
2785:mtk_resgenerator.cpp **** 
2786:mtk_resgenerator.cpp ****     // Create crush handling serice
2787:mtk_resgenerator.cpp ****     ResgenCrashHandlingService * crashHandlingObj = ResgenCrashHandlingService::getInstance();
 7666              	LM524:
 7667 62cd E8000000 		call	__ZN26ResgenCrashHandlingService11getInstanceEv
 7667      00
 7668 62d2 8945F4   		movl	%eax, -12(%ebp)
GAS LISTING d:/software/ovi_2503a_s3trc/ovi_2503a_s3trc/plutommi/Customer/ResGenerator/gcctmp/ccgnaaaa.s 			page 162


2788:mtk_resgenerator.cpp **** 
2789:mtk_resgenerator.cpp ****     // Start the service to catch regen crush exceptions
2790:mtk_resgenerator.cpp ****     crashHandlingObj->start();
 7670              	LM525:
 7671 62d5 8B45F4   		movl	-12(%ebp), %eax
 7672 62d8 890424   		movl	%eax, (%esp)
 7673 62db E8000000 		call	__ZN26ResgenCrashHandlingService5startEv
 7673      00
2791:mtk_resgenerator.cpp **** }
 7675              	LM526:
 7676 62e0 C9       		leave
 7677 62e1 C3       		ret
 7678              	LBE62:
 7684              	Lscope26:
 7686              	LC242:
 7687 62e2 6D746B5F 		.ascii "mtk_resgenerator.exe fail!\0"
 7687      72657367 
 7687      656E6572 
 7687      61746F72 
 7687      2E657865 
 7688 62fd 8D7600   		.align 32
 7689              	LC243:
 7690 6300 6D746B5F 		.ascii "mtk_resgenerator.exe failed, the error flag was set.\12\0"
 7690      72657367 
 7690      656E6572 
 7690      61746F72 
 7690      2E657865 
 7691 6336 8D76008D 		.align 32
 7691      BC270000 
 7691      0000
 7692              	LC244:
 7693 6340 50006C00 		.ascii "P\0l\0e\0a\0s\0e\0 \0c\0h\0e\0c\0k\0 \0p\0l\0u\0t\0o\0m\0m\0i\0\\\0C\0u\0s\0t\0o\0m\0e\0r\
 7693      65006100 
 7693      73006500 
 7693      20006300 
 7693      68006500 
 7694 63ec 90909090 		.align 32
 7694      90909090 
 7694      90909090 
 7694      90909090 
 7694      90909090 
 7695              	LC245:
 7696 6400 0A2D2D2D 		.ascii "\12--------------- REF LIST ERROR -------------------\12\0"
 7696      2D2D2D2D 
 7696      2D2D2D2D 
 7696      2D2D2D2D 
 7696      20524546 
 7697 6435 8D742600 		.align 32
 7697      8DBC2700 
 7697      000000
 7698              	LC246:
 7699 6440 506C6561 		.ascii "Please check plutommi\\Customer\\CustResource\\ref_list.txt for this error !\12\0"
 7699      73652063 
 7699      6865636B 
 7699      20706C75 
 7699      746F6D6D 
 7700 648b 90       		.align 2
GAS LISTING d:/software/ovi_2503a_s3trc/ovi_2503a_s3trc/plutommi/Customer/ResGenerator/gcctmp/ccgnaaaa.s 			page 163


 7701              	LC247:
 7702 648c 25006C00 		.ascii "%\0l\0s\0\12\0\0\0"
 7702      73000A00 
 7702      0000
 7703 6496 8D76008D 		.align 32
 7703      BC270000 
 7703      0000
 7704              	LC248:
 7705 64a0 0A2D2D2D 		.ascii "\12--------------------------------------------------\12\0"
 7705      2D2D2D2D 
 7705      2D2D2D2D 
 7705      2D2D2D2D 
 7705      2D2D2D2D 
 7706 64d5 8D742600 		.align 32
 7706      8DBC2700 
 7706      000000
 7707              	LC249:
 7708 64e0 50006C00 		.ascii "P\0l\0e\0a\0s\0e\0 \0c\0h\0e\0c\0k\0 \0p\0l\0u\0t\0o\0m\0m\0i\0\\\0C\0u\0s\0t\0o\0m\0e\0r\
 7708      65006100 
 7708      73006500 
 7708      20006300 
 7708      68006500 
 7709 65ca 90909090 		.align 32
 7709      90909090 
 7709      90909090 
 7709      90909090 
 7709      90909090 
 7710              	LC250:
 7711 65e0 506C6561 		.ascii "Please check plutommi\\Customer\\CustResource\\PLUTO_MMI\\ref_list\\ref_list_translation.t
 7711      73652063 
 7711      6865636B 
 7711      20706C75 
 7711      746F6D6D 
 7712              		.align 2
 7715              	__Z19handle_regen_errorsv:
2792:mtk_resgenerator.cpp **** 
2793:mtk_resgenerator.cpp **** // function handle_regen_errors will be phased not
2794:mtk_resgenerator.cpp **** // after all moudule are using resgen log framework API
2795:mtk_resgenerator.cpp **** static int handle_regen_errors(){
 7717              	LM527:
 7718 664c 55       		pushl	%ebp
 7719 664d 89E5     		movl	%esp, %ebp
 7720 664f 83EC28   		subl	$40, %esp
2796:mtk_resgenerator.cpp ****     wchar_t * err_msg = NULL;
 7722              	LM528:
 7723              	LBB63:
 7724 6652 C745FC00 		movl	$0, -4(%ebp)
 7724      000000
2797:mtk_resgenerator.cpp ****     int err_code = 0;
 7726              	LM529:
 7727 6659 C745F800 		movl	$0, -8(%ebp)
 7727      000000
2798:mtk_resgenerator.cpp ****     /* Check error in each module */
2799:mtk_resgenerator.cpp ****     if (mtk_resgen_has_error() )
 7729              	LM530:
 7730 6660 E8000000 		call	_mtk_resgen_has_error
 7730      00
GAS LISTING d:/software/ovi_2503a_s3trc/ovi_2503a_s3trc/plutommi/Customer/ResGenerator/gcctmp/ccgnaaaa.s 			page 164


 7731 6665 85C0     		testl	%eax, %eax
 7732 6667 7440     		je	L254
2800:mtk_resgenerator.cpp ****     {
2801:mtk_resgenerator.cpp ****         RESGEN_LOG_E("mtk_resgenerator.exe fail!");
 7734              	LM531:
 7735 6669 C7442408 		movl	$LC242, 8(%esp)
 7735      E2620000 
 7736 6671 C7442404 		movl	$LC1, 4(%esp)
 7736      3E000000 
 7737 6679 C7042403 		movl	$3, (%esp)
 7737      000000
 7738 6680 E8000000 		call	_reslog_adaptor_log
 7738      00
2802:mtk_resgenerator.cpp ****         fprintf(stderr, "mtk_resgenerator.exe failed, the error flag was set.\n");
 7740              	LM532:
 7741 6685 C7442404 		movl	$LC243, 4(%esp)
 7741      00630000 
 7742 668d A1000000 		movl	__imp___iob, %eax
 7742      00
 7743 6692 83C040   		addl	$64, %eax
 7744 6695 890424   		movl	%eax, (%esp)
 7745 6698 E8000000 		call	_fprintf
 7745      00
2803:mtk_resgenerator.cpp ****         return 1;
 7747              	LM533:
 7748 669d C745F401 		movl	$1, -12(%ebp)
 7748      000000
 7749 66a4 E9520100 		jmp	L253
 7749      00
 7750              	L254:
2804:mtk_resgenerator.cpp ****     }
2805:mtk_resgenerator.cpp **** 
2806:mtk_resgenerator.cpp ****     err_code = str_merge_get_err(&err_msg);
 7752              	LM534:
 7753 66a9 8D45FC   		leal	-4(%ebp), %eax
 7754 66ac 890424   		movl	%eax, (%esp)
 7755 66af E8000000 		call	_str_merge_get_err
 7755      00
 7756 66b4 8945F8   		movl	%eax, -8(%ebp)
2807:mtk_resgenerator.cpp **** 
2808:mtk_resgenerator.cpp ****     if(err_code == STRMERGE_LOAD_REF_LIST_ERR)
 7758              	LM535:
 7759 66b7 837DF801 		cmpl	$1, -8(%ebp)
 7760 66bb 0F859600 		jne	L255
 7760      0000
2809:mtk_resgenerator.cpp ****     {
2810:mtk_resgenerator.cpp ****         // Output to log file
2811:mtk_resgenerator.cpp ****         RESGEN_WLOG_E(L"Please check plutommi\\Customer\\CustResource\\ref_list.txt for this error 
 7762              	LM536:
 7763 66c1 8B45FC   		movl	-4(%ebp), %eax
 7764 66c4 8944240C 		movl	%eax, 12(%esp)
 7765 66c8 C7442408 		movl	$LC244, 8(%esp)
 7765      40630000 
 7766 66d0 C7442404 		movl	$LC1, 4(%esp)
 7766      3E000000 
 7767 66d8 C7042403 		movl	$3, (%esp)
 7767      000000
GAS LISTING d:/software/ovi_2503a_s3trc/ovi_2503a_s3trc/plutommi/Customer/ResGenerator/gcctmp/ccgnaaaa.s 			page 165


 7768 66df E8000000 		call	_reslog_adaptor_wlog
 7768      00
2812:mtk_resgenerator.cpp ****         // Show message in console
2813:mtk_resgenerator.cpp ****         fprintf(stderr,"\n--------------- REF LIST ERROR -------------------\n");
 7770              	LM537:
 7771 66e4 C7442404 		movl	$LC245, 4(%esp)
 7771      00640000 
 7772 66ec A1000000 		movl	__imp___iob, %eax
 7772      00
 7773 66f1 83C040   		addl	$64, %eax
 7774 66f4 890424   		movl	%eax, (%esp)
 7775 66f7 E8000000 		call	_fprintf
 7775      00
2814:mtk_resgenerator.cpp ****         fprintf(stderr,"Please check plutommi\\Customer\\CustResource\\ref_list.txt for this error 
 7777              	LM538:
 7778 66fc C7442404 		movl	$LC246, 4(%esp)
 7778      40640000 
 7779 6704 A1000000 		movl	__imp___iob, %eax
 7779      00
 7780 6709 83C040   		addl	$64, %eax
 7781 670c 890424   		movl	%eax, (%esp)
 7782 670f E8000000 		call	_fprintf
 7782      00
2815:mtk_resgenerator.cpp ****         fwprintf(stderr, L"%ls\n",err_msg);
 7784              	LM539:
 7785 6714 8B45FC   		movl	-4(%ebp), %eax
 7786 6717 89442408 		movl	%eax, 8(%esp)
 7787 671b C7442404 		movl	$LC247, 4(%esp)
 7787      8C640000 
 7788 6723 A1000000 		movl	__imp___iob, %eax
 7788      00
 7789 6728 83C040   		addl	$64, %eax
 7790 672b 890424   		movl	%eax, (%esp)
 7791 672e E8000000 		call	_fwprintf
 7791      00
2816:mtk_resgenerator.cpp ****         fprintf(stderr,"\n--------------------------------------------------\n");
 7793              	LM540:
 7794 6733 C7442404 		movl	$LC248, 4(%esp)
 7794      A0640000 
 7795 673b A1000000 		movl	__imp___iob, %eax
 7795      00
 7796 6740 83C040   		addl	$64, %eax
 7797 6743 890424   		movl	%eax, (%esp)
 7798 6746 E8000000 		call	_fprintf
 7798      00
2817:mtk_resgenerator.cpp ****         return 1;
 7800              	LM541:
 7801 674b C745F401 		movl	$1, -12(%ebp)
 7801      000000
 7802 6752 E9A40000 		jmp	L253
 7802      00
 7803              	L255:
2818:mtk_resgenerator.cpp ****     }
2819:mtk_resgenerator.cpp **** 
2820:mtk_resgenerator.cpp ****     if(err_code == STRMERGE_LOAD_SSC_ERR)
 7805              	LM542:
 7806 6757 837DF802 		cmpl	$2, -8(%ebp)
GAS LISTING d:/software/ovi_2503a_s3trc/ovi_2503a_s3trc/plutommi/Customer/ResGenerator/gcctmp/ccgnaaaa.s 			page 166


 7807 675b 0F859300 		jne	L256
 7807      0000
2821:mtk_resgenerator.cpp ****     {
2822:mtk_resgenerator.cpp ****         // Output to log file
2823:mtk_resgenerator.cpp ****         RESGEN_WLOG_E(L"Please check plutommi\\Customer\\CustResource\\PLUTO_MMI\\ref_list\\ref_lis
 7809              	LM543:
 7810 6761 8B45FC   		movl	-4(%ebp), %eax
 7811 6764 8944240C 		movl	%eax, 12(%esp)
 7812 6768 C7442408 		movl	$LC249, 8(%esp)
 7812      E0640000 
 7813 6770 C7442404 		movl	$LC1, 4(%esp)
 7813      3E000000 
 7814 6778 C7042403 		movl	$3, (%esp)
 7814      000000
 7815 677f E8000000 		call	_reslog_adaptor_wlog
 7815      00
2824:mtk_resgenerator.cpp ****         // Show message in console
2825:mtk_resgenerator.cpp ****         fprintf(stderr,"\n--------------- REF LIST ERROR -------------------\n");
 7817              	LM544:
 7818 6784 C7442404 		movl	$LC245, 4(%esp)
 7818      00640000 
 7819 678c A1000000 		movl	__imp___iob, %eax
 7819      00
 7820 6791 83C040   		addl	$64, %eax
 7821 6794 890424   		movl	%eax, (%esp)
 7822 6797 E8000000 		call	_fprintf
 7822      00
2826:mtk_resgenerator.cpp ****         fprintf(stderr,"Please check plutommi\\Customer\\CustResource\\PLUTO_MMI\\ref_list\\ref_lis
 7824              	LM545:
 7825 679c C7442404 		movl	$LC250, 4(%esp)
 7825      E0650000 
 7826 67a4 A1000000 		movl	__imp___iob, %eax
 7826      00
 7827 67a9 83C040   		addl	$64, %eax
 7828 67ac 890424   		movl	%eax, (%esp)
 7829 67af E8000000 		call	_fprintf
 7829      00
2827:mtk_resgenerator.cpp ****         fwprintf(stderr, L"%ls\n",err_msg);
 7831              	LM546:
 7832 67b4 8B45FC   		movl	-4(%ebp), %eax
 7833 67b7 89442408 		movl	%eax, 8(%esp)
 7834 67bb C7442404 		movl	$LC247, 4(%esp)
 7834      8C640000 
 7835 67c3 A1000000 		movl	__imp___iob, %eax
 7835      00
 7836 67c8 83C040   		addl	$64, %eax
 7837 67cb 890424   		movl	%eax, (%esp)
 7838 67ce E8000000 		call	_fwprintf
 7838      00
2828:mtk_resgenerator.cpp ****         fprintf(stderr,"\n--------------------------------------------------\n");
 7840              	LM547:
 7841 67d3 C7442404 		movl	$LC248, 4(%esp)
 7841      A0640000 
 7842 67db A1000000 		movl	__imp___iob, %eax
 7842      00
 7843 67e0 83C040   		addl	$64, %eax
 7844 67e3 890424   		movl	%eax, (%esp)
GAS LISTING d:/software/ovi_2503a_s3trc/ovi_2503a_s3trc/plutommi/Customer/ResGenerator/gcctmp/ccgnaaaa.s 			page 167


 7845 67e6 E8000000 		call	_fprintf
 7845      00
2829:mtk_resgenerator.cpp ****         return 1;
 7847              	LM548:
 7848 67eb C745F401 		movl	$1, -12(%ebp)
 7848      000000
 7849 67f2 EB07     		jmp	L253
 7850              	L256:
2830:mtk_resgenerator.cpp ****     }
2831:mtk_resgenerator.cpp ****     return 0;
 7852              	LM549:
 7853 67f4 C745F400 		movl	$0, -12(%ebp)
 7853      000000
2832:mtk_resgenerator.cpp **** }
 7855              	LM550:
 7856              	L253:
 7857              	LBE63:
 7858 67fb 8B45F4   		movl	-12(%ebp), %eax
 7859 67fe C9       		leave
 7860 67ff C3       		ret
 7865              	Lscope27:
 7867              		.align 2
 7870              	__Z18check_fatal_errorsv:
2833:mtk_resgenerator.cpp **** 
2834:mtk_resgenerator.cpp **** 
2835:mtk_resgenerator.cpp **** static int check_fatal_errors(){
 7872              	LM551:
 7873 6800 55       		pushl	%ebp
 7874 6801 89E5     		movl	%esp, %ebp
 7875 6803 83EC08   		subl	$8, %esp
2836:mtk_resgenerator.cpp ****     int hasPendingFatalError = reslog_adaptor_has_pending_fatal_error();
 7877              	LM552:
 7878              	LBB64:
 7879 6806 E8000000 		call	_reslog_adaptor_has_pending_fatal_error
 7879      00
 7880 680b 8945FC   		movl	%eax, -4(%ebp)
2837:mtk_resgenerator.cpp ****     if(hasPendingFatalError){
 7882              	LM553:
 7883 680e 837DFC00 		cmpl	$0, -4(%ebp)
 7884 6812 7405     		je	L258
2838:mtk_resgenerator.cpp ****         reslog_adaptor_flush_pending_fatal_error();
 7886              	LM554:
 7887 6814 E8000000 		call	_reslog_adaptor_flush_pending_fatal_error
 7887      00
 7888              	L258:
2839:mtk_resgenerator.cpp ****     }
2840:mtk_resgenerator.cpp ****     hasPendingFatalError |= handle_regen_errors();
 7890              	LM555:
 7891 6819 E82EFEFF 		call	__Z19handle_regen_errorsv
 7891      FF
 7892 681e 89C2     		movl	%eax, %edx
 7893 6820 8D45FC   		leal	-4(%ebp), %eax
 7894 6823 0910     		orl	%edx, (%eax)
2841:mtk_resgenerator.cpp ****     return hasPendingFatalError;
 7896              	LM556:
 7897 6825 8B45FC   		movl	-4(%ebp), %eax
2842:mtk_resgenerator.cpp **** }
GAS LISTING d:/software/ovi_2503a_s3trc/ovi_2503a_s3trc/plutommi/Customer/ResGenerator/gcctmp/ccgnaaaa.s 			page 168


 7899              	LM557:
 7900 6828 C9       		leave
 7901 6829 C3       		ret
 7902              	LBE64:
 7906              	Lscope28:
 7908              		.align 2
 7911              	__Z20stop_resgen_servicesv:
2843:mtk_resgenerator.cpp **** 
2844:mtk_resgenerator.cpp **** static void stop_resgen_services(){
 7913              	LM558:
 7914 682a 55       		pushl	%ebp
 7915 682b 89E5     		movl	%esp, %ebp
 7916 682d 83EC08   		subl	$8, %esp
2845:mtk_resgenerator.cpp ****     ResgenCrashHandlingService * crashHandlingObj = ResgenCrashHandlingService::getInstance();
 7918              	LM559:
 7919              	LBB65:
 7920 6830 E8000000 		call	__ZN26ResgenCrashHandlingService11getInstanceEv
 7920      00
 7921 6835 8945FC   		movl	%eax, -4(%ebp)
2846:mtk_resgenerator.cpp ****     crashHandlingObj->stop();
 7923              	LM560:
 7924 6838 8B45FC   		movl	-4(%ebp), %eax
 7925 683b 890424   		movl	%eax, (%esp)
 7926 683e E8000000 		call	__ZN26ResgenCrashHandlingService4stopEv
 7926      00
2847:mtk_resgenerator.cpp ****     ResgenConfigurator::release();
 7928              	LM561:
 7929 6843 E8000000 		call	__ZN18ResgenConfigurator7releaseEv
 7929      00
2848:mtk_resgenerator.cpp ****     reslog_adaptor_stop_service();
 7931              	LM562:
 7932 6848 E8000000 		call	_reslog_adaptor_stop_service
 7932      00
2849:mtk_resgenerator.cpp **** }
 7934              	LM563:
 7935 684d C9       		leave
 7936 684e C3       		ret
 7937              	LBE65:
 7941              	Lscope29:
 7943 684f 90909090 		.align 32
 7943      90909090 
 7943      90909090 
 7943      90909090 
 7943      90
 7944              	LC251:
 7945 6860 6D746B5F 		.ascii "mtk_resgenerator.exe execute successfully.\0"
 7945      72657367 
 7945      656E6572 
 7945      61746F72 
 7945      2E657865 
 7946 688b 90909090 		.align 32
 7946      90909090 
 7946      90909090 
 7946      90909090 
 7946      90909090 
 7947              	LC252:
 7948 68a0 6D746B5F 		.ascii "mtk_resgenerator.exe execute successfully.\12\0"
GAS LISTING d:/software/ovi_2503a_s3trc/ovi_2503a_s3trc/plutommi/Customer/ResGenerator/gcctmp/ccgnaaaa.s 			page 169


 7948      72657367 
 7948      656E6572 
 7948      61746F72 
 7948      2E657865 
 7949              		.align 2
 7952              	__Z14resgen_on_exitv:
2850:mtk_resgenerator.cpp **** 
2851:mtk_resgenerator.cpp **** 
2852:mtk_resgenerator.cpp **** /*****************************************************************************
2853:mtk_resgenerator.cpp **** * FUNCTION
2854:mtk_resgenerator.cpp **** *  on_exit
2855:mtk_resgenerator.cpp **** * DESCRIPTION
2856:mtk_resgenerator.cpp **** *  program exit function
2857:mtk_resgenerator.cpp **** * PARAMETERS
2858:mtk_resgenerator.cpp **** *  void
2859:mtk_resgenerator.cpp **** * RETURNS
2860:mtk_resgenerator.cpp **** *  void
2861:mtk_resgenerator.cpp **** *****************************************************************************/
2862:mtk_resgenerator.cpp **** static void resgen_on_exit(void)
2863:mtk_resgenerator.cpp **** {
 7954              	LM564:
 7955 68cc 55       		pushl	%ebp
 7956 68cd 89E5     		movl	%esp, %ebp
 7957 68cf 83EC18   		subl	$24, %esp
2864:mtk_resgenerator.cpp ****     /*----------------------------------------------------------------*/
2865:mtk_resgenerator.cpp ****     /* Local Variables                                                */
2866:mtk_resgenerator.cpp ****     /*----------------------------------------------------------------*/
2867:mtk_resgenerator.cpp **** 
2868:mtk_resgenerator.cpp ****     /*----------------------------------------------------------------*/
2869:mtk_resgenerator.cpp ****     /* Code Body                                                      */
2870:mtk_resgenerator.cpp ****     /*----------------------------------------------------------------*/
2871:mtk_resgenerator.cpp ****     fflush(stdout);
 7959              	LM565:
 7960 68d2 A1000000 		movl	__imp___iob, %eax
 7960      00
 7961              	LBB66:
 7962 68d7 83C020   		addl	$32, %eax
 7963 68da 890424   		movl	%eax, (%esp)
 7964 68dd E8000000 		call	_fflush
 7964      00
2872:mtk_resgenerator.cpp **** 
2873:mtk_resgenerator.cpp ****     int regenHasError = check_fatal_errors();
 7966              	LM566:
 7967 68e2 E819FFFF 		call	__Z18check_fatal_errorsv
 7967      FF
 7968 68e7 8945FC   		movl	%eax, -4(%ebp)
2874:mtk_resgenerator.cpp **** 
2875:mtk_resgenerator.cpp ****     if (g_error != -1 && regenHasError==0 )  // normal exit
 7970              	LM567:
 7971 68ea 833D1000 		cmpl	$-1, _g_error
 7971      0000FF
 7972 68f1 744B     		je	L261
 7973 68f3 837DFC00 		cmpl	$0, -4(%ebp)
 7974 68f7 7545     		jne	L261
2876:mtk_resgenerator.cpp ****     {
2877:mtk_resgenerator.cpp ****         RESGEN_LOG_V("mtk_resgenerator.exe execute successfully.");
 7976              	LM568:
GAS LISTING d:/software/ovi_2503a_s3trc/ovi_2503a_s3trc/plutommi/Customer/ResGenerator/gcctmp/ccgnaaaa.s 			page 170


 7977 68f9 C7442408 		movl	$LC251, 8(%esp)
 7977      60680000 
 7978 6901 C7442404 		movl	$LC1, 4(%esp)
 7978      3E000000 
 7979 6909 C7042401 		movl	$1, (%esp)
 7979      000000
 7980 6910 E8000000 		call	_reslog_adaptor_log
 7980      00
2878:mtk_resgenerator.cpp ****         fprintf(stderr, "mtk_resgenerator.exe execute successfully.\n");
 7982              	LM569:
 7983 6915 C7442404 		movl	$LC252, 4(%esp)
 7983      A0680000 
 7984 691d A1000000 		movl	__imp___iob, %eax
 7984      00
 7985 6922 83C040   		addl	$64, %eax
 7986 6925 890424   		movl	%eax, (%esp)
 7987 6928 E8000000 		call	_fprintf
 7987      00
2879:mtk_resgenerator.cpp ****         stop_resgen_services();
 7989              	LM570:
 7990 692d E8F8FEFF 		call	__Z20stop_resgen_servicesv
 7990      FF
2880:mtk_resgenerator.cpp ****         _exit(1);
 7992              	LM571:
 7993 6932 C7042401 		movl	$1, (%esp)
 7993      000000
 7994 6939 E8000000 		call	__exit
 7994      00
 7995              	L261:
2881:mtk_resgenerator.cpp ****     }
2882:mtk_resgenerator.cpp ****     else                // abnormal exit
2883:mtk_resgenerator.cpp ****     {
2884:mtk_resgenerator.cpp ****         stop_resgen_services();
 7997              	LM572:
 7998 693e E8E7FEFF 		call	__Z20stop_resgen_servicesv
 7998      FF
2885:mtk_resgenerator.cpp ****         _exit(2);
 8000              	LM573:
 8001 6943 C7042402 		movl	$2, (%esp)
 8001      000000
 8002 694a E8000000 		call	__exit
 8002      00
2886:mtk_resgenerator.cpp ****     }
2887:mtk_resgenerator.cpp **** }
 8004              	LM574:
 8005              	LBE66:
 8009              	Lscope30:
 8011 694f 90       		.align 2
 8017              	__Z14writeLogToFilePcS_i:
2888:mtk_resgenerator.cpp **** 
2889:mtk_resgenerator.cpp **** static void writeLogToFile(char * fileName, char *msg,int append)
2890:mtk_resgenerator.cpp **** {
 8019              	LM575:
 8020 6950 55       		pushl	%ebp
 8021 6951 89E5     		movl	%esp, %ebp
 8022 6953 83EC18   		subl	$24, %esp
2891:mtk_resgenerator.cpp ****     FILE * logfile = NULL;
GAS LISTING d:/software/ovi_2503a_s3trc/ovi_2503a_s3trc/plutommi/Customer/ResGenerator/gcctmp/ccgnaaaa.s 			page 171


 8024              	LM576:
 8025              	LBB67:
 8026 6956 C745FC00 		movl	$0, -4(%ebp)
 8026      000000
2892:mtk_resgenerator.cpp ****     if(append)
 8028              	LM577:
 8029 695d 837D1000 		cmpl	$0, 16(%ebp)
 8030 6961 7418     		je	L264
2893:mtk_resgenerator.cpp ****     {
2894:mtk_resgenerator.cpp ****         logfile = fopen(fileName,"w");
 8032              	LM578:
 8033 6963 C7442404 		movl	$LC2, 4(%esp)
 8033      4F000000 
 8034 696b 8B4508   		movl	8(%ebp), %eax
 8035 696e 890424   		movl	%eax, (%esp)
 8036 6971 E8000000 		call	_fopen
 8036      00
 8037 6976 8945FC   		movl	%eax, -4(%ebp)
 8038 6979 EB16     		jmp	L265
 8039              	L264:
2895:mtk_resgenerator.cpp ****     }else{
2896:mtk_resgenerator.cpp ****         logfile= fopen(fileName,"a");
 8041              	LM579:
 8042 697b C7442404 		movl	$LC149, 4(%esp)
 8042      392E0000 
 8043 6983 8B4508   		movl	8(%ebp), %eax
 8044 6986 890424   		movl	%eax, (%esp)
 8045 6989 E8000000 		call	_fopen
 8045      00
 8046 698e 8945FC   		movl	%eax, -4(%ebp)
 8047              	L265:
2897:mtk_resgenerator.cpp ****     }
2898:mtk_resgenerator.cpp **** 
2899:mtk_resgenerator.cpp ****     if(logfile!=NULL)
 8049              	LM580:
 8050 6991 837DFC00 		cmpl	$0, -4(%ebp)
 8051 6995 741D     		je	L263
2900:mtk_resgenerator.cpp ****     {
2901:mtk_resgenerator.cpp ****         fputs (msg,logfile);
 8053              	LM581:
 8054 6997 8B45FC   		movl	-4(%ebp), %eax
 8055 699a 89442404 		movl	%eax, 4(%esp)
 8056 699e 8B450C   		movl	12(%ebp), %eax
 8057 69a1 890424   		movl	%eax, (%esp)
 8058 69a4 E8000000 		call	_fputs
 8058      00
2902:mtk_resgenerator.cpp ****         fclose(logfile);
 8060              	LM582:
 8061 69a9 8B45FC   		movl	-4(%ebp), %eax
 8062 69ac 890424   		movl	%eax, (%esp)
 8063 69af E8000000 		call	_fclose
 8063      00
2903:mtk_resgenerator.cpp ****     }
2904:mtk_resgenerator.cpp **** }
 8065              	LM583:
 8066              	L263:
 8067 69b4 C9       		leave
GAS LISTING d:/software/ovi_2503a_s3trc/ovi_2503a_s3trc/plutommi/Customer/ResGenerator/gcctmp/ccgnaaaa.s 			page 172


 8068 69b5 C3       		ret
 8069              	LBE67:
 8073              	Lscope31:
 8075              		.align 2
 8078              	__Z21CATResourceGenerationv:
2905:mtk_resgenerator.cpp **** 
2906:mtk_resgenerator.cpp **** ///////////////////////////////////////////////////////////////////////////////
2907:mtk_resgenerator.cpp **** // CAT Resource Generation
2908:mtk_resgenerator.cpp **** ///////////////////////////////////////////////////////////////////////////////
2909:mtk_resgenerator.cpp **** 
2910:mtk_resgenerator.cpp **** static void CATResourceGeneration(){
 8080              	LM584:
 8081 69b6 55       		pushl	%ebp
 8082 69b7 89E5     		movl	%esp, %ebp
2911:mtk_resgenerator.cpp **** #if defined(__CAT_SUPPORT__) && defined(MMIRESOURCE_CAT_IMG_RESERVED_SIZE_BYTE) && (MMIRESOURCE_CAT
2912:mtk_resgenerator.cpp ****     int reserveSize = MMIRESOURCE_CAT_IMG_RESERVED_SIZE_BYTE;
2913:mtk_resgenerator.cpp ****     CATResGenerator * catObj = new CATResGenerator();
2914:mtk_resgenerator.cpp ****     catObj->setReservedSymbolName("cat_reserved_space");
2915:mtk_resgenerator.cpp ****     catObj->setReservedSymbolFile("..\\..\\Customer\\CustResource\\CustCATReserved.c");
2916:mtk_resgenerator.cpp ****     catObj->setCatSectionName(MMIRESOURCE_CAT_RES_SECTION_NAME_IMG);
2917:mtk_resgenerator.cpp ****     catObj->generate(MMIRESOURCE_CAT_IMG_RESERVED_SIZE_BYTE);
2918:mtk_resgenerator.cpp ****     delete catObj;
2919:mtk_resgenerator.cpp **** #endif
2920:mtk_resgenerator.cpp **** }
 8084              	LM585:
 8085 69b9 5D       		popl	%ebp
 8086 69ba C3       		ret
 8087              	Lscope32:
 8089              	.globl __ZN25OfflineResPopImageAdaptor33IMAGE_REPLACEBALE_SUPPORT_DISABLEE
 8090              		.bss
 8091              		.align 4
 8092              	__ZN25OfflineResPopImageAdaptor33IMAGE_REPLACEBALE_SUPPORT_DISABLEE:
 8093 0004 00000000 		.space 4
 8094              	.globl __ZN25OfflineResPopImageAdaptor32IMAGE_REPLACEBALE_SUPPORT_ENABLEE
 8095              		.data
 8096              		.align 4
 8097              	__ZN25OfflineResPopImageAdaptor32IMAGE_REPLACEBALE_SUPPORT_ENABLEE:
 8098 0014 01000000 		.long	1
 8100 0018 00000000 		.text
 8100      00000000 
 8101 69bb 908D7426 		.align 32
 8101      00
 8102              	LC253:
 8103 69c0 4F66666C 		.ascii "OfflineResPopController: save the population actions of legacy resource to resource reposi
 8103      696E6552 
 8103      6573506F 
 8103      70436F6E 
 8103      74726F6C 
 8104 6a1f 90       		.align 32
 8105              	LC254:
 8106 6a20 6F66666C 		.ascii "offline_pre_xml_legacy_string_repo.txt\0"
 8106      696E655F 
 8106      7072655F 
 8106      786D6C5F 
 8106      6C656761 
 8107 6a47 90909090 		.align 32
 8107      90909090 
GAS LISTING d:/software/ovi_2503a_s3trc/ovi_2503a_s3trc/plutommi/Customer/ResGenerator/gcctmp/ccgnaaaa.s 			page 173


 8107      90909090 
 8107      90909090 
 8107      90909090 
 8108              	LC255:
 8109 6a60 6F66666C 		.ascii "offline_pre_xml_legacy_image_repo.txt\0"
 8109      696E655F 
 8109      7072655F 
 8109      786D6C5F 
 8109      6C656761 
 8110 6a86 90909090 		.align 32
 8110      90909090 
 8110      90909090 
 8110      90909090 
 8110      90909090 
 8111              	LC256:
 8112 6aa0 6F66666C 		.ascii "offline_pre_xml_legacy_audio_repo.txt\0"
 8112      696E655F 
 8112      7072655F 
 8112      786D6C5F 
 8112      6C656761 
 8113 6ac6 90909090 		.align 32
 8113      90909090 
 8113      90909090 
 8113      90909090 
 8113      90909090 
 8114              	LC257:
 8115 6ae0 6F66666C 		.ascii "offline_pre_xml_legacy_binary_repo.txt\0"
 8115      696E655F 
 8115      7072655F 
 8115      786D6C5F 
 8115      6C656761 
 8116 6b07 90909090 		.align 32
 8116      90909090 
 8116      90909090 
 8116      90909090 
 8116      90909090 
 8117              	LC258:
 8118 6b20 4F66666C 		.ascii "OfflineResPopController: save the population actions declared by legacy population APIs (O
 8118      696E6552 
 8118      6573506F 
 8118      70436F6E 
 8118      74726F6C 
 8119 6b95 8D742600 		.align 32
 8119      8DBC2700 
 8119      000000
 8120              	LC259:
 8121 6ba0 4F66666C 		.ascii "OfflineResPopController: populate resource which can't be populated offline. (Order: befor
 8121      696E6552 
 8121      6573506F 
 8121      70436F6E 
 8121      74726F6C 
 8122 6c0a 90909090 		.align 32
 8122      90909090 
 8122      90909090 
 8122      90909090 
 8122      90909090 
 8123              	LC260:
GAS LISTING d:/software/ovi_2503a_s3trc/ovi_2503a_s3trc/plutommi/Customer/ResGenerator/gcctmp/ccgnaaaa.s 			page 174


 8124 6c20 4F66666C 		.ascii "OfflineResPopController: populate XML resource which can't be populated online.\0"
 8124      696E6552 
 8124      6573506F 
 8124      70436F6E 
 8124      74726F6C 
 8125 6c70 90909090 		.align 32
 8125      90909090 
 8125      90909090 
 8125      90909090 
 8126              	LC261:
 8127 6c80 6F66666C 		.ascii "offline_post_xml_legacy_string_repo.txt\0"
 8127      696E655F 
 8127      706F7374 
 8127      5F786D6C 
 8127      5F6C6567 
 8128 6ca8 90909090 		.align 32
 8128      90909090 
 8128      90909090 
 8128      90909090 
 8128      90909090 
 8129              	LC262:
 8130 6cc0 6F66666C 		.ascii "offline_post_xml_legacy_image_repo.txt\0"
 8130      696E655F 
 8130      706F7374 
 8130      5F786D6C 
 8130      5F6C6567 
 8131 6ce7 90909090 		.align 32
 8131      90909090 
 8131      90909090 
 8131      90909090 
 8131      90909090 
 8132              	LC263:
 8133 6d00 6F66666C 		.ascii "offline_post_xml_legacy_audio_repo.txt\0"
 8133      696E655F 
 8133      706F7374 
 8133      5F786D6C 
 8133      5F6C6567 
 8134 6d27 90909090 		.align 32
 8134      90909090 
 8134      90909090 
 8134      90909090 
 8134      90909090 
 8135              	LC264:
 8136 6d40 6F66666C 		.ascii "offline_post_xml_legacy_binary_repo.txt\0"
 8136      696E655F 
 8136      706F7374 
 8136      5F786D6C 
 8136      5F6C6567 
 8137 6d68 90909090 		.align 32
 8137      90909090 
 8137      90909090 
 8137      90909090 
 8137      90909090 
 8138              	LC265:
 8139 6d80 4F66666C 		.ascii "OfflineResPopController: save the population actions declared by legacy population APIs. (
 8139      696E6552 
 8139      6573506F 
GAS LISTING d:/software/ovi_2503a_s3trc/ovi_2503a_s3trc/plutommi/Customer/ResGenerator/gcctmp/ccgnaaaa.s 			page 175


 8139      70436F6E 
 8139      74726F6C 
 8140 6df5 8D742600 		.align 32
 8140      8DBC2700 
 8140      000000
 8141              	LC266:
 8142 6e00 4F66666C 		.ascii "OfflineResPopController: populate resource which can't be populated offline. (Order: after
 8142      696E6552 
 8142      6573506F 
 8142      70436F6E 
 8142      74726F6C 
 8143 6e69 90909090 		.align 32
 8143      90909090 
 8143      90909090 
 8143      90909090 
 8143      90909090 
 8144              	LC267:
 8145 6e80 4F66666C 		.ascii "OfflineResPopController: populate offline legacy resource. (Order: after XML resource)\0"
 8145      696E6552 
 8145      6573506F 
 8145      70436F6E 
 8145      74726F6C 
 8146 6ed7 89F68DBC 		.align 32
 8146      27000000 
 8146      00
 8147              	LC268:
 8148 6ee0 4F66666C 		.ascii "OfflineResPopController: populate offline XML resource.\0"
 8148      696E6552 
 8148      6573506F 
 8148      70436F6E 
 8148      74726F6C 
 8149              	LC269:
 8150 6f18 6F66666C 		.ascii "offline_xml_string_repo.txt\0"
 8150      696E655F 
 8150      786D6C5F 
 8150      73747269 
 8150      6E675F72 
 8151              	LC270:
 8152 6f34 6F66666C 		.ascii "offline_xml_image_repo.txt\0"
 8152      696E655F 
 8152      786D6C5F 
 8152      696D6167 
 8152      655F7265 
 8153              	LC271:
 8154 6f4f 6F66666C 		.ascii "offline_xml_audio_repo.txt\0"
 8154      696E655F 
 8154      786D6C5F 
 8154      61756469 
 8154      6F5F7265 
 8155              		.align 2
 8158              	__Z23OfflineResPopControllerv:
2921:mtk_resgenerator.cpp **** 
2922:mtk_resgenerator.cpp **** 
2923:mtk_resgenerator.cpp **** #ifdef  __RESGEN_INTERNAL_OFFLINE__
2924:mtk_resgenerator.cpp **** 
2925:mtk_resgenerator.cpp **** ///////////////////////////////////////////////////////////////////////////////
2926:mtk_resgenerator.cpp **** // Resgen 1.5 (Offline Resgen)
GAS LISTING d:/software/ovi_2503a_s3trc/ovi_2503a_s3trc/plutommi/Customer/ResGenerator/gcctmp/ccgnaaaa.s 			page 176


2927:mtk_resgenerator.cpp **** ///////////////////////////////////////////////////////////////////////////////
2928:mtk_resgenerator.cpp **** 
2929:mtk_resgenerator.cpp **** ///////////////////////////////////////////////////////
2930:mtk_resgenerator.cpp **** // Binary Population Adaptor
2931:mtk_resgenerator.cpp **** //////////////////////////////////////////////////////
2932:mtk_resgenerator.cpp **** class OfflineResPopBinaryAdaptor:public OfflineResPopAdaptor{
2933:mtk_resgenerator.cpp **** protected:
2934:mtk_resgenerator.cpp ****     virtual int issueLecacyPopulation(ResPopParam * param)
2935:mtk_resgenerator.cpp ****     {
2936:mtk_resgenerator.cpp ****         char * path = NULL;
2937:mtk_resgenerator.cpp ****         char * enumString = NULL;
2938:mtk_resgenerator.cpp ****         BinaryResParam * binaryParam = (BinaryResParam*)param;
2939:mtk_resgenerator.cpp ****         if(param == NULL){
2940:mtk_resgenerator.cpp ****             cout<<"[ERROR][issueLecacyPopulation] binaryParam can't be NULL"<<endl;
2941:mtk_resgenerator.cpp ****             return -1;
2942:mtk_resgenerator.cpp ****         }
2943:mtk_resgenerator.cpp ****         //         string debugStr("");
2944:mtk_resgenerator.cpp ****         //         binaryParam->toString(&debugStr);
2945:mtk_resgenerator.cpp ****         //         cout<<debugStr<<endl;
2946:mtk_resgenerator.cpp ****         path = new char[binaryParam->getBinaryFilePath()->size()+1];
2947:mtk_resgenerator.cpp ****         enumString = new char[binaryParam->getIdEnumString()->size()+1];
2948:mtk_resgenerator.cpp ****         strcpy(path, binaryParam->getBinaryFilePath()->c_str());
2949:mtk_resgenerator.cpp ****         strcpy(enumString, binaryParam->getIdEnumString()->c_str());	
2950:mtk_resgenerator.cpp **** 
2951:mtk_resgenerator.cpp ****         //cout<<"Populate"<<path<<endl;
2952:mtk_resgenerator.cpp ****         SetBinaryWithBuffer(binaryParam->getIdEnumValue(), path, enumString,(_binary_type_enum)bina
2953:mtk_resgenerator.cpp ****         delete [] path;
2954:mtk_resgenerator.cpp ****         delete [] enumString;
2955:mtk_resgenerator.cpp ****         return 0;
2956:mtk_resgenerator.cpp ****     };
2957:mtk_resgenerator.cpp **** };
2958:mtk_resgenerator.cpp **** ///////////////////////////////////////////////////////
2959:mtk_resgenerator.cpp **** // Audio Population Adaptor
2960:mtk_resgenerator.cpp **** ///////////////////////////////////////////////////////
2961:mtk_resgenerator.cpp **** class OfflineResPopAudioAdaptor:public OfflineResPopAdaptor{
2962:mtk_resgenerator.cpp **** protected:
2963:mtk_resgenerator.cpp ****     virtual int issueLecacyPopulation(ResPopParam * param)
2964:mtk_resgenerator.cpp ****     {
2965:mtk_resgenerator.cpp ****         char * audioPath = NULL;
2966:mtk_resgenerator.cpp ****         char * enumString = NULL;
2967:mtk_resgenerator.cpp ****         AudioResParam * audioParam = (AudioResParam*)param;
2968:mtk_resgenerator.cpp ****         if(param == NULL){
2969:mtk_resgenerator.cpp ****             cout<<"ERROR!! _audioParam can't be NULL"<<endl;
2970:mtk_resgenerator.cpp ****             return -1;
2971:mtk_resgenerator.cpp ****         }
2972:mtk_resgenerator.cpp ****         //string debugStr("");
2973:mtk_resgenerator.cpp ****         //audioParam->toString(&debugStr);
2974:mtk_resgenerator.cpp ****         //cout<<debugStr<<endl;
2975:mtk_resgenerator.cpp ****         audioPath = new char[audioParam->getAudioFilePath()->size()+1];
2976:mtk_resgenerator.cpp ****         enumString = new char[audioParam->getIdEnumString()->size()+1];
2977:mtk_resgenerator.cpp ****         strcpy(audioPath, audioParam->getAudioFilePath()->c_str());
2978:mtk_resgenerator.cpp ****         strcpy(enumString, audioParam->getIdEnumString()->c_str());	
2979:mtk_resgenerator.cpp **** 
2980:mtk_resgenerator.cpp ****         if(audioParam->getForceType() >= OFFLINE_RESGEN_NO_FORCE_TYPE){
2981:mtk_resgenerator.cpp ****             //cout<<"Populate"<<audioPath<<endl;
2982:mtk_resgenerator.cpp ****             SetAudioWithBuffer(audioParam->getIdEnumValue(), audioPath, enumString, audioParam->get
2983:mtk_resgenerator.cpp ****         }else{
GAS LISTING d:/software/ovi_2503a_s3trc/ovi_2503a_s3trc/plutommi/Customer/ResGenerator/gcctmp/ccgnaaaa.s 			page 177


2984:mtk_resgenerator.cpp ****             //cout<<"Populate"<<audioPath<<endl;
2985:mtk_resgenerator.cpp ****             SetAudioWithBufferForceType(audioParam->getIdEnumValue(), audioPath, enumString, audioP
2986:mtk_resgenerator.cpp ****         }
2987:mtk_resgenerator.cpp ****         delete [] audioPath;
2988:mtk_resgenerator.cpp ****         delete [] enumString;
2989:mtk_resgenerator.cpp ****         return 0;
2990:mtk_resgenerator.cpp ****     };
2991:mtk_resgenerator.cpp **** };
2992:mtk_resgenerator.cpp **** 
2993:mtk_resgenerator.cpp **** ///////////////////////////////////////////////////////
2994:mtk_resgenerator.cpp **** // Image Population Adaptor
2995:mtk_resgenerator.cpp **** ///////////////////////////////////////////////////////
2996:mtk_resgenerator.cpp **** class OfflineResPopImageAdaptor:public OfflineResPopAdaptor{
2997:mtk_resgenerator.cpp **** public:
2998:mtk_resgenerator.cpp ****     static int IMAGE_REPLACEBALE_SUPPORT_ENABLE;
2999:mtk_resgenerator.cpp ****     static int IMAGE_REPLACEBALE_SUPPORT_DISABLE;
3000:mtk_resgenerator.cpp ****     
3001:mtk_resgenerator.cpp ****     OfflineResPopImageAdaptor(int replacePoolSupport){
3002:mtk_resgenerator.cpp ****         this->replacePoolSupport = replacePoolSupport;
3003:mtk_resgenerator.cpp ****     }
3004:mtk_resgenerator.cpp **** protected:
3005:mtk_resgenerator.cpp ****     int replacePoolSupport;
3006:mtk_resgenerator.cpp ****     
3007:mtk_resgenerator.cpp ****     virtual int issueLecacyPopulation(ResPopParam * param){
3008:mtk_resgenerator.cpp ****         char * imagePath = NULL;
3009:mtk_resgenerator.cpp ****         char * enumString = NULL;
3010:mtk_resgenerator.cpp ****         int isReplacable = IMAGE_REPLACEBALE_SUPPORT_DISABLE;
3011:mtk_resgenerator.cpp ****         
3012:mtk_resgenerator.cpp ****         ImageResParam * imageParam = (ImageResParam*)param;
3013:mtk_resgenerator.cpp ****         if(imageParam == NULL){
3014:mtk_resgenerator.cpp ****             cout<<"[ERROR] imageParam can't be NULL"<<endl;
3015:mtk_resgenerator.cpp ****             return -1;
3016:mtk_resgenerator.cpp ****         }
3017:mtk_resgenerator.cpp ****         //string debugStr("");
3018:mtk_resgenerator.cpp ****         //imageParam->toString(&debugStr);
3019:mtk_resgenerator.cpp ****         //cout<<debugStr<<endl;
3020:mtk_resgenerator.cpp ****         imagePath = new char[imageParam->getImageFilePath()->size()+1];
3021:mtk_resgenerator.cpp ****         enumString = new char[imageParam->getIdEnumString()->size()+1];
3022:mtk_resgenerator.cpp ****         strcpy(imagePath, imageParam->getImageFilePath()->c_str());
3023:mtk_resgenerator.cpp ****         strcpy(enumString, imageParam->getIdEnumString()->c_str());	
3024:mtk_resgenerator.cpp **** 
3025:mtk_resgenerator.cpp ****         if(this->replacePoolSupport == IMAGE_REPLACEBALE_SUPPORT_ENABLE){
3026:mtk_resgenerator.cpp ****             isReplacable = imageParam->getIsMultipleBin();
3027:mtk_resgenerator.cpp ****         }else{
3028:mtk_resgenerator.cpp ****             isReplacable = IMAGE_REPLACEBALE_SUPPORT_DISABLE;
3029:mtk_resgenerator.cpp ****         }
3030:mtk_resgenerator.cpp **** 
3031:mtk_resgenerator.cpp ****         if(imageParam->getForceType() >= OFFLINE_RESGEN_NO_FORCE_TYPE){
3032:mtk_resgenerator.cpp ****             //cout<<"Populate"<<imagePath<<endl;
3033:mtk_resgenerator.cpp ****             SetImageQWithBuffer(imageParam->getIdEnumValue(), imagePath, enumString, isReplacable,i
3034:mtk_resgenerator.cpp ****         }else{
3035:mtk_resgenerator.cpp ****             //cout<<"Populate"<<imagePath<<endl;
3036:mtk_resgenerator.cpp ****             SetImageQWithBufferForceType(imageParam->getIdEnumValue(), imagePath, enumString, isRep
3037:mtk_resgenerator.cpp ****         }
3038:mtk_resgenerator.cpp ****         delete [] imagePath;
3039:mtk_resgenerator.cpp ****         delete [] enumString;
3040:mtk_resgenerator.cpp ****         return 0;
GAS LISTING d:/software/ovi_2503a_s3trc/ovi_2503a_s3trc/plutommi/Customer/ResGenerator/gcctmp/ccgnaaaa.s 			page 178


3041:mtk_resgenerator.cpp ****     };
3042:mtk_resgenerator.cpp **** };
3043:mtk_resgenerator.cpp **** 
3044:mtk_resgenerator.cpp **** int OfflineResPopImageAdaptor::IMAGE_REPLACEBALE_SUPPORT_DISABLE = 0;
3045:mtk_resgenerator.cpp **** int OfflineResPopImageAdaptor::IMAGE_REPLACEBALE_SUPPORT_ENABLE = 1;
3046:mtk_resgenerator.cpp **** 
3047:mtk_resgenerator.cpp **** ///////////////////////////////////////////////////////
3048:mtk_resgenerator.cpp **** // String Population Adaptor
3049:mtk_resgenerator.cpp **** ///////////////////////////////////////////////////////
3050:mtk_resgenerator.cpp **** class OfflineResPopStringAdaptor:public OfflineResPopAdaptor{
3051:mtk_resgenerator.cpp **** protected:
3052:mtk_resgenerator.cpp ****     virtual int issueLecacyPopulation(ResPopParam * param){
3053:mtk_resgenerator.cpp ****         if(param == NULL){
3054:mtk_resgenerator.cpp ****             return -1;
3055:mtk_resgenerator.cpp ****         }
3056:mtk_resgenerator.cpp ****         StringResParam* item =(StringResParam*)param;
3057:mtk_resgenerator.cpp ****         char * defaultString = new char[item->getDefaultString()->size()+1];
3058:mtk_resgenerator.cpp ****         strcpy(defaultString, item->getDefaultString()->c_str());
3059:mtk_resgenerator.cpp ****         char * enumString = new char[item->getIdEnumString()->size()+1];
3060:mtk_resgenerator.cpp ****         strcpy(enumString, item->getIdEnumString()->c_str());	
3061:mtk_resgenerator.cpp ****         //cout<<item->getIdEnumValue() << defaultString<< enumString<<endl;
3062:mtk_resgenerator.cpp ****         SetString(item->getIdEnumValue(),defaultString,enumString);
3063:mtk_resgenerator.cpp ****         delete [] defaultString;
3064:mtk_resgenerator.cpp ****         delete [] enumString;
3065:mtk_resgenerator.cpp ****         return 0;
3066:mtk_resgenerator.cpp ****     };
3067:mtk_resgenerator.cpp **** };
3068:mtk_resgenerator.cpp **** 
3069:mtk_resgenerator.cpp **** class OfflineResPopService{
3070:mtk_resgenerator.cpp **** private:
3071:mtk_resgenerator.cpp ****     void populateResource(ResParamModel* modelObj, char * dbFile, ParamTextFileDAO * daoObj, Offlin
3072:mtk_resgenerator.cpp ****         modelObj->setRepositoryFileName(dbFile);
3073:mtk_resgenerator.cpp ****         modelObj->loadFromRepository(daoObj);
3074:mtk_resgenerator.cpp ****         resPopulator->setResPopModel(modelObj);
3075:mtk_resgenerator.cpp ****         resPopulator->populate();
3076:mtk_resgenerator.cpp ****     };
3077:mtk_resgenerator.cpp **** 
3078:mtk_resgenerator.cpp **** public:
3079:mtk_resgenerator.cpp ****     void populateBinaryResource(char * dbFile){
3080:mtk_resgenerator.cpp ****         ResParamModel * paramModel = new ResParamModel();
3081:mtk_resgenerator.cpp ****         // Enable redundant population for 3D binary resgen
3082:mtk_resgenerator.cpp ****         paramModel->setRedundantAllowed(ResParamModel::REDUNDANT_ALLOWDED_ENABLE);
3083:mtk_resgenerator.cpp **** 
3084:mtk_resgenerator.cpp ****         BinaryParamTextFileDAO * daoObj = new BinaryParamTextFileDAO();
3085:mtk_resgenerator.cpp ****         OfflineResPopulator * resPopulator = new OfflineResPopBinaryAdaptor();
3086:mtk_resgenerator.cpp **** 
3087:mtk_resgenerator.cpp ****         populateResource(paramModel,dbFile,daoObj,resPopulator);
3088:mtk_resgenerator.cpp **** 
3089:mtk_resgenerator.cpp ****         delete paramModel;
3090:mtk_resgenerator.cpp ****         delete resPopulator;
3091:mtk_resgenerator.cpp ****         delete daoObj;
3092:mtk_resgenerator.cpp ****     }
3093:mtk_resgenerator.cpp **** 
3094:mtk_resgenerator.cpp **** 
3095:mtk_resgenerator.cpp ****     void populateAudioResource(char * dbFile){
3096:mtk_resgenerator.cpp ****         ResParamModel * paramModel = new ResParamModel();
3097:mtk_resgenerator.cpp ****         AudioParamTextFileDAO * daoObj = new AudioParamTextFileDAO();
GAS LISTING d:/software/ovi_2503a_s3trc/ovi_2503a_s3trc/plutommi/Customer/ResGenerator/gcctmp/ccgnaaaa.s 			page 179


3098:mtk_resgenerator.cpp ****         OfflineResPopulator * resPopulator = new OfflineResPopAudioAdaptor();
3099:mtk_resgenerator.cpp **** 
3100:mtk_resgenerator.cpp ****         populateResource(paramModel,dbFile,daoObj,resPopulator);
3101:mtk_resgenerator.cpp **** 
3102:mtk_resgenerator.cpp ****         delete paramModel;
3103:mtk_resgenerator.cpp ****         delete resPopulator;
3104:mtk_resgenerator.cpp ****         delete daoObj;
3105:mtk_resgenerator.cpp ****     }
3106:mtk_resgenerator.cpp **** 
3107:mtk_resgenerator.cpp **** 
3108:mtk_resgenerator.cpp **** 
3109:mtk_resgenerator.cpp ****     void populateImageResource(char * dbFile){
3110:mtk_resgenerator.cpp ****         ResParamModel * paramModel = new ResParamModel();
3111:mtk_resgenerator.cpp ****         ImageParamTextFileDAO * daoObj = new ImageParamTextFileDAO();
3112:mtk_resgenerator.cpp ****         int isReplacePoolSupport = OfflineResPopImageAdaptor::IMAGE_REPLACEBALE_SUPPORT_DISABLE;
3113:mtk_resgenerator.cpp **** #if defined(__NFB_THIRD_ROM_SUPPORT__) && !defined( __MULTIPLE_BINARY_FILES__) && !defined(__CAT_SU
3114:mtk_resgenerator.cpp ****         isReplacePoolSupport = OfflineResPopImageAdaptor::IMAGE_REPLACEBALE_SUPPORT_DISABLE;
3115:mtk_resgenerator.cpp **** #else
3116:mtk_resgenerator.cpp ****         isReplacePoolSupport = OfflineResPopImageAdaptor::IMAGE_REPLACEBALE_SUPPORT_ENABLE;
3117:mtk_resgenerator.cpp **** #endif //__NFB_THIRD_ROM_SUPPORT__ && !( __MULTIPLE_BINARY_FILES__) && !(__CAT_SUPPORT__)
3118:mtk_resgenerator.cpp ****         
3119:mtk_resgenerator.cpp ****         OfflineResPopulator * resPopulator = new OfflineResPopImageAdaptor(isReplacePoolSupport);
3120:mtk_resgenerator.cpp **** 
3121:mtk_resgenerator.cpp ****         populateResource(paramModel,dbFile,daoObj,resPopulator);
3122:mtk_resgenerator.cpp **** 
3123:mtk_resgenerator.cpp ****         delete paramModel;
3124:mtk_resgenerator.cpp ****         delete resPopulator;
3125:mtk_resgenerator.cpp ****         delete daoObj;
3126:mtk_resgenerator.cpp ****     }
3127:mtk_resgenerator.cpp **** 
3128:mtk_resgenerator.cpp **** 
3129:mtk_resgenerator.cpp **** 
3130:mtk_resgenerator.cpp ****     void populateStringResource(char * dbFile){
3131:mtk_resgenerator.cpp ****         ResParamModel * paramModel = new ResParamModel();
3132:mtk_resgenerator.cpp ****         StringParamTextFileDAO * daoObj = new StringParamTextFileDAO();
3133:mtk_resgenerator.cpp ****         OfflineResPopulator * resPopulator = new OfflineResPopStringAdaptor();
3134:mtk_resgenerator.cpp **** 
3135:mtk_resgenerator.cpp ****         populateResource(paramModel,dbFile,daoObj,resPopulator);
3136:mtk_resgenerator.cpp **** 
3137:mtk_resgenerator.cpp ****         delete paramModel;
3138:mtk_resgenerator.cpp ****         delete resPopulator;
3139:mtk_resgenerator.cpp ****         delete daoObj;
3140:mtk_resgenerator.cpp ****     }
3141:mtk_resgenerator.cpp **** 
3142:mtk_resgenerator.cpp **** 
3143:mtk_resgenerator.cpp **** };
3144:mtk_resgenerator.cpp **** 
3145:mtk_resgenerator.cpp **** //////////////////////////////////////////////////////////////////////////////
3146:mtk_resgenerator.cpp **** // Controller function of Offline Res Population
3147:mtk_resgenerator.cpp **** //////////////////////////////////////////////////////////////////////////////
3148:mtk_resgenerator.cpp **** 
3149:mtk_resgenerator.cpp **** static void OfflineResPopController(){
 8160              	LM586:
 8161 6f6a 55       		pushl	%ebp
 8162 6f6b 89E5     		movl	%esp, %ebp
 8163 6f6d 83EC18   		subl	$24, %esp
3150:mtk_resgenerator.cpp ****     RESGEN_LOG_V("OfflineResPopController: save the population actions of legacy resource to resour
GAS LISTING d:/software/ovi_2503a_s3trc/ovi_2503a_s3trc/plutommi/Customer/ResGenerator/gcctmp/ccgnaaaa.s 			page 180


 8165              	LM587:
 8166              	LBB68:
 8167 6f70 C7442408 		movl	$LC253, 8(%esp)
 8167      C0690000 
 8168 6f78 C7442404 		movl	$LC1, 4(%esp)
 8168      3E000000 
 8169 6f80 C7042401 		movl	$1, (%esp)
 8169      000000
 8170 6f87 E8000000 		call	_reslog_adaptor_log
 8170      00
3151:mtk_resgenerator.cpp **** 
3152:mtk_resgenerator.cpp ****     // Open Param DB for legacy resources	
3153:mtk_resgenerator.cpp ****     StringAdaptorStartOfflinePopulation(DEFAULT_OFFLINE_PRE_XML_LEGACY_STRING_DB);
 8172              	LM588:
 8173 6f8c C7042420 		movl	$LC254, (%esp)
 8173      6A0000
 8174 6f93 E8000000 		call	_StringAdaptorStartOfflinePopulation
 8174      00
3154:mtk_resgenerator.cpp ****     ImageAdaptorStartOfflinePopulation(DEFAULT_OFFLINE_PRE_XML_LEGACY_IMAGE_DB);
 8176              	LM589:
 8177 6f98 C7042460 		movl	$LC255, (%esp)
 8177      6A0000
 8178 6f9f E8000000 		call	_ImageAdaptorStartOfflinePopulation
 8178      00
3155:mtk_resgenerator.cpp ****     AudioAdaptorStartOfflinePopulation(DEFAULT_OFFLINE_PRE_XML_LEGACY_AUDIO_DB);
 8180              	LM590:
 8181 6fa4 C70424A0 		movl	$LC256, (%esp)
 8181      6A0000
 8182 6fab E8000000 		call	_AudioAdaptorStartOfflinePopulation
 8182      00
3156:mtk_resgenerator.cpp ****     BinaryAdaptorStartOfflinePopulation(DEFAULT_OFFLINE_PRE_XML_LEGACY_BINARY_DB);
 8184              	LM591:
 8185 6fb0 C70424E0 		movl	$LC257, (%esp)
 8185      6A0000
 8186 6fb7 E8000000 		call	_BinaryAdaptorStartOfflinePopulation
 8186      00
3157:mtk_resgenerator.cpp **** 
3158:mtk_resgenerator.cpp ****     // Start Legacy native resoruce Popualtion
3159:mtk_resgenerator.cpp ****     ResPopInitAll();
 8188              	LM592:
 8189 6fbc E8000000 		call	_ResPopInitAll
 8189      00
3160:mtk_resgenerator.cpp **** 
3161:mtk_resgenerator.cpp ****     RESGEN_LOG_V("OfflineResPopController: save the population actions declared by legacy populatio
 8191              	LM593:
 8192 6fc1 C7442408 		movl	$LC258, 8(%esp)
 8192      206B0000 
 8193 6fc9 C7442404 		movl	$LC1, 4(%esp)
 8193      3E000000 
 8194 6fd1 C7042401 		movl	$1, (%esp)
 8194      000000
 8195 6fd8 E8000000 		call	_reslog_adaptor_log
 8195      00
3162:mtk_resgenerator.cpp ****     RESGEN_LOG_V("OfflineResPopController: populate resource which can't be populated offline. (Ord
 8197              	LM594:
 8198 6fdd C7442408 		movl	$LC259, 8(%esp)
 8198      A06B0000 
GAS LISTING d:/software/ovi_2503a_s3trc/ovi_2503a_s3trc/plutommi/Customer/ResGenerator/gcctmp/ccgnaaaa.s 			page 181


 8199 6fe5 C7442404 		movl	$LC1, 4(%esp)
 8199      3E000000 
 8200 6fed C7042401 		movl	$1, (%esp)
 8200      000000
 8201 6ff4 E8000000 		call	_reslog_adaptor_log
 8201      00
3163:mtk_resgenerator.cpp **** 
3164:mtk_resgenerator.cpp ****     PopulateResDataPreXML();
 8203              	LM595:
 8204 6ff9 E8000000 		call	_PopulateResDataPreXML
 8204      00
3165:mtk_resgenerator.cpp **** 
3166:mtk_resgenerator.cpp ****     StringAdaptorStopOfflinePopulation();
 8206              	LM596:
 8207 6ffe E8000000 		call	_StringAdaptorStopOfflinePopulation
 8207      00
3167:mtk_resgenerator.cpp ****     ImageAdaptorStopOfflinePopulation();
 8209              	LM597:
 8210 7003 E8000000 		call	_ImageAdaptorStopOfflinePopulation
 8210      00
3168:mtk_resgenerator.cpp ****     AudioAdaptorStopOfflinePopulation();
 8212              	LM598:
 8213 7008 E8000000 		call	_AudioAdaptorStopOfflinePopulation
 8213      00
3169:mtk_resgenerator.cpp ****     BinaryAdaptorStopOfflinePopulation();
 8215              	LM599:
 8216 700d E8000000 		call	_BinaryAdaptorStopOfflinePopulation
 8216      00
3170:mtk_resgenerator.cpp **** 
3171:mtk_resgenerator.cpp ****     RESGEN_LOG_V("OfflineResPopController: populate XML resource which can't be populated online.")
 8218              	LM600:
 8219 7012 C7442408 		movl	$LC260, 8(%esp)
 8219      206C0000 
 8220 701a C7442404 		movl	$LC1, 4(%esp)
 8220      3E000000 
 8221 7022 C7042401 		movl	$1, (%esp)
 8221      000000
 8222 7029 E8000000 		call	_reslog_adaptor_log
 8222      00
3172:mtk_resgenerator.cpp ****     // Start XML native resource Population
3173:mtk_resgenerator.cpp ****     PopulateResDataXML();
 8224              	LM601:
 8225 702e E8000000 		call	_PopulateResDataXML
 8225      00
3174:mtk_resgenerator.cpp **** 
3175:mtk_resgenerator.cpp ****     // Start Legacy native resoruce Popualtion (for thos resource must be populated after XML resou
3176:mtk_resgenerator.cpp ****     StringAdaptorStartOfflinePopulation(DEFAULT_OFFLINE_POST_XML_LEGACY_STRING_DB);
 8227              	LM602:
 8228 7033 C7042480 		movl	$LC261, (%esp)
 8228      6C0000
 8229 703a E8000000 		call	_StringAdaptorStartOfflinePopulation
 8229      00
3177:mtk_resgenerator.cpp ****     ImageAdaptorStartOfflinePopulation(DEFAULT_OFFLINE_POST_XML_LEGACY_IMAGE_DB);
 8231              	LM603:
 8232 703f C70424C0 		movl	$LC262, (%esp)
 8232      6C0000
 8233 7046 E8000000 		call	_ImageAdaptorStartOfflinePopulation
GAS LISTING d:/software/ovi_2503a_s3trc/ovi_2503a_s3trc/plutommi/Customer/ResGenerator/gcctmp/ccgnaaaa.s 			page 182


 8233      00
3178:mtk_resgenerator.cpp ****     AudioAdaptorStartOfflinePopulation(DEFAULT_OFFLINE_POST_XML_LEGACY_AUDIO_DB);
 8235              	LM604:
 8236 704b C7042400 		movl	$LC263, (%esp)
 8236      6D0000
 8237 7052 E8000000 		call	_AudioAdaptorStartOfflinePopulation
 8237      00
3179:mtk_resgenerator.cpp ****     BinaryAdaptorStartOfflinePopulation(DEFAULT_OFFLINE_POST_XML_LEGACY_BINARY_DB);
 8239              	LM605:
 8240 7057 C7042440 		movl	$LC264, (%esp)
 8240      6D0000
 8241 705e E8000000 		call	_BinaryAdaptorStartOfflinePopulation
 8241      00
3180:mtk_resgenerator.cpp **** 
3181:mtk_resgenerator.cpp ****     RESGEN_LOG_V("OfflineResPopController: save the population actions declared by legacy populatio
 8243              	LM606:
 8244 7063 C7442408 		movl	$LC265, 8(%esp)
 8244      806D0000 
 8245 706b C7442404 		movl	$LC1, 4(%esp)
 8245      3E000000 
 8246 7073 C7042401 		movl	$1, (%esp)
 8246      000000
 8247 707a E8000000 		call	_reslog_adaptor_log
 8247      00
3182:mtk_resgenerator.cpp ****     RESGEN_LOG_V("OfflineResPopController: populate resource which can't be populated offline. (Ord
 8249              	LM607:
 8250 707f C7442408 		movl	$LC266, 8(%esp)
 8250      006E0000 
 8251 7087 C7442404 		movl	$LC1, 4(%esp)
 8251      3E000000 
 8252 708f C7042401 		movl	$1, (%esp)
 8252      000000
 8253 7096 E8000000 		call	_reslog_adaptor_log
 8253      00
3183:mtk_resgenerator.cpp ****     PopulateResDataPostXML();
 8255              	LM608:
 8256 709b E8000000 		call	_PopulateResDataPostXML
 8256      00
3184:mtk_resgenerator.cpp **** 
3185:mtk_resgenerator.cpp ****     StringAdaptorStopOfflinePopulation();
 8258              	LM609:
 8259 70a0 E8000000 		call	_StringAdaptorStopOfflinePopulation
 8259      00
3186:mtk_resgenerator.cpp ****     ImageAdaptorStopOfflinePopulation();
 8261              	LM610:
 8262 70a5 E8000000 		call	_ImageAdaptorStopOfflinePopulation
 8262      00
3187:mtk_resgenerator.cpp ****     AudioAdaptorStopOfflinePopulation();
 8264              	LM611:
 8265 70aa E8000000 		call	_AudioAdaptorStopOfflinePopulation
 8265      00
3188:mtk_resgenerator.cpp ****     BinaryAdaptorStopOfflinePopulation();
 8267              	LM612:
 8268 70af E8000000 		call	_BinaryAdaptorStopOfflinePopulation
 8268      00
3189:mtk_resgenerator.cpp **** 
3190:mtk_resgenerator.cpp **** 
GAS LISTING d:/software/ovi_2503a_s3trc/ovi_2503a_s3trc/plutommi/Customer/ResGenerator/gcctmp/ccgnaaaa.s 			page 183


3191:mtk_resgenerator.cpp ****     // Do Offline Population with OfflineResPopService objects
3192:mtk_resgenerator.cpp ****     OfflineResPopService * offlineResPopService= new OfflineResPopService();
 8270              	LM613:
 8271 70b4 C7042401 		movl	$1, (%esp)
 8271      000000
 8272 70bb E8000000 		call	__Znwj
 8272      00
 8273 70c0 8945FC   		movl	%eax, -4(%ebp)
 8274              	L269:
3193:mtk_resgenerator.cpp **** 
3194:mtk_resgenerator.cpp ****     RESGEN_LOG_V("OfflineResPopController: populate offline legacy resource. (Order: after XML reso
 8276              	LM614:
 8277 70c3 C7442408 		movl	$LC267, 8(%esp)
 8277      806E0000 
 8278 70cb C7442404 		movl	$LC1, 4(%esp)
 8278      3E000000 
 8279 70d3 C7042401 		movl	$1, (%esp)
 8279      000000
 8280 70da E8000000 		call	_reslog_adaptor_log
 8280      00
3195:mtk_resgenerator.cpp **** 
3196:mtk_resgenerator.cpp ****     //Note: Binary resource population has been moved to python scripts.
3197:mtk_resgenerator.cpp **** 
3198:mtk_resgenerator.cpp ****     // Native resourc population
3199:mtk_resgenerator.cpp ****     offlineResPopService->populateStringResource(DEFAULT_OFFLINE_PRE_XML_LEGACY_STRING_DB);
 8282              	LM615:
 8283 70df C7442404 		movl	$LC254, 4(%esp)
 8283      206A0000 
 8284 70e7 8B45FC   		movl	-4(%ebp), %eax
 8285 70ea 890424   		movl	%eax, (%esp)
 8286 70ed E8000000 		call	__ZN20OfflineResPopService22populateStringResourceEPc
 8286      00
3200:mtk_resgenerator.cpp ****     offlineResPopService->populateImageResource(DEFAULT_OFFLINE_PRE_XML_LEGACY_IMAGE_DB);
 8288              	LM616:
 8289 70f2 C7442404 		movl	$LC255, 4(%esp)
 8289      606A0000 
 8290 70fa 8B45FC   		movl	-4(%ebp), %eax
 8291 70fd 890424   		movl	%eax, (%esp)
 8292 7100 E8000000 		call	__ZN20OfflineResPopService21populateImageResourceEPc
 8292      00
3201:mtk_resgenerator.cpp ****     offlineResPopService->populateAudioResource(DEFAULT_OFFLINE_PRE_XML_LEGACY_AUDIO_DB);
 8294              	LM617:
 8295 7105 C7442404 		movl	$LC256, 4(%esp)
 8295      A06A0000 
 8296 710d 8B45FC   		movl	-4(%ebp), %eax
 8297 7110 890424   		movl	%eax, (%esp)
 8298 7113 E8000000 		call	__ZN20OfflineResPopService21populateAudioResourceEPc
 8298      00
3202:mtk_resgenerator.cpp **** 
3203:mtk_resgenerator.cpp ****     RESGEN_LOG_V("OfflineResPopController: populate offline XML resource.");
 8300              	LM618:
 8301 7118 C7442408 		movl	$LC268, 8(%esp)
 8301      E06E0000 
 8302 7120 C7442404 		movl	$LC1, 4(%esp)
 8302      3E000000 
 8303 7128 C7042401 		movl	$1, (%esp)
 8303      000000
GAS LISTING d:/software/ovi_2503a_s3trc/ovi_2503a_s3trc/plutommi/Customer/ResGenerator/gcctmp/ccgnaaaa.s 			page 184


 8304 712f E8000000 		call	_reslog_adaptor_log
 8304      00
3204:mtk_resgenerator.cpp **** 
3205:mtk_resgenerator.cpp ****     // XML resource population
3206:mtk_resgenerator.cpp ****     offlineResPopService->populateStringResource(DEFAULT_OFFLINE_XML_STRING_DB);
 8306              	LM619:
 8307 7134 C7442404 		movl	$LC269, 4(%esp)
 8307      186F0000 
 8308 713c 8B45FC   		movl	-4(%ebp), %eax
 8309 713f 890424   		movl	%eax, (%esp)
 8310 7142 E8000000 		call	__ZN20OfflineResPopService22populateStringResourceEPc
 8310      00
3207:mtk_resgenerator.cpp ****     offlineResPopService->populateImageResource(DEFAULT_OFFLINE_XML_IMAGE_DB);
 8312              	LM620:
 8313 7147 C7442404 		movl	$LC270, 4(%esp)
 8313      346F0000 
 8314 714f 8B45FC   		movl	-4(%ebp), %eax
 8315 7152 890424   		movl	%eax, (%esp)
 8316 7155 E8000000 		call	__ZN20OfflineResPopService21populateImageResourceEPc
 8316      00
3208:mtk_resgenerator.cpp ****     offlineResPopService->populateAudioResource(DEFAULT_OFFLINE_XML_AUDIO_DB);
 8318              	LM621:
 8319 715a C7442404 		movl	$LC271, 4(%esp)
 8319      4F6F0000 
 8320 7162 8B45FC   		movl	-4(%ebp), %eax
 8321 7165 890424   		movl	%eax, (%esp)
 8322 7168 E8000000 		call	__ZN20OfflineResPopService21populateAudioResourceEPc
 8322      00
3209:mtk_resgenerator.cpp **** 
3210:mtk_resgenerator.cpp ****     RESGEN_LOG_V("OfflineResPopController: populate offline legacy resource. (Order: after XML reso
 8324              	LM622:
 8325 716d C7442408 		movl	$LC267, 8(%esp)
 8325      806E0000 
 8326 7175 C7442404 		movl	$LC1, 4(%esp)
 8326      3E000000 
 8327 717d C7042401 		movl	$1, (%esp)
 8327      000000
 8328 7184 E8000000 		call	_reslog_adaptor_log
 8328      00
3211:mtk_resgenerator.cpp ****     // Native resource population (for thos resource must be populated after XML resource populatio
3212:mtk_resgenerator.cpp ****     offlineResPopService->populateStringResource(DEFAULT_OFFLINE_POST_XML_LEGACY_STRING_DB);
 8330              	LM623:
 8331 7189 C7442404 		movl	$LC261, 4(%esp)
 8331      806C0000 
 8332 7191 8B45FC   		movl	-4(%ebp), %eax
 8333 7194 890424   		movl	%eax, (%esp)
 8334 7197 E8000000 		call	__ZN20OfflineResPopService22populateStringResourceEPc
 8334      00
3213:mtk_resgenerator.cpp ****     offlineResPopService->populateImageResource(DEFAULT_OFFLINE_POST_XML_LEGACY_IMAGE_DB);
 8336              	LM624:
 8337 719c C7442404 		movl	$LC262, 4(%esp)
 8337      C06C0000 
 8338 71a4 8B45FC   		movl	-4(%ebp), %eax
 8339 71a7 890424   		movl	%eax, (%esp)
 8340 71aa E8000000 		call	__ZN20OfflineResPopService21populateImageResourceEPc
 8340      00
3214:mtk_resgenerator.cpp ****     offlineResPopService->populateAudioResource(DEFAULT_OFFLINE_POST_XML_LEGACY_AUDIO_DB);
GAS LISTING d:/software/ovi_2503a_s3trc/ovi_2503a_s3trc/plutommi/Customer/ResGenerator/gcctmp/ccgnaaaa.s 			page 185


 8342              	LM625:
 8343 71af C7442404 		movl	$LC263, 4(%esp)
 8343      006D0000 
 8344 71b7 8B45FC   		movl	-4(%ebp), %eax
 8345 71ba 890424   		movl	%eax, (%esp)
 8346 71bd E8000000 		call	__ZN20OfflineResPopService21populateAudioResourceEPc
 8346      00
3215:mtk_resgenerator.cpp **** 
3216:mtk_resgenerator.cpp ****     // Stop Legacy native resoruce Popualtion
3217:mtk_resgenerator.cpp ****     ResPopDeinitAll();
 8348              	LM626:
 8349 71c2 E8000000 		call	_ResPopDeinitAll
 8349      00
3218:mtk_resgenerator.cpp **** 
3219:mtk_resgenerator.cpp ****     delete offlineResPopService;
 8351              	LM627:
 8352 71c7 8B45FC   		movl	-4(%ebp), %eax
 8353 71ca 890424   		movl	%eax, (%esp)
 8354 71cd E8000000 		call	__ZdlPv
 8354      00
3220:mtk_resgenerator.cpp **** }
 8356              	LM628:
 8357 71d2 C9       		leave
 8358 71d3 C3       		ret
 8359              	L268:
 8360              	LBE68:
 8364              	Lscope33:
 8371 71d4 8DB60000 		.align 32
 8371      00008DBF 
 8371      00000000 
 8372              	LC272:
 8373 71e0 72657367 		.ascii "resgen_xml_3d_meta_handle.py : Populate 3D meta data, Root = ..\\\\..\\\\Customer\\\\Image
 8373      656E5F78 
 8373      6D6C5F33 
 8373      645F6D65 
 8373      74615F68 
 8374 724c 90909090 		.align 32
 8374      90909090 
 8374      90909090 
 8374      90909090 
 8374      90909090 
 8375              	LC273:
 8376 7260 2E2E5C2E 		.ascii "..\\..\\..\\tools\\python25\\python resgen_xml_3d_meta_handle.py ..\\\\..\\\\Customer\\\\I
 8376      2E5C2E2E 
 8376      5C746F6F 
 8376      6C735C70 
 8376      7974686F 
 8377 72cb 90909090 		.align 32
 8377      90909090 
 8377      90909090 
 8377      90909090 
 8377      90909090 
 8378              	LC274:
 8379 72e0 4572726F 		.ascii "Error!! Meta resource for Binary 3D population failed!! External python script resgen_xml_
 8379      72212120 
 8379      4D657461 
 8379      20726573 
GAS LISTING d:/software/ovi_2503a_s3trc/ovi_2503a_s3trc/plutommi/Customer/ResGenerator/gcctmp/ccgnaaaa.s 			page 186


 8379      6F757263 
 8380 735a 8DB60000 		.align 32
 8380      0000
 8381              	LC275:
 8382 7360 506C6561 		.ascii "Please check the error message of the tag Py-RESGEN_XML_3D_META_HANDLE in this log file\0"
 8382      73652063 
 8382      6865636B 
 8382      20746865 
 8382      20657272 
 8383 73b8 908DB426 		.align 32
 8383      00000000 
 8384              	LC276:
 8385 73c0 45787465 		.ascii "External python script resgen_xml_3d_meta_handle return error.\0"
 8385      726E616C 
 8385      20707974 
 8385      686F6E20 
 8385      73637269 
 8386 73ff 90       		.align 32
 8387              	LC277:
 8388 7400 4572726F 		.ascii "Error!! Meta resource for Binary 3D population failed!!\0"
 8388      72212120 
 8388      4D657461 
 8388      20726573 
 8388      6F757263 
 8389 7438 908DB426 		.align 32
 8389      00000000 
 8390              	LC278:
 8391 7440 0A2A2A20 		.ascii "\12** External python script resgen_xml_3d_meta_handle.py return error. \12** Meta resourc
 8391      45787465 
 8391      726E616C 
 8391      20707974 
 8391      686F6E20 
 8392 7529 90       		.align 2
 8395              	__Z23prepare3DMetaPopulationv:
3221:mtk_resgenerator.cpp **** 
3222:mtk_resgenerator.cpp **** #endif //#ifdef  __RESGEN_INTERNAL_OFFLINE__
3223:mtk_resgenerator.cpp **** 
3224:mtk_resgenerator.cpp **** 
3225:mtk_resgenerator.cpp **** #ifdef __REGEN_INTERNAL_BATCHED__ 
3226:mtk_resgenerator.cpp **** 
3227:mtk_resgenerator.cpp **** ///////////////////////////////////////////////////////
3228:mtk_resgenerator.cpp **** // Batched Resource File Generation Service
3229:mtk_resgenerator.cpp **** ///////////////////////////////////////////////////////
3230:mtk_resgenerator.cpp **** 
3231:mtk_resgenerator.cpp **** class BatchedResFileGenService{
3232:mtk_resgenerator.cpp **** 
3233:mtk_resgenerator.cpp **** private:
3234:mtk_resgenerator.cpp ****     // Open dest file
3235:mtk_resgenerator.cpp ****     int initResFileOutput(char * destFileName){
3236:mtk_resgenerator.cpp ****         int resultFailFlag = 0;
3237:mtk_resgenerator.cpp **** 
3238:mtk_resgenerator.cpp ****         dest_file = fopen(destFileName, "wb");
3239:mtk_resgenerator.cpp ****         if (dest_file == NULL){
3240:mtk_resgenerator.cpp ****             resultFailFlag = -1;
3241:mtk_resgenerator.cpp ****             cout<<"dest_file could not open!\n"<<endl;
3242:mtk_resgenerator.cpp ****         }
3243:mtk_resgenerator.cpp **** 
GAS LISTING d:/software/ovi_2503a_s3trc/ovi_2503a_s3trc/plutommi/Customer/ResGenerator/gcctmp/ccgnaaaa.s 			page 187


3244:mtk_resgenerator.cpp ****         toolFlag = 1;
3245:mtk_resgenerator.cpp ****         ToolPopulateInitial();
3246:mtk_resgenerator.cpp ****         return resultFailFlag;
3247:mtk_resgenerator.cpp ****     }
3248:mtk_resgenerator.cpp ****     // Close dest file
3249:mtk_resgenerator.cpp ****     int deInitResFileOutput(){
3250:mtk_resgenerator.cpp ****         if(dest_file != NULL)
3251:mtk_resgenerator.cpp ****         {
3252:mtk_resgenerator.cpp ****             fclose(dest_file);
3253:mtk_resgenerator.cpp ****         }
3254:mtk_resgenerator.cpp ****         dest_file = NULL;
3255:mtk_resgenerator.cpp ****         return 0;
3256:mtk_resgenerator.cpp ****     }
3257:mtk_resgenerator.cpp **** 
3258:mtk_resgenerator.cpp **** public:
3259:mtk_resgenerator.cpp ****     // Read bached resgen source and destination file from the path batchedFileName
3260:mtk_resgenerator.cpp ****     // and generate resrouces 
3261:mtk_resgenerator.cpp ****     int generateResource(char * batchedFileName){
3262:mtk_resgenerator.cpp ****         int result = 0;
3263:mtk_resgenerator.cpp ****         ResFileGenParamModel * model = new ResFileGenParamModel();
3264:mtk_resgenerator.cpp ****         model->setRepositoryFileName(batchedFileName);
3265:mtk_resgenerator.cpp ****         ResFileGenParamTextFileDAO * dao = new ResFileGenParamTextFileDAO();
3266:mtk_resgenerator.cpp ****         model->loadFromRepository(dao);
3267:mtk_resgenerator.cpp ****         vector<ResFileGenParam *> * params = model->getAllResFileGenParam();
3268:mtk_resgenerator.cpp **** 
3269:mtk_resgenerator.cpp ****         for(unsigned int i=0;i<params->size();i++){
3270:mtk_resgenerator.cpp ****             ResFileGenParam * item = (*(params))[i];
3271:mtk_resgenerator.cpp ****             if(item != NULL){
3272:mtk_resgenerator.cpp ****                 char * srcPath = new char[item->getSrcPath()->size()+1];
3273:mtk_resgenerator.cpp ****                 strcpy(srcPath, item->getSrcPath()->c_str());
3274:mtk_resgenerator.cpp ****                 char * destPath = new char[item->getDestPath()->size()+1];
3275:mtk_resgenerator.cpp ****                 strcpy(destPath, item->getDestPath()->c_str());	 
3276:mtk_resgenerator.cpp ****                 int type = item->getType();
3277:mtk_resgenerator.cpp ****                 if(type == ResFileGenParam::IMAGE_TYPE){
3278:mtk_resgenerator.cpp ****                     if(generateImageRes(srcPath,destPath)!=0){
3279:mtk_resgenerator.cpp ****                         RESGEN_LOG_E("[IMAGE] File mode: %s, %s", srcPath, destPath);
3280:mtk_resgenerator.cpp ****                         result = -1;
3281:mtk_resgenerator.cpp **** 
3282:mtk_resgenerator.cpp ****                     }
3283:mtk_resgenerator.cpp ****                 }else if (type == ResFileGenParam::FONT_TYPE){
3284:mtk_resgenerator.cpp ****                     if(generateFontRes(srcPath,destPath)!=0){
3285:mtk_resgenerator.cpp ****                         RESGEN_LOG_E("[Font] File mode: %s, %s", srcPath, destPath);
3286:mtk_resgenerator.cpp ****                         result = -1;
3287:mtk_resgenerator.cpp ****                     }
3288:mtk_resgenerator.cpp ****                 }else if (type ==ResFileGenParam::AUDIO_TYPE){
3289:mtk_resgenerator.cpp ****                     if(generateAudioRes(srcPath,destPath)!=0){
3290:mtk_resgenerator.cpp ****                         RESGEN_LOG_E("[Audio] File mode: %s, %s", srcPath, destPath);
3291:mtk_resgenerator.cpp ****                         result = -1;
3292:mtk_resgenerator.cpp ****                     }
3293:mtk_resgenerator.cpp ****                 }
3294:mtk_resgenerator.cpp **** 
3295:mtk_resgenerator.cpp ****                 delete srcPath;
3296:mtk_resgenerator.cpp ****                 delete destPath;
3297:mtk_resgenerator.cpp **** 
3298:mtk_resgenerator.cpp ****             }
3299:mtk_resgenerator.cpp **** 
3300:mtk_resgenerator.cpp ****         }
GAS LISTING d:/software/ovi_2503a_s3trc/ovi_2503a_s3trc/plutommi/Customer/ResGenerator/gcctmp/ccgnaaaa.s 			page 188


3301:mtk_resgenerator.cpp ****         model->clear();	
3302:mtk_resgenerator.cpp ****         delete model;
3303:mtk_resgenerator.cpp ****         delete dao;
3304:mtk_resgenerator.cpp ****         return result;
3305:mtk_resgenerator.cpp ****     }
3306:mtk_resgenerator.cpp **** 
3307:mtk_resgenerator.cpp ****     int generateAudioRes(char * srcFileFileName, char * destFileName){
3308:mtk_resgenerator.cpp ****         int resourceLoadResult = 0;
3309:mtk_resgenerator.cpp ****         U16 nType;
3310:mtk_resgenerator.cpp ****         char upperFileName[MAX_FILENAME_LEN];
3311:mtk_resgenerator.cpp **** 
3312:mtk_resgenerator.cpp ****         strncpy(upperFileName, srcFileFileName, MAX_FILENAME_LEN);
3313:mtk_resgenerator.cpp ****         str_upper(upperFileName, MAX_FILENAME_LEN);
3314:mtk_resgenerator.cpp **** 
3315:mtk_resgenerator.cpp ****         if(initResFileOutput(destFileName)!=0){
3316:mtk_resgenerator.cpp ****             resourceLoadResult = -1;
3317:mtk_resgenerator.cpp ****         }
3318:mtk_resgenerator.cpp ****         if(Aload(upperFileName, &nType)!= MMI_TRUE){
3319:mtk_resgenerator.cpp ****             resourceLoadResult = -1;
3320:mtk_resgenerator.cpp ****         }
3321:mtk_resgenerator.cpp **** 
3322:mtk_resgenerator.cpp ****         if(deInitResFileOutput()!=0){
3323:mtk_resgenerator.cpp ****             resourceLoadResult = -1;
3324:mtk_resgenerator.cpp ****         }
3325:mtk_resgenerator.cpp **** 
3326:mtk_resgenerator.cpp ****         return resourceLoadResult;
3327:mtk_resgenerator.cpp ****     }
3328:mtk_resgenerator.cpp **** 
3329:mtk_resgenerator.cpp ****     int generateFontRes(char * srcFileFileName, char * destFileName){
3330:mtk_resgenerator.cpp ****         int resourceLoadResult = 0;
3331:mtk_resgenerator.cpp ****         U16 nType;
3332:mtk_resgenerator.cpp ****         char upperFileName[MAX_FILENAME_LEN];
3333:mtk_resgenerator.cpp **** 
3334:mtk_resgenerator.cpp ****         strncpy(upperFileName, srcFileFileName, MAX_FILENAME_LEN);
3335:mtk_resgenerator.cpp ****         str_upper(upperFileName, MAX_FILENAME_LEN);
3336:mtk_resgenerator.cpp **** 
3337:mtk_resgenerator.cpp ****         if(initResFileOutput(destFileName)!=0){
3338:mtk_resgenerator.cpp ****             resourceLoadResult = -1;
3339:mtk_resgenerator.cpp ****         }
3340:mtk_resgenerator.cpp **** 
3341:mtk_resgenerator.cpp ****         if(Fload(upperFileName, &nType)!= MMI_TRUE){
3342:mtk_resgenerator.cpp ****             resourceLoadResult = -1;
3343:mtk_resgenerator.cpp ****         }
3344:mtk_resgenerator.cpp ****         if(deInitResFileOutput()!=0){
3345:mtk_resgenerator.cpp ****             resourceLoadResult = -1;
3346:mtk_resgenerator.cpp ****         }
3347:mtk_resgenerator.cpp ****         return resourceLoadResult;
3348:mtk_resgenerator.cpp **** 
3349:mtk_resgenerator.cpp ****     }
3350:mtk_resgenerator.cpp ****     int generateImageRes(char * srcFileFileName, char * destFileName){
3351:mtk_resgenerator.cpp ****         int resourceLoadResult = 0;
3352:mtk_resgenerator.cpp ****         U16 nType;
3353:mtk_resgenerator.cpp ****         char upperFileName[MAX_FILENAME_LEN];
3354:mtk_resgenerator.cpp **** 
3355:mtk_resgenerator.cpp ****         strncpy(upperFileName, srcFileFileName, MAX_FILENAME_LEN);
3356:mtk_resgenerator.cpp ****         str_upper(upperFileName, MAX_FILENAME_LEN);
3357:mtk_resgenerator.cpp **** 
GAS LISTING d:/software/ovi_2503a_s3trc/ovi_2503a_s3trc/plutommi/Customer/ResGenerator/gcctmp/ccgnaaaa.s 			page 189


3358:mtk_resgenerator.cpp ****         if(initResFileOutput(destFileName)!=0){
3359:mtk_resgenerator.cpp ****             resourceLoadResult = -1;
3360:mtk_resgenerator.cpp ****         }
3361:mtk_resgenerator.cpp **** 
3362:mtk_resgenerator.cpp ****         SetImageProcessData processData;
3363:mtk_resgenerator.cpp ****         initImageProcessData(&processData);
3364:mtk_resgenerator.cpp ****         ResgenImageOutStream * outstream;
3365:mtk_resgenerator.cpp ****         ImageOutStreamInit(&outstream);
3366:mtk_resgenerator.cpp ****         processData.outstream = outstream;
3367:mtk_resgenerator.cpp **** 
3368:mtk_resgenerator.cpp ****         if(Iload(upperFileName, SYSTEM_IMAGE, AUTO_TYPE, &processData) == MMI_TRUE)
3369:mtk_resgenerator.cpp ****         {
3370:mtk_resgenerator.cpp **** 
3371:mtk_resgenerator.cpp ****             char *curr_output_data_filename = "temp_image";
3372:mtk_resgenerator.cpp ****             FILE *output_data_file = NULL;
3373:mtk_resgenerator.cpp ****             output_data_file = fopen(curr_output_data_filename, "ab");
3374:mtk_resgenerator.cpp ****             while (output_data_file == NULL)
3375:mtk_resgenerator.cpp ****             {
3376:mtk_resgenerator.cpp ****                 Sleep(50);
3377:mtk_resgenerator.cpp ****                 output_data_file = fopen(curr_output_data_filename, "ab");
3378:mtk_resgenerator.cpp ****             }
3379:mtk_resgenerator.cpp **** 
3380:mtk_resgenerator.cpp ****             ImageOutStreamOutputFile(outstream, output_data_file);
3381:mtk_resgenerator.cpp ****             ImageOutStreamDeinit(&outstream);
3382:mtk_resgenerator.cpp ****             MYFCLOSE(output_data_file);
3383:mtk_resgenerator.cpp ****         }
3384:mtk_resgenerator.cpp ****         else
3385:mtk_resgenerator.cpp ****         {
3386:mtk_resgenerator.cpp ****             resourceLoadResult = -1;
3387:mtk_resgenerator.cpp ****             ImageOutStreamDeinit(&outstream); 				  
3388:mtk_resgenerator.cpp ****         }
3389:mtk_resgenerator.cpp **** 
3390:mtk_resgenerator.cpp ****         if(deInitResFileOutput()!=0){
3391:mtk_resgenerator.cpp ****             resourceLoadResult = -1;
3392:mtk_resgenerator.cpp ****         }
3393:mtk_resgenerator.cpp ****         return resourceLoadResult;
3394:mtk_resgenerator.cpp ****     }
3395:mtk_resgenerator.cpp **** };
3396:mtk_resgenerator.cpp **** 
3397:mtk_resgenerator.cpp **** #endif //__REGEN_INTERNAL_BATCHED__
3398:mtk_resgenerator.cpp **** 
3399:mtk_resgenerator.cpp **** 
3400:mtk_resgenerator.cpp **** static void prepare3DMetaPopulation(){
 8397              	LM629:
 8398 752a 55       		pushl	%ebp
 8399 752b 89E5     		movl	%esp, %ebp
 8400 752d 83EC18   		subl	$24, %esp
3401:mtk_resgenerator.cpp **** #ifdef __RESGEN_INTERNAL_3D_META_RESGEN_AUTO__
3402:mtk_resgenerator.cpp ****     // Populate the 3D meta resource so that APP developer don't need to add the res declaration to
3403:mtk_resgenerator.cpp ****     // manually.
3404:mtk_resgenerator.cpp **** #ifdef __COSMOS_MMI__
3405:mtk_resgenerator.cpp ****     RESGEN_LOG_V("resgen_xml_3d_meta_handle.py : Populate 3D meta data, Root = " RES_THEME_ROOT);
3406:mtk_resgenerator.cpp ****     if(0 != execute_ext_command("..\\..\\..\\" "tools\\python25\\python" " resgen_xml_3d_meta_handl
3407:mtk_resgenerator.cpp **** #else
3408:mtk_resgenerator.cpp ****     RESGEN_LOG_V("resgen_xml_3d_meta_handle.py : Populate 3D meta data, Root = " CUST_IMG_PATH "\\M
 8402              	LM630:
 8403              	LBB69:
GAS LISTING d:/software/ovi_2503a_s3trc/ovi_2503a_s3trc/plutommi/Customer/ResGenerator/gcctmp/ccgnaaaa.s 			page 190


 8404 7530 C7442408 		movl	$LC272, 8(%esp)
 8404      E0710000 
 8405 7538 C7442404 		movl	$LC1, 4(%esp)
 8405      3E000000 
 8406 7540 C7042401 		movl	$1, (%esp)
 8406      000000
 8407 7547 E8000000 		call	_reslog_adaptor_log
 8407      00
3409:mtk_resgenerator.cpp ****     if(0 != execute_ext_command("..\\..\\..\\" "tools\\python25\\python" " resgen_xml_3d_meta_handl
 8409              	LM631:
 8410 754c C7042460 		movl	$LC273, (%esp)
 8410      720000
 8411 7553 E8000000 		call	_execute_ext_command
 8411      00
 8412 7558 85C0     		testl	%eax, %eax
 8413 755a 7465     		je	L271
3410:mtk_resgenerator.cpp **** #endif // RES_THEME_ROOT
3411:mtk_resgenerator.cpp ****     {
3412:mtk_resgenerator.cpp ****         mtk_resgen_set_error();
 8415              	LM632:
 8416 755c E8000000 		call	_mtk_resgen_set_error
 8416      00
3413:mtk_resgenerator.cpp ****         RESGEN_LOG_E("Error!! Meta resource for Binary 3D population failed!! External python scrip
 8418              	LM633:
 8419 7561 C7442408 		movl	$LC274, 8(%esp)
 8419      E0720000 
 8420 7569 C7442404 		movl	$LC1, 4(%esp)
 8420      3E000000 
 8421 7571 C7042403 		movl	$3, (%esp)
 8421      000000
 8422 7578 E8000000 		call	_reslog_adaptor_log
 8422      00
3414:mtk_resgenerator.cpp ****         RES_LOG_PENDING_FATAL(RESGEN_TAG, "Error!! Meta resource for Binary 3D population failed!!"
 8424              	LM634:
 8425 757d C7442410 		movl	$LC275, 16(%esp)
 8425      60730000 
 8426 7585 C744240C 		movl	$LC276, 12(%esp)
 8426      C0730000 
 8427 758d C7442408 		movl	$LC277, 8(%esp)
 8427      00740000 
 8428 7595 C7442404 		movl	$LC1, 4(%esp)
 8428      3E000000 
 8429 759d C7042403 		movl	$3, (%esp)
 8429      000000
 8430 75a4 E8000000 		call	_reslog_adaptor_fatal_error_pending_log
 8430      00
3415:mtk_resgenerator.cpp ****         fprintf(stderr, "\n** External python script resgen_xml_3d_meta_handle.py return error. \n*
 8432              	LM635:
 8433 75a9 C7442404 		movl	$LC278, 4(%esp)
 8433      40740000 
 8434 75b1 A1000000 		movl	__imp___iob, %eax
 8434      00
 8435 75b6 83C040   		addl	$64, %eax
 8436 75b9 890424   		movl	%eax, (%esp)
 8437 75bc E8000000 		call	_fprintf
 8437      00
3416:mtk_resgenerator.cpp **** 
GAS LISTING d:/software/ovi_2503a_s3trc/ovi_2503a_s3trc/plutommi/Customer/ResGenerator/gcctmp/ccgnaaaa.s 			page 191


3417:mtk_resgenerator.cpp ****     }
3418:mtk_resgenerator.cpp **** #endif //__RESGEN_INTERNAL_3D_META_RESGEN_AUTO__
3419:mtk_resgenerator.cpp **** }
 8439              	LM636:
 8440              	L271:
 8441 75c1 C9       		leave
 8442 75c2 C3       		ret
 8443              	LBE69:
 8444              	Lscope34:
 8446              	LC279:
 8447 75c3 00       		.ascii "\0"
 8448 75c4 00000000 		.space 611
 8448      00000000 
 8448      00000000 
 8448      00000000 
 8448      00000000 
 8449 7827 90909090 		.align 32
 8449      90909090 
 8449      90909090 
 8449      90909090 
 8449      90909090 
 8450              	LC280:
 8451 7840 2E2E5C2E 		.ascii "..\\..\\..\\tools\\python25\\python .\\resgen_str_compress.py -p %d > debug\\resgen_str_co
 8451      2E5C2E2E 
 8451      5C746F6F 
 8451      6C735C70 
 8451      7974686F 
 8452 789e 89F6     		.align 32
 8453              	LC281:
 8454 78a0 4572726F 		.ascii "Error!! String Resource Code generation failed, please check plutommi\\customer\\resgenera
 8454      72212120 
 8454      53747269 
 8454      6E672052 
 8454      65736F75 
 8455 791a 8DB60000 		.align 32
 8455      0000
 8456              	LC282:
 8457 7920 0A2A2A20 		.ascii "\12** Error!! String Resource Code generation failed!!\12** External python script resgen_
 8457      4572726F 
 8457      72212120 
 8457      53747269 
 8457      6E672052 
 8458 79e3 90909090 		.align 32
 8458      90909090 
 8458      90909090 
 8458      90909090 
 8458      90909090 
 8459              	LC283:
 8460 7a00 706C6561 		.ascii "please check plutommi\\customer\\resgenerator\\debug\\resgen_str_compress.log for the deta
 8460      73652063 
 8460      6865636B 
 8460      20706C75 
 8460      746F6D6D 
 8461 7a59 8DB42600 		.align 32
 8461      000000
 8462              	LC284:
 8463 7a60 45787465 		.ascii "External python script resgen_str_compress.py\0"
GAS LISTING d:/software/ovi_2503a_s3trc/ovi_2503a_s3trc/plutommi/Customer/ResGenerator/gcctmp/ccgnaaaa.s 			page 192


 8463      726E616C 
 8463      20707974 
 8463      686F6E20 
 8463      73637269 
 8464 7a8e 90909090 		.align 32
 8464      90909090 
 8464      90909090 
 8464      90909090 
 8464      9090
 8465              	LC285:
 8466 7aa0 4572726F 		.ascii "Error!! String Resource Code generation failed!!\0"
 8466      72212120 
 8466      53747269 
 8466      6E672052 
 8466      65736F75 
 8467 7ad1 EB0D9090 		.align 32
 8467      90909090 
 8467      90909090 
 8467      909090
 8468              	LC286:
 8469 7ae0 4F4E2D44 		.ascii "ON-DEMOND IMAGE CACHE SIZE: %d\0"
 8469      454D4F4E 
 8469      4420494D 
 8469      41474520 
 8469      43414348 
 8470              	LC292:
 8471 7aff 616C6C00 		.ascii "all\0"
 8472 7b03 90909090 		.align 32
 8472      90909090 
 8472      90909090 
 8472      90909090 
 8472      90909090 
 8473              	LC293:
 8474 7b20 2E2E5C2E 		.ascii "..\\..\\..\\tools\\python25\\python .\\resgen_img_group_compress.py --mg=%d --sg=%d -m %s 
 8474      2E5C2E2E 
 8474      5C746F6F 
 8474      6C735C70 
 8474      7974686F 
 8475              		.align 32
 8476              	LC294:
 8477 7ba0 4572726F 		.ascii "Error!! Image Resoruce Code generation failed, please check plutommi\\customer\\resgenerat
 8477      72212120 
 8477      496D6167 
 8477      65205265 
 8477      736F7275 
 8478 7c1f 90       		.align 32
 8479              	LC295:
 8480 7c20 0A2A2A20 		.ascii "\12** Error!! Image Resoruce Code generation failed!! \12** External python script resgen_
 8480      4572726F 
 8480      72212120 
 8480      496D6167 
 8480      65205265 
 8481 7cfc 8D742600 		.align 32
 8482              	LC296:
 8483 7d00 706C6561 		.ascii "please check plutommi\\customer\\resgenerator\\debug\\resgen_img_group_compress.log for th
 8483      73652063 
 8483      6865636B 
GAS LISTING d:/software/ovi_2503a_s3trc/ovi_2503a_s3trc/plutommi/Customer/ResGenerator/gcctmp/ccgnaaaa.s 			page 193


 8483      20706C75 
 8483      746F6D6D 
 8484 7d5f 90       		.align 32
 8485              	LC297:
 8486 7d60 45787465 		.ascii "External python script resgen_img_group_compress.py return error.\0"
 8486      726E616C 
 8486      20707974 
 8486      686F6E20 
 8486      73637269 
 8487 7da2 90909090 		.align 32
 8487      90909090 
 8487      90909090 
 8487      90909090 
 8487      90909090 
 8488              	LC298:
 8489 7dc0 4572726F 		.ascii "Error!! Image Resoruce Code generation failed!!\0"
 8489      72212120 
 8489      496D6167 
 8489      65205265 
 8489      736F7275 
 8490              		.align 2
 8493              	__Z19PostRegenOperationsv:
3420:mtk_resgenerator.cpp **** 
3421:mtk_resgenerator.cpp **** 
3422:mtk_resgenerator.cpp **** 
3423:mtk_resgenerator.cpp **** // Do Post Code Generations:
3424:mtk_resgenerator.cpp **** // (1) Third ROM image/string resource
3425:mtk_resgenerator.cpp **** // (2) Compressed image/string resource
3426:mtk_resgenerator.cpp **** 
3427:mtk_resgenerator.cpp **** #if !defined (__CAT_SUPPORT__) && !defined(__MBA_LANG_ONLY__) 
3428:mtk_resgenerator.cpp ****     #define IMG_GROUP_CMD_OPTION_THIRD_ROM_BINS "all"
3429:mtk_resgenerator.cpp **** #else //__CAT_SUPPORT__
3430:mtk_resgenerator.cpp **** // When CAT 2.0 or MBA's langpack is enabled, string resouce is put into CAT region and langpack, n
3431:mtk_resgenerator.cpp ****     #define IMG_GROUP_CMD_OPTION_THIRD_ROM_BINS "no_str"
3432:mtk_resgenerator.cpp **** #endif //__CAT_SUPPORT__
3433:mtk_resgenerator.cpp **** 
3434:mtk_resgenerator.cpp **** static void PostRegenOperations(){
 8495              	LM637:
 8496 7df0 55       		pushl	%ebp
 8497 7df1 89E5     		movl	%esp, %ebp
 8498 7df3 57       		pushl	%edi
 8499 7df4 81ECA402 		subl	$676, %esp
 8499      0000
3435:mtk_resgenerator.cpp **** 
3436:mtk_resgenerator.cpp ****     char cmdBuf[SHELL_CMD_BUFLEN] = "";
 8501              	LM638:
 8502              	LBB70:
 8503 7dfa 0FB605C3 		movzbl	LC279, %eax
 8503      750000
 8504 7e01 888588FD 		movb	%al, -632(%ebp)
 8504      FFFF
 8505 7e07 8DBD89FD 		leal	-631(%ebp), %edi
 8505      FFFF
 8506 7e0d FC       		cld
 8507 7e0e B9630200 		movl	$611, %ecx
 8507      00
 8508 7e13 B000     		movb	$0, %al
GAS LISTING d:/software/ovi_2503a_s3trc/ovi_2503a_s3trc/plutommi/Customer/ResGenerator/gcctmp/ccgnaaaa.s 			page 194


 8509 7e15 F3       		rep
 8510 7e16 AA       		stosb
3437:mtk_resgenerator.cpp ****     int exeResult = 1;
 8512              	LM639:
 8513 7e17 C78584FD 		movl	$1, -636(%ebp)
 8513      FFFF0100 
 8513      0000
3438:mtk_resgenerator.cpp ****      
3439:mtk_resgenerator.cpp ****     // Generate 3rd ROM and string compresssion source codes
3440:mtk_resgenerator.cpp ****     sprintf(cmdBuf, "..\\..\\..\\tools\\python25\\python .\\resgen_str_compress.py -p %d > debug\\r
 8515              	LM640:
 8516 7e21 C7442408 		movl	$0, 8(%esp)
 8516      00000000 
 8517 7e29 C7442404 		movl	$LC280, 4(%esp)
 8517      40780000 
 8518 7e31 8D8588FD 		leal	-632(%ebp), %eax
 8518      FFFF
 8519 7e37 890424   		movl	%eax, (%esp)
 8520 7e3a E8000000 		call	_sprintf
 8520      00
3441:mtk_resgenerator.cpp ****     exeResult = execute_ext_command(cmdBuf);
 8522              	LM641:
 8523 7e3f 8D8588FD 		leal	-632(%ebp), %eax
 8523      FFFF
 8524 7e45 890424   		movl	%eax, (%esp)
 8525 7e48 E8000000 		call	_execute_ext_command
 8525      00
 8526 7e4d 898584FD 		movl	%eax, -636(%ebp)
 8526      FFFF
3442:mtk_resgenerator.cpp ****     if( exeResult!= 0){
 8528              	LM642:
 8529 7e53 83BD84FD 		cmpl	$0, -636(%ebp)
 8529      FFFF00
 8530 7e5a 7460     		je	L274
3443:mtk_resgenerator.cpp ****         RESGEN_LOG_E("Error!! String Resource Code generation failed, please check plutommi\\custom
 8532              	LM643:
 8533 7e5c C7442408 		movl	$LC281, 8(%esp)
 8533      A0780000 
 8534 7e64 C7442404 		movl	$LC1, 4(%esp)
 8534      3E000000 
 8535 7e6c C7042403 		movl	$3, (%esp)
 8535      000000
 8536 7e73 E8000000 		call	_reslog_adaptor_log
 8536      00
3444:mtk_resgenerator.cpp ****         fprintf(stderr, "\n** Error!! String Resource Code generation failed!!\n** External python 
 8538              	LM644:
 8539 7e78 C7442404 		movl	$LC282, 4(%esp)
 8539      20790000 
 8540 7e80 A1000000 		movl	__imp___iob, %eax
 8540      00
 8541 7e85 83C040   		addl	$64, %eax
 8542 7e88 890424   		movl	%eax, (%esp)
 8543 7e8b E8000000 		call	_fprintf
 8543      00
3445:mtk_resgenerator.cpp ****         RES_LOG_PENDING_FATAL(RESGEN_TAG, "Error!! String Resource Code generation failed!!","Exter
 8545              	LM645:
 8546 7e90 C7442410 		movl	$LC283, 16(%esp)
GAS LISTING d:/software/ovi_2503a_s3trc/ovi_2503a_s3trc/plutommi/Customer/ResGenerator/gcctmp/ccgnaaaa.s 			page 195


 8546      007A0000 
 8547 7e98 C744240C 		movl	$LC284, 12(%esp)
 8547      607A0000 
 8548 7ea0 C7442408 		movl	$LC285, 8(%esp)
 8548      A07A0000 
 8549 7ea8 C7442404 		movl	$LC1, 4(%esp)
 8549      3E000000 
 8550 7eb0 C7042403 		movl	$3, (%esp)
 8550      000000
 8551 7eb7 E8000000 		call	_reslog_adaptor_fatal_error_pending_log
 8551      00
 8552              	L274:
3446:mtk_resgenerator.cpp ****     }
3447:mtk_resgenerator.cpp **** 
3448:mtk_resgenerator.cpp ****     // Check N-group image configuration here   
3449:mtk_resgenerator.cpp ****     RESGEN_LOG_V("ON-DEMOND IMAGE CACHE SIZE: %d",MMI_RESOURCE_IMAGE_CACHE_SIZE);
 8554              	LM646:
 8555 7ebc C744240C 		movl	$15360, 12(%esp)
 8555      003C0000 
 8556 7ec4 C7442408 		movl	$LC286, 8(%esp)
 8556      E07A0000 
 8557 7ecc C7442404 		movl	$LC1, 4(%esp)
 8557      3E000000 
 8558 7ed4 C7042401 		movl	$1, (%esp)
 8558      000000
 8559 7edb E8000000 		call	_reslog_adaptor_log
 8559      00
3450:mtk_resgenerator.cpp **** #ifndef __MMI_RESOURCE_6261_SLIM__
3451:mtk_resgenerator.cpp ****     if(RES_SINGLE_IMG_GROUP_MAX_SIZE > ((MMI_RESOURCE_IMAGE_CACHE_SIZE- 4 * RES_MULTI_IMG_GROUP_MAX
3452:mtk_resgenerator.cpp ****         RESGEN_LOG_E("Image group configurtion error!! RES_SINGLE_IMG_GROUP_MAX_SIZE must < MMI_RES
3453:mtk_resgenerator.cpp ****         fprintf(stderr, "\n** Image group configurtion error!!\n** RES_SINGLE_IMG_GROUP_MAX_SIZE mu
3454:mtk_resgenerator.cpp ****         RES_LOG_PENDING_FATAL(RESGEN_TAG, "Image group configurtion error!!","Doesn't support your 
3455:mtk_resgenerator.cpp **** 
3456:mtk_resgenerator.cpp ****     }
3457:mtk_resgenerator.cpp ****     
3458:mtk_resgenerator.cpp ****     if(RES_BOOT_IMG_GROUP_MAX_SIZE > (MMI_RESOURCE_IMAGE_CACHE_SIZE - 4* RES_MULTI_IMG_GROUP_MAX_SI
3459:mtk_resgenerator.cpp ****         RESGEN_LOG_E("Image group configurtion error!! RES_BOOT_IMG_GROUP_MAX_SIZE must < MMI_RESOU
3460:mtk_resgenerator.cpp ****         fprintf(stderr,"\n** Image group configurtion error!! RES_BOOT_IMG_GROUP_MAX_SIZE must < MM
3461:mtk_resgenerator.cpp ****         RES_LOG_PENDING_FATAL(RESGEN_TAG, "Image group configurtion error!!","Doesn't support you c
3462:mtk_resgenerator.cpp ****     }
3463:mtk_resgenerator.cpp **** #else //__MMI_RESOURCE_6261_SLIM__
3464:mtk_resgenerator.cpp **** /*
3465:mtk_resgenerator.cpp **** 	if(MMI_RESOURCE_IMAGE_CACHE_SIZE < 3 * RES_MULTI_IMG_GROUP_MAX_SIZE){
3466:mtk_resgenerator.cpp **** 		RESGEN_LOG_E("Image group configurtion error!! MMI_RESOURCE_IMAGE_CACHE_SIZE must >= 3 * RES_MULT
3467:mtk_resgenerator.cpp **** 		fprintf(stderr, "\n** Image group configurtion error!!\n** MMI_RESOURCE_IMAGE_CACHE_SIZE must >= 
3468:mtk_resgenerator.cpp **** 		RES_LOG_PENDING_FATAL(RESGEN_TAG, "Image group configurtion error!!","Doesn't support your config
3469:mtk_resgenerator.cpp ****     
3470:mtk_resgenerator.cpp **** 	}
3471:mtk_resgenerator.cpp **** */
3472:mtk_resgenerator.cpp **** #endif //__MMI_RESOURCE_6261_SLIM__
3473:mtk_resgenerator.cpp **** #ifdef __MMI_RESOURCE_LZMA_IMAGE_GROUP_COMPRESS__
3474:mtk_resgenerator.cpp ****     if(RES_SINGLE_IMG_GROUP_MAX_SIZE != RES_MULTI_IMG_GROUP_MAX_SIZE || RES_MULTI_IMG_GROUP_MAX_SIZ
3475:mtk_resgenerator.cpp ****         RESGEN_LOG_E("Image group configurtion error!! RES_SINGLE_IMG_GROUP_MAX_SIZE and RES_BOOT_I
3476:mtk_resgenerator.cpp ****         fprintf(stderr,"\n** Image group configurtion error!! \n** RES_SINGLE_IMG_GROUP_MAX_SIZE an
3477:mtk_resgenerator.cpp ****         RES_LOG_PENDING_FATAL(RESGEN_TAG, "Image group configurtion error", "Doesn't support you co
3478:mtk_resgenerator.cpp ****     }   
3479:mtk_resgenerator.cpp **** #endif
GAS LISTING d:/software/ovi_2503a_s3trc/ovi_2503a_s3trc/plutommi/Customer/ResGenerator/gcctmp/ccgnaaaa.s 			page 196


3480:mtk_resgenerator.cpp ****     
3481:mtk_resgenerator.cpp ****     // Generate 3rd ROM and Image compression source codes
3482:mtk_resgenerator.cpp **** #ifdef RES_BOOT_IMG_GROUPD_ID_CONFIG
3483:mtk_resgenerator.cpp ****     sprintf(cmdBuf, "..\\..\\..\\tools\\python25\\python .\\resgen_img_group_compress.py --mg=%d --
3484:mtk_resgenerator.cpp ****             RES_MULTI_IMG_GROUP_MAX_SIZE, RES_SINGLE_IMG_GROUP_MAX_SIZE, RES_BOOT_IMG_GROUP_MAX_SIZ
3485:mtk_resgenerator.cpp **** #else //RES_BOOT_IMG_GROUPD_ID_CONFIG
3486:mtk_resgenerator.cpp ****     sprintf(cmdBuf, "..\\..\\..\\tools\\python25\\python .\\resgen_img_group_compress.py --mg=%d --
 8561              	LM647:
 8562 7ee0 C7442414 		movl	$5, 20(%esp)
 8562      05000000 
 8563 7ee8 C7442410 		movl	$LC292, 16(%esp)
 8563      FF7A0000 
 8564 7ef0 C744240C 		movl	$3072, 12(%esp)
 8564      000C0000 
 8565 7ef8 C7442408 		movl	$3072, 8(%esp)
 8565      000C0000 
 8566 7f00 C7442404 		movl	$LC293, 4(%esp)
 8566      207B0000 
 8567 7f08 8D8588FD 		leal	-632(%ebp), %eax
 8567      FFFF
 8568 7f0e 890424   		movl	%eax, (%esp)
 8569 7f11 E8000000 		call	_sprintf
 8569      00
3487:mtk_resgenerator.cpp ****             RES_MULTI_IMG_GROUP_MAX_SIZE, RES_SINGLE_IMG_GROUP_MAX_SIZE, IMG_GROUP_CMD_OPTION_THIRD
3488:mtk_resgenerator.cpp **** #endif //RES_BOOT_IMG_GROUPD_ID_CONFIG
3489:mtk_resgenerator.cpp **** 
3490:mtk_resgenerator.cpp ****     exeResult = execute_ext_command(cmdBuf);
 8571              	LM648:
 8572 7f16 8D8588FD 		leal	-632(%ebp), %eax
 8572      FFFF
 8573 7f1c 890424   		movl	%eax, (%esp)
 8574 7f1f E8000000 		call	_execute_ext_command
 8574      00
 8575 7f24 898584FD 		movl	%eax, -636(%ebp)
 8575      FFFF
3491:mtk_resgenerator.cpp ****     if( exeResult!= 0){
 8577              	LM649:
 8578 7f2a 83BD84FD 		cmpl	$0, -636(%ebp)
 8578      FFFF00
 8579 7f31 7460     		je	L273
3492:mtk_resgenerator.cpp ****         RESGEN_LOG_E("Error!! Image Resoruce Code generation failed, please check plutommi\\custome
 8581              	LM650:
 8582 7f33 C7442408 		movl	$LC294, 8(%esp)
 8582      A07B0000 
 8583 7f3b C7442404 		movl	$LC1, 4(%esp)
 8583      3E000000 
 8584 7f43 C7042403 		movl	$3, (%esp)
 8584      000000
 8585 7f4a E8000000 		call	_reslog_adaptor_log
 8585      00
3493:mtk_resgenerator.cpp ****         fprintf(stderr,"\n** Error!! Image Resoruce Code generation failed!! \n** External python s
 8587              	LM651:
 8588 7f4f C7442404 		movl	$LC295, 4(%esp)
 8588      207C0000 
 8589 7f57 A1000000 		movl	__imp___iob, %eax
 8589      00
 8590 7f5c 83C040   		addl	$64, %eax
GAS LISTING d:/software/ovi_2503a_s3trc/ovi_2503a_s3trc/plutommi/Customer/ResGenerator/gcctmp/ccgnaaaa.s 			page 197


 8591 7f5f 890424   		movl	%eax, (%esp)
 8592 7f62 E8000000 		call	_fprintf
 8592      00
3494:mtk_resgenerator.cpp ****         RES_LOG_PENDING_FATAL(RESGEN_TAG, "Error!! Image Resoruce Code generation failed!!", "Exter
 8594              	LM652:
 8595 7f67 C7442410 		movl	$LC296, 16(%esp)
 8595      007D0000 
 8596 7f6f C744240C 		movl	$LC297, 12(%esp)
 8596      607D0000 
 8597 7f77 C7442408 		movl	$LC298, 8(%esp)
 8597      C07D0000 
 8598 7f7f C7442404 		movl	$LC1, 4(%esp)
 8598      3E000000 
 8599 7f87 C7042403 		movl	$3, (%esp)
 8599      000000
 8600 7f8e E8000000 		call	_reslog_adaptor_fatal_error_pending_log
 8600      00
3495:mtk_resgenerator.cpp ****     }
3496:mtk_resgenerator.cpp **** }
 8602              	LM653:
 8603              	L273:
 8604 7f93 81C4A402 		addl	$676, %esp
 8604      0000
 8605 7f99 5F       		popl	%edi
 8606 7f9a 5D       		popl	%ebp
 8607 7f9b C3       		ret
 8608              	LBE70:
 8613              	Lscope35:
 8616              	LC299:
 8617 7f9c 61726763 		.ascii "argc = %d\0"
 8617      203D2025 
 8617      6400
 8618              	LC300:
 8619 7fa6 61726776 		.ascii "argv[%d] = %s\0"
 8619      5B25645D 
 8619      203D2025 
 8619      7300
 8620              	LC301:
 8621 7fb4 72657367 		.ascii "resgen_custpack.log\0"
 8621      656E5F63 
 8621      75737470 
 8621      61636B2E 
 8621      6C6F6700 
 8622              	LC302:
 8623 7fc8 2D6600   		.ascii "-f\0"
 8624              	LC303:
 8625 7fcb 2D6900   		.ascii "-i\0"
 8626              	LC304:
 8627 7fce 2D6100   		.ascii "-a\0"
 8628              	LC305:
 8629 7fd1 2D4600   		.ascii "-F\0"
 8630              	LC306:
 8631 7fd4 64657374 		.ascii "dest_file could not open!\0"
 8631      5F66696C 
 8631      6520636F 
 8631      756C6420 
 8631      6E6F7420 
GAS LISTING d:/software/ovi_2503a_s3trc/ovi_2503a_s3trc/plutommi/Customer/ResGenerator/gcctmp/ccgnaaaa.s 			page 198


 8632              	LC307:
 8633 7fee 74656D70 		.ascii "temp_image\0"
 8633      5F696D61 
 8633      676500
 8634              	LC308:
 8635 7ff9 616200   		.ascii "ab\0"
 8636 7ffc 8D742600 		.align 32
 8637              	LC309:
 8638 8000 6D746B5F 		.ascii "mtk_resgenerator.exe paramater error\0"
 8638      72657367 
 8638      656E6572 
 8638      61746F72 
 8638      2E657865 
 8639 8025 90909090 		.align 32
 8639      90909090 
 8639      90909090 
 8639      90909090 
 8639      90909090 
 8640              	LC310:
 8641 8040 5B455252 		.ascii "[ERR] mtk_resgenerator.exe paramater error\12\0"
 8641      5D206D74 
 8641      6B5F7265 
 8641      7367656E 
 8641      65726174 
 8642 806c 90909090 		.align 32
 8642      90909090 
 8642      90909090 
 8642      90909090 
 8642      90909090 
 8643              	LC311:
 8644 8080 6D746B5F 		.ascii "mtk_resgenerator.exe %s failed, can't load %s, no output to %s\0"
 8644      72657367 
 8644      656E6572 
 8644      61746F72 
 8644      2E657865 
 8645 80bf 90       		.align 32
 8646              	LC312:
 8647 80c0 5B455252 		.ascii "[ERR] mtk_resgenerator.exe %s failed, can't load %s, no output to %s\12\0"
 8647      5D206D74 
 8647      6B5F7265 
 8647      7367656E 
 8647      65726174 
 8648 8106 90909090 		.align 32
 8648      90909090 
 8648      90909090 
 8648      90909090 
 8648      90909090 
 8649              	LC313:
 8650 8120 6D746B5F 		.ascii "mtk_resgenerator.exe can't indentify the parameter, please check if the ImageFilename and 
 8650      72657367 
 8650      656E6572 
 8650      61746F72 
 8650      2E657865 
 8651 8193 8DB60000 		.align 32
 8651      00008DBC 
 8651      27000000 
 8651      00
GAS LISTING d:/software/ovi_2503a_s3trc/ovi_2503a_s3trc/plutommi/Customer/ResGenerator/gcctmp/ccgnaaaa.s 			page 199


 8652              	LC314:
 8653 81a0 5B455252 		.ascii "[ERR] mtk_resgenerator.exe can't indentify the parameter, please check if the ImageFilenam
 8653      5D206D74 
 8653      6B5F7265 
 8653      7367656E 
 8653      65726174 
 8654 821a 8DB60000 		.align 32
 8654      0000
 8655              	LC315:
 8656 8220 55736167 		.ascii "Usage: mtk_resgenerator.exe -f [-i or -a] ImageFilename OutputFilename\0"
 8656      653A206D 
 8656      746B5F72 
 8656      65736765 
 8656      6E657261 
 8657              	LC316:
 8658 8267 2D6700   		.ascii "-g\0"
 8659              	LC317:
 8660 826a 2D7800   		.ascii "-x\0"
 8661              	LC318:
 8662 826d 2D6300   		.ascii "-c\0"
 8663              	LC319:
 8664 8270 2D6200   		.ascii "-b\0"
 8665 8273 8DB60000 		.align 32
 8665      00008DBC 
 8665      27000000 
 8665      00
 8666              	LC320:
 8667 8280 42617463 		.ascii "Batched Resgen finished successfully\0"
 8667      68656420 
 8667      52657367 
 8667      656E2066 
 8667      696E6973 
 8668              	LC321:
 8669 82a5 42617463 		.ascii "Batched Resgen failed\0"
 8669      68656420 
 8669      52657367 
 8669      656E2066 
 8669      61696C65 
 8670 82bb 908D7426 		.align 32
 8670      00
 8671              	LC322:
 8672 82c0 55736167 		.ascii "Usage: mtk_resgenerator.exe -b [filename]\12\0"
 8672      653A206D 
 8672      746B5F72 
 8672      65736765 
 8672      6E657261 
 8673 82eb 90909090 		.align 32
 8673      90909090 
 8673      90909090 
 8673      90909090 
 8673      90909090 
 8674              	LC323:
 8675 8300 55736167 		.ascii "Usage: mtk_resgenerator.exe -g -x\0"
 8675      653A206D 
 8675      746B5F72 
 8675      65736765 
 8675      6E657261 
GAS LISTING d:/software/ovi_2503a_s3trc/ovi_2503a_s3trc/plutommi/Customer/ResGenerator/gcctmp/ccgnaaaa.s 			page 200


 8676 8322 90909090 		.align 32
 8676      90909090 
 8676      90909090 
 8676      90909090 
 8676      90909090 
 8677              	LC324:
 8678 8340 4D656469 		.ascii "MediaTek Resource Generate System 0.1\0"
 8678      6154656B 
 8678      20526573 
 8678      6F757263 
 8678      65204765 
 8679              	LC325:
 8680 8366 64656275 		.ascii "debug\0"
 8680      6700
 8681 836c 90909090 		.align 32
 8681      90909090 
 8681      90909090 
 8681      90909090 
 8681      90909090 
 8682              	LC326:
 8683 8380 27646562 		.ascii "'debug' directory already exists! ret=[%d]\0"
 8683      75672720 
 8683      64697265 
 8683      63746F72 
 8683      7920616C 
 8684              	LC327:
 8685 83ab 27646562 		.ascii "'debug' directory is created!\0"
 8685      75672720 
 8685      64697265 
 8685      63746F72 
 8685      79206973 
 8686              	LC328:
 8687 83c9 2D7200   		.ascii "-r\0"
 8688 83cc 90909090 		.align 32
 8688      90909090 
 8688      90909090 
 8688      90909090 
 8688      90909090 
 8689              	LC329:
 8690 83e0 5265736F 		.ascii "Resource ID range check old_last_menu=[%d], res_first=[%d] res_last=[%d].\12\0"
 8690      75726365 
 8690      20494420 
 8690      72616E67 
 8690      65206368 
 8691 842b 90909090 		.align 32
 8691      90909090 
 8691      90909090 
 8691      90909090 
 8691      90909090 
 8692              	LC330:
 8693 8440 5265736F 		.ascii "Resource ID range check old_last_menu=[%d], res_first=[%d] res_last=[%d].\0"
 8693      75726365 
 8693      20494420 
 8693      72616E67 
 8693      65206368 
 8694              	LC335:
 8695 848a 53746172 		.ascii "Start resource population\0"
GAS LISTING d:/software/ovi_2503a_s3trc/ovi_2503a_s3trc/plutommi/Customer/ResGenerator/gcctmp/ccgnaaaa.s 			page 201


 8695      74207265 
 8695      736F7572 
 8695      63652070 
 8695      6F70756C 
 8696 84a4 90909090 		.align 32
 8696      90909090 
 8696      90909090 
 8696      90909090 
 8696      90909090 
 8697              	LC336:
 8698 84c0 47656E65 		.ascii "GenerateStrResFile(): REF_LIST.txt created successfully\0"
 8698      72617465 
 8698      53747252 
 8698      65734669 
 8698      6C652829 
 8699 84f8 908DB426 		.align 32
 8699      00000000 
 8700              	LC337:
 8701 8500 47656E65 		.ascii "GenerateStrResFile(): Output: CustStrMap.c CustStrRes.c\0"
 8701      72617465 
 8701      53747252 
 8701      65734669 
 8701      6C652829 
 8702 8538 908DB426 		.align 32
 8702      00000000 
 8703              	LC338:
 8704 8540 47656E65 		.ascii "GenerateStrResFile(): Failed to generate: CustStrMap.c CustStrRes.c\0"
 8704      72617465 
 8704      53747252 
 8704      65734669 
 8704      6C652829 
 8705 8584 90909090 		.align 32
 8705      90909090 
 8705      90909090 
 8705      90909090 
 8705      90909090 
 8706              	LC339:
 8707 85a0 47656E65 		.ascii "GenerateStrResFile(): REF_LIST.txt creation failure\0"
 8707      72617465 
 8707      53747252 
 8707      65734669 
 8707      6C652829 
 8708 85d4 8DB60000 		.align 32
 8708      00008DBF 
 8708      00000000 
 8709              	LC340:
 8710 85e0 6D746B5F 		.ascii "mtk_resgenerator.exe split custimgdatahw.h failed.\0"
 8710      72657367 
 8710      656E6572 
 8710      61746F72 
 8710      2E657865 
 8711 8613 8DB60000 		.align 32
 8711      00008DBC 
 8711      27000000 
 8711      00
 8712              	LC341:
 8713 8620 6D746B5F 		.ascii "mtk_resgenerator.exe split custimgdatahw.h failed.\12\0"
GAS LISTING d:/software/ovi_2503a_s3trc/ovi_2503a_s3trc/plutommi/Customer/ResGenerator/gcctmp/ccgnaaaa.s 			page 202


 8713      72657367 
 8713      656E6572 
 8713      61746F72 
 8713      2E657865 
 8714 8654 8DB60000 		.align 32
 8714      00008DBF 
 8714      00000000 
 8715              	LC342:
 8716 8660 55736167 		.ascii "Usage: mtk_resgenerator.exe -g\0"
 8716      653A206D 
 8716      746B5F72 
 8716      65736765 
 8716      6E657261 
 8717 867f 90       		.align 2
 8721              	.globl _main
 8723              	_main:
3497:mtk_resgenerator.cpp **** 
3498:mtk_resgenerator.cpp **** /*****************************************************************************
3499:mtk_resgenerator.cpp **** * FUNCTION
3500:mtk_resgenerator.cpp **** *  main
3501:mtk_resgenerator.cpp **** * DESCRIPTION
3502:mtk_resgenerator.cpp **** *  main function of mtk_resgenerator
3503:mtk_resgenerator.cpp **** * PARAMETERS
3504:mtk_resgenerator.cpp **** *
3505:mtk_resgenerator.cpp **** * RETURNS
3506:mtk_resgenerator.cpp **** *  int
3507:mtk_resgenerator.cpp **** *****************************************************************************/
3508:mtk_resgenerator.cpp **** int main(int argc, char *argv[])
3509:mtk_resgenerator.cpp **** {
 8725              	LM654:
 8726 8680 55       		pushl	%ebp
 8727 8681 89E5     		movl	%esp, %ebp
 8728 8683 57       		pushl	%edi
 8729 8684 81ECE407 		subl	$2020, %esp
 8729      0000
 8730 868a 83E4F0   		andl	$-16, %esp
 8731 868d B8000000 		movl	$0, %eax
 8731      00
 8732 8692 898538F8 		movl	%eax, -1992(%ebp)
 8732      FFFF
 8733 8698 8B8538F8 		movl	-1992(%ebp), %eax
 8733      FFFF
 8734 869e E8000000 		call	__alloca
 8734      00
 8735 86a3 E8000000 		call	___main
 8735      00
3510:mtk_resgenerator.cpp ****     /*----------------------------------------------------------------*/
3511:mtk_resgenerator.cpp ****     /* Local Variables                                                */
3512:mtk_resgenerator.cpp ****     /*----------------------------------------------------------------*/
3513:mtk_resgenerator.cpp ****     char tempCommand[SHELL_CMD_BUFLEN];
3514:mtk_resgenerator.cpp ****     MMI_BOOL resourceLoadResult = MMI_FALSE;
 8737              	LM655:
 8738              	LBB71:
 8739 86a8 C78584FD 		movl	$0, -636(%ebp)
 8739      FFFF0000 
 8739      0000
3515:mtk_resgenerator.cpp ****     char custpaclLog[CUSTPACK_LOG_BUFLEN]="";
GAS LISTING d:/software/ovi_2503a_s3trc/ovi_2503a_s3trc/plutommi/Customer/ResGenerator/gcctmp/ccgnaaaa.s 			page 203


 8741              	LM656:
 8742 86b2 0FB605C3 		movzbl	LC279, %eax
 8742      750000
 8743 86b9 888578FC 		movb	%al, -904(%ebp)
 8743      FFFF
 8744 86bf 8DBD79FC 		leal	-903(%ebp), %edi
 8744      FFFF
 8745 86c5 FC       		cld
 8746 86c6 B9FF0000 		movl	$255, %ecx
 8746      00
 8747 86cb B000     		movb	$0, %al
 8748 86cd F3       		rep
 8749 86ce AA       		stosb
3516:mtk_resgenerator.cpp **** 
3517:mtk_resgenerator.cpp ****     /*----------------------------------------------------------------*/
3518:mtk_resgenerator.cpp ****     /* Code Body                                                      */
3519:mtk_resgenerator.cpp ****     /*----------------------------------------------------------------*/
3520:mtk_resgenerator.cpp ****     launch_resgen_services();
 8751              	LM657:
 8752 86cf E8ACDBFF 		call	__Z22launch_resgen_servicesv
 8752      FF
3521:mtk_resgenerator.cpp **** 
3522:mtk_resgenerator.cpp ****     {
3523:mtk_resgenerator.cpp ****         int i;
3524:mtk_resgenerator.cpp ****         RESGEN_LOG_V("argc = %d", argc);
 8754              	LM658:
 8755              	LBB72:
 8756 86d4 8B4508   		movl	8(%ebp), %eax
 8757 86d7 8944240C 		movl	%eax, 12(%esp)
 8758 86db C7442408 		movl	$LC299, 8(%esp)
 8758      9C7F0000 
 8759 86e3 C7442404 		movl	$LC1, 4(%esp)
 8759      3E000000 
 8760 86eb C7042401 		movl	$1, (%esp)
 8760      000000
 8761 86f2 E8000000 		call	_reslog_adaptor_log
 8761      00
3525:mtk_resgenerator.cpp ****         for(i=0;i<argc;i++)
 8763              	LM659:
 8764 86f7 C78574FC 		movl	$0, -908(%ebp)
 8764      FFFF0000 
 8764      0000
 8765              	L278:
 8766 8701 8B8574FC 		movl	-908(%ebp), %eax
 8766      FFFF
 8767 8707 3B4508   		cmpl	8(%ebp), %eax
 8768 870a 7C02     		jl	L281
 8769 870c EB47     		jmp	L279
 8770              	L281:
3526:mtk_resgenerator.cpp ****             RESGEN_LOG_V("argv[%d] = %s", i, argv[i]);
 8772              	LM660:
 8773 870e 8B8574FC 		movl	-908(%ebp), %eax
 8773      FFFF
 8774 8714 8D148500 		leal	0(,%eax,4), %edx
 8774      000000
 8775 871b 8B450C   		movl	12(%ebp), %eax
 8776 871e 8B0410   		movl	(%eax,%edx), %eax
GAS LISTING d:/software/ovi_2503a_s3trc/ovi_2503a_s3trc/plutommi/Customer/ResGenerator/gcctmp/ccgnaaaa.s 			page 204


 8777 8721 89442410 		movl	%eax, 16(%esp)
 8778 8725 8B8574FC 		movl	-908(%ebp), %eax
 8778      FFFF
 8779 872b 8944240C 		movl	%eax, 12(%esp)
 8780 872f C7442408 		movl	$LC300, 8(%esp)
 8780      A67F0000 
 8781 8737 C7442404 		movl	$LC1, 4(%esp)
 8781      3E000000 
 8782 873f C7042401 		movl	$1, (%esp)
 8782      000000
 8783 8746 E8000000 		call	_reslog_adaptor_log
 8783      00
 8785              	LM661:
 8786 874b 8D8574FC 		leal	-908(%ebp), %eax
 8786      FFFF
 8787 8751 FF00     		incl	(%eax)
 8788 8753 EBAC     		jmp	L278
 8789              	L279:
3527:mtk_resgenerator.cpp ****     }
3528:mtk_resgenerator.cpp **** 
3529:mtk_resgenerator.cpp ****     if(argc == 5)   //Check if run by CustPack tool
 8791              	LM662:
 8792              	LBE72:
 8793              	LBB73:
 8794 8755 837D0805 		cmpl	$5, 8(%ebp)
 8795 8759 0F858904 		jne	L282
 8795      0000
3530:mtk_resgenerator.cpp ****     {
3531:mtk_resgenerator.cpp **** 
3532:mtk_resgenerator.cpp ****         remove(CUSTPACL_LOG_FILE_NAME);//Delete cust error log file
 8797              	LM663:
 8798              	LBB74:
 8799 875f C70424B4 		movl	$LC301, (%esp)
 8799      7F0000
 8800 8766 E8000000 		call	_remove
 8800      00
3533:mtk_resgenerator.cpp ****         if(strcmp(argv[1], "-f")==0 && (strcmp(argv[2], "-i")==0 || strcmp(argv[2], "-a")==0 || str
 8802              	LM664:
 8803              	LBB75:
 8804 876b C7442404 		movl	$LC302, 4(%esp)
 8804      C87F0000 
 8805 8773 8B450C   		movl	12(%ebp), %eax
 8806 8776 83C004   		addl	$4, %eax
 8807 8779 8B00     		movl	(%eax), %eax
 8808 877b 890424   		movl	%eax, (%esp)
 8809 877e E8000000 		call	_strcmp
 8809      00
 8810 8783 85C0     		testl	%eax, %eax
 8811 8785 0F853204 		jne	L283
 8811      0000
 8812 878b C7442404 		movl	$LC303, 4(%esp)
 8812      CB7F0000 
 8813 8793 8B450C   		movl	12(%ebp), %eax
 8814 8796 83C008   		addl	$8, %eax
 8815 8799 8B00     		movl	(%eax), %eax
 8816 879b 890424   		movl	%eax, (%esp)
 8817 879e E8000000 		call	_strcmp
GAS LISTING d:/software/ovi_2503a_s3trc/ovi_2503a_s3trc/plutommi/Customer/ResGenerator/gcctmp/ccgnaaaa.s 			page 205


 8817      00
 8818 87a3 85C0     		testl	%eax, %eax
 8819 87a5 743C     		je	L284
 8820 87a7 C7442404 		movl	$LC304, 4(%esp)
 8820      CE7F0000 
 8821 87af 8B450C   		movl	12(%ebp), %eax
 8822 87b2 83C008   		addl	$8, %eax
 8823 87b5 8B00     		movl	(%eax), %eax
 8824 87b7 890424   		movl	%eax, (%esp)
 8825 87ba E8000000 		call	_strcmp
 8825      00
 8826 87bf 85C0     		testl	%eax, %eax
 8827 87c1 7420     		je	L284
 8828 87c3 C7442404 		movl	$LC305, 4(%esp)
 8828      D17F0000 
 8829 87cb 8B450C   		movl	12(%ebp), %eax
 8830 87ce 83C008   		addl	$8, %eax
 8831 87d1 8B00     		movl	(%eax), %eax
 8832 87d3 890424   		movl	%eax, (%esp)
 8833 87d6 E8000000 		call	_strcmp
 8833      00
 8834 87db 85C0     		testl	%eax, %eax
 8835 87dd 0F85DA03 		jne	L283
 8835      0000
 8836              	L284:
3534:mtk_resgenerator.cpp ****         {
3535:mtk_resgenerator.cpp ****             U16 nType;
3536:mtk_resgenerator.cpp ****             S8 upperFileName[MAX_FILENAME_LEN];
3537:mtk_resgenerator.cpp **** 
3538:mtk_resgenerator.cpp ****             dest_file = fopen(argv[4], "wb");
 8838              	LM665:
 8839              	LBB76:
 8840 87e3 C7442404 		movl	$LC42, 4(%esp)
 8840      590C0000 
 8841 87eb 8B450C   		movl	12(%ebp), %eax
 8842 87ee 83C010   		addl	$16, %eax
 8843 87f1 8B00     		movl	(%eax), %eax
 8844 87f3 890424   		movl	%eax, (%esp)
 8845 87f6 E8000000 		call	_fopen
 8845      00
 8846 87fb A3000000 		movl	%eax, _dest_file
 8846      00
3539:mtk_resgenerator.cpp ****             if (dest_file == NULL){
 8848              	LM666:
 8849 8800 833D0000 		cmpl	$0, _dest_file
 8849      000000
 8850 8807 7526     		jne	L285
3540:mtk_resgenerator.cpp ****                 resultFailFlag = 1;
 8852              	LM667:
 8853 8809 C7050000 		movl	$1, _resultFailFlag
 8853      00000100 
 8853      0000
3541:mtk_resgenerator.cpp ****                 RESGEN_LOG_V("dest_file could not open!");
 8855              	LM668:
 8856 8813 C7442408 		movl	$LC306, 8(%esp)
 8856      D47F0000 
 8857 881b C7442404 		movl	$LC1, 4(%esp)
GAS LISTING d:/software/ovi_2503a_s3trc/ovi_2503a_s3trc/plutommi/Customer/ResGenerator/gcctmp/ccgnaaaa.s 			page 206


 8857      3E000000 
 8858 8823 C7042401 		movl	$1, (%esp)
 8858      000000
 8859 882a E8000000 		call	_reslog_adaptor_log
 8859      00
 8860              	L285:
3542:mtk_resgenerator.cpp ****             }
3543:mtk_resgenerator.cpp **** 
3544:mtk_resgenerator.cpp ****             toolFlag = 1;
 8862              	LM669:
 8863 882f C7050000 		movl	$1, _toolFlag
 8863      00000100 
 8863      0000
3545:mtk_resgenerator.cpp ****             ToolPopulateInitial();
 8865              	LM670:
 8866 8839 E8000000 		call	_ToolPopulateInitial
 8866      00
3546:mtk_resgenerator.cpp **** 
3547:mtk_resgenerator.cpp ****             strncpy(upperFileName, argv[3], MAX_FILENAME_LEN);
 8868              	LM671:
 8869 883e C7442408 		movl	$512, 8(%esp)
 8869      00020000 
 8870 8846 8B450C   		movl	12(%ebp), %eax
 8871 8849 83C00C   		addl	$12, %eax
 8872 884c 8B00     		movl	(%eax), %eax
 8873 884e 89442404 		movl	%eax, 4(%esp)
 8874 8852 8D8568FA 		leal	-1432(%ebp), %eax
 8874      FFFF
 8875 8858 890424   		movl	%eax, (%esp)
 8876 885b E8000000 		call	_strncpy
 8876      00
3548:mtk_resgenerator.cpp ****             str_upper(upperFileName, MAX_FILENAME_LEN);
 8878              	LM672:
 8879 8860 C7442404 		movl	$512, 4(%esp)
 8879      00020000 
 8880 8868 8D8568FA 		leal	-1432(%ebp), %eax
 8880      FFFF
 8881 886e 890424   		movl	%eax, (%esp)
 8882 8871 E8000000 		call	_str_upper
 8882      00
3549:mtk_resgenerator.cpp **** 
3550:mtk_resgenerator.cpp **** #ifdef __MMI_RESOURCE_ENFB_SUPPORT__
3551:mtk_resgenerator.cpp ****             disableENFB = 1;
3552:mtk_resgenerator.cpp **** #endif
3553:mtk_resgenerator.cpp ****             if(strcmp(argv[2], "-i")==0)
 8884              	LM673:
 8885              	LBB77:
 8886 8876 C7442404 		movl	$LC303, 4(%esp)
 8886      CB7F0000 
 8887 887e 8B450C   		movl	12(%ebp), %eax
 8888 8881 83C008   		addl	$8, %eax
 8889 8884 8B00     		movl	(%eax), %eax
 8890 8886 890424   		movl	%eax, (%esp)
 8891 8889 E8000000 		call	_strcmp
 8891      00
 8892 888e 85C0     		testl	%eax, %eax
 8893 8890 0F853501 		jne	L286
GAS LISTING d:/software/ovi_2503a_s3trc/ovi_2503a_s3trc/plutommi/Customer/ResGenerator/gcctmp/ccgnaaaa.s 			page 207


 8893      0000
3554:mtk_resgenerator.cpp ****             {
3555:mtk_resgenerator.cpp ****                 SetImageProcessData processData;
3556:mtk_resgenerator.cpp ****                 initImageProcessData(&processData);
 8895              	LM674:
 8896              	LBB78:
 8897 8896 8D8548F8 		leal	-1976(%ebp), %eax
 8897      FFFF
 8898 889c 890424   		movl	%eax, (%esp)
 8899 889f E8000000 		call	_initImageProcessData
 8899      00
3557:mtk_resgenerator.cpp ****                 ResgenImageOutStream * outstream;
3558:mtk_resgenerator.cpp ****                 ImageOutStreamInit(&outstream);
 8901              	LM675:
 8902 88a4 8D8574FC 		leal	-908(%ebp), %eax
 8902      FFFF
 8903 88aa 890424   		movl	%eax, (%esp)
 8904 88ad E8000000 		call	_ImageOutStreamInit
 8904      00
3559:mtk_resgenerator.cpp ****                 processData.outstream = outstream;
 8906              	LM676:
 8907 88b2 8B8574FC 		movl	-908(%ebp), %eax
 8907      FFFF
 8908 88b8 89854CFA 		movl	%eax, -1460(%ebp)
 8908      FFFF
3560:mtk_resgenerator.cpp **** 
3561:mtk_resgenerator.cpp ****                 if(Iload(upperFileName, SYSTEM_IMAGE, AUTO_TYPE, &processData) == MMI_TRUE)
 8910              	LM677:
 8911              	LBB79:
 8912 88be 8D8548F8 		leal	-1976(%ebp), %eax
 8912      FFFF
 8913 88c4 8944240C 		movl	%eax, 12(%esp)
 8914 88c8 C7442408 		movl	$0, 8(%esp)
 8914      00000000 
 8915 88d0 C7442404 		movl	$0, 4(%esp)
 8915      00000000 
 8916 88d8 8D8568FA 		leal	-1432(%ebp), %eax
 8916      FFFF
 8917 88de 890424   		movl	%eax, (%esp)
 8918 88e1 E8000000 		call	_Iload
 8918      00
 8919 88e6 83F801   		cmpl	$1, %eax
 8920 88e9 0F85C200 		jne	L287
 8920      0000
3562:mtk_resgenerator.cpp ****                 {
3563:mtk_resgenerator.cpp ****                     resourceLoadResult = MMI_TRUE;
 8922              	LM678:
 8923              	LBB80:
 8924 88ef C78584FD 		movl	$1, -636(%ebp)
 8924      FFFF0100 
 8924      0000
3564:mtk_resgenerator.cpp ****                     char *curr_output_data_filename = "temp_image";
 8926              	LM679:
 8927 88f9 C78544F8 		movl	$LC307, -1980(%ebp)
 8927      FFFFEE7F 
 8927      0000
3565:mtk_resgenerator.cpp ****                     FILE *output_data_file = NULL;
GAS LISTING d:/software/ovi_2503a_s3trc/ovi_2503a_s3trc/plutommi/Customer/ResGenerator/gcctmp/ccgnaaaa.s 			page 208


 8929              	LM680:
 8930 8903 C78540F8 		movl	$0, -1984(%ebp)
 8930      FFFF0000 
 8930      0000
3566:mtk_resgenerator.cpp ****                     output_data_file = fopen(curr_output_data_filename, "ab");
 8932              	LM681:
 8933 890d C7442404 		movl	$LC308, 4(%esp)
 8933      F97F0000 
 8934 8915 8B8544F8 		movl	-1980(%ebp), %eax
 8934      FFFF
 8935 891b 890424   		movl	%eax, (%esp)
 8936 891e E8000000 		call	_fopen
 8936      00
 8937 8923 898540F8 		movl	%eax, -1984(%ebp)
 8937      FFFF
3567:mtk_resgenerator.cpp ****                     while (output_data_file == NULL)
 8939              	LM682:
 8940              	L288:
 8941 8929 83BD40F8 		cmpl	$0, -1984(%ebp)
 8941      FFFF00
 8942 8930 7402     		je	L290
 8943 8932 EB2D     		jmp	L289
 8944              	L290:
3568:mtk_resgenerator.cpp ****                     {
3569:mtk_resgenerator.cpp ****                         Sleep(50);
 8946              	LM683:
 8947 8934 C7042432 		movl	$50, (%esp)
 8947      000000
 8948 893b E8000000 		call	_Sleep@4
 8948      00
 8949 8940 83EC04   		subl	$4, %esp
3570:mtk_resgenerator.cpp ****                         output_data_file = fopen(curr_output_data_filename, "ab");
 8951              	LM684:
 8952 8943 C7442404 		movl	$LC308, 4(%esp)
 8952      F97F0000 
 8953 894b 8B8544F8 		movl	-1980(%ebp), %eax
 8953      FFFF
 8954 8951 890424   		movl	%eax, (%esp)
 8955 8954 E8000000 		call	_fopen
 8955      00
 8956 8959 898540F8 		movl	%eax, -1984(%ebp)
 8956      FFFF
 8957 895f EBC8     		jmp	L288
 8958              	L289:
3571:mtk_resgenerator.cpp ****                     }
3572:mtk_resgenerator.cpp **** 
3573:mtk_resgenerator.cpp ****                     ImageOutStreamOutputFile(outstream, output_data_file);
 8960              	LM685:
 8961 8961 8B8540F8 		movl	-1984(%ebp), %eax
 8961      FFFF
 8962 8967 89442404 		movl	%eax, 4(%esp)
 8963 896b 8B8574FC 		movl	-908(%ebp), %eax
 8963      FFFF
 8964 8971 890424   		movl	%eax, (%esp)
 8965 8974 E8000000 		call	_ImageOutStreamOutputFile
 8965      00
3574:mtk_resgenerator.cpp ****                     ImageOutStreamDeinit(&outstream);
GAS LISTING d:/software/ovi_2503a_s3trc/ovi_2503a_s3trc/plutommi/Customer/ResGenerator/gcctmp/ccgnaaaa.s 			page 209


 8967              	LM686:
 8968 8979 8D8574FC 		leal	-908(%ebp), %eax
 8968      FFFF
 8969 897f 890424   		movl	%eax, (%esp)
 8970 8982 E8000000 		call	_ImageOutStreamDeinit
 8970      00
3575:mtk_resgenerator.cpp ****                     MYFCLOSE(output_data_file);
 8972              	LM687:
 8973 8987 83BD40F8 		cmpl	$0, -1984(%ebp)
 8973      FFFF00
 8974 898e 0F84AD00 		je	L294
 8974      0000
 8975 8994 8B8540F8 		movl	-1984(%ebp), %eax
 8975      FFFF
 8976 899a 890424   		movl	%eax, (%esp)
 8977 899d E8000000 		call	_fclose
 8977      00
 8978 89a2 C78540F8 		movl	$0, -1984(%ebp)
 8978      FFFF0000 
 8978      0000
 8979              	LBE80:
 8980 89ac E9900000 		jmp	L294
 8980      00
 8981              	L287:
3576:mtk_resgenerator.cpp ****                 }
3577:mtk_resgenerator.cpp ****                 else
3578:mtk_resgenerator.cpp ****                 {
3579:mtk_resgenerator.cpp ****                     resourceLoadResult = MMI_FALSE;
 8983              	LM688:
 8984 89b1 C78584FD 		movl	$0, -636(%ebp)
 8984      FFFF0000 
 8984      0000
3580:mtk_resgenerator.cpp ****                     ImageOutStreamDeinit(&outstream);					
 8986              	LM689:
 8987 89bb 8D8574FC 		leal	-908(%ebp), %eax
 8987      FFFF
 8988 89c1 890424   		movl	%eax, (%esp)
 8989 89c4 E8000000 		call	_ImageOutStreamDeinit
 8989      00
 8990              	LBE79:
 8991              	LBE78:
 8992 89c9 EB76     		jmp	L294
 8993              	L286:
3581:mtk_resgenerator.cpp ****                 }
3582:mtk_resgenerator.cpp ****             }
3583:mtk_resgenerator.cpp ****             else if(strcmp(argv[2], "-a")==0)
 8995              	LM690:
 8996 89cb C7442404 		movl	$LC304, 4(%esp)
 8996      CE7F0000 
 8997 89d3 8B450C   		movl	12(%ebp), %eax
 8998 89d6 83C008   		addl	$8, %eax
 8999 89d9 8B00     		movl	(%eax), %eax
 9000 89db 890424   		movl	%eax, (%esp)
 9001 89de E8000000 		call	_strcmp
 9001      00
 9002 89e3 85C0     		testl	%eax, %eax
 9003 89e5 7520     		jne	L295
GAS LISTING d:/software/ovi_2503a_s3trc/ovi_2503a_s3trc/plutommi/Customer/ResGenerator/gcctmp/ccgnaaaa.s 			page 210


3584:mtk_resgenerator.cpp ****             {
3585:mtk_resgenerator.cpp ****                 resourceLoadResult = Aload(upperFileName, &nType);
 9005              	LM691:
 9006 89e7 8D8572FC 		leal	-910(%ebp), %eax
 9006      FFFF
 9007 89ed 89442404 		movl	%eax, 4(%esp)
 9008 89f1 8D8568FA 		leal	-1432(%ebp), %eax
 9008      FFFF
 9009 89f7 890424   		movl	%eax, (%esp)
 9010 89fa E8000000 		call	_Aload
 9010      00
 9011 89ff 898584FD 		movl	%eax, -636(%ebp)
 9011      FFFF
 9012 8a05 EB3A     		jmp	L294
 9013              	L295:
3586:mtk_resgenerator.cpp ****             }
3587:mtk_resgenerator.cpp ****             else if(strcmp(argv[2], "-F")==0)
 9015              	LM692:
 9016 8a07 C7442404 		movl	$LC305, 4(%esp)
 9016      D17F0000 
 9017 8a0f 8B450C   		movl	12(%ebp), %eax
 9018 8a12 83C008   		addl	$8, %eax
 9019 8a15 8B00     		movl	(%eax), %eax
 9020 8a17 890424   		movl	%eax, (%esp)
 9021 8a1a E8000000 		call	_strcmp
 9021      00
 9022 8a1f 85C0     		testl	%eax, %eax
 9023 8a21 751E     		jne	L294
3588:mtk_resgenerator.cpp ****             {
3589:mtk_resgenerator.cpp ****                 resourceLoadResult = Fload(upperFileName, &nType);
 9025              	LM693:
 9026 8a23 8D8572FC 		leal	-910(%ebp), %eax
 9026      FFFF
 9027 8a29 89442404 		movl	%eax, 4(%esp)
 9028 8a2d 8D8568FA 		leal	-1432(%ebp), %eax
 9028      FFFF
 9029 8a33 890424   		movl	%eax, (%esp)
 9030 8a36 E8000000 		call	_Fload
 9030      00
 9031 8a3b 898584FD 		movl	%eax, -636(%ebp)
 9031      FFFF
 9032              	L294:
3590:mtk_resgenerator.cpp ****             }
3591:mtk_resgenerator.cpp **** #ifdef __MMI_RESOURCE_ENFB_SUPPORT__
3592:mtk_resgenerator.cpp ****             disableENFB = 0;
3593:mtk_resgenerator.cpp **** #endif
3594:mtk_resgenerator.cpp ****             //ToolPopulateDone();
3595:mtk_resgenerator.cpp **** 
3596:mtk_resgenerator.cpp ****             if(dest_file != NULL)
 9034              	LM694:
 9035              	LBE77:
 9036 8a41 833D0000 		cmpl	$0, _dest_file
 9036      000000
 9037 8a48 740D     		je	L298
3597:mtk_resgenerator.cpp ****             {
3598:mtk_resgenerator.cpp ****                 fclose(dest_file);
 9039              	LM695:
GAS LISTING d:/software/ovi_2503a_s3trc/ovi_2503a_s3trc/plutommi/Customer/ResGenerator/gcctmp/ccgnaaaa.s 			page 211


 9040 8a4a A1000000 		movl	_dest_file, %eax
 9040      00
 9041 8a4f 890424   		movl	%eax, (%esp)
 9042 8a52 E8000000 		call	_fclose
 9042      00
 9043              	L298:
3599:mtk_resgenerator.cpp ****             }
3600:mtk_resgenerator.cpp **** 
3601:mtk_resgenerator.cpp ****             if(resultFailFlag==1 || resourceLoadResult != MMI_TRUE)
 9045              	LM696:
 9046 8a57 833D0000 		cmpl	$1, _resultFailFlag
 9046      000001
 9047 8a5e 740E     		je	L300
 9048 8a60 83BD84FD 		cmpl	$1, -636(%ebp)
 9048      FFFF01
 9049 8a67 7505     		jne	L300
 9050 8a69 E96B0100 		jmp	L305
 9050      00
 9051              	L300:
3602:mtk_resgenerator.cpp ****             {
3603:mtk_resgenerator.cpp ****                 if (strlen(argv[4]) > (SHELL_CMD_BUFLEN - 8))
 9053              	LM697:
 9054 8a6e 8B450C   		movl	12(%ebp), %eax
 9055 8a71 83C010   		addl	$16, %eax
 9056 8a74 8B00     		movl	(%eax), %eax
 9057 8a76 890424   		movl	%eax, (%esp)
 9058 8a79 E8000000 		call	_strlen
 9058      00
 9059 8a7e 3D5C0200 		cmpl	$604, %eax
 9059      00
 9060 8a83 7637     		jbe	L301
3604:mtk_resgenerator.cpp ****                 {
3605:mtk_resgenerator.cpp ****                     RESGEN_LOG_E("mtk_resgenerator.exe paramater error");
 9062              	LM698:
 9063 8a85 C7442408 		movl	$LC309, 8(%esp)
 9063      00800000 
 9064 8a8d C7442404 		movl	$LC1, 4(%esp)
 9064      3E000000 
 9065 8a95 C7042403 		movl	$3, (%esp)
 9065      000000
 9066 8a9c E8000000 		call	_reslog_adaptor_log
 9066      00
3606:mtk_resgenerator.cpp ****                     sprintf(custpaclLog,"[ERR] mtk_resgenerator.exe paramater error\n");
 9068              	LM699:
 9069 8aa1 C7442404 		movl	$LC310, 4(%esp)
 9069      40800000 
 9070 8aa9 8D8578FC 		leal	-904(%ebp), %eax
 9070      FFFF
 9071 8aaf 890424   		movl	%eax, (%esp)
 9072 8ab2 E8000000 		call	_sprintf
 9072      00
 9073 8ab7 E9D70000 		jmp	L302
 9073      00
 9074              	L301:
3607:mtk_resgenerator.cpp **** 
3608:mtk_resgenerator.cpp ****                 }
3609:mtk_resgenerator.cpp ****                 else
GAS LISTING d:/software/ovi_2503a_s3trc/ovi_2503a_s3trc/plutommi/Customer/ResGenerator/gcctmp/ccgnaaaa.s 			page 212


3610:mtk_resgenerator.cpp ****                 {
3611:mtk_resgenerator.cpp ****                     //sprintf(tempCommand, "del -F %s", argv[4]);
3612:mtk_resgenerator.cpp ****                     //system(tempCommand);
3613:mtk_resgenerator.cpp ****                     if(argv[2]!=NULL && argv[3]!=NULL && argv[3]!=NULL)
 9076              	LM700:
 9077 8abc 8B450C   		movl	12(%ebp), %eax
 9078 8abf 83C008   		addl	$8, %eax
 9079 8ac2 833800   		cmpl	$0, (%eax)
 9080 8ac5 0F849600 		je	L303
 9080      0000
 9081 8acb 8B450C   		movl	12(%ebp), %eax
 9082 8ace 83C00C   		addl	$12, %eax
 9083 8ad1 833800   		cmpl	$0, (%eax)
 9084 8ad4 0F848700 		je	L303
 9084      0000
 9085 8ada 8B450C   		movl	12(%ebp), %eax
 9086 8add 83C00C   		addl	$12, %eax
 9087 8ae0 833800   		cmpl	$0, (%eax)
 9088 8ae3 747C     		je	L303
3614:mtk_resgenerator.cpp ****                     {
3615:mtk_resgenerator.cpp ****                         RESGEN_LOG_E("mtk_resgenerator.exe %s failed, can't load %s, no output to %
 9090              	LM701:
 9091 8ae5 8B450C   		movl	12(%ebp), %eax
 9092 8ae8 83C010   		addl	$16, %eax
 9093 8aeb 8B00     		movl	(%eax), %eax
 9094 8aed 89442414 		movl	%eax, 20(%esp)
 9095 8af1 8B450C   		movl	12(%ebp), %eax
 9096 8af4 83C00C   		addl	$12, %eax
 9097 8af7 8B00     		movl	(%eax), %eax
 9098 8af9 89442410 		movl	%eax, 16(%esp)
 9099 8afd 8B450C   		movl	12(%ebp), %eax
 9100 8b00 83C008   		addl	$8, %eax
 9101 8b03 8B00     		movl	(%eax), %eax
 9102 8b05 8944240C 		movl	%eax, 12(%esp)
 9103 8b09 C7442408 		movl	$LC311, 8(%esp)
 9103      80800000 
 9104 8b11 C7442404 		movl	$LC1, 4(%esp)
 9104      3E000000 
 9105 8b19 C7042403 		movl	$3, (%esp)
 9105      000000
 9106 8b20 E8000000 		call	_reslog_adaptor_log
 9106      00
3616:mtk_resgenerator.cpp ****                         sprintf(custpaclLog,"[ERR] mtk_resgenerator.exe %s failed, can't load %s, n
 9108              	LM702:
 9109 8b25 8B450C   		movl	12(%ebp), %eax
 9110 8b28 83C010   		addl	$16, %eax
 9111 8b2b 8B00     		movl	(%eax), %eax
 9112 8b2d 89442410 		movl	%eax, 16(%esp)
 9113 8b31 8B450C   		movl	12(%ebp), %eax
 9114 8b34 83C00C   		addl	$12, %eax
 9115 8b37 8B00     		movl	(%eax), %eax
 9116 8b39 8944240C 		movl	%eax, 12(%esp)
 9117 8b3d 8B450C   		movl	12(%ebp), %eax
 9118 8b40 83C008   		addl	$8, %eax
 9119 8b43 8B00     		movl	(%eax), %eax
 9120 8b45 89442408 		movl	%eax, 8(%esp)
 9121 8b49 C7442404 		movl	$LC312, 4(%esp)
GAS LISTING d:/software/ovi_2503a_s3trc/ovi_2503a_s3trc/plutommi/Customer/ResGenerator/gcctmp/ccgnaaaa.s 			page 213


 9121      C0800000 
 9122 8b51 8D8578FC 		leal	-904(%ebp), %eax
 9122      FFFF
 9123 8b57 890424   		movl	%eax, (%esp)
 9124 8b5a E8000000 		call	_sprintf
 9124      00
 9125 8b5f EB32     		jmp	L302
 9126              	L303:
3617:mtk_resgenerator.cpp ****                     }
3618:mtk_resgenerator.cpp ****                     else
3619:mtk_resgenerator.cpp ****                     {
3620:mtk_resgenerator.cpp ****                         RESGEN_LOG_E("mtk_resgenerator.exe can't indentify the parameter, please ch
 9128              	LM703:
 9129 8b61 C7442408 		movl	$LC313, 8(%esp)
 9129      20810000 
 9130 8b69 C7442404 		movl	$LC1, 4(%esp)
 9130      3E000000 
 9131 8b71 C7042403 		movl	$3, (%esp)
 9131      000000
 9132 8b78 E8000000 		call	_reslog_adaptor_log
 9132      00
3621:mtk_resgenerator.cpp ****                         sprintf(custpaclLog,"[ERR] mtk_resgenerator.exe can't indentify the paramet
 9134              	LM704:
 9135 8b7d C7442404 		movl	$LC314, 4(%esp)
 9135      A0810000 
 9136 8b85 8D8578FC 		leal	-904(%ebp), %eax
 9136      FFFF
 9137 8b8b 890424   		movl	%eax, (%esp)
 9138 8b8e E8000000 		call	_sprintf
 9138      00
 9139              	L302:
3622:mtk_resgenerator.cpp ****                     }
3623:mtk_resgenerator.cpp ****                 }
3624:mtk_resgenerator.cpp ****                 writeLogToFile(CUSTPACL_LOG_FILE_NAME,custpaclLog,0);
 9141              	LM705:
 9142 8b93 C7442408 		movl	$0, 8(%esp)
 9142      00000000 
 9143 8b9b 8D8578FC 		leal	-904(%ebp), %eax
 9143      FFFF
 9144 8ba1 89442404 		movl	%eax, 4(%esp)
 9145 8ba5 C70424B4 		movl	$LC301, (%esp)
 9145      7F0000
 9146 8bac E89FDDFF 		call	__Z14writeLogToFilePcS_i
 9146      FF
3625:mtk_resgenerator.cpp ****                 exit(2);
 9148              	LM706:
 9149 8bb1 C7042402 		movl	$2, (%esp)
 9149      000000
 9150 8bb8 E8000000 		call	_exit
 9150      00
 9151              	L283:
3626:mtk_resgenerator.cpp ****             }
3627:mtk_resgenerator.cpp ****         }
3628:mtk_resgenerator.cpp ****         else
3629:mtk_resgenerator.cpp ****         {
3630:mtk_resgenerator.cpp ****             RESGEN_LOG_E("Usage: mtk_resgenerator.exe -f [-i or -a] ImageFilename OutputFilename");
 9153              	LM707:
GAS LISTING d:/software/ovi_2503a_s3trc/ovi_2503a_s3trc/plutommi/Customer/ResGenerator/gcctmp/ccgnaaaa.s 			page 214


 9154              	LBE76:
 9155 8bbd C7442408 		movl	$LC315, 8(%esp)
 9155      20820000 
 9156 8bc5 C7442404 		movl	$LC1, 4(%esp)
 9156      3E000000 
 9157 8bcd C7042403 		movl	$3, (%esp)
 9157      000000
 9158 8bd4 E8000000 		call	_reslog_adaptor_log
 9158      00
 9159              	L305:
3631:mtk_resgenerator.cpp ****         }
3632:mtk_resgenerator.cpp **** 
3633:mtk_resgenerator.cpp ****         return 1;
 9161              	LM708:
 9162              	LBE75:
 9163 8bd9 C7853CF8 		movl	$1, -1988(%ebp)
 9163      FFFF0100 
 9163      0000
 9164 8be3 E9930400 		jmp	L277
 9164      00
 9165              	L282:
3634:mtk_resgenerator.cpp ****     }
3635:mtk_resgenerator.cpp **** 
3636:mtk_resgenerator.cpp ****     if(argc==3 || argc==4)
 9167              	LM709:
 9168              	LBE74:
 9169              	LBE73:
 9170              	LBB81:
 9171 8be8 837D0803 		cmpl	$3, 8(%ebp)
 9172 8bec 740B     		je	L307
 9173 8bee 837D0804 		cmpl	$4, 8(%ebp)
 9174 8bf2 7405     		je	L307
 9175 8bf4 E9B10100 		jmp	L306
 9175      00
 9176              	L307:
3637:mtk_resgenerator.cpp ****     {
3638:mtk_resgenerator.cpp ****         if(strcmp(argv[1], "-g")==0 && strcmp(argv[2], "-x")==0)
 9178              	LM710:
 9179              	LBB82:
 9180              	LBB83:
 9181 8bf9 C7442404 		movl	$LC316, 4(%esp)
 9181      67820000 
 9182 8c01 8B450C   		movl	12(%ebp), %eax
 9183 8c04 83C004   		addl	$4, %eax
 9184 8c07 8B00     		movl	(%eax), %eax
 9185 8c09 890424   		movl	%eax, (%esp)
 9186 8c0c E8000000 		call	_strcmp
 9186      00
 9187 8c11 85C0     		testl	%eax, %eax
 9188 8c13 7557     		jne	L308
 9189 8c15 C7442404 		movl	$LC317, 4(%esp)
 9189      6A820000 
 9190 8c1d 8B450C   		movl	12(%ebp), %eax
 9191 8c20 83C008   		addl	$8, %eax
 9192 8c23 8B00     		movl	(%eax), %eax
 9193 8c25 890424   		movl	%eax, (%esp)
 9194 8c28 E8000000 		call	_strcmp
GAS LISTING d:/software/ovi_2503a_s3trc/ovi_2503a_s3trc/plutommi/Customer/ResGenerator/gcctmp/ccgnaaaa.s 			page 215


 9194      00
 9195 8c2d 85C0     		testl	%eax, %eax
 9196 8c2f 753B     		jne	L308
3639:mtk_resgenerator.cpp ****         {
3640:mtk_resgenerator.cpp ****             if(argc==4 && strcmp(argv[3], "-c")==0)
 9198              	LM711:
 9199 8c31 837D0804 		cmpl	$4, 8(%ebp)
 9200 8c35 7526     		jne	L309
 9201 8c37 C7442404 		movl	$LC318, 4(%esp)
 9201      6D820000 
 9202 8c3f 8B450C   		movl	12(%ebp), %eax
 9203 8c42 83C00C   		addl	$12, %eax
 9204 8c45 8B00     		movl	(%eax), %eax
 9205 8c47 890424   		movl	%eax, (%esp)
 9206 8c4a E8000000 		call	_strcmp
 9206      00
 9207 8c4f 85C0     		testl	%eax, %eax
 9208 8c51 750A     		jne	L309
3641:mtk_resgenerator.cpp ****             {
3642:mtk_resgenerator.cpp ****                 /* -c is mean: clean unzip file anyway */
3643:mtk_resgenerator.cpp ****                 g_is_clean = MMI_TRUE;
 9210              	LM712:
 9211 8c53 C7050000 		movl	$1, _g_is_clean
 9211      00000100 
 9211      0000
 9212              	L309:
3644:mtk_resgenerator.cpp ****             }
3645:mtk_resgenerator.cpp ****             TRACETIME;
3646:mtk_resgenerator.cpp ****             UnzipImage();
 9214              	LM713:
 9215 8c5d E8AC7CFF 		call	__Z10UnzipImagev
 9215      FF
3647:mtk_resgenerator.cpp ****             UnzipAudio();
 9217              	LM714:
 9218 8c62 E8C380FF 		call	__Z10UnzipAudiov
 9218      FF
 9219 8c67 E93E0100 		jmp	L306
 9219      00
 9220              	L308:
3648:mtk_resgenerator.cpp ****             TRACETIME;
3649:mtk_resgenerator.cpp ****         }
3650:mtk_resgenerator.cpp **** #ifdef __REGEN_INTERNAL_BATCHED__
3651:mtk_resgenerator.cpp ****         else if(argc==3 && strcmp(argv[1], "-b")==0 ){
 9222              	LM715:
 9223              	LBB84:
 9224              	LBB85:
 9225 8c6c 837D0803 		cmpl	$3, 8(%ebp)
 9226 8c70 0F850901 		jne	L311
 9226      0000
 9227 8c76 C7442404 		movl	$LC319, 4(%esp)
 9227      70820000 
 9228 8c7e 8B450C   		movl	12(%ebp), %eax
 9229 8c81 83C004   		addl	$4, %eax
 9230 8c84 8B00     		movl	(%eax), %eax
 9231 8c86 890424   		movl	%eax, (%esp)
 9232 8c89 E8000000 		call	_strcmp
 9232      00
GAS LISTING d:/software/ovi_2503a_s3trc/ovi_2503a_s3trc/plutommi/Customer/ResGenerator/gcctmp/ccgnaaaa.s 			page 216


 9233 8c8e 85C0     		testl	%eax, %eax
 9234 8c90 0F85E900 		jne	L311
 9234      0000
3652:mtk_resgenerator.cpp ****             if(argv[2]!=NULL){
 9236              	LM716:
 9237 8c96 8B450C   		movl	12(%ebp), %eax
 9238              	LBB86:
 9239              	LBB87:
 9240 8c99 83C008   		addl	$8, %eax
 9241 8c9c 833800   		cmpl	$0, (%eax)
 9242 8c9f 0F84B300 		je	L312
 9242      0000
3653:mtk_resgenerator.cpp ****                 int batchedResgenResult = 0;
 9244              	LM717:
 9245              	LBB88:
 9246 8ca5 C78540F8 		movl	$0, -1984(%ebp)
 9246      FFFF0000 
 9246      0000
3654:mtk_resgenerator.cpp ****                 BatchedResFileGenService *batchedResFileGenerator = new BatchedResFileGenService();
 9248              	LM718:
 9249 8caf C7042401 		movl	$1, (%esp)
 9249      000000
 9250 8cb6 E8000000 		call	__Znwj
 9250      00
 9251 8cbb 898544F8 		movl	%eax, -1980(%ebp)
 9251      FFFF
 9252              	L313:
3655:mtk_resgenerator.cpp ****                 batchedResgenResult=batchedResFileGenerator->generateResource(argv[2]);
 9254              	LM719:
 9255 8cc1 8B450C   		movl	12(%ebp), %eax
 9256 8cc4 83C008   		addl	$8, %eax
 9257 8cc7 8B00     		movl	(%eax), %eax
 9258 8cc9 89442404 		movl	%eax, 4(%esp)
 9259 8ccd 8B8544F8 		movl	-1980(%ebp), %eax
 9259      FFFF
 9260 8cd3 890424   		movl	%eax, (%esp)
 9261 8cd6 E8000000 		call	__ZN24BatchedResFileGenService16generateResourceEPc
 9261      00
 9262 8cdb 898540F8 		movl	%eax, -1984(%ebp)
 9262      FFFF
3656:mtk_resgenerator.cpp ****                 delete batchedResFileGenerator; 
 9264              	LM720:
 9265 8ce1 8B8544F8 		movl	-1980(%ebp), %eax
 9265      FFFF
 9266 8ce7 890424   		movl	%eax, (%esp)
 9267 8cea E8000000 		call	__ZdlPv
 9267      00
3657:mtk_resgenerator.cpp **** 
3658:mtk_resgenerator.cpp ****                 if(batchedResgenResult==0){
 9269              	LM721:
 9270 8cef 83BD40F8 		cmpl	$0, -1984(%ebp)
 9270      FFFF00
 9271 8cf6 7535     		jne	L315
3659:mtk_resgenerator.cpp ****                     RESGEN_LOG_V("Batched Resgen finished successfully");
 9273              	LM722:
 9274 8cf8 C7442408 		movl	$LC320, 8(%esp)
 9274      80820000 
GAS LISTING d:/software/ovi_2503a_s3trc/ovi_2503a_s3trc/plutommi/Customer/ResGenerator/gcctmp/ccgnaaaa.s 			page 217


 9275 8d00 C7442404 		movl	$LC1, 4(%esp)
 9275      3E000000 
 9276 8d08 C7042401 		movl	$1, (%esp)
 9276      000000
 9277 8d0f E8000000 		call	_reslog_adaptor_log
 9277      00
3660:mtk_resgenerator.cpp ****                     g_error = 1;
 9279              	LM723:
 9280 8d14 C7051000 		movl	$1, _g_error
 9280      00000100 
 9280      0000
3661:mtk_resgenerator.cpp ****                     return 1;
 9282              	LM724:
 9283 8d1e C7853CF8 		movl	$1, -1988(%ebp)
 9283      FFFF0100 
 9283      0000
 9284 8d28 E94E0300 		jmp	L277
 9284      00
 9285              	L315:
3662:mtk_resgenerator.cpp ****                 }else{
3663:mtk_resgenerator.cpp ****                     RESGEN_LOG_E("Batched Resgen failed");
 9287              	LM725:
 9288 8d2d C7442408 		movl	$LC321, 8(%esp)
 9288      A5820000 
 9289 8d35 C7442404 		movl	$LC1, 4(%esp)
 9289      3E000000 
 9290 8d3d C7042403 		movl	$3, (%esp)
 9290      000000
 9291 8d44 E8000000 		call	_reslog_adaptor_log
 9291      00
3664:mtk_resgenerator.cpp ****                     return 2;
 9293              	LM726:
 9294 8d49 C7853CF8 		movl	$2, -1988(%ebp)
 9294      FFFF0200 
 9294      0000
 9295 8d53 E9230300 		jmp	L277
 9295      00
 9296              	L312:
3665:mtk_resgenerator.cpp ****                 }
3666:mtk_resgenerator.cpp ****             }else{
3667:mtk_resgenerator.cpp ****                 fprintf(stderr, "Usage: mtk_resgenerator.exe -b [filename]\n");
 9298              	LM727:
 9299              	LBE88:
 9300 8d58 C7442404 		movl	$LC322, 4(%esp)
 9300      C0820000 
 9301 8d60 A1000000 		movl	__imp___iob, %eax
 9301      00
 9302 8d65 83C040   		addl	$64, %eax
 9303 8d68 890424   		movl	%eax, (%esp)
 9304 8d6b E8000000 		call	_fprintf
 9304      00
3668:mtk_resgenerator.cpp ****                 return 0;
 9306              	LM728:
 9307 8d70 C7853CF8 		movl	$0, -1988(%ebp)
 9307      FFFF0000 
 9307      0000
 9308 8d7a E9FC0200 		jmp	L277
GAS LISTING d:/software/ovi_2503a_s3trc/ovi_2503a_s3trc/plutommi/Customer/ResGenerator/gcctmp/ccgnaaaa.s 			page 218


 9308      00
 9309              	L311:
3669:mtk_resgenerator.cpp ****             }
3670:mtk_resgenerator.cpp ****         }
3671:mtk_resgenerator.cpp **** 
3672:mtk_resgenerator.cpp **** #endif //__REGEN_INTERNAL_BATCHED__
3673:mtk_resgenerator.cpp ****         else
3674:mtk_resgenerator.cpp ****         {
3675:mtk_resgenerator.cpp ****             RESGEN_LOG_E("Usage: mtk_resgenerator.exe -g -x");
 9311              	LM729:
 9312              	LBE87:
 9313              	LBE86:
 9314 8d7f C7442408 		movl	$LC323, 8(%esp)
 9314      00830000 
 9315 8d87 C7442404 		movl	$LC1, 4(%esp)
 9315      3E000000 
 9316 8d8f C7042403 		movl	$3, (%esp)
 9316      000000
 9317 8d96 E8000000 		call	_reslog_adaptor_log
 9317      00
3676:mtk_resgenerator.cpp ****             return 0;
 9319              	LM730:
 9320 8d9b C7853CF8 		movl	$0, -1988(%ebp)
 9320      FFFF0000 
 9320      0000
 9321 8da5 E9D10200 		jmp	L277
 9321      00
 9322              	L306:
3677:mtk_resgenerator.cpp ****         }
3678:mtk_resgenerator.cpp ****     }
3679:mtk_resgenerator.cpp **** 
3680:mtk_resgenerator.cpp ****     if((argc==2 || argc==3 || argc==4) && strcmp(argv[1], "-g")==0)
 9324              	LM731:
 9325              	LBE85:
 9326              	LBE84:
 9327              	LBE83:
 9328              	LBE82:
 9329              	LBE81:
 9330 8daa 837D0802 		cmpl	$2, 8(%ebp)
 9331 8dae 7411     		je	L320
 9332 8db0 837D0803 		cmpl	$3, 8(%ebp)
 9333 8db4 740B     		je	L320
 9334 8db6 837D0804 		cmpl	$4, 8(%ebp)
 9335 8dba 7405     		je	L320
 9336 8dbc E9940200 		jmp	L319
 9336      00
 9337              	L320:
 9338 8dc1 C7442404 		movl	$LC316, 4(%esp)
 9338      67820000 
 9339 8dc9 8B450C   		movl	12(%ebp), %eax
 9340 8dcc 83C004   		addl	$4, %eax
 9341 8dcf 8B00     		movl	(%eax), %eax
 9342 8dd1 890424   		movl	%eax, (%esp)
 9343 8dd4 E8000000 		call	_strcmp
 9343      00
 9344 8dd9 85C0     		testl	%eax, %eax
 9345 8ddb 0F857402 		jne	L319
GAS LISTING d:/software/ovi_2503a_s3trc/ovi_2503a_s3trc/plutommi/Customer/ResGenerator/gcctmp/ccgnaaaa.s 			page 219


 9345      0000
3681:mtk_resgenerator.cpp ****     {
3682:mtk_resgenerator.cpp ****         /* Set program exit */
3683:mtk_resgenerator.cpp ****         atexit(resgen_on_exit);
 9347              	LM732:
 9348 8de1 C70424CC 		movl	$__Z14resgen_on_exitv, (%esp)
 9348      680000
 9349 8de8 E8000000 		call	_atexit
 9349      00
3684:mtk_resgenerator.cpp **** 
3685:mtk_resgenerator.cpp **** 
3686:mtk_resgenerator.cpp ****         RESGEN_LOG_V("MediaTek Resource Generate System 0.1");
 9351              	LM733:
 9352 8ded C7442408 		movl	$LC324, 8(%esp)
 9352      40830000 
 9353 8df5 C7442404 		movl	$LC1, 4(%esp)
 9353      3E000000 
 9354 8dfd C7042401 		movl	$1, (%esp)
 9354      000000
 9355 8e04 E8000000 		call	_reslog_adaptor_log
 9355      00
3687:mtk_resgenerator.cpp **** 
3688:mtk_resgenerator.cpp ****         if(!CreateDirectory("debug", 0))
 9357              	LM734:
 9358 8e09 C7442404 		movl	$0, 4(%esp)
 9358      00000000 
 9359 8e11 C7042466 		movl	$LC325, (%esp)
 9359      830000
 9360 8e18 E8000000 		call	_CreateDirectoryA@8
 9360      00
 9361 8e1d 83EC08   		subl	$8, %esp
 9362 8e20 85C0     		testl	%eax, %eax
 9363 8e22 7527     		jne	L321
3689:mtk_resgenerator.cpp ****         {
3690:mtk_resgenerator.cpp ****             RESGEN_LOG_V("'debug' directory already exists! ret=[%d]", GetLastError());
 9365              	LM735:
 9366 8e24 E8000000 		call	_GetLastError@0
 9366      00
 9367 8e29 8944240C 		movl	%eax, 12(%esp)
 9368 8e2d C7442408 		movl	$LC326, 8(%esp)
 9368      80830000 
 9369 8e35 C7442404 		movl	$LC1, 4(%esp)
 9369      3E000000 
 9370 8e3d C7042401 		movl	$1, (%esp)
 9370      000000
 9371 8e44 E8000000 		call	_reslog_adaptor_log
 9371      00
 9372 8e49 EB1C     		jmp	L322
 9373              	L321:
3691:mtk_resgenerator.cpp ****         }
3692:mtk_resgenerator.cpp ****         else
3693:mtk_resgenerator.cpp ****         {
3694:mtk_resgenerator.cpp ****             RESGEN_LOG_V("'debug' directory is created!");            
 9375              	LM736:
 9376 8e4b C7442408 		movl	$LC327, 8(%esp)
 9376      AB830000 
 9377 8e53 C7442404 		movl	$LC1, 4(%esp)
GAS LISTING d:/software/ovi_2503a_s3trc/ovi_2503a_s3trc/plutommi/Customer/ResGenerator/gcctmp/ccgnaaaa.s 			page 220


 9377      3E000000 
 9378 8e5b C7042401 		movl	$1, (%esp)
 9378      000000
 9379 8e62 E8000000 		call	_reslog_adaptor_log
 9379      00
 9380              	L322:
3695:mtk_resgenerator.cpp ****         }
3696:mtk_resgenerator.cpp **** 
3697:mtk_resgenerator.cpp ****         if(argc==4 && strcmp(argv[3], "-r")==0)
 9382              	LM737:
 9383 8e67 837D0804 		cmpl	$4, 8(%ebp)
 9384 8e6b 7526     		jne	L323
 9385 8e6d C7442404 		movl	$LC328, 4(%esp)
 9385      C9830000 
 9386 8e75 8B450C   		movl	12(%ebp), %eax
 9387 8e78 83C00C   		addl	$12, %eax
 9388 8e7b 8B00     		movl	(%eax), %eax
 9389 8e7d 890424   		movl	%eax, (%esp)
 9390 8e80 E8000000 		call	_strcmp
 9390      00
 9391 8e85 85C0     		testl	%eax, %eax
 9392 8e87 750A     		jne	L323
3698:mtk_resgenerator.cpp ****         {
3699:mtk_resgenerator.cpp ****             /* -r is mean: remake resource */
3700:mtk_resgenerator.cpp ****             g_is_log = MMI_FALSE;
 9394              	LM738:
 9395 8e89 C7050000 		movl	$0, _g_is_log
 9395      00000000 
 9395      0000
 9396              	L323:
3701:mtk_resgenerator.cpp ****         }
3702:mtk_resgenerator.cpp **** 
3703:mtk_resgenerator.cpp **** 
3704:mtk_resgenerator.cpp **** 
3705:mtk_resgenerator.cpp ****         /* ID Range Check */
3706:mtk_resgenerator.cpp ****         fprintf(stderr, "Resource ID range check old_last_menu=[%d], res_first=[%d] res_last=[%d].\
 9398              	LM739:
 9399 8e93 C7442410 		movl	$49617, 16(%esp)
 9399      D1C10000 
 9400 8e9b C744240C 		movl	$3000, 12(%esp)
 9400      B80B0000 
 9401 8ea3 C7442408 		movl	$1562, 8(%esp)
 9401      1A060000 
 9402 8eab C7442404 		movl	$LC329, 4(%esp)
 9402      E0830000 
 9403 8eb3 A1000000 		movl	__imp___iob, %eax
 9403      00
 9404 8eb8 83C040   		addl	$64, %eax
 9405 8ebb 890424   		movl	%eax, (%esp)
 9406 8ebe E8000000 		call	_fprintf
 9406      00
3707:mtk_resgenerator.cpp ****         RESGEN_LOG_V("Resource ID range check old_last_menu=[%d], res_first=[%d] res_last=[%d].", M
 9408              	LM740:
 9409 8ec3 C7442414 		movl	$49617, 20(%esp)
 9409      D1C10000 
 9410 8ecb C7442410 		movl	$3000, 16(%esp)
 9410      B80B0000 
GAS LISTING d:/software/ovi_2503a_s3trc/ovi_2503a_s3trc/plutommi/Customer/ResGenerator/gcctmp/ccgnaaaa.s 			page 221


 9411 8ed3 C744240C 		movl	$1562, 12(%esp)
 9411      1A060000 
 9412 8edb C7442408 		movl	$LC330, 8(%esp)
 9412      40840000 
 9413 8ee3 C7442404 		movl	$LC1, 4(%esp)
 9413      3E000000 
 9414 8eeb C7042401 		movl	$1, (%esp)
 9414      000000
 9415 8ef2 E8000000 		call	_reslog_adaptor_log
 9415      00
3708:mtk_resgenerator.cpp ****         if (MENU_ITEM_END > RESOURCE_BASE_FIRST_VALUE)
3709:mtk_resgenerator.cpp ****         {
3710:mtk_resgenerator.cpp ****             fprintf(stderr, "Old menu ID more than RESOURCE_BASE_FIRST_VALUE, Please modify the num
3711:mtk_resgenerator.cpp ****             RESGEN_LOG_E("Old menu ID more than RESOURCE_BASE_FIRST_VALUE, Please modify the number
3712:mtk_resgenerator.cpp ****             exit(2);
3713:mtk_resgenerator.cpp ****         }
3714:mtk_resgenerator.cpp ****         if (RESOURCE_BASE_END_END > 0xFFFF)
3715:mtk_resgenerator.cpp ****         {
3716:mtk_resgenerator.cpp ****             fprintf(stderr, " RESOURCE_BASE total range overflow, more than 16bit. Please adjust th
3717:mtk_resgenerator.cpp ****             RESGEN_LOG_E(" RESOURCE_BASE total range overflow, more than 16bit, Please adjust the r
3718:mtk_resgenerator.cpp ****             exit(2);
3719:mtk_resgenerator.cpp ****         }
3720:mtk_resgenerator.cpp **** 
3721:mtk_resgenerator.cpp ****         TRACETIME;
3722:mtk_resgenerator.cpp **** 
3723:mtk_resgenerator.cpp ****         prepare3DMetaPopulation();
 9417              	LM741:
 9418 8ef7 E82EE6FF 		call	__Z23prepare3DMetaPopulationv
 9418      FF
3724:mtk_resgenerator.cpp **** 
3725:mtk_resgenerator.cpp ****         InitStrPopulate();
 9420              	LM742:
 9421 8efc E8000000 		call	_InitStrPopulate
 9421      00
3726:mtk_resgenerator.cpp **** 
3727:mtk_resgenerator.cpp ****         /* Resource population */
3728:mtk_resgenerator.cpp ****         RESGEN_LOG_V("Start resource population");
 9423              	LM743:
 9424 8f01 C7442408 		movl	$LC335, 8(%esp)
 9424      8A840000 
 9425 8f09 C7442404 		movl	$LC1, 4(%esp)
 9425      3E000000 
 9426 8f11 C7042401 		movl	$1, (%esp)
 9426      000000
 9427 8f18 E8000000 		call	_reslog_adaptor_log
 9427      00
3729:mtk_resgenerator.cpp **** 
3730:mtk_resgenerator.cpp **** #ifndef  __RESGEN_INTERNAL_OFFLINE__
3731:mtk_resgenerator.cpp ****         LegcayResPopController();
3732:mtk_resgenerator.cpp **** #else
3733:mtk_resgenerator.cpp ****         OfflineResPopController();
 9429              	LM744:
 9430 8f1d E848E0FF 		call	__Z23OfflineResPopControllerv
 9430      FF
3734:mtk_resgenerator.cpp **** #endif
3735:mtk_resgenerator.cpp ****         /* Image resource generation */
3736:mtk_resgenerator.cpp ****         PopulateImageSearch();		
GAS LISTING d:/software/ovi_2503a_s3trc/ovi_2503a_s3trc/plutommi/Customer/ResGenerator/gcctmp/ccgnaaaa.s 			page 222


 9432              	LM745:
 9433 8f22 E85583FF 		call	__Z19PopulateImageSearchv
 9433      FF
3737:mtk_resgenerator.cpp ****         GenerateImageResFile();
 9435              	LM746:
 9436 8f27 E85890FF 		call	__Z20GenerateImageResFilev
 9436      FF
3738:mtk_resgenerator.cpp **** #ifdef __MMI_RESOURCE_IMAGE_COMPRESS__
3739:mtk_resgenerator.cpp ****         GenerateImageZipList();
3740:mtk_resgenerator.cpp **** #endif /* (__MMI_RESOURCE_IMAGE_COMPRESS__) */
3741:mtk_resgenerator.cpp **** 
3742:mtk_resgenerator.cpp ****         GenerateImageMapFile();
 9438              	LM747:
 9439 8f2c E84D9BFF 		call	__Z20GenerateImageMapFilev
 9439      FF
3743:mtk_resgenerator.cpp ****         GenerateImageMapSearchFile();
 9441              	LM748:
 9442 8f31 E83CA1FF 		call	__Z26GenerateImageMapSearchFilev
 9442      FF
3744:mtk_resgenerator.cpp **** 
3745:mtk_resgenerator.cpp ****         /* Audio resource generation */
3746:mtk_resgenerator.cpp ****         PopulateAudioSearch();
 9444              	LM749:
 9445 8f36 E80184FF 		call	__Z19PopulateAudioSearchv
 9445      FF
3747:mtk_resgenerator.cpp ****         GenerateAudioResFile();
 9447              	LM750:
 9448 8f3b E8A494FF 		call	__Z20GenerateAudioResFilev
 9448      FF
3748:mtk_resgenerator.cpp **** #ifdef __MMI_RESOURCE_AUDIO_COMPRESS__
3749:mtk_resgenerator.cpp ****         GenerateAudioZipList();
3750:mtk_resgenerator.cpp **** #endif /* (__MMI_RESOURCE_AUDIO_COMPRESS__) */
3751:mtk_resgenerator.cpp ****         GenerateAudioMapFile();
 9450              	LM751:
 9451 8f40 E8199DFF 		call	__Z20GenerateAudioMapFilev
 9451      FF
3752:mtk_resgenerator.cpp ****         GenerateAudioMapSearchFile();
 9453              	LM752:
 9454 8f45 E888A2FF 		call	__Z26GenerateAudioMapSearchFilev
 9454      FF
3753:mtk_resgenerator.cpp **** 
3754:mtk_resgenerator.cpp ****         /* Menu resource generation */
3755:mtk_resgenerator.cpp ****         GenerateMenuFile(CurrMaxMenuItemIndex);
 9456              	LM753:
 9457 8f4a 0FB70500 		movzwl	_CurrMaxMenuItemIndex, %eax
 9457      000000
 9458 8f51 890424   		movl	%eax, (%esp)
 9459 8f54 E827BAFF 		call	__Z16GenerateMenuFilet
 9459      FF
3756:mtk_resgenerator.cpp **** 
3757:mtk_resgenerator.cpp ****         /* Font resource generation */
3758:mtk_resgenerator.cpp ****         PopulateFontSearch();
 9461              	LM754:
 9462 8f59 E89C84FF 		call	__Z18PopulateFontSearchv
 9462      FF
3759:mtk_resgenerator.cpp ****         GenerateFontResFile();
 9464              	LM755:
GAS LISTING d:/software/ovi_2503a_s3trc/ovi_2503a_s3trc/plutommi/Customer/ResGenerator/gcctmp/ccgnaaaa.s 			page 223


 9465 8f5e E8A796FF 		call	__Z19GenerateFontResFilev
 9465      FF
3760:mtk_resgenerator.cpp ****         GenerateFontMapFile();
 9467              	LM756:
 9468 8f63 E86E9EFF 		call	__Z19GenerateFontMapFilev
 9468      FF
3761:mtk_resgenerator.cpp ****         GenerateFontMapSearchFile();
 9470              	LM757:
 9471 8f68 E8A7A3FF 		call	__Z25GenerateFontMapSearchFilev
 9471      FF
3762:mtk_resgenerator.cpp **** 
3763:mtk_resgenerator.cpp ****         /* ENFB resource generation */
3764:mtk_resgenerator.cpp ****         GenerateENFBAssociatedIDFile();
 9473              	LM758:
 9474 8f6d E8D074FF 		call	__Z28GenerateENFBAssociatedIDFilev
 9474      FF
3765:mtk_resgenerator.cpp **** 
3766:mtk_resgenerator.cpp ****         /* String resource generation */
3767:mtk_resgenerator.cpp ****         if (MergeStrRes() == 0)
 9476              	LM759:
 9477 8f72 E8000000 		call	_MergeStrRes
 9477      00
 9478 8f77 85C0     		testl	%eax, %eax
 9479 8f79 7561     		jne	L326
3768:mtk_resgenerator.cpp ****         {
3769:mtk_resgenerator.cpp ****             RESGEN_LOG_V("GenerateStrResFile(): REF_LIST.txt created successfully");
 9481              	LM760:
 9482 8f7b C7442408 		movl	$LC336, 8(%esp)
 9482      C0840000 
 9483 8f83 C7442404 		movl	$LC1, 4(%esp)
 9483      3E000000 
 9484 8f8b C7042401 		movl	$1, (%esp)
 9484      000000
 9485 8f92 E8000000 		call	_reslog_adaptor_log
 9485      00
3770:mtk_resgenerator.cpp ****             if (GenerateStrResFile() ==0){
 9487              	LM761:
 9488 8f97 E8000000 		call	_GenerateStrResFile
 9488      00
 9489 8f9c 85C0     		testl	%eax, %eax
 9490 8f9e 751E     		jne	L327
3771:mtk_resgenerator.cpp ****                 RESGEN_LOG_V("GenerateStrResFile(): Output: CustStrMap.c CustStrRes.c");
 9492              	LM762:
 9493 8fa0 C7442408 		movl	$LC337, 8(%esp)
 9493      00850000 
 9494 8fa8 C7442404 		movl	$LC1, 4(%esp)
 9494      3E000000 
 9495 8fb0 C7042401 		movl	$1, (%esp)
 9495      000000
 9496 8fb7 E8000000 		call	_reslog_adaptor_log
 9496      00
 9497 8fbc EB3A     		jmp	L329
 9498              	L327:
3772:mtk_resgenerator.cpp ****             }else{
3773:mtk_resgenerator.cpp ****                 RESGEN_LOG_E("GenerateStrResFile(): Failed to generate: CustStrMap.c CustStrRes.c")
 9500              	LM763:
 9501 8fbe C7442408 		movl	$LC338, 8(%esp)
GAS LISTING d:/software/ovi_2503a_s3trc/ovi_2503a_s3trc/plutommi/Customer/ResGenerator/gcctmp/ccgnaaaa.s 			page 224


 9501      40850000 
 9502 8fc6 C7442404 		movl	$LC1, 4(%esp)
 9502      3E000000 
 9503 8fce C7042403 		movl	$3, (%esp)
 9503      000000
 9504 8fd5 E8000000 		call	_reslog_adaptor_log
 9504      00
 9505 8fda EB1C     		jmp	L329
 9506              	L326:
3774:mtk_resgenerator.cpp ****             }
3775:mtk_resgenerator.cpp **** 			
3776:mtk_resgenerator.cpp ****         }else{
3777:mtk_resgenerator.cpp ****             RESGEN_LOG_E("GenerateStrResFile(): REF_LIST.txt creation failure");
 9508              	LM764:
 9509 8fdc C7442408 		movl	$LC339, 8(%esp)
 9509      A0850000 
 9510 8fe4 C7442404 		movl	$LC1, 4(%esp)
 9510      3E000000 
 9511 8fec C7042403 		movl	$3, (%esp)
 9511      000000
 9512 8ff3 E8000000 		call	_reslog_adaptor_log
 9512      00
 9513              	L329:
3778:mtk_resgenerator.cpp ****         }
3779:mtk_resgenerator.cpp **** 
3780:mtk_resgenerator.cpp ****         /* Image resource files sepatation */
3781:mtk_resgenerator.cpp ****         if(!split_img_data_file())
 9515              	LM765:
 9516 8ff8 E851CEFF 		call	__Z19split_img_data_filev
 9516      FF
 9517 8ffd 84C0     		testb	%al, %al
 9518 8fff 7534     		jne	L330
3782:mtk_resgenerator.cpp ****         {
3783:mtk_resgenerator.cpp ****             RESGEN_LOG_E("mtk_resgenerator.exe split custimgdatahw.h failed.");
 9520              	LM766:
 9521 9001 C7442408 		movl	$LC340, 8(%esp)
 9521      E0850000 
 9522 9009 C7442404 		movl	$LC1, 4(%esp)
 9522      3E000000 
 9523 9011 C7042403 		movl	$3, (%esp)
 9523      000000
 9524 9018 E8000000 		call	_reslog_adaptor_log
 9524      00
3784:mtk_resgenerator.cpp ****             fprintf(stderr, "mtk_resgenerator.exe split custimgdatahw.h failed.\n");
 9526              	LM767:
 9527 901d C7442404 		movl	$LC341, 4(%esp)
 9527      20860000 
 9528 9025 A1000000 		movl	__imp___iob, %eax
 9528      00
 9529 902a 83C040   		addl	$64, %eax
 9530 902d 890424   		movl	%eax, (%esp)
 9531 9030 E8000000 		call	_fprintf
 9531      00
 9532              	L330:
3785:mtk_resgenerator.cpp ****         }
3786:mtk_resgenerator.cpp **** 
3787:mtk_resgenerator.cpp ****         CATResourceGeneration();
GAS LISTING d:/software/ovi_2503a_s3trc/ovi_2503a_s3trc/plutommi/Customer/ResGenerator/gcctmp/ccgnaaaa.s 			page 225


 9534              	LM768:
 9535 9035 E87CD9FF 		call	__Z21CATResourceGenerationv
 9535      FF
3788:mtk_resgenerator.cpp ****         PostRegenOperations()
 9537              	LM769:
 9538 903a E8B1EDFF 		call	__Z19PostRegenOperationsv
 9538      FF
3789:mtk_resgenerator.cpp ****         TRACETIME;
3790:mtk_resgenerator.cpp **** 
3791:mtk_resgenerator.cpp ****         g_error = 1;
 9540              	LM770:
 9541 903f C7051000 		movl	$1, _g_error
 9541      00000100 
 9541      0000
3792:mtk_resgenerator.cpp ****         return 1;
 9543              	LM771:
 9544 9049 C7853CF8 		movl	$1, -1988(%ebp)
 9544      FFFF0100 
 9544      0000
 9545 9053 EB26     		jmp	L277
 9546              	L319:
3793:mtk_resgenerator.cpp ****     }
3794:mtk_resgenerator.cpp **** 
3795:mtk_resgenerator.cpp ****     RESGEN_LOG_E("Usage: mtk_resgenerator.exe -g");
 9548              	LM772:
 9549 9055 C7442408 		movl	$LC342, 8(%esp)
 9549      60860000 
 9550 905d C7442404 		movl	$LC1, 4(%esp)
 9550      3E000000 
 9551 9065 C7042403 		movl	$3, (%esp)
 9551      000000
 9552 906c E8000000 		call	_reslog_adaptor_log
 9552      00
3796:mtk_resgenerator.cpp ****     return 0;
 9554              	LM773:
 9555 9071 C7853CF8 		movl	$0, -1988(%ebp)
 9555      FFFF0000 
 9555      0000
3797:mtk_resgenerator.cpp **** }
 9557              	LM774:
 9558              	L277:
 9559              	LBE71:
 9560 907b 8B853CF8 		movl	-1988(%ebp), %eax
 9560      FFFF
 9561 9081 8B7DFC   		movl	-4(%ebp), %edi
 9562 9084 C9       		leave
 9563 9085 C3       		ret
 9588              	Lscope36:
 9596              		.align 2
 9601              	__Z41__static_initialization_and_destruction_0ii:
 9603              	LM775:
 9604 9086 55       		pushl	%ebp
 9605 9087 89E5     		movl	%esp, %ebp
 9606 9089 83EC08   		subl	$8, %esp
 9608              	Ltext1:
   1:d:/software/ovi_2503a_s3trc/ovi_2503a_s3trc/Tools/MinGW/include/c++/3.3.1/iostream **** // Standard iostream objects -*- C++ -*-
   2:d:/software/ovi_2503a_s3trc/ovi_2503a_s3trc/Tools/MinGW/include/c++/3.3.1/iostream **** 
GAS LISTING d:/software/ovi_2503a_s3trc/ovi_2503a_s3trc/plutommi/Customer/ResGenerator/gcctmp/ccgnaaaa.s 			page 226


   3:d:/software/ovi_2503a_s3trc/ovi_2503a_s3trc/Tools/MinGW/include/c++/3.3.1/iostream **** // Copyright (C) 1997, 1998, 1999, 2001, 2002 Free Software Foundation, Inc.
   4:d:/software/ovi_2503a_s3trc/ovi_2503a_s3trc/Tools/MinGW/include/c++/3.3.1/iostream **** //
   5:d:/software/ovi_2503a_s3trc/ovi_2503a_s3trc/Tools/MinGW/include/c++/3.3.1/iostream **** // This file is part of the GNU ISO C++ Library.  This library is free
   6:d:/software/ovi_2503a_s3trc/ovi_2503a_s3trc/Tools/MinGW/include/c++/3.3.1/iostream **** // software; you can redistribute it and/or modify it under the
   7:d:/software/ovi_2503a_s3trc/ovi_2503a_s3trc/Tools/MinGW/include/c++/3.3.1/iostream **** // terms of the GNU General Public License as published by the
   8:d:/software/ovi_2503a_s3trc/ovi_2503a_s3trc/Tools/MinGW/include/c++/3.3.1/iostream **** // Free Software Foundation; either version 2, or (at your option)
   9:d:/software/ovi_2503a_s3trc/ovi_2503a_s3trc/Tools/MinGW/include/c++/3.3.1/iostream **** // any later version.
  10:d:/software/ovi_2503a_s3trc/ovi_2503a_s3trc/Tools/MinGW/include/c++/3.3.1/iostream **** 
  11:d:/software/ovi_2503a_s3trc/ovi_2503a_s3trc/Tools/MinGW/include/c++/3.3.1/iostream **** // This library is distributed in the hope that it will be useful,
  12:d:/software/ovi_2503a_s3trc/ovi_2503a_s3trc/Tools/MinGW/include/c++/3.3.1/iostream **** // but WITHOUT ANY WARRANTY; without even the implied warranty of
  13:d:/software/ovi_2503a_s3trc/ovi_2503a_s3trc/Tools/MinGW/include/c++/3.3.1/iostream **** // MERCHANTABILITY or FITNESS FOR A PARTICULAR PURPOSE.  See the
  14:d:/software/ovi_2503a_s3trc/ovi_2503a_s3trc/Tools/MinGW/include/c++/3.3.1/iostream **** // GNU General Public License for more details.
  15:d:/software/ovi_2503a_s3trc/ovi_2503a_s3trc/Tools/MinGW/include/c++/3.3.1/iostream **** 
  16:d:/software/ovi_2503a_s3trc/ovi_2503a_s3trc/Tools/MinGW/include/c++/3.3.1/iostream **** // You should have received a copy of the GNU General Public License along
  17:d:/software/ovi_2503a_s3trc/ovi_2503a_s3trc/Tools/MinGW/include/c++/3.3.1/iostream **** // with this library; see the file COPYING.  If not, write to the Free
  18:d:/software/ovi_2503a_s3trc/ovi_2503a_s3trc/Tools/MinGW/include/c++/3.3.1/iostream **** // Software Foundation, 59 Temple Place - Suite 330, Boston, MA 02111-1307,
  19:d:/software/ovi_2503a_s3trc/ovi_2503a_s3trc/Tools/MinGW/include/c++/3.3.1/iostream **** // USA.
  20:d:/software/ovi_2503a_s3trc/ovi_2503a_s3trc/Tools/MinGW/include/c++/3.3.1/iostream **** 
  21:d:/software/ovi_2503a_s3trc/ovi_2503a_s3trc/Tools/MinGW/include/c++/3.3.1/iostream **** // As a special exception, you may use this file as part of a free software
  22:d:/software/ovi_2503a_s3trc/ovi_2503a_s3trc/Tools/MinGW/include/c++/3.3.1/iostream **** // library without restriction.  Specifically, if other files instantiate
  23:d:/software/ovi_2503a_s3trc/ovi_2503a_s3trc/Tools/MinGW/include/c++/3.3.1/iostream **** // templates or use macros or inline functions from this file, or you compile
  24:d:/software/ovi_2503a_s3trc/ovi_2503a_s3trc/Tools/MinGW/include/c++/3.3.1/iostream **** // this file and link it with other files to produce an executable, this
  25:d:/software/ovi_2503a_s3trc/ovi_2503a_s3trc/Tools/MinGW/include/c++/3.3.1/iostream **** // file does not by itself cause the resulting executable to be covered by
  26:d:/software/ovi_2503a_s3trc/ovi_2503a_s3trc/Tools/MinGW/include/c++/3.3.1/iostream **** // the GNU General Public License.  This exception does not however
  27:d:/software/ovi_2503a_s3trc/ovi_2503a_s3trc/Tools/MinGW/include/c++/3.3.1/iostream **** // invalidate any other reasons why the executable file might be covered by
  28:d:/software/ovi_2503a_s3trc/ovi_2503a_s3trc/Tools/MinGW/include/c++/3.3.1/iostream **** // the GNU General Public License.
  29:d:/software/ovi_2503a_s3trc/ovi_2503a_s3trc/Tools/MinGW/include/c++/3.3.1/iostream **** 
  30:d:/software/ovi_2503a_s3trc/ovi_2503a_s3trc/Tools/MinGW/include/c++/3.3.1/iostream **** //
  31:d:/software/ovi_2503a_s3trc/ovi_2503a_s3trc/Tools/MinGW/include/c++/3.3.1/iostream **** // ISO C++ 14882: 27.3  Standard iostream objects
  32:d:/software/ovi_2503a_s3trc/ovi_2503a_s3trc/Tools/MinGW/include/c++/3.3.1/iostream **** //
  33:d:/software/ovi_2503a_s3trc/ovi_2503a_s3trc/Tools/MinGW/include/c++/3.3.1/iostream **** 
  34:d:/software/ovi_2503a_s3trc/ovi_2503a_s3trc/Tools/MinGW/include/c++/3.3.1/iostream **** /** @file iostream
  35:d:/software/ovi_2503a_s3trc/ovi_2503a_s3trc/Tools/MinGW/include/c++/3.3.1/iostream ****  *  This is a Standard C++ Library header.  You should @c #include this header
  36:d:/software/ovi_2503a_s3trc/ovi_2503a_s3trc/Tools/MinGW/include/c++/3.3.1/iostream ****  *  in your programs, rather than any of the "st[dl]_*.h" implementation files.
  37:d:/software/ovi_2503a_s3trc/ovi_2503a_s3trc/Tools/MinGW/include/c++/3.3.1/iostream ****  */
  38:d:/software/ovi_2503a_s3trc/ovi_2503a_s3trc/Tools/MinGW/include/c++/3.3.1/iostream **** 
  39:d:/software/ovi_2503a_s3trc/ovi_2503a_s3trc/Tools/MinGW/include/c++/3.3.1/iostream **** #ifndef _CPP_IOSTREAM
  40:d:/software/ovi_2503a_s3trc/ovi_2503a_s3trc/Tools/MinGW/include/c++/3.3.1/iostream **** #define _CPP_IOSTREAM	1
  41:d:/software/ovi_2503a_s3trc/ovi_2503a_s3trc/Tools/MinGW/include/c++/3.3.1/iostream **** 
  42:d:/software/ovi_2503a_s3trc/ovi_2503a_s3trc/Tools/MinGW/include/c++/3.3.1/iostream **** #pragma GCC system_header
  43:d:/software/ovi_2503a_s3trc/ovi_2503a_s3trc/Tools/MinGW/include/c++/3.3.1/iostream **** 
  44:d:/software/ovi_2503a_s3trc/ovi_2503a_s3trc/Tools/MinGW/include/c++/3.3.1/iostream **** #include <bits/c++config.h>
  45:d:/software/ovi_2503a_s3trc/ovi_2503a_s3trc/Tools/MinGW/include/c++/3.3.1/iostream **** #include <ostream>
  46:d:/software/ovi_2503a_s3trc/ovi_2503a_s3trc/Tools/MinGW/include/c++/3.3.1/iostream **** #include <istream>
  47:d:/software/ovi_2503a_s3trc/ovi_2503a_s3trc/Tools/MinGW/include/c++/3.3.1/iostream **** 
  48:d:/software/ovi_2503a_s3trc/ovi_2503a_s3trc/Tools/MinGW/include/c++/3.3.1/iostream **** namespace std 
  49:d:/software/ovi_2503a_s3trc/ovi_2503a_s3trc/Tools/MinGW/include/c++/3.3.1/iostream **** {
  50:d:/software/ovi_2503a_s3trc/ovi_2503a_s3trc/Tools/MinGW/include/c++/3.3.1/iostream ****   /**
  51:d:/software/ovi_2503a_s3trc/ovi_2503a_s3trc/Tools/MinGW/include/c++/3.3.1/iostream ****    *  @name Standard Stream Objects
  52:d:/software/ovi_2503a_s3trc/ovi_2503a_s3trc/Tools/MinGW/include/c++/3.3.1/iostream ****    *
  53:d:/software/ovi_2503a_s3trc/ovi_2503a_s3trc/Tools/MinGW/include/c++/3.3.1/iostream ****    *  The &lt;iostream&gt; header declares the eight <em>standard stream
  54:d:/software/ovi_2503a_s3trc/ovi_2503a_s3trc/Tools/MinGW/include/c++/3.3.1/iostream ****    *  objects</em>.  For other declarations, see
  55:d:/software/ovi_2503a_s3trc/ovi_2503a_s3trc/Tools/MinGW/include/c++/3.3.1/iostream ****    *  http://gcc.gnu.org/onlinedocs/libstdc++/27_io/howto.html#10 and the
  56:d:/software/ovi_2503a_s3trc/ovi_2503a_s3trc/Tools/MinGW/include/c++/3.3.1/iostream ****    *  @link s27_2_iosfwd I/O forward declarations @endlink
  57:d:/software/ovi_2503a_s3trc/ovi_2503a_s3trc/Tools/MinGW/include/c++/3.3.1/iostream ****    *
  58:d:/software/ovi_2503a_s3trc/ovi_2503a_s3trc/Tools/MinGW/include/c++/3.3.1/iostream ****    *  They are required by default to cooperate with the global C library's
  59:d:/software/ovi_2503a_s3trc/ovi_2503a_s3trc/Tools/MinGW/include/c++/3.3.1/iostream ****    *  @c FILE streams, and to be available during program startup and
GAS LISTING d:/software/ovi_2503a_s3trc/ovi_2503a_s3trc/plutommi/Customer/ResGenerator/gcctmp/ccgnaaaa.s 			page 227


  60:d:/software/ovi_2503a_s3trc/ovi_2503a_s3trc/Tools/MinGW/include/c++/3.3.1/iostream ****    *  termination.  For more information, see the HOWTO linked to above.
  61:d:/software/ovi_2503a_s3trc/ovi_2503a_s3trc/Tools/MinGW/include/c++/3.3.1/iostream ****   */
  62:d:/software/ovi_2503a_s3trc/ovi_2503a_s3trc/Tools/MinGW/include/c++/3.3.1/iostream ****   //@{
  63:d:/software/ovi_2503a_s3trc/ovi_2503a_s3trc/Tools/MinGW/include/c++/3.3.1/iostream ****   extern istream cin;		///< Linked to standard input
  64:d:/software/ovi_2503a_s3trc/ovi_2503a_s3trc/Tools/MinGW/include/c++/3.3.1/iostream ****   extern ostream cout;		///< Linked to standard output
  65:d:/software/ovi_2503a_s3trc/ovi_2503a_s3trc/Tools/MinGW/include/c++/3.3.1/iostream ****   extern ostream cerr;		///< Linked to standard error (unbuffered)
  66:d:/software/ovi_2503a_s3trc/ovi_2503a_s3trc/Tools/MinGW/include/c++/3.3.1/iostream ****   extern ostream clog;		///< Linked to standard error (buffered)
  67:d:/software/ovi_2503a_s3trc/ovi_2503a_s3trc/Tools/MinGW/include/c++/3.3.1/iostream **** 
  68:d:/software/ovi_2503a_s3trc/ovi_2503a_s3trc/Tools/MinGW/include/c++/3.3.1/iostream **** #ifdef _GLIBCPP_USE_WCHAR_T
  69:d:/software/ovi_2503a_s3trc/ovi_2503a_s3trc/Tools/MinGW/include/c++/3.3.1/iostream ****   extern wistream wcin;		///< Linked to standard input
  70:d:/software/ovi_2503a_s3trc/ovi_2503a_s3trc/Tools/MinGW/include/c++/3.3.1/iostream ****   extern wostream wcout;	///< Linked to standard output
  71:d:/software/ovi_2503a_s3trc/ovi_2503a_s3trc/Tools/MinGW/include/c++/3.3.1/iostream ****   extern wostream wcerr;	///< Linked to standard error (unbuffered)
  72:d:/software/ovi_2503a_s3trc/ovi_2503a_s3trc/Tools/MinGW/include/c++/3.3.1/iostream ****   extern wostream wclog;	///< Linked to standard error (buffered)
  73:d:/software/ovi_2503a_s3trc/ovi_2503a_s3trc/Tools/MinGW/include/c++/3.3.1/iostream **** #endif
  74:d:/software/ovi_2503a_s3trc/ovi_2503a_s3trc/Tools/MinGW/include/c++/3.3.1/iostream ****   //@}
  75:d:/software/ovi_2503a_s3trc/ovi_2503a_s3trc/Tools/MinGW/include/c++/3.3.1/iostream **** 
  76:d:/software/ovi_2503a_s3trc/ovi_2503a_s3trc/Tools/MinGW/include/c++/3.3.1/iostream ****   // For construction of filebuffers for cout, cin, cerr, clog et. al.
  77:d:/software/ovi_2503a_s3trc/ovi_2503a_s3trc/Tools/MinGW/include/c++/3.3.1/iostream ****   static ios_base::Init __ioinit;
 9610              	LM776:
 9611 908c 817D0CFF 		cmpl	$65535, 12(%ebp)
 9611      FF0000
 9612 9093 7512     		jne	L332
 9613 9095 837D0801 		cmpl	$1, 8(%ebp)
 9614 9099 750C     		jne	L332
 9615 909b C7042408 		movl	$__ZSt8__ioinit, (%esp)
 9615      000000
 9616 90a2 E8000000 		call	__ZNSt8ios_base4InitC1Ev
 9616      00
 9617              	L332:
 9618 90a7 817D0CFF 		cmpl	$65535, 12(%ebp)
 9618      FF0000
 9619 90ae 7512     		jne	L331
 9620 90b0 837D0800 		cmpl	$0, 8(%ebp)
 9621 90b4 750C     		jne	L331
 9622 90b6 C7042408 		movl	$__ZSt8__ioinit, (%esp)
 9622      000000
 9623 90bd E8000000 		call	__ZNSt8ios_base4InitD1Ev
 9623      00
 9624              	L331:
 9625 90c2 C9       		leave
 9626 90c3 C3       		ret
 9627              	Lscope37:
 9629              		.section	.text$_ZSt6strchrPci,"x"
 9630              		.linkonce discard
 9631              		.align 2
 9635              	.globl __ZSt6strchrPci
 9637              	__ZSt6strchrPci:
 9639              	Ltext2:
   1:d:/software/ovi_2503a_s3trc/ovi_2503a_s3trc/Tools/MinGW/include/c++/3.3.1/cstring **** // -*- C++ -*- forwarding header.
   2:d:/software/ovi_2503a_s3trc/ovi_2503a_s3trc/Tools/MinGW/include/c++/3.3.1/cstring **** 
   3:d:/software/ovi_2503a_s3trc/ovi_2503a_s3trc/Tools/MinGW/include/c++/3.3.1/cstring **** // Copyright (C) 1997, 1998, 1999, 2000, 2001, 2002
   4:d:/software/ovi_2503a_s3trc/ovi_2503a_s3trc/Tools/MinGW/include/c++/3.3.1/cstring **** // Free Software Foundation, Inc.
   5:d:/software/ovi_2503a_s3trc/ovi_2503a_s3trc/Tools/MinGW/include/c++/3.3.1/cstring **** //
   6:d:/software/ovi_2503a_s3trc/ovi_2503a_s3trc/Tools/MinGW/include/c++/3.3.1/cstring **** // This file is part of the GNU ISO C++ Library.  This library is free
   7:d:/software/ovi_2503a_s3trc/ovi_2503a_s3trc/Tools/MinGW/include/c++/3.3.1/cstring **** // software; you can redistribute it and/or modify it under the
   8:d:/software/ovi_2503a_s3trc/ovi_2503a_s3trc/Tools/MinGW/include/c++/3.3.1/cstring **** // terms of the GNU General Public License as published by the
   9:d:/software/ovi_2503a_s3trc/ovi_2503a_s3trc/Tools/MinGW/include/c++/3.3.1/cstring **** // Free Software Foundation; either version 2, or (at your option)
GAS LISTING d:/software/ovi_2503a_s3trc/ovi_2503a_s3trc/plutommi/Customer/ResGenerator/gcctmp/ccgnaaaa.s 			page 228


  10:d:/software/ovi_2503a_s3trc/ovi_2503a_s3trc/Tools/MinGW/include/c++/3.3.1/cstring **** // any later version.
  11:d:/software/ovi_2503a_s3trc/ovi_2503a_s3trc/Tools/MinGW/include/c++/3.3.1/cstring **** 
  12:d:/software/ovi_2503a_s3trc/ovi_2503a_s3trc/Tools/MinGW/include/c++/3.3.1/cstring **** // This library is distributed in the hope that it will be useful,
  13:d:/software/ovi_2503a_s3trc/ovi_2503a_s3trc/Tools/MinGW/include/c++/3.3.1/cstring **** // but WITHOUT ANY WARRANTY; without even the implied warranty of
  14:d:/software/ovi_2503a_s3trc/ovi_2503a_s3trc/Tools/MinGW/include/c++/3.3.1/cstring **** // MERCHANTABILITY or FITNESS FOR A PARTICULAR PURPOSE.  See the
  15:d:/software/ovi_2503a_s3trc/ovi_2503a_s3trc/Tools/MinGW/include/c++/3.3.1/cstring **** // GNU General Public License for more details.
  16:d:/software/ovi_2503a_s3trc/ovi_2503a_s3trc/Tools/MinGW/include/c++/3.3.1/cstring **** 
  17:d:/software/ovi_2503a_s3trc/ovi_2503a_s3trc/Tools/MinGW/include/c++/3.3.1/cstring **** // You should have received a copy of the GNU General Public License along
  18:d:/software/ovi_2503a_s3trc/ovi_2503a_s3trc/Tools/MinGW/include/c++/3.3.1/cstring **** // with this library; see the file COPYING.  If not, write to the Free
  19:d:/software/ovi_2503a_s3trc/ovi_2503a_s3trc/Tools/MinGW/include/c++/3.3.1/cstring **** // Software Foundation, 59 Temple Place - Suite 330, Boston, MA 02111-1307,
  20:d:/software/ovi_2503a_s3trc/ovi_2503a_s3trc/Tools/MinGW/include/c++/3.3.1/cstring **** // USA.
  21:d:/software/ovi_2503a_s3trc/ovi_2503a_s3trc/Tools/MinGW/include/c++/3.3.1/cstring **** 
  22:d:/software/ovi_2503a_s3trc/ovi_2503a_s3trc/Tools/MinGW/include/c++/3.3.1/cstring **** // As a special exception, you may use this file as part of a free software
  23:d:/software/ovi_2503a_s3trc/ovi_2503a_s3trc/Tools/MinGW/include/c++/3.3.1/cstring **** // library without restriction.  Specifically, if other files instantiate
  24:d:/software/ovi_2503a_s3trc/ovi_2503a_s3trc/Tools/MinGW/include/c++/3.3.1/cstring **** // templates or use macros or inline functions from this file, or you compile
  25:d:/software/ovi_2503a_s3trc/ovi_2503a_s3trc/Tools/MinGW/include/c++/3.3.1/cstring **** // this file and link it with other files to produce an executable, this
  26:d:/software/ovi_2503a_s3trc/ovi_2503a_s3trc/Tools/MinGW/include/c++/3.3.1/cstring **** // file does not by itself cause the resulting executable to be covered by
  27:d:/software/ovi_2503a_s3trc/ovi_2503a_s3trc/Tools/MinGW/include/c++/3.3.1/cstring **** // the GNU General Public License.  This exception does not however
  28:d:/software/ovi_2503a_s3trc/ovi_2503a_s3trc/Tools/MinGW/include/c++/3.3.1/cstring **** // invalidate any other reasons why the executable file might be covered by
  29:d:/software/ovi_2503a_s3trc/ovi_2503a_s3trc/Tools/MinGW/include/c++/3.3.1/cstring **** // the GNU General Public License.
  30:d:/software/ovi_2503a_s3trc/ovi_2503a_s3trc/Tools/MinGW/include/c++/3.3.1/cstring **** 
  31:d:/software/ovi_2503a_s3trc/ovi_2503a_s3trc/Tools/MinGW/include/c++/3.3.1/cstring **** //
  32:d:/software/ovi_2503a_s3trc/ovi_2503a_s3trc/Tools/MinGW/include/c++/3.3.1/cstring **** // ISO C++ 14882: 20.4.6  C library
  33:d:/software/ovi_2503a_s3trc/ovi_2503a_s3trc/Tools/MinGW/include/c++/3.3.1/cstring **** //
  34:d:/software/ovi_2503a_s3trc/ovi_2503a_s3trc/Tools/MinGW/include/c++/3.3.1/cstring **** 
  35:d:/software/ovi_2503a_s3trc/ovi_2503a_s3trc/Tools/MinGW/include/c++/3.3.1/cstring **** /** @file cstring
  36:d:/software/ovi_2503a_s3trc/ovi_2503a_s3trc/Tools/MinGW/include/c++/3.3.1/cstring ****  *  This is a Standard C++ Library file.  You should @c #include this file
  37:d:/software/ovi_2503a_s3trc/ovi_2503a_s3trc/Tools/MinGW/include/c++/3.3.1/cstring ****  *  in your programs, rather than any of the "*.h" implementation files.
  38:d:/software/ovi_2503a_s3trc/ovi_2503a_s3trc/Tools/MinGW/include/c++/3.3.1/cstring ****  *
  39:d:/software/ovi_2503a_s3trc/ovi_2503a_s3trc/Tools/MinGW/include/c++/3.3.1/cstring ****  *  This is the C++ version of the Standard C Library header @c string.h,
  40:d:/software/ovi_2503a_s3trc/ovi_2503a_s3trc/Tools/MinGW/include/c++/3.3.1/cstring ****  *  and its contents are (mostly) the same as that header, but are all
  41:d:/software/ovi_2503a_s3trc/ovi_2503a_s3trc/Tools/MinGW/include/c++/3.3.1/cstring ****  *  contained in the namespace @c std.
  42:d:/software/ovi_2503a_s3trc/ovi_2503a_s3trc/Tools/MinGW/include/c++/3.3.1/cstring ****  */
  43:d:/software/ovi_2503a_s3trc/ovi_2503a_s3trc/Tools/MinGW/include/c++/3.3.1/cstring **** 
  44:d:/software/ovi_2503a_s3trc/ovi_2503a_s3trc/Tools/MinGW/include/c++/3.3.1/cstring **** #ifndef _CPP_CSTRING
  45:d:/software/ovi_2503a_s3trc/ovi_2503a_s3trc/Tools/MinGW/include/c++/3.3.1/cstring **** #define _CPP_CSTRING 1
  46:d:/software/ovi_2503a_s3trc/ovi_2503a_s3trc/Tools/MinGW/include/c++/3.3.1/cstring **** 
  47:d:/software/ovi_2503a_s3trc/ovi_2503a_s3trc/Tools/MinGW/include/c++/3.3.1/cstring **** #pragma GCC system_header
  48:d:/software/ovi_2503a_s3trc/ovi_2503a_s3trc/Tools/MinGW/include/c++/3.3.1/cstring **** 
  49:d:/software/ovi_2503a_s3trc/ovi_2503a_s3trc/Tools/MinGW/include/c++/3.3.1/cstring **** #include <cstddef>
  50:d:/software/ovi_2503a_s3trc/ovi_2503a_s3trc/Tools/MinGW/include/c++/3.3.1/cstring **** 
  51:d:/software/ovi_2503a_s3trc/ovi_2503a_s3trc/Tools/MinGW/include/c++/3.3.1/cstring **** #include <string.h>
  52:d:/software/ovi_2503a_s3trc/ovi_2503a_s3trc/Tools/MinGW/include/c++/3.3.1/cstring **** 
  53:d:/software/ovi_2503a_s3trc/ovi_2503a_s3trc/Tools/MinGW/include/c++/3.3.1/cstring **** // Get rid of those macros defined in <string.h> in lieu of real functions.
  54:d:/software/ovi_2503a_s3trc/ovi_2503a_s3trc/Tools/MinGW/include/c++/3.3.1/cstring **** #undef memcpy
  55:d:/software/ovi_2503a_s3trc/ovi_2503a_s3trc/Tools/MinGW/include/c++/3.3.1/cstring **** #undef memmove
  56:d:/software/ovi_2503a_s3trc/ovi_2503a_s3trc/Tools/MinGW/include/c++/3.3.1/cstring **** #undef strcpy
  57:d:/software/ovi_2503a_s3trc/ovi_2503a_s3trc/Tools/MinGW/include/c++/3.3.1/cstring **** #undef strncpy
  58:d:/software/ovi_2503a_s3trc/ovi_2503a_s3trc/Tools/MinGW/include/c++/3.3.1/cstring **** #undef strcat
  59:d:/software/ovi_2503a_s3trc/ovi_2503a_s3trc/Tools/MinGW/include/c++/3.3.1/cstring **** #undef strncat
  60:d:/software/ovi_2503a_s3trc/ovi_2503a_s3trc/Tools/MinGW/include/c++/3.3.1/cstring **** #undef memcmp
  61:d:/software/ovi_2503a_s3trc/ovi_2503a_s3trc/Tools/MinGW/include/c++/3.3.1/cstring **** #undef strcmp
  62:d:/software/ovi_2503a_s3trc/ovi_2503a_s3trc/Tools/MinGW/include/c++/3.3.1/cstring **** #undef strcoll
  63:d:/software/ovi_2503a_s3trc/ovi_2503a_s3trc/Tools/MinGW/include/c++/3.3.1/cstring **** #undef strncmp
  64:d:/software/ovi_2503a_s3trc/ovi_2503a_s3trc/Tools/MinGW/include/c++/3.3.1/cstring **** #undef strxfrm
  65:d:/software/ovi_2503a_s3trc/ovi_2503a_s3trc/Tools/MinGW/include/c++/3.3.1/cstring **** #undef memchr
  66:d:/software/ovi_2503a_s3trc/ovi_2503a_s3trc/Tools/MinGW/include/c++/3.3.1/cstring **** #undef strchr
GAS LISTING d:/software/ovi_2503a_s3trc/ovi_2503a_s3trc/plutommi/Customer/ResGenerator/gcctmp/ccgnaaaa.s 			page 229


  67:d:/software/ovi_2503a_s3trc/ovi_2503a_s3trc/Tools/MinGW/include/c++/3.3.1/cstring **** #undef strcspn
  68:d:/software/ovi_2503a_s3trc/ovi_2503a_s3trc/Tools/MinGW/include/c++/3.3.1/cstring **** #undef strpbrk
  69:d:/software/ovi_2503a_s3trc/ovi_2503a_s3trc/Tools/MinGW/include/c++/3.3.1/cstring **** #undef strrchr
  70:d:/software/ovi_2503a_s3trc/ovi_2503a_s3trc/Tools/MinGW/include/c++/3.3.1/cstring **** #undef strspn
  71:d:/software/ovi_2503a_s3trc/ovi_2503a_s3trc/Tools/MinGW/include/c++/3.3.1/cstring **** #undef strstr
  72:d:/software/ovi_2503a_s3trc/ovi_2503a_s3trc/Tools/MinGW/include/c++/3.3.1/cstring **** #undef strtok
  73:d:/software/ovi_2503a_s3trc/ovi_2503a_s3trc/Tools/MinGW/include/c++/3.3.1/cstring **** #undef memset
  74:d:/software/ovi_2503a_s3trc/ovi_2503a_s3trc/Tools/MinGW/include/c++/3.3.1/cstring **** #undef strerror
  75:d:/software/ovi_2503a_s3trc/ovi_2503a_s3trc/Tools/MinGW/include/c++/3.3.1/cstring **** #undef strlen
  76:d:/software/ovi_2503a_s3trc/ovi_2503a_s3trc/Tools/MinGW/include/c++/3.3.1/cstring **** 
  77:d:/software/ovi_2503a_s3trc/ovi_2503a_s3trc/Tools/MinGW/include/c++/3.3.1/cstring **** namespace std 
  78:d:/software/ovi_2503a_s3trc/ovi_2503a_s3trc/Tools/MinGW/include/c++/3.3.1/cstring **** {
  79:d:/software/ovi_2503a_s3trc/ovi_2503a_s3trc/Tools/MinGW/include/c++/3.3.1/cstring ****   using ::memcpy;
  80:d:/software/ovi_2503a_s3trc/ovi_2503a_s3trc/Tools/MinGW/include/c++/3.3.1/cstring ****   using ::memmove;
  81:d:/software/ovi_2503a_s3trc/ovi_2503a_s3trc/Tools/MinGW/include/c++/3.3.1/cstring ****   using ::strcpy;
  82:d:/software/ovi_2503a_s3trc/ovi_2503a_s3trc/Tools/MinGW/include/c++/3.3.1/cstring ****   using ::strncpy;
  83:d:/software/ovi_2503a_s3trc/ovi_2503a_s3trc/Tools/MinGW/include/c++/3.3.1/cstring ****   using ::strcat;
  84:d:/software/ovi_2503a_s3trc/ovi_2503a_s3trc/Tools/MinGW/include/c++/3.3.1/cstring ****   using ::strncat;
  85:d:/software/ovi_2503a_s3trc/ovi_2503a_s3trc/Tools/MinGW/include/c++/3.3.1/cstring ****   using ::memcmp;
  86:d:/software/ovi_2503a_s3trc/ovi_2503a_s3trc/Tools/MinGW/include/c++/3.3.1/cstring ****   using ::strcmp;
  87:d:/software/ovi_2503a_s3trc/ovi_2503a_s3trc/Tools/MinGW/include/c++/3.3.1/cstring ****   using ::strcoll;
  88:d:/software/ovi_2503a_s3trc/ovi_2503a_s3trc/Tools/MinGW/include/c++/3.3.1/cstring ****   using ::strncmp;
  89:d:/software/ovi_2503a_s3trc/ovi_2503a_s3trc/Tools/MinGW/include/c++/3.3.1/cstring ****   using ::strxfrm;
  90:d:/software/ovi_2503a_s3trc/ovi_2503a_s3trc/Tools/MinGW/include/c++/3.3.1/cstring ****   using ::strcspn;
  91:d:/software/ovi_2503a_s3trc/ovi_2503a_s3trc/Tools/MinGW/include/c++/3.3.1/cstring ****   using ::strspn;
  92:d:/software/ovi_2503a_s3trc/ovi_2503a_s3trc/Tools/MinGW/include/c++/3.3.1/cstring ****   using ::strtok;
  93:d:/software/ovi_2503a_s3trc/ovi_2503a_s3trc/Tools/MinGW/include/c++/3.3.1/cstring ****   using ::memset;
  94:d:/software/ovi_2503a_s3trc/ovi_2503a_s3trc/Tools/MinGW/include/c++/3.3.1/cstring ****   using ::strerror;
  95:d:/software/ovi_2503a_s3trc/ovi_2503a_s3trc/Tools/MinGW/include/c++/3.3.1/cstring ****   using ::strlen;
  96:d:/software/ovi_2503a_s3trc/ovi_2503a_s3trc/Tools/MinGW/include/c++/3.3.1/cstring **** 
  97:d:/software/ovi_2503a_s3trc/ovi_2503a_s3trc/Tools/MinGW/include/c++/3.3.1/cstring ****   using ::memchr;
  98:d:/software/ovi_2503a_s3trc/ovi_2503a_s3trc/Tools/MinGW/include/c++/3.3.1/cstring **** 
  99:d:/software/ovi_2503a_s3trc/ovi_2503a_s3trc/Tools/MinGW/include/c++/3.3.1/cstring ****   inline void*
 100:d:/software/ovi_2503a_s3trc/ovi_2503a_s3trc/Tools/MinGW/include/c++/3.3.1/cstring ****   memchr(void* __p, int __c, size_t __n)
 101:d:/software/ovi_2503a_s3trc/ovi_2503a_s3trc/Tools/MinGW/include/c++/3.3.1/cstring ****   { return memchr(const_cast<const void*>(__p), __c, __n); }
 102:d:/software/ovi_2503a_s3trc/ovi_2503a_s3trc/Tools/MinGW/include/c++/3.3.1/cstring **** 
 103:d:/software/ovi_2503a_s3trc/ovi_2503a_s3trc/Tools/MinGW/include/c++/3.3.1/cstring ****   using ::strchr;
 104:d:/software/ovi_2503a_s3trc/ovi_2503a_s3trc/Tools/MinGW/include/c++/3.3.1/cstring **** 
 105:d:/software/ovi_2503a_s3trc/ovi_2503a_s3trc/Tools/MinGW/include/c++/3.3.1/cstring ****   inline char*
 106:d:/software/ovi_2503a_s3trc/ovi_2503a_s3trc/Tools/MinGW/include/c++/3.3.1/cstring ****   strchr(char* __s1, int __n)
 107:d:/software/ovi_2503a_s3trc/ovi_2503a_s3trc/Tools/MinGW/include/c++/3.3.1/cstring ****   { return __builtin_strchr(const_cast<const char*>(__s1), __n); }
 9641              	LM777:
 9642 0000 55       		pushl	%ebp
 9643 0001 89E5     		movl	%esp, %ebp
 9644 0003 83EC08   		subl	$8, %esp
 9646              	LM778:
 9647              	LBB89:
 9648 0006 8B450C   		movl	12(%ebp), %eax
 9649 0009 89442404 		movl	%eax, 4(%esp)
 9650 000d 8B4508   		movl	8(%ebp), %eax
 9651 0010 890424   		movl	%eax, (%esp)
 9652 0013 E8000000 		call	_strchr
 9652      00
 9653 0018 C9       		leave
 9654 0019 C3       		ret
 9655              	LBE89:
 9656              	Lscope38:
GAS LISTING d:/software/ovi_2503a_s3trc/ovi_2503a_s3trc/plutommi/Customer/ResGenerator/gcctmp/ccgnaaaa.s 			page 230


 9658 001a 9090     		.section	.text$_ZSt6strstrPcPKc,"x"
 9659              		.linkonce discard
 9660              		.align 2
 9664              	.globl __ZSt6strstrPcPKc
 9666              	__ZSt6strstrPcPKc:
 108:d:/software/ovi_2503a_s3trc/ovi_2503a_s3trc/Tools/MinGW/include/c++/3.3.1/cstring **** 
 109:d:/software/ovi_2503a_s3trc/ovi_2503a_s3trc/Tools/MinGW/include/c++/3.3.1/cstring ****   using ::strpbrk;
 110:d:/software/ovi_2503a_s3trc/ovi_2503a_s3trc/Tools/MinGW/include/c++/3.3.1/cstring **** 
 111:d:/software/ovi_2503a_s3trc/ovi_2503a_s3trc/Tools/MinGW/include/c++/3.3.1/cstring ****   inline char*
 112:d:/software/ovi_2503a_s3trc/ovi_2503a_s3trc/Tools/MinGW/include/c++/3.3.1/cstring ****   strpbrk(char* __s1, const char* __s2)
 113:d:/software/ovi_2503a_s3trc/ovi_2503a_s3trc/Tools/MinGW/include/c++/3.3.1/cstring ****   { return __builtin_strpbrk(const_cast<const char*>(__s1), __s2); }
 114:d:/software/ovi_2503a_s3trc/ovi_2503a_s3trc/Tools/MinGW/include/c++/3.3.1/cstring **** 
 115:d:/software/ovi_2503a_s3trc/ovi_2503a_s3trc/Tools/MinGW/include/c++/3.3.1/cstring ****   using ::strrchr;
 116:d:/software/ovi_2503a_s3trc/ovi_2503a_s3trc/Tools/MinGW/include/c++/3.3.1/cstring **** 
 117:d:/software/ovi_2503a_s3trc/ovi_2503a_s3trc/Tools/MinGW/include/c++/3.3.1/cstring ****   inline char*
 118:d:/software/ovi_2503a_s3trc/ovi_2503a_s3trc/Tools/MinGW/include/c++/3.3.1/cstring ****   strrchr(char* __s1, int __n)
 119:d:/software/ovi_2503a_s3trc/ovi_2503a_s3trc/Tools/MinGW/include/c++/3.3.1/cstring ****   { return __builtin_strrchr(const_cast<const char*>(__s1), __n); }
 120:d:/software/ovi_2503a_s3trc/ovi_2503a_s3trc/Tools/MinGW/include/c++/3.3.1/cstring **** 
 121:d:/software/ovi_2503a_s3trc/ovi_2503a_s3trc/Tools/MinGW/include/c++/3.3.1/cstring ****   using ::strstr;
 122:d:/software/ovi_2503a_s3trc/ovi_2503a_s3trc/Tools/MinGW/include/c++/3.3.1/cstring **** 
 123:d:/software/ovi_2503a_s3trc/ovi_2503a_s3trc/Tools/MinGW/include/c++/3.3.1/cstring ****   inline char*
 124:d:/software/ovi_2503a_s3trc/ovi_2503a_s3trc/Tools/MinGW/include/c++/3.3.1/cstring ****   strstr(char* __s1, const char* __s2)
 125:d:/software/ovi_2503a_s3trc/ovi_2503a_s3trc/Tools/MinGW/include/c++/3.3.1/cstring ****   { return __builtin_strstr(const_cast<const char*>(__s1), __s2); }
 9668              	LM779:
 9669 0000 55       		pushl	%ebp
 9670 0001 89E5     		movl	%esp, %ebp
 9671 0003 83EC08   		subl	$8, %esp
 9673              	LM780:
 9674              	LBB90:
 9675 0006 8B450C   		movl	12(%ebp), %eax
 9676 0009 89442404 		movl	%eax, 4(%esp)
 9677 000d 8B4508   		movl	8(%ebp), %eax
 9678 0010 890424   		movl	%eax, (%esp)
 9679 0013 E8000000 		call	_strstr
 9679      00
 9680 0018 C9       		leave
 9681 0019 C3       		ret
 9682              	LBE90:
 9683              	Lscope39:
 9685 001a 9090     		.section	.text$_ZN20OfflineResPopService21populateAudioResourceEPc,"x"
 9686              		.linkonce discard
 9687              		.align 2
 9691              	.globl __ZN20OfflineResPopService21populateAudioResourceEPc
 9693              	__ZN20OfflineResPopService21populateAudioResourceEPc:
 9695              	Ltext3:
 9697              	LM781:
 9698 0000 55       		pushl	%ebp
 9699 0001 89E5     		movl	%esp, %ebp
 9700 0003 57       		pushl	%edi
 9701 0004 56       		pushl	%esi
 9702 0005 53       		pushl	%ebx
 9703 0006 83EC6C   		subl	$108, %esp
 9704 0009 C745D400 		movl	$___gxx_personality_sj0, -44(%ebp)
 9704      000000
 9705 0010 C745D806 		movl	$LLSDA2168, -40(%ebp)
 9705      000000
 9706 0017 8D45DC   		leal	-36(%ebp), %eax
GAS LISTING d:/software/ovi_2503a_s3trc/ovi_2503a_s3trc/plutommi/Customer/ResGenerator/gcctmp/ccgnaaaa.s 			page 231


 9707 001a 8D55F4   		leal	-12(%ebp), %edx
 9708 001d 8910     		movl	%edx, (%eax)
 9709 001f BA690000 		movl	$L349, %edx
 9709      00
 9710 0024 895004   		movl	%edx, 4(%eax)
 9711 0027 896008   		movl	%esp, 8(%eax)
 9712 002a 8D45BC   		leal	-68(%ebp), %eax
 9713 002d 890424   		movl	%eax, (%esp)
 9714 0030 E8000000 		call	__Unwind_SjLj_Register
 9714      00
 9716              	LM782:
 9717              	LBB91:
 9718 0035 C704241C 		movl	$28, (%esp)
 9718      000000
 9719 003c C745C0FF 		movl	$-1, -64(%ebp)
 9719      FFFFFF
 9720 0043 E8000000 		call	__Znwj
 9720      00
 9721 0048 8945B8   		movl	%eax, -72(%ebp)
 9722 004b C645B701 		movb	$1, -73(%ebp)
 9723 004f 8B45B8   		movl	-72(%ebp), %eax
 9724 0052 890424   		movl	%eax, (%esp)
 9725 0055 C745C001 		movl	$1, -64(%ebp)
 9725      000000
 9726 005c E8000000 		call	__ZN13ResParamModelC1Ev
 9726      00
 9727 0061 8B55B8   		movl	-72(%ebp), %edx
 9728 0064 8955F0   		movl	%edx, -16(%ebp)
 9729 0067 EB38     		jmp	L338
 9730              	L349:
 9731 0069 8D6D0C   		leal	12(%ebp), %ebp
 9732 006c 8B45C4   		movl	-60(%ebp), %eax
 9733 006f 8945AC   		movl	%eax, -84(%ebp)
 9734              	L337:
 9735 0072 8B55AC   		movl	-84(%ebp), %edx
 9736 0075 8955B0   		movl	%edx, -80(%ebp)
 9737 0078 807DB700 		cmpb	$0, -73(%ebp)
 9738 007c 740B     		je	L340
 9739 007e 8B45B8   		movl	-72(%ebp), %eax
 9740 0081 890424   		movl	%eax, (%esp)
 9741 0084 E8000000 		call	__ZdlPv
 9741      00
 9742              	L340:
 9743 0089 8B55B0   		movl	-80(%ebp), %edx
 9744 008c 8955AC   		movl	%edx, -84(%ebp)
 9745              	L341:
 9746 008f 8B45AC   		movl	-84(%ebp), %eax
 9747 0092 890424   		movl	%eax, (%esp)
 9748 0095 C745C0FF 		movl	$-1, -64(%ebp)
 9748      FFFFFF
 9749 009c E8000000 		call	__Unwind_SjLj_Resume
 9749      00
 9750              	L338:
 9752              	LM783:
 9753 00a1 C7042408 		movl	$8, (%esp)
 9753      000000
 9754 00a8 C745C0FF 		movl	$-1, -64(%ebp)
GAS LISTING d:/software/ovi_2503a_s3trc/ovi_2503a_s3trc/plutommi/Customer/ResGenerator/gcctmp/ccgnaaaa.s 			page 232


 9754      FFFFFF
 9755 00af E8000000 		call	__Znwj
 9755      00
 9756 00b4 8945A8   		movl	%eax, -88(%ebp)
 9757 00b7 8B55A8   		movl	-88(%ebp), %edx
 9758 00ba 891424   		movl	%edx, (%esp)
 9759 00bd E8000000 		call	__ZN21AudioParamTextFileDAOC1Ev
 9759      00
 9760 00c2 8B45A8   		movl	-88(%ebp), %eax
 9761 00c5 8945EC   		movl	%eax, -20(%ebp)
 9762              	L343:
 9764              	LM784:
 9765 00c8 C7042408 		movl	$8, (%esp)
 9765      000000
 9766 00cf E8000000 		call	__Znwj
 9766      00
 9767 00d4 8945A4   		movl	%eax, -92(%ebp)
 9768 00d7 8B55A4   		movl	-92(%ebp), %edx
 9769 00da 891424   		movl	%edx, (%esp)
 9770 00dd E8000000 		call	__ZN25OfflineResPopAudioAdaptorC1Ev
 9770      00
 9771 00e2 8B45A4   		movl	-92(%ebp), %eax
 9772 00e5 8945E8   		movl	%eax, -24(%ebp)
 9773              	L345:
 9775              	LM785:
 9776 00e8 8B45E8   		movl	-24(%ebp), %eax
 9777 00eb 89442410 		movl	%eax, 16(%esp)
 9778 00ef 8B45EC   		movl	-20(%ebp), %eax
 9779 00f2 8944240C 		movl	%eax, 12(%esp)
 9780 00f6 8B450C   		movl	12(%ebp), %eax
 9781 00f9 89442408 		movl	%eax, 8(%esp)
 9782 00fd 8B45F0   		movl	-16(%ebp), %eax
 9783 0100 89442404 		movl	%eax, 4(%esp)
 9784 0104 8B4508   		movl	8(%ebp), %eax
 9785 0107 890424   		movl	%eax, (%esp)
 9786 010a E8000000 		call	__ZN20OfflineResPopService16populateResourceEP13ResParamModelPcP16ParamTextFileDAOP19OfflineR
 9786      00
 9788              	LM786:
 9789 010f 8B45F0   		movl	-16(%ebp), %eax
 9790 0112 8945A0   		movl	%eax, -96(%ebp)
 9791 0115 837DA000 		cmpl	$0, -96(%ebp)
 9792 0119 7416     		je	L348
 9793 011b 8B55A0   		movl	-96(%ebp), %edx
 9794 011e 891424   		movl	%edx, (%esp)
 9795 0121 E8000000 		call	__ZN13ResParamModelD1Ev
 9795      00
 9796 0126 8B45A0   		movl	-96(%ebp), %eax
 9797 0129 890424   		movl	%eax, (%esp)
 9798 012c E8000000 		call	__ZdlPv
 9798      00
 9799              	L348:
 9801              	LM787:
 9802 0131 8B45E8   		movl	-24(%ebp), %eax
 9803 0134 890424   		movl	%eax, (%esp)
 9804 0137 E8000000 		call	__ZdlPv
 9804      00
 9806              	LM788:
GAS LISTING d:/software/ovi_2503a_s3trc/ovi_2503a_s3trc/plutommi/Customer/ResGenerator/gcctmp/ccgnaaaa.s 			page 233


 9807 013c 8B45EC   		movl	-20(%ebp), %eax
 9808 013f 890424   		movl	%eax, (%esp)
 9809 0142 E8000000 		call	__ZdlPv
 9809      00
 9811              	LM789:
 9812              	L336:
 9813 0147 8D45BC   		leal	-68(%ebp), %eax
 9814 014a 890424   		movl	%eax, (%esp)
 9815 014d E8000000 		call	__Unwind_SjLj_Unregister
 9815      00
 9816 0152 83C46C   		addl	$108, %esp
 9817 0155 5B       		popl	%ebx
 9818 0156 5E       		popl	%esi
 9819 0157 5F       		popl	%edi
 9820 0158 5D       		popl	%ebp
 9821 0159 C3       		ret
 9822              	LBE91:
 9823              		.section	.gcc_except_table,""
 9824              	LLSDA2168:
 9825 0006 FF       		.byte	0xff
 9826 0007 FF       		.byte	0xff
 9827 0008 01       		.byte	0x1
 9828 0009 02       		.uleb128 LLSDACSE2168-LLSDACSB2168
 9829              	LLSDACSB2168:
 9830 000a 00       		.uleb128 0x0
 9831 000b 00       		.uleb128 0x0
 9832              	LLSDACSE2168:
 9833              		.section	.text$_ZN20OfflineResPopService21populateAudioResourceEPc,"x"
 9834              		.linkonce discard
 9840              	Lscope40:
 9842 015a 9090     		.section	.text$_ZN20OfflineResPopService21populateImageResourceEPc,"x"
 9843              		.linkonce discard
 9844              		.align 2
 9848              	.globl __ZN20OfflineResPopService21populateImageResourceEPc
 9850              	__ZN20OfflineResPopService21populateImageResourceEPc:
 9852              	LM790:
 9853 0000 55       		pushl	%ebp
 9854 0001 89E5     		movl	%esp, %ebp
 9855 0003 57       		pushl	%edi
 9856 0004 56       		pushl	%esi
 9857 0005 53       		pushl	%ebx
 9858 0006 83EC6C   		subl	$108, %esp
 9859 0009 C745D000 		movl	$___gxx_personality_sj0, -48(%ebp)
 9859      000000
 9860 0010 C745D40C 		movl	$LLSDA2169, -44(%ebp)
 9860      000000
 9861 0017 8D45D8   		leal	-40(%ebp), %eax
 9862 001a 8D55F4   		leal	-12(%ebp), %edx
 9863 001d 8910     		movl	%edx, (%eax)
 9864 001f BA690000 		movl	$L363, %edx
 9864      00
 9865 0024 895004   		movl	%edx, 4(%eax)
 9866 0027 896008   		movl	%esp, 8(%eax)
 9867 002a 8D45B8   		leal	-72(%ebp), %eax
 9868 002d 890424   		movl	%eax, (%esp)
 9869 0030 E8000000 		call	__Unwind_SjLj_Register
 9869      00
GAS LISTING d:/software/ovi_2503a_s3trc/ovi_2503a_s3trc/plutommi/Customer/ResGenerator/gcctmp/ccgnaaaa.s 			page 234


 9871              	LM791:
 9872              	LBB92:
 9873 0035 C704241C 		movl	$28, (%esp)
 9873      000000
 9874 003c C745BCFF 		movl	$-1, -68(%ebp)
 9874      FFFFFF
 9875 0043 E8000000 		call	__Znwj
 9875      00
 9876 0048 8945B4   		movl	%eax, -76(%ebp)
 9877 004b C645B301 		movb	$1, -77(%ebp)
 9878 004f 8B45B4   		movl	-76(%ebp), %eax
 9879 0052 890424   		movl	%eax, (%esp)
 9880 0055 C745BC01 		movl	$1, -68(%ebp)
 9880      000000
 9881 005c E8000000 		call	__ZN13ResParamModelC1Ev
 9881      00
 9882 0061 8B55B4   		movl	-76(%ebp), %edx
 9883 0064 8955F0   		movl	%edx, -16(%ebp)
 9884 0067 EB38     		jmp	L352
 9885              	L363:
 9886 0069 8D6D0C   		leal	12(%ebp), %ebp
 9887 006c 8B45C0   		movl	-64(%ebp), %eax
 9888 006f 8945A8   		movl	%eax, -88(%ebp)
 9889              	L351:
 9890 0072 8B55A8   		movl	-88(%ebp), %edx
 9891 0075 8955AC   		movl	%edx, -84(%ebp)
 9892 0078 807DB300 		cmpb	$0, -77(%ebp)
 9893 007c 740B     		je	L354
 9894 007e 8B45B4   		movl	-76(%ebp), %eax
 9895 0081 890424   		movl	%eax, (%esp)
 9896 0084 E8000000 		call	__ZdlPv
 9896      00
 9897              	L354:
 9898 0089 8B55AC   		movl	-84(%ebp), %edx
 9899 008c 8955A8   		movl	%edx, -88(%ebp)
 9900              	L355:
 9901 008f 8B45A8   		movl	-88(%ebp), %eax
 9902 0092 890424   		movl	%eax, (%esp)
 9903 0095 C745BCFF 		movl	$-1, -68(%ebp)
 9903      FFFFFF
 9904 009c E8000000 		call	__Unwind_SjLj_Resume
 9904      00
 9905              	L352:
 9907              	LM792:
 9908 00a1 C7042408 		movl	$8, (%esp)
 9908      000000
 9909 00a8 C745BCFF 		movl	$-1, -68(%ebp)
 9909      FFFFFF
 9910 00af E8000000 		call	__Znwj
 9910      00
 9911 00b4 8945A4   		movl	%eax, -92(%ebp)
 9912 00b7 8B55A4   		movl	-92(%ebp), %edx
 9913 00ba 891424   		movl	%edx, (%esp)
 9914 00bd E8000000 		call	__ZN21ImageParamTextFileDAOC1Ev
 9914      00
 9915 00c2 8B45A4   		movl	-92(%ebp), %eax
 9916 00c5 8945EC   		movl	%eax, -20(%ebp)
GAS LISTING d:/software/ovi_2503a_s3trc/ovi_2503a_s3trc/plutommi/Customer/ResGenerator/gcctmp/ccgnaaaa.s 			page 235


 9917              	L357:
 9919              	LM793:
 9920 00c8 A1040000 		movl	__ZN25OfflineResPopImageAdaptor33IMAGE_REPLACEBALE_SUPPORT_DISABLEE, %eax
 9920      00
 9921 00cd 8945E8   		movl	%eax, -24(%ebp)
 9923              	LM794:
 9924 00d0 A1140000 		movl	__ZN25OfflineResPopImageAdaptor32IMAGE_REPLACEBALE_SUPPORT_ENABLEE, %eax
 9924      00
 9925 00d5 8945E8   		movl	%eax, -24(%ebp)
 9927              	LM795:
 9928 00d8 C704240C 		movl	$12, (%esp)
 9928      000000
 9929 00df E8000000 		call	__Znwj
 9929      00
 9930 00e4 8945A0   		movl	%eax, -96(%ebp)
 9931 00e7 8B45E8   		movl	-24(%ebp), %eax
 9932 00ea 89442404 		movl	%eax, 4(%esp)
 9933 00ee 8B55A0   		movl	-96(%ebp), %edx
 9934 00f1 891424   		movl	%edx, (%esp)
 9935 00f4 E8000000 		call	__ZN25OfflineResPopImageAdaptorC1Ei
 9935      00
 9936 00f9 8B45A0   		movl	-96(%ebp), %eax
 9937 00fc 8945E4   		movl	%eax, -28(%ebp)
 9938              	L359:
 9940              	LM796:
 9941 00ff 8B45E4   		movl	-28(%ebp), %eax
 9942 0102 89442410 		movl	%eax, 16(%esp)
 9943 0106 8B45EC   		movl	-20(%ebp), %eax
 9944 0109 8944240C 		movl	%eax, 12(%esp)
 9945 010d 8B450C   		movl	12(%ebp), %eax
 9946 0110 89442408 		movl	%eax, 8(%esp)
 9947 0114 8B45F0   		movl	-16(%ebp), %eax
 9948 0117 89442404 		movl	%eax, 4(%esp)
 9949 011b 8B4508   		movl	8(%ebp), %eax
 9950 011e 890424   		movl	%eax, (%esp)
 9951 0121 E8000000 		call	__ZN20OfflineResPopService16populateResourceEP13ResParamModelPcP16ParamTextFileDAOP19OfflineR
 9951      00
 9953              	LM797:
 9954 0126 8B45F0   		movl	-16(%ebp), %eax
 9955 0129 89459C   		movl	%eax, -100(%ebp)
 9956 012c 837D9C00 		cmpl	$0, -100(%ebp)
 9957 0130 7416     		je	L362
 9958 0132 8B559C   		movl	-100(%ebp), %edx
 9959 0135 891424   		movl	%edx, (%esp)
 9960 0138 E8000000 		call	__ZN13ResParamModelD1Ev
 9960      00
 9961 013d 8B459C   		movl	-100(%ebp), %eax
 9962 0140 890424   		movl	%eax, (%esp)
 9963 0143 E8000000 		call	__ZdlPv
 9963      00
 9964              	L362:
 9966              	LM798:
 9967 0148 8B45E4   		movl	-28(%ebp), %eax
 9968 014b 890424   		movl	%eax, (%esp)
 9969 014e E8000000 		call	__ZdlPv
 9969      00
 9971              	LM799:
GAS LISTING d:/software/ovi_2503a_s3trc/ovi_2503a_s3trc/plutommi/Customer/ResGenerator/gcctmp/ccgnaaaa.s 			page 236


 9972 0153 8B45EC   		movl	-20(%ebp), %eax
 9973 0156 890424   		movl	%eax, (%esp)
 9974 0159 E8000000 		call	__ZdlPv
 9974      00
 9976              	LM800:
 9977              	L350:
 9978 015e 8D45B8   		leal	-72(%ebp), %eax
 9979 0161 890424   		movl	%eax, (%esp)
 9980 0164 E8000000 		call	__Unwind_SjLj_Unregister
 9980      00
 9981 0169 83C46C   		addl	$108, %esp
 9982 016c 5B       		popl	%ebx
 9983 016d 5E       		popl	%esi
 9984 016e 5F       		popl	%edi
 9985 016f 5D       		popl	%ebp
 9986 0170 C3       		ret
 9987              	LBE92:
 9988              		.section	.gcc_except_table,""
 9989              	LLSDA2169:
 9990 000c FF       		.byte	0xff
 9991 000d FF       		.byte	0xff
 9992 000e 01       		.byte	0x1
 9993 000f 02       		.uleb128 LLSDACSE2169-LLSDACSB2169
 9994              	LLSDACSB2169:
 9995 0010 00       		.uleb128 0x0
 9996 0011 00       		.uleb128 0x0
 9997              	LLSDACSE2169:
 9998              		.section	.text$_ZN20OfflineResPopService21populateImageResourceEPc,"x"
 9999              		.linkonce discard
 10006              	Lscope41:
 10008 0171 909090   		.section	.text$_ZN20OfflineResPopService22populateStringResourceEPc,"x"
 10009              		.linkonce discard
 10010              		.align 2
 10014              	.globl __ZN20OfflineResPopService22populateStringResourceEPc
 10016              	__ZN20OfflineResPopService22populateStringResourceEPc:
 10018              	LM801:
 10019 0000 55       		pushl	%ebp
 10020 0001 89E5     		movl	%esp, %ebp
 10021 0003 57       		pushl	%edi
 10022 0004 56       		pushl	%esi
 10023 0005 53       		pushl	%ebx
 10024 0006 83EC6C   		subl	$108, %esp
 10025 0009 C745D400 		movl	$___gxx_personality_sj0, -44(%ebp)
 10025      000000
 10026 0010 C745D812 		movl	$LLSDA2170, -40(%ebp)
 10026      000000
 10027 0017 8D45DC   		leal	-36(%ebp), %eax
 10028 001a 8D55F4   		leal	-12(%ebp), %edx
 10029 001d 8910     		movl	%edx, (%eax)
 10030 001f BA690000 		movl	$L377, %edx
 10030      00
 10031 0024 895004   		movl	%edx, 4(%eax)
 10032 0027 896008   		movl	%esp, 8(%eax)
 10033 002a 8D45BC   		leal	-68(%ebp), %eax
 10034 002d 890424   		movl	%eax, (%esp)
 10035 0030 E8000000 		call	__Unwind_SjLj_Register
 10035      00
GAS LISTING d:/software/ovi_2503a_s3trc/ovi_2503a_s3trc/plutommi/Customer/ResGenerator/gcctmp/ccgnaaaa.s 			page 237


 10037              	LM802:
 10038              	LBB93:
 10039 0035 C704241C 		movl	$28, (%esp)
 10039      000000
 10040 003c C745C0FF 		movl	$-1, -64(%ebp)
 10040      FFFFFF
 10041 0043 E8000000 		call	__Znwj
 10041      00
 10042 0048 8945B8   		movl	%eax, -72(%ebp)
 10043 004b C645B701 		movb	$1, -73(%ebp)
 10044 004f 8B45B8   		movl	-72(%ebp), %eax
 10045 0052 890424   		movl	%eax, (%esp)
 10046 0055 C745C001 		movl	$1, -64(%ebp)
 10046      000000
 10047 005c E8000000 		call	__ZN13ResParamModelC1Ev
 10047      00
 10048 0061 8B55B8   		movl	-72(%ebp), %edx
 10049 0064 8955F0   		movl	%edx, -16(%ebp)
 10050 0067 EB38     		jmp	L366
 10051              	L377:
 10052 0069 8D6D0C   		leal	12(%ebp), %ebp
 10053 006c 8B45C4   		movl	-60(%ebp), %eax
 10054 006f 8945AC   		movl	%eax, -84(%ebp)
 10055              	L365:
 10056 0072 8B55AC   		movl	-84(%ebp), %edx
 10057 0075 8955B0   		movl	%edx, -80(%ebp)
 10058 0078 807DB700 		cmpb	$0, -73(%ebp)
 10059 007c 740B     		je	L368
 10060 007e 8B45B8   		movl	-72(%ebp), %eax
 10061 0081 890424   		movl	%eax, (%esp)
 10062 0084 E8000000 		call	__ZdlPv
 10062      00
 10063              	L368:
 10064 0089 8B55B0   		movl	-80(%ebp), %edx
 10065 008c 8955AC   		movl	%edx, -84(%ebp)
 10066              	L369:
 10067 008f 8B45AC   		movl	-84(%ebp), %eax
 10068 0092 890424   		movl	%eax, (%esp)
 10069 0095 C745C0FF 		movl	$-1, -64(%ebp)
 10069      FFFFFF
 10070 009c E8000000 		call	__Unwind_SjLj_Resume
 10070      00
 10071              	L366:
 10073              	LM803:
 10074 00a1 C7042408 		movl	$8, (%esp)
 10074      000000
 10075 00a8 C745C0FF 		movl	$-1, -64(%ebp)
 10075      FFFFFF
 10076 00af E8000000 		call	__Znwj
 10076      00
 10077 00b4 8945A8   		movl	%eax, -88(%ebp)
 10078 00b7 8B55A8   		movl	-88(%ebp), %edx
 10079 00ba 891424   		movl	%edx, (%esp)
 10080 00bd E8000000 		call	__ZN22StringParamTextFileDAOC1Ev
 10080      00
 10081 00c2 8B45A8   		movl	-88(%ebp), %eax
 10082 00c5 8945EC   		movl	%eax, -20(%ebp)
GAS LISTING d:/software/ovi_2503a_s3trc/ovi_2503a_s3trc/plutommi/Customer/ResGenerator/gcctmp/ccgnaaaa.s 			page 238


 10083              	L371:
 10085              	LM804:
 10086 00c8 C7042408 		movl	$8, (%esp)
 10086      000000
 10087 00cf E8000000 		call	__Znwj
 10087      00
 10088 00d4 8945A4   		movl	%eax, -92(%ebp)
 10089 00d7 8B55A4   		movl	-92(%ebp), %edx
 10090 00da 891424   		movl	%edx, (%esp)
 10091 00dd E8000000 		call	__ZN26OfflineResPopStringAdaptorC1Ev
 10091      00
 10092 00e2 8B45A4   		movl	-92(%ebp), %eax
 10093 00e5 8945E8   		movl	%eax, -24(%ebp)
 10094              	L373:
 10096              	LM805:
 10097 00e8 8B45E8   		movl	-24(%ebp), %eax
 10098 00eb 89442410 		movl	%eax, 16(%esp)
 10099 00ef 8B45EC   		movl	-20(%ebp), %eax
 10100 00f2 8944240C 		movl	%eax, 12(%esp)
 10101 00f6 8B450C   		movl	12(%ebp), %eax
 10102 00f9 89442408 		movl	%eax, 8(%esp)
 10103 00fd 8B45F0   		movl	-16(%ebp), %eax
 10104 0100 89442404 		movl	%eax, 4(%esp)
 10105 0104 8B4508   		movl	8(%ebp), %eax
 10106 0107 890424   		movl	%eax, (%esp)
 10107 010a E8000000 		call	__ZN20OfflineResPopService16populateResourceEP13ResParamModelPcP16ParamTextFileDAOP19OfflineR
 10107      00
 10109              	LM806:
 10110 010f 8B45F0   		movl	-16(%ebp), %eax
 10111 0112 8945A0   		movl	%eax, -96(%ebp)
 10112 0115 837DA000 		cmpl	$0, -96(%ebp)
 10113 0119 7416     		je	L376
 10114 011b 8B55A0   		movl	-96(%ebp), %edx
 10115 011e 891424   		movl	%edx, (%esp)
 10116 0121 E8000000 		call	__ZN13ResParamModelD1Ev
 10116      00
 10117 0126 8B45A0   		movl	-96(%ebp), %eax
 10118 0129 890424   		movl	%eax, (%esp)
 10119 012c E8000000 		call	__ZdlPv
 10119      00
 10120              	L376:
 10122              	LM807:
 10123 0131 8B45E8   		movl	-24(%ebp), %eax
 10124 0134 890424   		movl	%eax, (%esp)
 10125 0137 E8000000 		call	__ZdlPv
 10125      00
 10127              	LM808:
 10128 013c 8B45EC   		movl	-20(%ebp), %eax
 10129 013f 890424   		movl	%eax, (%esp)
 10130 0142 E8000000 		call	__ZdlPv
 10130      00
 10132              	LM809:
 10133              	L364:
 10134 0147 8D45BC   		leal	-68(%ebp), %eax
 10135 014a 890424   		movl	%eax, (%esp)
 10136 014d E8000000 		call	__Unwind_SjLj_Unregister
 10136      00
GAS LISTING d:/software/ovi_2503a_s3trc/ovi_2503a_s3trc/plutommi/Customer/ResGenerator/gcctmp/ccgnaaaa.s 			page 239


 10137 0152 83C46C   		addl	$108, %esp
 10138 0155 5B       		popl	%ebx
 10139 0156 5E       		popl	%esi
 10140 0157 5F       		popl	%edi
 10141 0158 5D       		popl	%ebp
 10142 0159 C3       		ret
 10143              	LBE93:
 10144              		.section	.gcc_except_table,""
 10145              	LLSDA2170:
 10146 0012 FF       		.byte	0xff
 10147 0013 FF       		.byte	0xff
 10148 0014 01       		.byte	0x1
 10149 0015 02       		.uleb128 LLSDACSE2170-LLSDACSB2170
 10150              	LLSDACSB2170:
 10151 0016 00       		.uleb128 0x0
 10152 0017 00       		.uleb128 0x0
 10153              	LLSDACSE2170:
 10154              		.section	.text$_ZN20OfflineResPopService22populateStringResourceEPc,"x"
 10155              		.linkonce discard
 10161              	Lscope42:
 10163 015a 9090     		.text
 10164              	LC343:
 10165 90c4 5B494D41 		.ascii "[IMAGE] File mode: %s, %s\0"
 10165      47455D20 
 10165      46696C65 
 10165      206D6F64 
 10165      653A2025 
 10166              	LC344:
 10167 90de 5B466F6E 		.ascii "[Font] File mode: %s, %s\0"
 10167      745D2046 
 10167      696C6520 
 10167      6D6F6465 
 10167      3A202573 
 10168              	LC345:
 10169 90f7 5B417564 		.ascii "[Audio] File mode: %s, %s\0"
 10169      696F5D20 
 10169      46696C65 
 10169      206D6F64 
 10169      653A2025 
 10170              		.section	.text$_ZN24BatchedResFileGenService16generateResourceEPc,"x"
 10171              		.linkonce discard
 10172              		.align 2
 10176              	.globl __ZN24BatchedResFileGenService16generateResourceEPc
 10178              	__ZN24BatchedResFileGenService16generateResourceEPc:
 10180              	LM810:
 10181 0000 55       		pushl	%ebp
 10182 0001 89E5     		movl	%esp, %ebp
 10183 0003 57       		pushl	%edi
 10184 0004 56       		pushl	%esi
 10185 0005 53       		pushl	%ebx
 10186 0006 81EC8C00 		subl	$140, %esp
 10186      0000
 10187 000c C745BC00 		movl	$___gxx_personality_sj0, -68(%ebp)
 10187      000000
 10188 0013 C745C018 		movl	$LLSDA2171, -64(%ebp)
 10188      000000
 10189 001a 8D45C4   		leal	-60(%ebp), %eax
GAS LISTING d:/software/ovi_2503a_s3trc/ovi_2503a_s3trc/plutommi/Customer/ResGenerator/gcctmp/ccgnaaaa.s 			page 240


 10190 001d 8D55F4   		leal	-12(%ebp), %edx
 10191 0020 8910     		movl	%edx, (%eax)
 10192 0022 BA730000 		movl	$L402, %edx
 10192      00
 10193 0027 895004   		movl	%edx, 4(%eax)
 10194 002a 896008   		movl	%esp, 8(%eax)
 10195 002d 8D45A4   		leal	-92(%ebp), %eax
 10196 0030 890424   		movl	%eax, (%esp)
 10197 0033 E8000000 		call	__Unwind_SjLj_Register
 10197      00
 10199              	LM811:
 10200              	LBB94:
 10201 0038 C745F000 		movl	$0, -16(%ebp)
 10201      000000
 10203              	LM812:
 10204 003f C704240C 		movl	$12, (%esp)
 10204      000000
 10205 0046 C745A8FF 		movl	$-1, -88(%ebp)
 10205      FFFFFF
 10206 004d E8000000 		call	__Znwj
 10206      00
 10207 0052 89459C   		movl	%eax, -100(%ebp)
 10208 0055 C6459B01 		movb	$1, -101(%ebp)
 10209 0059 8B459C   		movl	-100(%ebp), %eax
 10210 005c 890424   		movl	%eax, (%esp)
 10211 005f C745A801 		movl	$1, -88(%ebp)
 10211      000000
 10212 0066 E8000000 		call	__ZN20ResFileGenParamModelC1Ev
 10212      00
 10213 006b 8B559C   		movl	-100(%ebp), %edx
 10214 006e 8955EC   		movl	%edx, -20(%ebp)
 10215 0071 EB38     		jmp	L380
 10216              	L402:
 10217 0073 8D6D0C   		leal	12(%ebp), %ebp
 10218 0076 8B45AC   		movl	-84(%ebp), %eax
 10219 0079 894590   		movl	%eax, -112(%ebp)
 10220              	L379:
 10221 007c 8B5590   		movl	-112(%ebp), %edx
 10222 007f 895594   		movl	%edx, -108(%ebp)
 10223 0082 807D9B00 		cmpb	$0, -101(%ebp)
 10224 0086 740B     		je	L382
 10225 0088 8B459C   		movl	-100(%ebp), %eax
 10226 008b 890424   		movl	%eax, (%esp)
 10227 008e E8000000 		call	__ZdlPv
 10227      00
 10228              	L382:
 10229 0093 8B5594   		movl	-108(%ebp), %edx
 10230 0096 895590   		movl	%edx, -112(%ebp)
 10231              	L383:
 10232 0099 8B4590   		movl	-112(%ebp), %eax
 10233 009c 890424   		movl	%eax, (%esp)
 10234 009f C745A8FF 		movl	$-1, -88(%ebp)
 10234      FFFFFF
 10235 00a6 E8000000 		call	__Unwind_SjLj_Resume
 10235      00
 10236              	L380:
 10238              	LM813:
GAS LISTING d:/software/ovi_2503a_s3trc/ovi_2503a_s3trc/plutommi/Customer/ResGenerator/gcctmp/ccgnaaaa.s 			page 241


 10239 00ab 8B450C   		movl	12(%ebp), %eax
 10240 00ae 89442404 		movl	%eax, 4(%esp)
 10241 00b2 8B45EC   		movl	-20(%ebp), %eax
 10242 00b5 890424   		movl	%eax, (%esp)
 10243 00b8 C745A8FF 		movl	$-1, -88(%ebp)
 10243      FFFFFF
 10244 00bf E8000000 		call	__ZN20ResFileGenParamModel21setRepositoryFileNameEPc
 10244      00
 10246              	LM814:
 10247 00c4 C7042404 		movl	$4, (%esp)
 10247      000000
 10248 00cb E8000000 		call	__Znwj
 10248      00
 10249 00d0 89458C   		movl	%eax, -116(%ebp)
 10250 00d3 8B558C   		movl	-116(%ebp), %edx
 10251 00d6 891424   		movl	%edx, (%esp)
 10252 00d9 E8000000 		call	__ZN26ResFileGenParamTextFileDAOC1Ev
 10252      00
 10253 00de 8B458C   		movl	-116(%ebp), %eax
 10254 00e1 8945E8   		movl	%eax, -24(%ebp)
 10255              	L385:
 10257              	LM815:
 10258 00e4 8B45EC   		movl	-20(%ebp), %eax
 10259 00e7 8B10     		movl	(%eax), %edx
 10260 00e9 83C210   		addl	$16, %edx
 10261 00ec 8B45E8   		movl	-24(%ebp), %eax
 10262 00ef 89442404 		movl	%eax, 4(%esp)
 10263 00f3 8B45EC   		movl	-20(%ebp), %eax
 10264 00f6 890424   		movl	%eax, (%esp)
 10265 00f9 8B02     		movl	(%edx), %eax
 10266 00fb FFD0     		call	*%eax
 10268              	LM816:
 10269 00fd 8B45EC   		movl	-20(%ebp), %eax
 10270 0100 8B10     		movl	(%eax), %edx
 10271 0102 83C204   		addl	$4, %edx
 10272 0105 8B45EC   		movl	-20(%ebp), %eax
 10273 0108 890424   		movl	%eax, (%esp)
 10274 010b 8B02     		movl	(%edx), %eax
 10275 010d FFD0     		call	*%eax
 10276 010f 8945E4   		movl	%eax, -28(%ebp)
 10278              	LM817:
 10279              	LBB95:
 10280 0112 C745E000 		movl	$0, -32(%ebp)
 10280      000000
 10281              	L387:
 10282 0119 8B45E4   		movl	-28(%ebp), %eax
 10283 011c 890424   		movl	%eax, (%esp)
 10284 011f E8000000 		call	__ZNKSt6vectorIP15ResFileGenParamSaIS1_EE4sizeEv
 10284      00
 10285 0124 3945E0   		cmpl	%eax, -32(%ebp)
 10286 0127 7205     		jb	L390
 10287 0129 E9000200 		jmp	L388
 10287      00
 10288              	L390:
 10290              	LM818:
 10291              	LBB96:
 10292              	LBB97:
GAS LISTING d:/software/ovi_2503a_s3trc/ovi_2503a_s3trc/plutommi/Customer/ResGenerator/gcctmp/ccgnaaaa.s 			page 242


 10293 012e 8B45E0   		movl	-32(%ebp), %eax
 10294 0131 89442404 		movl	%eax, 4(%esp)
 10295 0135 8B45E4   		movl	-28(%ebp), %eax
 10296 0138 890424   		movl	%eax, (%esp)
 10297 013b E8000000 		call	__ZNSt6vectorIP15ResFileGenParamSaIS1_EEixEj
 10297      00
 10298 0140 8B00     		movl	(%eax), %eax
 10299 0142 8945DC   		movl	%eax, -36(%ebp)
 10301              	LM819:
 10302              	LBB98:
 10303 0145 837DDC00 		cmpl	$0, -36(%ebp)
 10304 0149 0F84D501 		je	L389
 10304      0000
 10306              	LM820:
 10307              	LBB99:
 10308 014f 8B45DC   		movl	-36(%ebp), %eax
 10309 0152 890424   		movl	%eax, (%esp)
 10310 0155 C745A8FF 		movl	$-1, -88(%ebp)
 10310      FFFFFF
 10311 015c E8000000 		call	__ZN15ResFileGenParam10getSrcPathEv
 10311      00
 10312 0161 890424   		movl	%eax, (%esp)
 10313 0164 E8000000 		call	__ZNKSs4sizeEv
 10313      00
 10314 0169 40       		incl	%eax
 10315 016a 890424   		movl	%eax, (%esp)
 10316 016d E8000000 		call	__Znaj
 10316      00
 10317 0172 8945D8   		movl	%eax, -40(%ebp)
 10319              	LM821:
 10320 0175 8B45DC   		movl	-36(%ebp), %eax
 10321 0178 890424   		movl	%eax, (%esp)
 10322 017b E8000000 		call	__ZN15ResFileGenParam10getSrcPathEv
 10322      00
 10323 0180 890424   		movl	%eax, (%esp)
 10324 0183 E8000000 		call	__ZNKSs5c_strEv
 10324      00
 10325 0188 89442404 		movl	%eax, 4(%esp)
 10326 018c 8B45D8   		movl	-40(%ebp), %eax
 10327 018f 890424   		movl	%eax, (%esp)
 10328 0192 E8000000 		call	_strcpy
 10328      00
 10330              	LM822:
 10331 0197 8B45DC   		movl	-36(%ebp), %eax
 10332 019a 890424   		movl	%eax, (%esp)
 10333 019d E8000000 		call	__ZN15ResFileGenParam11getDestPathEv
 10333      00
 10334 01a2 890424   		movl	%eax, (%esp)
 10335 01a5 E8000000 		call	__ZNKSs4sizeEv
 10335      00
 10336 01aa 40       		incl	%eax
 10337 01ab 890424   		movl	%eax, (%esp)
 10338 01ae E8000000 		call	__Znaj
 10338      00
 10339 01b3 8945D4   		movl	%eax, -44(%ebp)
 10341              	LM823:
 10342 01b6 8B45DC   		movl	-36(%ebp), %eax
GAS LISTING d:/software/ovi_2503a_s3trc/ovi_2503a_s3trc/plutommi/Customer/ResGenerator/gcctmp/ccgnaaaa.s 			page 243


 10343 01b9 890424   		movl	%eax, (%esp)
 10344 01bc E8000000 		call	__ZN15ResFileGenParam11getDestPathEv
 10344      00
 10345 01c1 890424   		movl	%eax, (%esp)
 10346 01c4 E8000000 		call	__ZNKSs5c_strEv
 10346      00
 10347 01c9 89442404 		movl	%eax, 4(%esp)
 10348 01cd 8B45D4   		movl	-44(%ebp), %eax
 10349 01d0 890424   		movl	%eax, (%esp)
 10350 01d3 E8000000 		call	_strcpy
 10350      00
 10352              	LM824:
 10353 01d8 8B45DC   		movl	-36(%ebp), %eax
 10354 01db 890424   		movl	%eax, (%esp)
 10355 01de E8000000 		call	__ZN15ResFileGenParam7getTypeEv
 10355      00
 10356 01e3 8945D0   		movl	%eax, -48(%ebp)
 10358              	LM825:
 10359 01e6 8B45D0   		movl	-48(%ebp), %eax
 10360 01e9 3B050000 		cmpl	__ZN15ResFileGenParam10IMAGE_TYPEE, %eax
 10360      0000
 10361 01ef 7557     		jne	L392
 10363              	LM826:
 10364 01f1 8B45D4   		movl	-44(%ebp), %eax
 10365 01f4 89442408 		movl	%eax, 8(%esp)
 10366 01f8 8B45D8   		movl	-40(%ebp), %eax
 10367 01fb 89442404 		movl	%eax, 4(%esp)
 10368 01ff 8B4508   		movl	8(%ebp), %eax
 10369 0202 890424   		movl	%eax, (%esp)
 10370 0205 E8000000 		call	__ZN24BatchedResFileGenService16generateImageResEPcS0_
 10370      00
 10371 020a 85C0     		testl	%eax, %eax
 10372 020c 0F84FC00 		je	L394
 10372      0000
 10374              	LM827:
 10375 0212 8B45D4   		movl	-44(%ebp), %eax
 10376 0215 89442410 		movl	%eax, 16(%esp)
 10377 0219 8B45D8   		movl	-40(%ebp), %eax
 10378 021c 8944240C 		movl	%eax, 12(%esp)
 10379 0220 C7442408 		movl	$LC343, 8(%esp)
 10379      C4900000 
 10380 0228 C7442404 		movl	$LC1, 4(%esp)
 10380      3E000000 
 10381 0230 C7042403 		movl	$3, (%esp)
 10381      000000
 10382 0237 E8000000 		call	_reslog_adaptor_log
 10382      00
 10384              	LM828:
 10385 023c C745F0FF 		movl	$-1, -16(%ebp)
 10385      FFFFFF
 10386 0243 E9C60000 		jmp	L394
 10386      00
 10387              	L392:
 10389              	LM829:
 10390 0248 8B45D0   		movl	-48(%ebp), %eax
 10391 024b 3B050000 		cmpl	__ZN15ResFileGenParam9FONT_TYPEE, %eax
 10391      0000
GAS LISTING d:/software/ovi_2503a_s3trc/ovi_2503a_s3trc/plutommi/Customer/ResGenerator/gcctmp/ccgnaaaa.s 			page 244


 10392 0251 755B     		jne	L395
 10394              	LM830:
 10395 0253 8B45D4   		movl	-44(%ebp), %eax
 10396 0256 89442408 		movl	%eax, 8(%esp)
 10397 025a 8B45D8   		movl	-40(%ebp), %eax
 10398 025d 89442404 		movl	%eax, 4(%esp)
 10399 0261 8B4508   		movl	8(%ebp), %eax
 10400 0264 890424   		movl	%eax, (%esp)
 10401 0267 C745A8FF 		movl	$-1, -88(%ebp)
 10401      FFFFFF
 10402 026e E8000000 		call	__ZN24BatchedResFileGenService15generateFontResEPcS0_
 10402      00
 10403 0273 85C0     		testl	%eax, %eax
 10404 0275 0F849300 		je	L394
 10404      0000
 10406              	LM831:
 10407 027b 8B45D4   		movl	-44(%ebp), %eax
 10408 027e 89442410 		movl	%eax, 16(%esp)
 10409 0282 8B45D8   		movl	-40(%ebp), %eax
 10410 0285 8944240C 		movl	%eax, 12(%esp)
 10411 0289 C7442408 		movl	$LC344, 8(%esp)
 10411      DE900000 
 10412 0291 C7442404 		movl	$LC1, 4(%esp)
 10412      3E000000 
 10413 0299 C7042403 		movl	$3, (%esp)
 10413      000000
 10414 02a0 E8000000 		call	_reslog_adaptor_log
 10414      00
 10416              	LM832:
 10417 02a5 C745F0FF 		movl	$-1, -16(%ebp)
 10417      FFFFFF
 10418 02ac EB60     		jmp	L394
 10419              	L395:
 10421              	LM833:
 10422 02ae 8B45D0   		movl	-48(%ebp), %eax
 10423 02b1 3B050000 		cmpl	__ZN15ResFileGenParam10AUDIO_TYPEE, %eax
 10423      0000
 10424 02b7 7555     		jne	L394
 10426              	LM834:
 10427 02b9 8B45D4   		movl	-44(%ebp), %eax
 10428 02bc 89442408 		movl	%eax, 8(%esp)
 10429 02c0 8B45D8   		movl	-40(%ebp), %eax
 10430 02c3 89442404 		movl	%eax, 4(%esp)
 10431 02c7 8B4508   		movl	8(%ebp), %eax
 10432 02ca 890424   		movl	%eax, (%esp)
 10433 02cd C745A8FF 		movl	$-1, -88(%ebp)
 10433      FFFFFF
 10434 02d4 E8000000 		call	__ZN24BatchedResFileGenService16generateAudioResEPcS0_
 10434      00
 10435 02d9 85C0     		testl	%eax, %eax
 10436 02db 7431     		je	L394
 10438              	LM835:
 10439 02dd 8B45D4   		movl	-44(%ebp), %eax
 10440 02e0 89442410 		movl	%eax, 16(%esp)
 10441 02e4 8B45D8   		movl	-40(%ebp), %eax
 10442 02e7 8944240C 		movl	%eax, 12(%esp)
 10443 02eb C7442408 		movl	$LC345, 8(%esp)
GAS LISTING d:/software/ovi_2503a_s3trc/ovi_2503a_s3trc/plutommi/Customer/ResGenerator/gcctmp/ccgnaaaa.s 			page 245


 10443      F7900000 
 10444 02f3 C7442404 		movl	$LC1, 4(%esp)
 10444      3E000000 
 10445 02fb C7042403 		movl	$3, (%esp)
 10445      000000
 10446 0302 E8000000 		call	_reslog_adaptor_log
 10446      00
 10448              	LM836:
 10449 0307 C745F0FF 		movl	$-1, -16(%ebp)
 10449      FFFFFF
 10450              	L394:
 10452              	LM837:
 10453 030e 8B45D8   		movl	-40(%ebp), %eax
 10454 0311 890424   		movl	%eax, (%esp)
 10455 0314 E8000000 		call	__ZdlPv
 10455      00
 10457              	LM838:
 10458 0319 8B45D4   		movl	-44(%ebp), %eax
 10459 031c 890424   		movl	%eax, (%esp)
 10460 031f E8000000 		call	__ZdlPv
 10460      00
 10462              	LM839:
 10463              	L389:
 10464 0324 8D45E0   		leal	-32(%ebp), %eax
 10465              	LBE99:
 10466              	LBE98:
 10467              	LBE97:
 10468              	LBE96:
 10469 0327 FF00     		incl	(%eax)
 10470 0329 E9EBFDFF 		jmp	L387
 10470      FF
 10471              	L388:
 10473              	LM840:
 10474              	LBE95:
 10475 032e 8B45EC   		movl	-20(%ebp), %eax
 10476 0331 8B10     		movl	(%eax), %edx
 10477 0333 83C214   		addl	$20, %edx
 10478 0336 8B45EC   		movl	-20(%ebp), %eax
 10479 0339 890424   		movl	%eax, (%esp)
 10480 033c 8B02     		movl	(%edx), %eax
 10481 033e C745A8FF 		movl	$-1, -88(%ebp)
 10481      FFFFFF
 10482 0345 FFD0     		call	*%eax
 10484              	LM841:
 10485 0347 8B55EC   		movl	-20(%ebp), %edx
 10486 034a 895588   		movl	%edx, -120(%ebp)
 10487 034d 837D8800 		cmpl	$0, -120(%ebp)
 10488 0351 7416     		je	L401
 10489 0353 8B4588   		movl	-120(%ebp), %eax
 10490 0356 890424   		movl	%eax, (%esp)
 10491 0359 E8000000 		call	__ZN20ResFileGenParamModelD1Ev
 10491      00
 10492 035e 8B5588   		movl	-120(%ebp), %edx
 10493 0361 891424   		movl	%edx, (%esp)
 10494 0364 E8000000 		call	__ZdlPv
 10494      00
 10495              	L401:
GAS LISTING d:/software/ovi_2503a_s3trc/ovi_2503a_s3trc/plutommi/Customer/ResGenerator/gcctmp/ccgnaaaa.s 			page 246


 10497              	LM842:
 10498 0369 8B45E8   		movl	-24(%ebp), %eax
 10499 036c 890424   		movl	%eax, (%esp)
 10500 036f E8000000 		call	__ZdlPv
 10500      00
 10502              	LM843:
 10503 0374 8B45F0   		movl	-16(%ebp), %eax
 10504 0377 8945A0   		movl	%eax, -96(%ebp)
 10506              	LM844:
 10507              	L378:
 10508 037a 8D45A4   		leal	-92(%ebp), %eax
 10509 037d 890424   		movl	%eax, (%esp)
 10510 0380 E8000000 		call	__Unwind_SjLj_Unregister
 10510      00
 10511              	LBE94:
 10512 0385 8B45A0   		movl	-96(%ebp), %eax
 10513 0388 81C48C00 		addl	$140, %esp
 10513      0000
 10514 038e 5B       		popl	%ebx
 10515 038f 5E       		popl	%esi
 10516 0390 5F       		popl	%edi
 10517 0391 5D       		popl	%ebp
 10518 0392 C3       		ret
 10519              		.section	.gcc_except_table,""
 10520              	LLSDA2171:
 10521 0018 FF       		.byte	0xff
 10522 0019 FF       		.byte	0xff
 10523 001a 01       		.byte	0x1
 10524 001b 02       		.uleb128 LLSDACSE2171-LLSDACSB2171
 10525              	LLSDACSB2171:
 10526 001c 00       		.uleb128 0x0
 10527 001d 00       		.uleb128 0x0
 10528              	LLSDACSE2171:
 10529 001e 0000     		.section	.text$_ZN24BatchedResFileGenService16generateResourceEPc,"x"
 10530              		.linkonce discard
 10548              	Lscope43:
 10550 0393 90       		.section	.text$_ZNKSt6vectorIP15ResFileGenParamSaIS1_EE4sizeEv,"x"
 10551              		.linkonce discard
 10552              		.align 2
 10555              	.globl __ZNKSt6vectorIP15ResFileGenParamSaIS1_EE4sizeEv
 10557              	__ZNKSt6vectorIP15ResFileGenParamSaIS1_EE4sizeEv:
 10559              	Ltext4:
   1:d:/software/ovi_2503a_s3trc/ovi_2503a_s3trc/Tools/MinGW/include/c++/3.3.1/bits/stl_vector.h **** // Vector implementation -*- C++ -*-
   2:d:/software/ovi_2503a_s3trc/ovi_2503a_s3trc/Tools/MinGW/include/c++/3.3.1/bits/stl_vector.h **** 
   3:d:/software/ovi_2503a_s3trc/ovi_2503a_s3trc/Tools/MinGW/include/c++/3.3.1/bits/stl_vector.h **** // Copyright (C) 2001, 2002 Free Software Foundation, Inc.
   4:d:/software/ovi_2503a_s3trc/ovi_2503a_s3trc/Tools/MinGW/include/c++/3.3.1/bits/stl_vector.h **** //
   5:d:/software/ovi_2503a_s3trc/ovi_2503a_s3trc/Tools/MinGW/include/c++/3.3.1/bits/stl_vector.h **** // This file is part of the GNU ISO C++ Library.  This library is free
   6:d:/software/ovi_2503a_s3trc/ovi_2503a_s3trc/Tools/MinGW/include/c++/3.3.1/bits/stl_vector.h **** // software; you can redistribute it and/or modify it under the
   7:d:/software/ovi_2503a_s3trc/ovi_2503a_s3trc/Tools/MinGW/include/c++/3.3.1/bits/stl_vector.h **** // terms of the GNU General Public License as published by the
   8:d:/software/ovi_2503a_s3trc/ovi_2503a_s3trc/Tools/MinGW/include/c++/3.3.1/bits/stl_vector.h **** // Free Software Foundation; either version 2, or (at your option)
   9:d:/software/ovi_2503a_s3trc/ovi_2503a_s3trc/Tools/MinGW/include/c++/3.3.1/bits/stl_vector.h **** // any later version.
  10:d:/software/ovi_2503a_s3trc/ovi_2503a_s3trc/Tools/MinGW/include/c++/3.3.1/bits/stl_vector.h **** 
  11:d:/software/ovi_2503a_s3trc/ovi_2503a_s3trc/Tools/MinGW/include/c++/3.3.1/bits/stl_vector.h **** // This library is distributed in the hope that it will be useful,
  12:d:/software/ovi_2503a_s3trc/ovi_2503a_s3trc/Tools/MinGW/include/c++/3.3.1/bits/stl_vector.h **** // but WITHOUT ANY WARRANTY; without even the implied warranty of
  13:d:/software/ovi_2503a_s3trc/ovi_2503a_s3trc/Tools/MinGW/include/c++/3.3.1/bits/stl_vector.h **** // MERCHANTABILITY or FITNESS FOR A PARTICULAR PURPOSE.  See the
  14:d:/software/ovi_2503a_s3trc/ovi_2503a_s3trc/Tools/MinGW/include/c++/3.3.1/bits/stl_vector.h **** // GNU General Public License for more details.
  15:d:/software/ovi_2503a_s3trc/ovi_2503a_s3trc/Tools/MinGW/include/c++/3.3.1/bits/stl_vector.h **** 
GAS LISTING d:/software/ovi_2503a_s3trc/ovi_2503a_s3trc/plutommi/Customer/ResGenerator/gcctmp/ccgnaaaa.s 			page 247


  16:d:/software/ovi_2503a_s3trc/ovi_2503a_s3trc/Tools/MinGW/include/c++/3.3.1/bits/stl_vector.h **** // You should have received a copy of the GNU General Public License along
  17:d:/software/ovi_2503a_s3trc/ovi_2503a_s3trc/Tools/MinGW/include/c++/3.3.1/bits/stl_vector.h **** // with this library; see the file COPYING.  If not, write to the Free
  18:d:/software/ovi_2503a_s3trc/ovi_2503a_s3trc/Tools/MinGW/include/c++/3.3.1/bits/stl_vector.h **** // Software Foundation, 59 Temple Place - Suite 330, Boston, MA 02111-1307,
  19:d:/software/ovi_2503a_s3trc/ovi_2503a_s3trc/Tools/MinGW/include/c++/3.3.1/bits/stl_vector.h **** // USA.
  20:d:/software/ovi_2503a_s3trc/ovi_2503a_s3trc/Tools/MinGW/include/c++/3.3.1/bits/stl_vector.h **** 
  21:d:/software/ovi_2503a_s3trc/ovi_2503a_s3trc/Tools/MinGW/include/c++/3.3.1/bits/stl_vector.h **** // As a special exception, you may use this file as part of a free software
  22:d:/software/ovi_2503a_s3trc/ovi_2503a_s3trc/Tools/MinGW/include/c++/3.3.1/bits/stl_vector.h **** // library without restriction.  Specifically, if other files instantiate
  23:d:/software/ovi_2503a_s3trc/ovi_2503a_s3trc/Tools/MinGW/include/c++/3.3.1/bits/stl_vector.h **** // templates or use macros or inline functions from this file, or you compile
  24:d:/software/ovi_2503a_s3trc/ovi_2503a_s3trc/Tools/MinGW/include/c++/3.3.1/bits/stl_vector.h **** // this file and link it with other files to produce an executable, this
  25:d:/software/ovi_2503a_s3trc/ovi_2503a_s3trc/Tools/MinGW/include/c++/3.3.1/bits/stl_vector.h **** // file does not by itself cause the resulting executable to be covered by
  26:d:/software/ovi_2503a_s3trc/ovi_2503a_s3trc/Tools/MinGW/include/c++/3.3.1/bits/stl_vector.h **** // the GNU General Public License.  This exception does not however
  27:d:/software/ovi_2503a_s3trc/ovi_2503a_s3trc/Tools/MinGW/include/c++/3.3.1/bits/stl_vector.h **** // invalidate any other reasons why the executable file might be covered by
  28:d:/software/ovi_2503a_s3trc/ovi_2503a_s3trc/Tools/MinGW/include/c++/3.3.1/bits/stl_vector.h **** // the GNU General Public License.
  29:d:/software/ovi_2503a_s3trc/ovi_2503a_s3trc/Tools/MinGW/include/c++/3.3.1/bits/stl_vector.h **** 
  30:d:/software/ovi_2503a_s3trc/ovi_2503a_s3trc/Tools/MinGW/include/c++/3.3.1/bits/stl_vector.h **** /*
  31:d:/software/ovi_2503a_s3trc/ovi_2503a_s3trc/Tools/MinGW/include/c++/3.3.1/bits/stl_vector.h ****  *
  32:d:/software/ovi_2503a_s3trc/ovi_2503a_s3trc/Tools/MinGW/include/c++/3.3.1/bits/stl_vector.h ****  * Copyright (c) 1994
  33:d:/software/ovi_2503a_s3trc/ovi_2503a_s3trc/Tools/MinGW/include/c++/3.3.1/bits/stl_vector.h ****  * Hewlett-Packard Company
  34:d:/software/ovi_2503a_s3trc/ovi_2503a_s3trc/Tools/MinGW/include/c++/3.3.1/bits/stl_vector.h ****  *
  35:d:/software/ovi_2503a_s3trc/ovi_2503a_s3trc/Tools/MinGW/include/c++/3.3.1/bits/stl_vector.h ****  * Permission to use, copy, modify, distribute and sell this software
  36:d:/software/ovi_2503a_s3trc/ovi_2503a_s3trc/Tools/MinGW/include/c++/3.3.1/bits/stl_vector.h ****  * and its documentation for any purpose is hereby granted without fee,
  37:d:/software/ovi_2503a_s3trc/ovi_2503a_s3trc/Tools/MinGW/include/c++/3.3.1/bits/stl_vector.h ****  * provided that the above copyright notice appear in all copies and
  38:d:/software/ovi_2503a_s3trc/ovi_2503a_s3trc/Tools/MinGW/include/c++/3.3.1/bits/stl_vector.h ****  * that both that copyright notice and this permission notice appear
  39:d:/software/ovi_2503a_s3trc/ovi_2503a_s3trc/Tools/MinGW/include/c++/3.3.1/bits/stl_vector.h ****  * in supporting documentation.  Hewlett-Packard Company makes no
  40:d:/software/ovi_2503a_s3trc/ovi_2503a_s3trc/Tools/MinGW/include/c++/3.3.1/bits/stl_vector.h ****  * representations about the suitability of this software for any
  41:d:/software/ovi_2503a_s3trc/ovi_2503a_s3trc/Tools/MinGW/include/c++/3.3.1/bits/stl_vector.h ****  * purpose.  It is provided "as is" without express or implied warranty.
  42:d:/software/ovi_2503a_s3trc/ovi_2503a_s3trc/Tools/MinGW/include/c++/3.3.1/bits/stl_vector.h ****  *
  43:d:/software/ovi_2503a_s3trc/ovi_2503a_s3trc/Tools/MinGW/include/c++/3.3.1/bits/stl_vector.h ****  *
  44:d:/software/ovi_2503a_s3trc/ovi_2503a_s3trc/Tools/MinGW/include/c++/3.3.1/bits/stl_vector.h ****  * Copyright (c) 1996
  45:d:/software/ovi_2503a_s3trc/ovi_2503a_s3trc/Tools/MinGW/include/c++/3.3.1/bits/stl_vector.h ****  * Silicon Graphics Computer Systems, Inc.
  46:d:/software/ovi_2503a_s3trc/ovi_2503a_s3trc/Tools/MinGW/include/c++/3.3.1/bits/stl_vector.h ****  *
  47:d:/software/ovi_2503a_s3trc/ovi_2503a_s3trc/Tools/MinGW/include/c++/3.3.1/bits/stl_vector.h ****  * Permission to use, copy, modify, distribute and sell this software
  48:d:/software/ovi_2503a_s3trc/ovi_2503a_s3trc/Tools/MinGW/include/c++/3.3.1/bits/stl_vector.h ****  * and its documentation for any purpose is hereby granted without fee,
  49:d:/software/ovi_2503a_s3trc/ovi_2503a_s3trc/Tools/MinGW/include/c++/3.3.1/bits/stl_vector.h ****  * provided that the above copyright notice appear in all copies and
  50:d:/software/ovi_2503a_s3trc/ovi_2503a_s3trc/Tools/MinGW/include/c++/3.3.1/bits/stl_vector.h ****  * that both that copyright notice and this permission notice appear
  51:d:/software/ovi_2503a_s3trc/ovi_2503a_s3trc/Tools/MinGW/include/c++/3.3.1/bits/stl_vector.h ****  * in supporting documentation.  Silicon Graphics makes no
  52:d:/software/ovi_2503a_s3trc/ovi_2503a_s3trc/Tools/MinGW/include/c++/3.3.1/bits/stl_vector.h ****  * representations about the suitability of this  software for any
  53:d:/software/ovi_2503a_s3trc/ovi_2503a_s3trc/Tools/MinGW/include/c++/3.3.1/bits/stl_vector.h ****  * purpose.  It is provided "as is" without express or implied warranty.
  54:d:/software/ovi_2503a_s3trc/ovi_2503a_s3trc/Tools/MinGW/include/c++/3.3.1/bits/stl_vector.h ****  */
  55:d:/software/ovi_2503a_s3trc/ovi_2503a_s3trc/Tools/MinGW/include/c++/3.3.1/bits/stl_vector.h **** 
  56:d:/software/ovi_2503a_s3trc/ovi_2503a_s3trc/Tools/MinGW/include/c++/3.3.1/bits/stl_vector.h **** /** @file stl_vector.h
  57:d:/software/ovi_2503a_s3trc/ovi_2503a_s3trc/Tools/MinGW/include/c++/3.3.1/bits/stl_vector.h ****  *  This is an internal header file, included by other library headers.
  58:d:/software/ovi_2503a_s3trc/ovi_2503a_s3trc/Tools/MinGW/include/c++/3.3.1/bits/stl_vector.h ****  *  You should not attempt to use it directly.
  59:d:/software/ovi_2503a_s3trc/ovi_2503a_s3trc/Tools/MinGW/include/c++/3.3.1/bits/stl_vector.h ****  */
  60:d:/software/ovi_2503a_s3trc/ovi_2503a_s3trc/Tools/MinGW/include/c++/3.3.1/bits/stl_vector.h **** 
  61:d:/software/ovi_2503a_s3trc/ovi_2503a_s3trc/Tools/MinGW/include/c++/3.3.1/bits/stl_vector.h **** #ifndef __GLIBCPP_INTERNAL_VECTOR_H
  62:d:/software/ovi_2503a_s3trc/ovi_2503a_s3trc/Tools/MinGW/include/c++/3.3.1/bits/stl_vector.h **** #define __GLIBCPP_INTERNAL_VECTOR_H
  63:d:/software/ovi_2503a_s3trc/ovi_2503a_s3trc/Tools/MinGW/include/c++/3.3.1/bits/stl_vector.h **** 
  64:d:/software/ovi_2503a_s3trc/ovi_2503a_s3trc/Tools/MinGW/include/c++/3.3.1/bits/stl_vector.h **** #include <bits/stl_iterator_base_funcs.h>
  65:d:/software/ovi_2503a_s3trc/ovi_2503a_s3trc/Tools/MinGW/include/c++/3.3.1/bits/stl_vector.h **** #include <bits/functexcept.h>
  66:d:/software/ovi_2503a_s3trc/ovi_2503a_s3trc/Tools/MinGW/include/c++/3.3.1/bits/stl_vector.h **** #include <bits/concept_check.h>
  67:d:/software/ovi_2503a_s3trc/ovi_2503a_s3trc/Tools/MinGW/include/c++/3.3.1/bits/stl_vector.h **** 
  68:d:/software/ovi_2503a_s3trc/ovi_2503a_s3trc/Tools/MinGW/include/c++/3.3.1/bits/stl_vector.h **** namespace std
  69:d:/software/ovi_2503a_s3trc/ovi_2503a_s3trc/Tools/MinGW/include/c++/3.3.1/bits/stl_vector.h **** {
  70:d:/software/ovi_2503a_s3trc/ovi_2503a_s3trc/Tools/MinGW/include/c++/3.3.1/bits/stl_vector.h ****   /// @if maint Primary default version.  @endif
  71:d:/software/ovi_2503a_s3trc/ovi_2503a_s3trc/Tools/MinGW/include/c++/3.3.1/bits/stl_vector.h ****   /**
  72:d:/software/ovi_2503a_s3trc/ovi_2503a_s3trc/Tools/MinGW/include/c++/3.3.1/bits/stl_vector.h ****    *  @if maint
GAS LISTING d:/software/ovi_2503a_s3trc/ovi_2503a_s3trc/plutommi/Customer/ResGenerator/gcctmp/ccgnaaaa.s 			page 248


  73:d:/software/ovi_2503a_s3trc/ovi_2503a_s3trc/Tools/MinGW/include/c++/3.3.1/bits/stl_vector.h ****    *  See bits/stl_deque.h's _Deque_alloc_base for an explanation.
  74:d:/software/ovi_2503a_s3trc/ovi_2503a_s3trc/Tools/MinGW/include/c++/3.3.1/bits/stl_vector.h ****    *  @endif
  75:d:/software/ovi_2503a_s3trc/ovi_2503a_s3trc/Tools/MinGW/include/c++/3.3.1/bits/stl_vector.h ****   */
  76:d:/software/ovi_2503a_s3trc/ovi_2503a_s3trc/Tools/MinGW/include/c++/3.3.1/bits/stl_vector.h ****   template<typename _Tp, typename _Allocator, bool _IsStatic>
  77:d:/software/ovi_2503a_s3trc/ovi_2503a_s3trc/Tools/MinGW/include/c++/3.3.1/bits/stl_vector.h ****     class _Vector_alloc_base
  78:d:/software/ovi_2503a_s3trc/ovi_2503a_s3trc/Tools/MinGW/include/c++/3.3.1/bits/stl_vector.h ****     {
  79:d:/software/ovi_2503a_s3trc/ovi_2503a_s3trc/Tools/MinGW/include/c++/3.3.1/bits/stl_vector.h ****     public:
  80:d:/software/ovi_2503a_s3trc/ovi_2503a_s3trc/Tools/MinGW/include/c++/3.3.1/bits/stl_vector.h ****       typedef typename _Alloc_traits<_Tp, _Allocator>::allocator_type
  81:d:/software/ovi_2503a_s3trc/ovi_2503a_s3trc/Tools/MinGW/include/c++/3.3.1/bits/stl_vector.h ****       allocator_type;
  82:d:/software/ovi_2503a_s3trc/ovi_2503a_s3trc/Tools/MinGW/include/c++/3.3.1/bits/stl_vector.h **** 
  83:d:/software/ovi_2503a_s3trc/ovi_2503a_s3trc/Tools/MinGW/include/c++/3.3.1/bits/stl_vector.h ****       allocator_type
  84:d:/software/ovi_2503a_s3trc/ovi_2503a_s3trc/Tools/MinGW/include/c++/3.3.1/bits/stl_vector.h ****       get_allocator() const { return _M_data_allocator; }
  85:d:/software/ovi_2503a_s3trc/ovi_2503a_s3trc/Tools/MinGW/include/c++/3.3.1/bits/stl_vector.h ****   
  86:d:/software/ovi_2503a_s3trc/ovi_2503a_s3trc/Tools/MinGW/include/c++/3.3.1/bits/stl_vector.h ****       _Vector_alloc_base(const allocator_type& __a)
  87:d:/software/ovi_2503a_s3trc/ovi_2503a_s3trc/Tools/MinGW/include/c++/3.3.1/bits/stl_vector.h ****       : _M_data_allocator(__a), _M_start(0), _M_finish(0), _M_end_of_storage(0)
  88:d:/software/ovi_2503a_s3trc/ovi_2503a_s3trc/Tools/MinGW/include/c++/3.3.1/bits/stl_vector.h ****       { }
  89:d:/software/ovi_2503a_s3trc/ovi_2503a_s3trc/Tools/MinGW/include/c++/3.3.1/bits/stl_vector.h ****   
  90:d:/software/ovi_2503a_s3trc/ovi_2503a_s3trc/Tools/MinGW/include/c++/3.3.1/bits/stl_vector.h ****     protected:
  91:d:/software/ovi_2503a_s3trc/ovi_2503a_s3trc/Tools/MinGW/include/c++/3.3.1/bits/stl_vector.h ****       allocator_type _M_data_allocator;
  92:d:/software/ovi_2503a_s3trc/ovi_2503a_s3trc/Tools/MinGW/include/c++/3.3.1/bits/stl_vector.h ****       _Tp*           _M_start;
  93:d:/software/ovi_2503a_s3trc/ovi_2503a_s3trc/Tools/MinGW/include/c++/3.3.1/bits/stl_vector.h ****       _Tp*           _M_finish;
  94:d:/software/ovi_2503a_s3trc/ovi_2503a_s3trc/Tools/MinGW/include/c++/3.3.1/bits/stl_vector.h ****       _Tp*           _M_end_of_storage;
  95:d:/software/ovi_2503a_s3trc/ovi_2503a_s3trc/Tools/MinGW/include/c++/3.3.1/bits/stl_vector.h ****   
  96:d:/software/ovi_2503a_s3trc/ovi_2503a_s3trc/Tools/MinGW/include/c++/3.3.1/bits/stl_vector.h ****       _Tp*
  97:d:/software/ovi_2503a_s3trc/ovi_2503a_s3trc/Tools/MinGW/include/c++/3.3.1/bits/stl_vector.h ****       _M_allocate(size_t __n) { return _M_data_allocator.allocate(__n); }
  98:d:/software/ovi_2503a_s3trc/ovi_2503a_s3trc/Tools/MinGW/include/c++/3.3.1/bits/stl_vector.h ****   
  99:d:/software/ovi_2503a_s3trc/ovi_2503a_s3trc/Tools/MinGW/include/c++/3.3.1/bits/stl_vector.h ****       void
 100:d:/software/ovi_2503a_s3trc/ovi_2503a_s3trc/Tools/MinGW/include/c++/3.3.1/bits/stl_vector.h ****       _M_deallocate(_Tp* __p, size_t __n)
 101:d:/software/ovi_2503a_s3trc/ovi_2503a_s3trc/Tools/MinGW/include/c++/3.3.1/bits/stl_vector.h ****       { if (__p) _M_data_allocator.deallocate(__p, __n); }
 102:d:/software/ovi_2503a_s3trc/ovi_2503a_s3trc/Tools/MinGW/include/c++/3.3.1/bits/stl_vector.h ****     };
 103:d:/software/ovi_2503a_s3trc/ovi_2503a_s3trc/Tools/MinGW/include/c++/3.3.1/bits/stl_vector.h ****   
 104:d:/software/ovi_2503a_s3trc/ovi_2503a_s3trc/Tools/MinGW/include/c++/3.3.1/bits/stl_vector.h ****   /// @if maint Specialization for instanceless allocators.  @endif
 105:d:/software/ovi_2503a_s3trc/ovi_2503a_s3trc/Tools/MinGW/include/c++/3.3.1/bits/stl_vector.h ****   template<typename _Tp, typename _Allocator>
 106:d:/software/ovi_2503a_s3trc/ovi_2503a_s3trc/Tools/MinGW/include/c++/3.3.1/bits/stl_vector.h ****     class _Vector_alloc_base<_Tp, _Allocator, true>
 107:d:/software/ovi_2503a_s3trc/ovi_2503a_s3trc/Tools/MinGW/include/c++/3.3.1/bits/stl_vector.h ****     {
 108:d:/software/ovi_2503a_s3trc/ovi_2503a_s3trc/Tools/MinGW/include/c++/3.3.1/bits/stl_vector.h ****     public:
 109:d:/software/ovi_2503a_s3trc/ovi_2503a_s3trc/Tools/MinGW/include/c++/3.3.1/bits/stl_vector.h ****       typedef typename _Alloc_traits<_Tp, _Allocator>::allocator_type
 110:d:/software/ovi_2503a_s3trc/ovi_2503a_s3trc/Tools/MinGW/include/c++/3.3.1/bits/stl_vector.h ****              allocator_type;
 111:d:/software/ovi_2503a_s3trc/ovi_2503a_s3trc/Tools/MinGW/include/c++/3.3.1/bits/stl_vector.h ****   
 112:d:/software/ovi_2503a_s3trc/ovi_2503a_s3trc/Tools/MinGW/include/c++/3.3.1/bits/stl_vector.h ****       allocator_type
 113:d:/software/ovi_2503a_s3trc/ovi_2503a_s3trc/Tools/MinGW/include/c++/3.3.1/bits/stl_vector.h ****       get_allocator() const { return allocator_type(); }
 114:d:/software/ovi_2503a_s3trc/ovi_2503a_s3trc/Tools/MinGW/include/c++/3.3.1/bits/stl_vector.h ****       
 115:d:/software/ovi_2503a_s3trc/ovi_2503a_s3trc/Tools/MinGW/include/c++/3.3.1/bits/stl_vector.h ****       _Vector_alloc_base(const allocator_type&)
 116:d:/software/ovi_2503a_s3trc/ovi_2503a_s3trc/Tools/MinGW/include/c++/3.3.1/bits/stl_vector.h ****       : _M_start(0), _M_finish(0), _M_end_of_storage(0)
 117:d:/software/ovi_2503a_s3trc/ovi_2503a_s3trc/Tools/MinGW/include/c++/3.3.1/bits/stl_vector.h ****       { }
 118:d:/software/ovi_2503a_s3trc/ovi_2503a_s3trc/Tools/MinGW/include/c++/3.3.1/bits/stl_vector.h ****   
 119:d:/software/ovi_2503a_s3trc/ovi_2503a_s3trc/Tools/MinGW/include/c++/3.3.1/bits/stl_vector.h ****     protected:
 120:d:/software/ovi_2503a_s3trc/ovi_2503a_s3trc/Tools/MinGW/include/c++/3.3.1/bits/stl_vector.h ****       _Tp* _M_start;
 121:d:/software/ovi_2503a_s3trc/ovi_2503a_s3trc/Tools/MinGW/include/c++/3.3.1/bits/stl_vector.h ****       _Tp* _M_finish;
 122:d:/software/ovi_2503a_s3trc/ovi_2503a_s3trc/Tools/MinGW/include/c++/3.3.1/bits/stl_vector.h ****       _Tp* _M_end_of_storage;
 123:d:/software/ovi_2503a_s3trc/ovi_2503a_s3trc/Tools/MinGW/include/c++/3.3.1/bits/stl_vector.h ****   
 124:d:/software/ovi_2503a_s3trc/ovi_2503a_s3trc/Tools/MinGW/include/c++/3.3.1/bits/stl_vector.h ****       typedef typename _Alloc_traits<_Tp, _Allocator>::_Alloc_type _Alloc_type;
 125:d:/software/ovi_2503a_s3trc/ovi_2503a_s3trc/Tools/MinGW/include/c++/3.3.1/bits/stl_vector.h ****       
 126:d:/software/ovi_2503a_s3trc/ovi_2503a_s3trc/Tools/MinGW/include/c++/3.3.1/bits/stl_vector.h ****       _Tp*
 127:d:/software/ovi_2503a_s3trc/ovi_2503a_s3trc/Tools/MinGW/include/c++/3.3.1/bits/stl_vector.h ****       _M_allocate(size_t __n) { return _Alloc_type::allocate(__n); }
 128:d:/software/ovi_2503a_s3trc/ovi_2503a_s3trc/Tools/MinGW/include/c++/3.3.1/bits/stl_vector.h ****   
 129:d:/software/ovi_2503a_s3trc/ovi_2503a_s3trc/Tools/MinGW/include/c++/3.3.1/bits/stl_vector.h ****       void
GAS LISTING d:/software/ovi_2503a_s3trc/ovi_2503a_s3trc/plutommi/Customer/ResGenerator/gcctmp/ccgnaaaa.s 			page 249


 130:d:/software/ovi_2503a_s3trc/ovi_2503a_s3trc/Tools/MinGW/include/c++/3.3.1/bits/stl_vector.h ****       _M_deallocate(_Tp* __p, size_t __n) { _Alloc_type::deallocate(__p, __n);}
 131:d:/software/ovi_2503a_s3trc/ovi_2503a_s3trc/Tools/MinGW/include/c++/3.3.1/bits/stl_vector.h ****     };
 132:d:/software/ovi_2503a_s3trc/ovi_2503a_s3trc/Tools/MinGW/include/c++/3.3.1/bits/stl_vector.h ****   
 133:d:/software/ovi_2503a_s3trc/ovi_2503a_s3trc/Tools/MinGW/include/c++/3.3.1/bits/stl_vector.h ****   
 134:d:/software/ovi_2503a_s3trc/ovi_2503a_s3trc/Tools/MinGW/include/c++/3.3.1/bits/stl_vector.h ****   /**
 135:d:/software/ovi_2503a_s3trc/ovi_2503a_s3trc/Tools/MinGW/include/c++/3.3.1/bits/stl_vector.h ****    *  @if maint
 136:d:/software/ovi_2503a_s3trc/ovi_2503a_s3trc/Tools/MinGW/include/c++/3.3.1/bits/stl_vector.h ****    *  See bits/stl_deque.h's _Deque_base for an explanation.
 137:d:/software/ovi_2503a_s3trc/ovi_2503a_s3trc/Tools/MinGW/include/c++/3.3.1/bits/stl_vector.h ****    *  @endif
 138:d:/software/ovi_2503a_s3trc/ovi_2503a_s3trc/Tools/MinGW/include/c++/3.3.1/bits/stl_vector.h ****   */
 139:d:/software/ovi_2503a_s3trc/ovi_2503a_s3trc/Tools/MinGW/include/c++/3.3.1/bits/stl_vector.h ****   template<typename _Tp, typename _Alloc>
 140:d:/software/ovi_2503a_s3trc/ovi_2503a_s3trc/Tools/MinGW/include/c++/3.3.1/bits/stl_vector.h ****     struct _Vector_base
 141:d:/software/ovi_2503a_s3trc/ovi_2503a_s3trc/Tools/MinGW/include/c++/3.3.1/bits/stl_vector.h ****     : public _Vector_alloc_base<_Tp, _Alloc,
 142:d:/software/ovi_2503a_s3trc/ovi_2503a_s3trc/Tools/MinGW/include/c++/3.3.1/bits/stl_vector.h ****                                 _Alloc_traits<_Tp, _Alloc>::_S_instanceless>
 143:d:/software/ovi_2503a_s3trc/ovi_2503a_s3trc/Tools/MinGW/include/c++/3.3.1/bits/stl_vector.h ****     {
 144:d:/software/ovi_2503a_s3trc/ovi_2503a_s3trc/Tools/MinGW/include/c++/3.3.1/bits/stl_vector.h ****     public:
 145:d:/software/ovi_2503a_s3trc/ovi_2503a_s3trc/Tools/MinGW/include/c++/3.3.1/bits/stl_vector.h ****       typedef _Vector_alloc_base<_Tp, _Alloc,
 146:d:/software/ovi_2503a_s3trc/ovi_2503a_s3trc/Tools/MinGW/include/c++/3.3.1/bits/stl_vector.h **** 				 _Alloc_traits<_Tp, _Alloc>::_S_instanceless>
 147:d:/software/ovi_2503a_s3trc/ovi_2503a_s3trc/Tools/MinGW/include/c++/3.3.1/bits/stl_vector.h ****          _Base;
 148:d:/software/ovi_2503a_s3trc/ovi_2503a_s3trc/Tools/MinGW/include/c++/3.3.1/bits/stl_vector.h ****       typedef typename _Base::allocator_type allocator_type;
 149:d:/software/ovi_2503a_s3trc/ovi_2503a_s3trc/Tools/MinGW/include/c++/3.3.1/bits/stl_vector.h **** 
 150:d:/software/ovi_2503a_s3trc/ovi_2503a_s3trc/Tools/MinGW/include/c++/3.3.1/bits/stl_vector.h ****       _Vector_base(const allocator_type& __a)
 151:d:/software/ovi_2503a_s3trc/ovi_2503a_s3trc/Tools/MinGW/include/c++/3.3.1/bits/stl_vector.h ****       : _Base(__a) { }
 152:d:/software/ovi_2503a_s3trc/ovi_2503a_s3trc/Tools/MinGW/include/c++/3.3.1/bits/stl_vector.h ****       
 153:d:/software/ovi_2503a_s3trc/ovi_2503a_s3trc/Tools/MinGW/include/c++/3.3.1/bits/stl_vector.h ****       _Vector_base(size_t __n, const allocator_type& __a)
 154:d:/software/ovi_2503a_s3trc/ovi_2503a_s3trc/Tools/MinGW/include/c++/3.3.1/bits/stl_vector.h ****       : _Base(__a)
 155:d:/software/ovi_2503a_s3trc/ovi_2503a_s3trc/Tools/MinGW/include/c++/3.3.1/bits/stl_vector.h ****       {
 156:d:/software/ovi_2503a_s3trc/ovi_2503a_s3trc/Tools/MinGW/include/c++/3.3.1/bits/stl_vector.h **** 	_M_start = _M_allocate(__n);
 157:d:/software/ovi_2503a_s3trc/ovi_2503a_s3trc/Tools/MinGW/include/c++/3.3.1/bits/stl_vector.h **** 	_M_finish = _M_start;
 158:d:/software/ovi_2503a_s3trc/ovi_2503a_s3trc/Tools/MinGW/include/c++/3.3.1/bits/stl_vector.h **** 	_M_end_of_storage = _M_start + __n;
 159:d:/software/ovi_2503a_s3trc/ovi_2503a_s3trc/Tools/MinGW/include/c++/3.3.1/bits/stl_vector.h ****       }
 160:d:/software/ovi_2503a_s3trc/ovi_2503a_s3trc/Tools/MinGW/include/c++/3.3.1/bits/stl_vector.h ****       
 161:d:/software/ovi_2503a_s3trc/ovi_2503a_s3trc/Tools/MinGW/include/c++/3.3.1/bits/stl_vector.h ****       ~_Vector_base() 
 162:d:/software/ovi_2503a_s3trc/ovi_2503a_s3trc/Tools/MinGW/include/c++/3.3.1/bits/stl_vector.h ****       { _M_deallocate(_M_start, _M_end_of_storage - _M_start); }
 163:d:/software/ovi_2503a_s3trc/ovi_2503a_s3trc/Tools/MinGW/include/c++/3.3.1/bits/stl_vector.h ****     };
 164:d:/software/ovi_2503a_s3trc/ovi_2503a_s3trc/Tools/MinGW/include/c++/3.3.1/bits/stl_vector.h ****   
 165:d:/software/ovi_2503a_s3trc/ovi_2503a_s3trc/Tools/MinGW/include/c++/3.3.1/bits/stl_vector.h ****   
 166:d:/software/ovi_2503a_s3trc/ovi_2503a_s3trc/Tools/MinGW/include/c++/3.3.1/bits/stl_vector.h ****   /**
 167:d:/software/ovi_2503a_s3trc/ovi_2503a_s3trc/Tools/MinGW/include/c++/3.3.1/bits/stl_vector.h ****    *  @brief  A standard container which offers fixed time access to individual
 168:d:/software/ovi_2503a_s3trc/ovi_2503a_s3trc/Tools/MinGW/include/c++/3.3.1/bits/stl_vector.h ****    *  elements in any order.
 169:d:/software/ovi_2503a_s3trc/ovi_2503a_s3trc/Tools/MinGW/include/c++/3.3.1/bits/stl_vector.h ****    *
 170:d:/software/ovi_2503a_s3trc/ovi_2503a_s3trc/Tools/MinGW/include/c++/3.3.1/bits/stl_vector.h ****    *  @ingroup Containers
 171:d:/software/ovi_2503a_s3trc/ovi_2503a_s3trc/Tools/MinGW/include/c++/3.3.1/bits/stl_vector.h ****    *  @ingroup Sequences
 172:d:/software/ovi_2503a_s3trc/ovi_2503a_s3trc/Tools/MinGW/include/c++/3.3.1/bits/stl_vector.h ****    *
 173:d:/software/ovi_2503a_s3trc/ovi_2503a_s3trc/Tools/MinGW/include/c++/3.3.1/bits/stl_vector.h ****    *  Meets the requirements of a <a href="tables.html#65">container</a>, a
 174:d:/software/ovi_2503a_s3trc/ovi_2503a_s3trc/Tools/MinGW/include/c++/3.3.1/bits/stl_vector.h ****    *  <a href="tables.html#66">reversible container</a>, and a
 175:d:/software/ovi_2503a_s3trc/ovi_2503a_s3trc/Tools/MinGW/include/c++/3.3.1/bits/stl_vector.h ****    *  <a href="tables.html#67">sequence</a>, including the
 176:d:/software/ovi_2503a_s3trc/ovi_2503a_s3trc/Tools/MinGW/include/c++/3.3.1/bits/stl_vector.h ****    *  <a href="tables.html#68">optional sequence requirements</a> with the
 177:d:/software/ovi_2503a_s3trc/ovi_2503a_s3trc/Tools/MinGW/include/c++/3.3.1/bits/stl_vector.h ****    *  %exception of @c push_front and @c pop_front.
 178:d:/software/ovi_2503a_s3trc/ovi_2503a_s3trc/Tools/MinGW/include/c++/3.3.1/bits/stl_vector.h ****    *
 179:d:/software/ovi_2503a_s3trc/ovi_2503a_s3trc/Tools/MinGW/include/c++/3.3.1/bits/stl_vector.h ****    *  In some terminology a %vector can be described as a dynamic C-style array,
 180:d:/software/ovi_2503a_s3trc/ovi_2503a_s3trc/Tools/MinGW/include/c++/3.3.1/bits/stl_vector.h ****    *  it offers fast and efficient access to individual elements in any order
 181:d:/software/ovi_2503a_s3trc/ovi_2503a_s3trc/Tools/MinGW/include/c++/3.3.1/bits/stl_vector.h ****    *  and saves the user from worrying about memory and size allocation.
 182:d:/software/ovi_2503a_s3trc/ovi_2503a_s3trc/Tools/MinGW/include/c++/3.3.1/bits/stl_vector.h ****    *  Subscripting ( @c [] ) access is also provided as with C-style arrays.
 183:d:/software/ovi_2503a_s3trc/ovi_2503a_s3trc/Tools/MinGW/include/c++/3.3.1/bits/stl_vector.h ****   */
 184:d:/software/ovi_2503a_s3trc/ovi_2503a_s3trc/Tools/MinGW/include/c++/3.3.1/bits/stl_vector.h ****   template<typename _Tp, typename _Alloc = allocator<_Tp> >
 185:d:/software/ovi_2503a_s3trc/ovi_2503a_s3trc/Tools/MinGW/include/c++/3.3.1/bits/stl_vector.h ****     class vector : protected _Vector_base<_Tp, _Alloc>
 186:d:/software/ovi_2503a_s3trc/ovi_2503a_s3trc/Tools/MinGW/include/c++/3.3.1/bits/stl_vector.h ****     {
GAS LISTING d:/software/ovi_2503a_s3trc/ovi_2503a_s3trc/plutommi/Customer/ResGenerator/gcctmp/ccgnaaaa.s 			page 250


 187:d:/software/ovi_2503a_s3trc/ovi_2503a_s3trc/Tools/MinGW/include/c++/3.3.1/bits/stl_vector.h ****       // Concept requirements.
 188:d:/software/ovi_2503a_s3trc/ovi_2503a_s3trc/Tools/MinGW/include/c++/3.3.1/bits/stl_vector.h ****       __glibcpp_class_requires(_Tp, _SGIAssignableConcept)
 189:d:/software/ovi_2503a_s3trc/ovi_2503a_s3trc/Tools/MinGW/include/c++/3.3.1/bits/stl_vector.h ****   
 190:d:/software/ovi_2503a_s3trc/ovi_2503a_s3trc/Tools/MinGW/include/c++/3.3.1/bits/stl_vector.h ****       typedef _Vector_base<_Tp, _Alloc>                     _Base;
 191:d:/software/ovi_2503a_s3trc/ovi_2503a_s3trc/Tools/MinGW/include/c++/3.3.1/bits/stl_vector.h ****       typedef vector<_Tp, _Alloc>                           vector_type;
 192:d:/software/ovi_2503a_s3trc/ovi_2503a_s3trc/Tools/MinGW/include/c++/3.3.1/bits/stl_vector.h ****   
 193:d:/software/ovi_2503a_s3trc/ovi_2503a_s3trc/Tools/MinGW/include/c++/3.3.1/bits/stl_vector.h ****     public:
 194:d:/software/ovi_2503a_s3trc/ovi_2503a_s3trc/Tools/MinGW/include/c++/3.3.1/bits/stl_vector.h ****       typedef _Tp 						value_type;
 195:d:/software/ovi_2503a_s3trc/ovi_2503a_s3trc/Tools/MinGW/include/c++/3.3.1/bits/stl_vector.h ****       typedef value_type* 					pointer;
 196:d:/software/ovi_2503a_s3trc/ovi_2503a_s3trc/Tools/MinGW/include/c++/3.3.1/bits/stl_vector.h ****       typedef const value_type* 				const_pointer;
 197:d:/software/ovi_2503a_s3trc/ovi_2503a_s3trc/Tools/MinGW/include/c++/3.3.1/bits/stl_vector.h ****       typedef __gnu_cxx::__normal_iterator<pointer, vector_type> iterator;
 198:d:/software/ovi_2503a_s3trc/ovi_2503a_s3trc/Tools/MinGW/include/c++/3.3.1/bits/stl_vector.h ****       typedef __gnu_cxx::__normal_iterator<const_pointer, vector_type>
 199:d:/software/ovi_2503a_s3trc/ovi_2503a_s3trc/Tools/MinGW/include/c++/3.3.1/bits/stl_vector.h ****       const_iterator;
 200:d:/software/ovi_2503a_s3trc/ovi_2503a_s3trc/Tools/MinGW/include/c++/3.3.1/bits/stl_vector.h ****       typedef std::reverse_iterator<const_iterator>    	const_reverse_iterator;
 201:d:/software/ovi_2503a_s3trc/ovi_2503a_s3trc/Tools/MinGW/include/c++/3.3.1/bits/stl_vector.h ****       typedef std::reverse_iterator<iterator>                reverse_iterator;
 202:d:/software/ovi_2503a_s3trc/ovi_2503a_s3trc/Tools/MinGW/include/c++/3.3.1/bits/stl_vector.h ****       typedef value_type& 					reference;
 203:d:/software/ovi_2503a_s3trc/ovi_2503a_s3trc/Tools/MinGW/include/c++/3.3.1/bits/stl_vector.h ****       typedef const value_type& 				const_reference;
 204:d:/software/ovi_2503a_s3trc/ovi_2503a_s3trc/Tools/MinGW/include/c++/3.3.1/bits/stl_vector.h ****       typedef size_t 					size_type;
 205:d:/software/ovi_2503a_s3trc/ovi_2503a_s3trc/Tools/MinGW/include/c++/3.3.1/bits/stl_vector.h ****       typedef ptrdiff_t 					difference_type;
 206:d:/software/ovi_2503a_s3trc/ovi_2503a_s3trc/Tools/MinGW/include/c++/3.3.1/bits/stl_vector.h ****       typedef typename _Base::allocator_type                allocator_type;
 207:d:/software/ovi_2503a_s3trc/ovi_2503a_s3trc/Tools/MinGW/include/c++/3.3.1/bits/stl_vector.h ****       
 208:d:/software/ovi_2503a_s3trc/ovi_2503a_s3trc/Tools/MinGW/include/c++/3.3.1/bits/stl_vector.h ****     protected:
 209:d:/software/ovi_2503a_s3trc/ovi_2503a_s3trc/Tools/MinGW/include/c++/3.3.1/bits/stl_vector.h ****       /** @if maint
 210:d:/software/ovi_2503a_s3trc/ovi_2503a_s3trc/Tools/MinGW/include/c++/3.3.1/bits/stl_vector.h ****        *  These two functions and three data members are all from the
 211:d:/software/ovi_2503a_s3trc/ovi_2503a_s3trc/Tools/MinGW/include/c++/3.3.1/bits/stl_vector.h ****        *  top-most base class, which varies depending on the type of
 212:d:/software/ovi_2503a_s3trc/ovi_2503a_s3trc/Tools/MinGW/include/c++/3.3.1/bits/stl_vector.h ****        *  %allocator.  They should be pretty self-explanatory, as
 213:d:/software/ovi_2503a_s3trc/ovi_2503a_s3trc/Tools/MinGW/include/c++/3.3.1/bits/stl_vector.h ****        *  %vector uses a simple contiguous allocation scheme.  @endif
 214:d:/software/ovi_2503a_s3trc/ovi_2503a_s3trc/Tools/MinGW/include/c++/3.3.1/bits/stl_vector.h ****        */
 215:d:/software/ovi_2503a_s3trc/ovi_2503a_s3trc/Tools/MinGW/include/c++/3.3.1/bits/stl_vector.h ****       using _Base::_M_allocate;
 216:d:/software/ovi_2503a_s3trc/ovi_2503a_s3trc/Tools/MinGW/include/c++/3.3.1/bits/stl_vector.h ****       using _Base::_M_deallocate;
 217:d:/software/ovi_2503a_s3trc/ovi_2503a_s3trc/Tools/MinGW/include/c++/3.3.1/bits/stl_vector.h ****       using _Base::_M_start;
 218:d:/software/ovi_2503a_s3trc/ovi_2503a_s3trc/Tools/MinGW/include/c++/3.3.1/bits/stl_vector.h ****       using _Base::_M_finish;
 219:d:/software/ovi_2503a_s3trc/ovi_2503a_s3trc/Tools/MinGW/include/c++/3.3.1/bits/stl_vector.h ****       using _Base::_M_end_of_storage;
 220:d:/software/ovi_2503a_s3trc/ovi_2503a_s3trc/Tools/MinGW/include/c++/3.3.1/bits/stl_vector.h ****       
 221:d:/software/ovi_2503a_s3trc/ovi_2503a_s3trc/Tools/MinGW/include/c++/3.3.1/bits/stl_vector.h ****     public:
 222:d:/software/ovi_2503a_s3trc/ovi_2503a_s3trc/Tools/MinGW/include/c++/3.3.1/bits/stl_vector.h ****       // [23.2.4.1] construct/copy/destroy
 223:d:/software/ovi_2503a_s3trc/ovi_2503a_s3trc/Tools/MinGW/include/c++/3.3.1/bits/stl_vector.h ****       // (assign() and get_allocator() are also listed in this section)
 224:d:/software/ovi_2503a_s3trc/ovi_2503a_s3trc/Tools/MinGW/include/c++/3.3.1/bits/stl_vector.h ****       /**
 225:d:/software/ovi_2503a_s3trc/ovi_2503a_s3trc/Tools/MinGW/include/c++/3.3.1/bits/stl_vector.h ****        *  @brief  Default constructor creates no elements.
 226:d:/software/ovi_2503a_s3trc/ovi_2503a_s3trc/Tools/MinGW/include/c++/3.3.1/bits/stl_vector.h ****        */
 227:d:/software/ovi_2503a_s3trc/ovi_2503a_s3trc/Tools/MinGW/include/c++/3.3.1/bits/stl_vector.h ****       explicit
 228:d:/software/ovi_2503a_s3trc/ovi_2503a_s3trc/Tools/MinGW/include/c++/3.3.1/bits/stl_vector.h ****       vector(const allocator_type& __a = allocator_type())
 229:d:/software/ovi_2503a_s3trc/ovi_2503a_s3trc/Tools/MinGW/include/c++/3.3.1/bits/stl_vector.h ****       : _Base(__a) { }
 230:d:/software/ovi_2503a_s3trc/ovi_2503a_s3trc/Tools/MinGW/include/c++/3.3.1/bits/stl_vector.h ****   
 231:d:/software/ovi_2503a_s3trc/ovi_2503a_s3trc/Tools/MinGW/include/c++/3.3.1/bits/stl_vector.h ****       /**
 232:d:/software/ovi_2503a_s3trc/ovi_2503a_s3trc/Tools/MinGW/include/c++/3.3.1/bits/stl_vector.h ****        *  @brief  Create a %vector with copies of an exemplar element.
 233:d:/software/ovi_2503a_s3trc/ovi_2503a_s3trc/Tools/MinGW/include/c++/3.3.1/bits/stl_vector.h ****        *  @param  n  The number of elements to initially create.
 234:d:/software/ovi_2503a_s3trc/ovi_2503a_s3trc/Tools/MinGW/include/c++/3.3.1/bits/stl_vector.h ****        *  @param  value  An element to copy.
 235:d:/software/ovi_2503a_s3trc/ovi_2503a_s3trc/Tools/MinGW/include/c++/3.3.1/bits/stl_vector.h ****        * 
 236:d:/software/ovi_2503a_s3trc/ovi_2503a_s3trc/Tools/MinGW/include/c++/3.3.1/bits/stl_vector.h ****        *  This constructor fills the %vector with @a n copies of @a value.
 237:d:/software/ovi_2503a_s3trc/ovi_2503a_s3trc/Tools/MinGW/include/c++/3.3.1/bits/stl_vector.h ****        */
 238:d:/software/ovi_2503a_s3trc/ovi_2503a_s3trc/Tools/MinGW/include/c++/3.3.1/bits/stl_vector.h ****       vector(size_type __n, const value_type& __value,
 239:d:/software/ovi_2503a_s3trc/ovi_2503a_s3trc/Tools/MinGW/include/c++/3.3.1/bits/stl_vector.h **** 	     const allocator_type& __a = allocator_type())
 240:d:/software/ovi_2503a_s3trc/ovi_2503a_s3trc/Tools/MinGW/include/c++/3.3.1/bits/stl_vector.h ****       : _Base(__n, __a)
 241:d:/software/ovi_2503a_s3trc/ovi_2503a_s3trc/Tools/MinGW/include/c++/3.3.1/bits/stl_vector.h ****       { _M_finish = uninitialized_fill_n(_M_start, __n, __value); }
 242:d:/software/ovi_2503a_s3trc/ovi_2503a_s3trc/Tools/MinGW/include/c++/3.3.1/bits/stl_vector.h ****   
 243:d:/software/ovi_2503a_s3trc/ovi_2503a_s3trc/Tools/MinGW/include/c++/3.3.1/bits/stl_vector.h ****       /**
GAS LISTING d:/software/ovi_2503a_s3trc/ovi_2503a_s3trc/plutommi/Customer/ResGenerator/gcctmp/ccgnaaaa.s 			page 251


 244:d:/software/ovi_2503a_s3trc/ovi_2503a_s3trc/Tools/MinGW/include/c++/3.3.1/bits/stl_vector.h ****        *  @brief  Create a %vector with default elements.
 245:d:/software/ovi_2503a_s3trc/ovi_2503a_s3trc/Tools/MinGW/include/c++/3.3.1/bits/stl_vector.h ****        *  @param  n  The number of elements to initially create.
 246:d:/software/ovi_2503a_s3trc/ovi_2503a_s3trc/Tools/MinGW/include/c++/3.3.1/bits/stl_vector.h ****        * 
 247:d:/software/ovi_2503a_s3trc/ovi_2503a_s3trc/Tools/MinGW/include/c++/3.3.1/bits/stl_vector.h ****        *  This constructor fills the %vector with @a n copies of a
 248:d:/software/ovi_2503a_s3trc/ovi_2503a_s3trc/Tools/MinGW/include/c++/3.3.1/bits/stl_vector.h ****        *  default-constructed element.
 249:d:/software/ovi_2503a_s3trc/ovi_2503a_s3trc/Tools/MinGW/include/c++/3.3.1/bits/stl_vector.h ****        */
 250:d:/software/ovi_2503a_s3trc/ovi_2503a_s3trc/Tools/MinGW/include/c++/3.3.1/bits/stl_vector.h ****       explicit
 251:d:/software/ovi_2503a_s3trc/ovi_2503a_s3trc/Tools/MinGW/include/c++/3.3.1/bits/stl_vector.h ****       vector(size_type __n)
 252:d:/software/ovi_2503a_s3trc/ovi_2503a_s3trc/Tools/MinGW/include/c++/3.3.1/bits/stl_vector.h ****       : _Base(__n, allocator_type())
 253:d:/software/ovi_2503a_s3trc/ovi_2503a_s3trc/Tools/MinGW/include/c++/3.3.1/bits/stl_vector.h ****       { _M_finish = uninitialized_fill_n(_M_start, __n, value_type()); }
 254:d:/software/ovi_2503a_s3trc/ovi_2503a_s3trc/Tools/MinGW/include/c++/3.3.1/bits/stl_vector.h ****       
 255:d:/software/ovi_2503a_s3trc/ovi_2503a_s3trc/Tools/MinGW/include/c++/3.3.1/bits/stl_vector.h ****       /**
 256:d:/software/ovi_2503a_s3trc/ovi_2503a_s3trc/Tools/MinGW/include/c++/3.3.1/bits/stl_vector.h ****        *  @brief  %Vector copy constructor.
 257:d:/software/ovi_2503a_s3trc/ovi_2503a_s3trc/Tools/MinGW/include/c++/3.3.1/bits/stl_vector.h ****        *  @param  x  A %vector of identical element and allocator types.
 258:d:/software/ovi_2503a_s3trc/ovi_2503a_s3trc/Tools/MinGW/include/c++/3.3.1/bits/stl_vector.h ****        * 
 259:d:/software/ovi_2503a_s3trc/ovi_2503a_s3trc/Tools/MinGW/include/c++/3.3.1/bits/stl_vector.h ****        *  The newly-created %vector uses a copy of the allocation
 260:d:/software/ovi_2503a_s3trc/ovi_2503a_s3trc/Tools/MinGW/include/c++/3.3.1/bits/stl_vector.h ****        *  object used by @a x.  All the elements of @a x are copied,
 261:d:/software/ovi_2503a_s3trc/ovi_2503a_s3trc/Tools/MinGW/include/c++/3.3.1/bits/stl_vector.h ****        *  but any extra memory in
 262:d:/software/ovi_2503a_s3trc/ovi_2503a_s3trc/Tools/MinGW/include/c++/3.3.1/bits/stl_vector.h ****        *  @a x (for fast expansion) will not be copied.
 263:d:/software/ovi_2503a_s3trc/ovi_2503a_s3trc/Tools/MinGW/include/c++/3.3.1/bits/stl_vector.h ****        */
 264:d:/software/ovi_2503a_s3trc/ovi_2503a_s3trc/Tools/MinGW/include/c++/3.3.1/bits/stl_vector.h ****       vector(const vector& __x)
 265:d:/software/ovi_2503a_s3trc/ovi_2503a_s3trc/Tools/MinGW/include/c++/3.3.1/bits/stl_vector.h ****       : _Base(__x.size(), __x.get_allocator())
 266:d:/software/ovi_2503a_s3trc/ovi_2503a_s3trc/Tools/MinGW/include/c++/3.3.1/bits/stl_vector.h ****       { _M_finish = uninitialized_copy(__x.begin(), __x.end(), _M_start); }
 267:d:/software/ovi_2503a_s3trc/ovi_2503a_s3trc/Tools/MinGW/include/c++/3.3.1/bits/stl_vector.h ****   
 268:d:/software/ovi_2503a_s3trc/ovi_2503a_s3trc/Tools/MinGW/include/c++/3.3.1/bits/stl_vector.h ****       /**
 269:d:/software/ovi_2503a_s3trc/ovi_2503a_s3trc/Tools/MinGW/include/c++/3.3.1/bits/stl_vector.h ****        *  @brief  Builds a %vector from a range.
 270:d:/software/ovi_2503a_s3trc/ovi_2503a_s3trc/Tools/MinGW/include/c++/3.3.1/bits/stl_vector.h ****        *  @param  first  An input iterator.
 271:d:/software/ovi_2503a_s3trc/ovi_2503a_s3trc/Tools/MinGW/include/c++/3.3.1/bits/stl_vector.h ****        *  @param  last  An input iterator.
 272:d:/software/ovi_2503a_s3trc/ovi_2503a_s3trc/Tools/MinGW/include/c++/3.3.1/bits/stl_vector.h ****        * 
 273:d:/software/ovi_2503a_s3trc/ovi_2503a_s3trc/Tools/MinGW/include/c++/3.3.1/bits/stl_vector.h ****        *  Create a %vector consisting of copies of the elements from
 274:d:/software/ovi_2503a_s3trc/ovi_2503a_s3trc/Tools/MinGW/include/c++/3.3.1/bits/stl_vector.h ****        *  [first,last).
 275:d:/software/ovi_2503a_s3trc/ovi_2503a_s3trc/Tools/MinGW/include/c++/3.3.1/bits/stl_vector.h ****        *
 276:d:/software/ovi_2503a_s3trc/ovi_2503a_s3trc/Tools/MinGW/include/c++/3.3.1/bits/stl_vector.h ****        *  If the iterators are forward, bidirectional, or random-access, then
 277:d:/software/ovi_2503a_s3trc/ovi_2503a_s3trc/Tools/MinGW/include/c++/3.3.1/bits/stl_vector.h ****        *  this will call the elements' copy constructor N times (where N is
 278:d:/software/ovi_2503a_s3trc/ovi_2503a_s3trc/Tools/MinGW/include/c++/3.3.1/bits/stl_vector.h ****        *  distance(first,last)) and do no memory reallocation.  But if only
 279:d:/software/ovi_2503a_s3trc/ovi_2503a_s3trc/Tools/MinGW/include/c++/3.3.1/bits/stl_vector.h ****        *  input iterators are used, then this will do at most 2N calls to the
 280:d:/software/ovi_2503a_s3trc/ovi_2503a_s3trc/Tools/MinGW/include/c++/3.3.1/bits/stl_vector.h ****        *  copy constructor, and logN memory reallocations.
 281:d:/software/ovi_2503a_s3trc/ovi_2503a_s3trc/Tools/MinGW/include/c++/3.3.1/bits/stl_vector.h ****        */
 282:d:/software/ovi_2503a_s3trc/ovi_2503a_s3trc/Tools/MinGW/include/c++/3.3.1/bits/stl_vector.h ****       template<typename _InputIterator>
 283:d:/software/ovi_2503a_s3trc/ovi_2503a_s3trc/Tools/MinGW/include/c++/3.3.1/bits/stl_vector.h ****         vector(_InputIterator __first, _InputIterator __last,
 284:d:/software/ovi_2503a_s3trc/ovi_2503a_s3trc/Tools/MinGW/include/c++/3.3.1/bits/stl_vector.h **** 	       const allocator_type& __a = allocator_type())
 285:d:/software/ovi_2503a_s3trc/ovi_2503a_s3trc/Tools/MinGW/include/c++/3.3.1/bits/stl_vector.h **** 	: _Base(__a)
 286:d:/software/ovi_2503a_s3trc/ovi_2503a_s3trc/Tools/MinGW/include/c++/3.3.1/bits/stl_vector.h ****         {
 287:d:/software/ovi_2503a_s3trc/ovi_2503a_s3trc/Tools/MinGW/include/c++/3.3.1/bits/stl_vector.h **** 	  // Check whether it's an integral type.  If so, it's not an iterator.
 288:d:/software/ovi_2503a_s3trc/ovi_2503a_s3trc/Tools/MinGW/include/c++/3.3.1/bits/stl_vector.h **** 	  typedef typename _Is_integer<_InputIterator>::_Integral _Integral;
 289:d:/software/ovi_2503a_s3trc/ovi_2503a_s3trc/Tools/MinGW/include/c++/3.3.1/bits/stl_vector.h **** 	  _M_initialize_dispatch(__first, __last, _Integral());
 290:d:/software/ovi_2503a_s3trc/ovi_2503a_s3trc/Tools/MinGW/include/c++/3.3.1/bits/stl_vector.h **** 	}
 291:d:/software/ovi_2503a_s3trc/ovi_2503a_s3trc/Tools/MinGW/include/c++/3.3.1/bits/stl_vector.h ****       
 292:d:/software/ovi_2503a_s3trc/ovi_2503a_s3trc/Tools/MinGW/include/c++/3.3.1/bits/stl_vector.h ****       /**
 293:d:/software/ovi_2503a_s3trc/ovi_2503a_s3trc/Tools/MinGW/include/c++/3.3.1/bits/stl_vector.h ****        *  The dtor only erases the elements, and note that if the elements
 294:d:/software/ovi_2503a_s3trc/ovi_2503a_s3trc/Tools/MinGW/include/c++/3.3.1/bits/stl_vector.h ****        *  themselves are pointers, the pointed-to memory is not touched in any
 295:d:/software/ovi_2503a_s3trc/ovi_2503a_s3trc/Tools/MinGW/include/c++/3.3.1/bits/stl_vector.h ****        *  way.  Managing the pointer is the user's responsibilty.
 296:d:/software/ovi_2503a_s3trc/ovi_2503a_s3trc/Tools/MinGW/include/c++/3.3.1/bits/stl_vector.h ****        */
 297:d:/software/ovi_2503a_s3trc/ovi_2503a_s3trc/Tools/MinGW/include/c++/3.3.1/bits/stl_vector.h ****       ~vector() { _Destroy(_M_start, _M_finish); }
 298:d:/software/ovi_2503a_s3trc/ovi_2503a_s3trc/Tools/MinGW/include/c++/3.3.1/bits/stl_vector.h ****   
 299:d:/software/ovi_2503a_s3trc/ovi_2503a_s3trc/Tools/MinGW/include/c++/3.3.1/bits/stl_vector.h ****       /**
 300:d:/software/ovi_2503a_s3trc/ovi_2503a_s3trc/Tools/MinGW/include/c++/3.3.1/bits/stl_vector.h ****        *  @brief  %Vector assignment operator.
GAS LISTING d:/software/ovi_2503a_s3trc/ovi_2503a_s3trc/plutommi/Customer/ResGenerator/gcctmp/ccgnaaaa.s 			page 252


 301:d:/software/ovi_2503a_s3trc/ovi_2503a_s3trc/Tools/MinGW/include/c++/3.3.1/bits/stl_vector.h ****        *  @param  x  A %vector of identical element and allocator types.
 302:d:/software/ovi_2503a_s3trc/ovi_2503a_s3trc/Tools/MinGW/include/c++/3.3.1/bits/stl_vector.h ****        * 
 303:d:/software/ovi_2503a_s3trc/ovi_2503a_s3trc/Tools/MinGW/include/c++/3.3.1/bits/stl_vector.h ****        *  All the elements of @a x are copied, but any extra memory in
 304:d:/software/ovi_2503a_s3trc/ovi_2503a_s3trc/Tools/MinGW/include/c++/3.3.1/bits/stl_vector.h ****        *  @a x (for fast expansion) will not be copied.  Unlike the
 305:d:/software/ovi_2503a_s3trc/ovi_2503a_s3trc/Tools/MinGW/include/c++/3.3.1/bits/stl_vector.h ****        *  copy constructor, the allocator object is not copied.
 306:d:/software/ovi_2503a_s3trc/ovi_2503a_s3trc/Tools/MinGW/include/c++/3.3.1/bits/stl_vector.h ****        */
 307:d:/software/ovi_2503a_s3trc/ovi_2503a_s3trc/Tools/MinGW/include/c++/3.3.1/bits/stl_vector.h ****       vector&
 308:d:/software/ovi_2503a_s3trc/ovi_2503a_s3trc/Tools/MinGW/include/c++/3.3.1/bits/stl_vector.h ****       operator=(const vector& __x);
 309:d:/software/ovi_2503a_s3trc/ovi_2503a_s3trc/Tools/MinGW/include/c++/3.3.1/bits/stl_vector.h ****   
 310:d:/software/ovi_2503a_s3trc/ovi_2503a_s3trc/Tools/MinGW/include/c++/3.3.1/bits/stl_vector.h ****       /**
 311:d:/software/ovi_2503a_s3trc/ovi_2503a_s3trc/Tools/MinGW/include/c++/3.3.1/bits/stl_vector.h ****        *  @brief  Assigns a given value to a %vector.
 312:d:/software/ovi_2503a_s3trc/ovi_2503a_s3trc/Tools/MinGW/include/c++/3.3.1/bits/stl_vector.h ****        *  @param  n  Number of elements to be assigned.
 313:d:/software/ovi_2503a_s3trc/ovi_2503a_s3trc/Tools/MinGW/include/c++/3.3.1/bits/stl_vector.h ****        *  @param  val  Value to be assigned.
 314:d:/software/ovi_2503a_s3trc/ovi_2503a_s3trc/Tools/MinGW/include/c++/3.3.1/bits/stl_vector.h ****        *
 315:d:/software/ovi_2503a_s3trc/ovi_2503a_s3trc/Tools/MinGW/include/c++/3.3.1/bits/stl_vector.h ****        *  This function fills a %vector with @a n copies of the given
 316:d:/software/ovi_2503a_s3trc/ovi_2503a_s3trc/Tools/MinGW/include/c++/3.3.1/bits/stl_vector.h ****        *  value.  Note that the assignment completely changes the
 317:d:/software/ovi_2503a_s3trc/ovi_2503a_s3trc/Tools/MinGW/include/c++/3.3.1/bits/stl_vector.h ****        *  %vector and that the resulting %vector's size is the same as
 318:d:/software/ovi_2503a_s3trc/ovi_2503a_s3trc/Tools/MinGW/include/c++/3.3.1/bits/stl_vector.h ****        *  the number of elements assigned.  Old data may be lost.
 319:d:/software/ovi_2503a_s3trc/ovi_2503a_s3trc/Tools/MinGW/include/c++/3.3.1/bits/stl_vector.h ****        */
 320:d:/software/ovi_2503a_s3trc/ovi_2503a_s3trc/Tools/MinGW/include/c++/3.3.1/bits/stl_vector.h ****       void
 321:d:/software/ovi_2503a_s3trc/ovi_2503a_s3trc/Tools/MinGW/include/c++/3.3.1/bits/stl_vector.h ****       assign(size_type __n, const value_type& __val) 
 322:d:/software/ovi_2503a_s3trc/ovi_2503a_s3trc/Tools/MinGW/include/c++/3.3.1/bits/stl_vector.h ****       { _M_fill_assign(__n, __val); }
 323:d:/software/ovi_2503a_s3trc/ovi_2503a_s3trc/Tools/MinGW/include/c++/3.3.1/bits/stl_vector.h ****   
 324:d:/software/ovi_2503a_s3trc/ovi_2503a_s3trc/Tools/MinGW/include/c++/3.3.1/bits/stl_vector.h ****       /**
 325:d:/software/ovi_2503a_s3trc/ovi_2503a_s3trc/Tools/MinGW/include/c++/3.3.1/bits/stl_vector.h ****        *  @brief  Assigns a range to a %vector.
 326:d:/software/ovi_2503a_s3trc/ovi_2503a_s3trc/Tools/MinGW/include/c++/3.3.1/bits/stl_vector.h ****        *  @param  first  An input iterator.
 327:d:/software/ovi_2503a_s3trc/ovi_2503a_s3trc/Tools/MinGW/include/c++/3.3.1/bits/stl_vector.h ****        *  @param  last   An input iterator.
 328:d:/software/ovi_2503a_s3trc/ovi_2503a_s3trc/Tools/MinGW/include/c++/3.3.1/bits/stl_vector.h ****        *
 329:d:/software/ovi_2503a_s3trc/ovi_2503a_s3trc/Tools/MinGW/include/c++/3.3.1/bits/stl_vector.h ****        *  This function fills a %vector with copies of the elements in the
 330:d:/software/ovi_2503a_s3trc/ovi_2503a_s3trc/Tools/MinGW/include/c++/3.3.1/bits/stl_vector.h ****        *  range [first,last).
 331:d:/software/ovi_2503a_s3trc/ovi_2503a_s3trc/Tools/MinGW/include/c++/3.3.1/bits/stl_vector.h ****        *
 332:d:/software/ovi_2503a_s3trc/ovi_2503a_s3trc/Tools/MinGW/include/c++/3.3.1/bits/stl_vector.h ****        *  Note that the assignment completely changes the %vector and
 333:d:/software/ovi_2503a_s3trc/ovi_2503a_s3trc/Tools/MinGW/include/c++/3.3.1/bits/stl_vector.h ****        *  that the resulting %vector's size is the same as the number
 334:d:/software/ovi_2503a_s3trc/ovi_2503a_s3trc/Tools/MinGW/include/c++/3.3.1/bits/stl_vector.h ****        *  of elements assigned.  Old data may be lost.
 335:d:/software/ovi_2503a_s3trc/ovi_2503a_s3trc/Tools/MinGW/include/c++/3.3.1/bits/stl_vector.h ****        */
 336:d:/software/ovi_2503a_s3trc/ovi_2503a_s3trc/Tools/MinGW/include/c++/3.3.1/bits/stl_vector.h ****       template<typename _InputIterator>
 337:d:/software/ovi_2503a_s3trc/ovi_2503a_s3trc/Tools/MinGW/include/c++/3.3.1/bits/stl_vector.h ****         void
 338:d:/software/ovi_2503a_s3trc/ovi_2503a_s3trc/Tools/MinGW/include/c++/3.3.1/bits/stl_vector.h ****         assign(_InputIterator __first, _InputIterator __last)
 339:d:/software/ovi_2503a_s3trc/ovi_2503a_s3trc/Tools/MinGW/include/c++/3.3.1/bits/stl_vector.h ****         {
 340:d:/software/ovi_2503a_s3trc/ovi_2503a_s3trc/Tools/MinGW/include/c++/3.3.1/bits/stl_vector.h **** 	  // Check whether it's an integral type.  If so, it's not an iterator.
 341:d:/software/ovi_2503a_s3trc/ovi_2503a_s3trc/Tools/MinGW/include/c++/3.3.1/bits/stl_vector.h **** 	  typedef typename _Is_integer<_InputIterator>::_Integral _Integral;
 342:d:/software/ovi_2503a_s3trc/ovi_2503a_s3trc/Tools/MinGW/include/c++/3.3.1/bits/stl_vector.h **** 	  _M_assign_dispatch(__first, __last, _Integral());
 343:d:/software/ovi_2503a_s3trc/ovi_2503a_s3trc/Tools/MinGW/include/c++/3.3.1/bits/stl_vector.h **** 	}
 344:d:/software/ovi_2503a_s3trc/ovi_2503a_s3trc/Tools/MinGW/include/c++/3.3.1/bits/stl_vector.h ****   
 345:d:/software/ovi_2503a_s3trc/ovi_2503a_s3trc/Tools/MinGW/include/c++/3.3.1/bits/stl_vector.h ****       /// Get a copy of the memory allocation object.
 346:d:/software/ovi_2503a_s3trc/ovi_2503a_s3trc/Tools/MinGW/include/c++/3.3.1/bits/stl_vector.h ****       allocator_type
 347:d:/software/ovi_2503a_s3trc/ovi_2503a_s3trc/Tools/MinGW/include/c++/3.3.1/bits/stl_vector.h ****       get_allocator() const { return _Base::get_allocator(); }
 348:d:/software/ovi_2503a_s3trc/ovi_2503a_s3trc/Tools/MinGW/include/c++/3.3.1/bits/stl_vector.h ****       
 349:d:/software/ovi_2503a_s3trc/ovi_2503a_s3trc/Tools/MinGW/include/c++/3.3.1/bits/stl_vector.h ****       // iterators
 350:d:/software/ovi_2503a_s3trc/ovi_2503a_s3trc/Tools/MinGW/include/c++/3.3.1/bits/stl_vector.h ****       /**
 351:d:/software/ovi_2503a_s3trc/ovi_2503a_s3trc/Tools/MinGW/include/c++/3.3.1/bits/stl_vector.h ****        *  Returns a read/write iterator that points to the first element in the
 352:d:/software/ovi_2503a_s3trc/ovi_2503a_s3trc/Tools/MinGW/include/c++/3.3.1/bits/stl_vector.h ****        *  %vector.  Iteration is done in ordinary element order.
 353:d:/software/ovi_2503a_s3trc/ovi_2503a_s3trc/Tools/MinGW/include/c++/3.3.1/bits/stl_vector.h ****        */
 354:d:/software/ovi_2503a_s3trc/ovi_2503a_s3trc/Tools/MinGW/include/c++/3.3.1/bits/stl_vector.h ****       iterator
 355:d:/software/ovi_2503a_s3trc/ovi_2503a_s3trc/Tools/MinGW/include/c++/3.3.1/bits/stl_vector.h ****       begin() { return iterator (_M_start); }
 356:d:/software/ovi_2503a_s3trc/ovi_2503a_s3trc/Tools/MinGW/include/c++/3.3.1/bits/stl_vector.h ****       
 357:d:/software/ovi_2503a_s3trc/ovi_2503a_s3trc/Tools/MinGW/include/c++/3.3.1/bits/stl_vector.h ****       /**
GAS LISTING d:/software/ovi_2503a_s3trc/ovi_2503a_s3trc/plutommi/Customer/ResGenerator/gcctmp/ccgnaaaa.s 			page 253


 358:d:/software/ovi_2503a_s3trc/ovi_2503a_s3trc/Tools/MinGW/include/c++/3.3.1/bits/stl_vector.h ****        *  Returns a read-only (constant) iterator that points to the
 359:d:/software/ovi_2503a_s3trc/ovi_2503a_s3trc/Tools/MinGW/include/c++/3.3.1/bits/stl_vector.h ****        *  first element in the %vector.  Iteration is done in ordinary
 360:d:/software/ovi_2503a_s3trc/ovi_2503a_s3trc/Tools/MinGW/include/c++/3.3.1/bits/stl_vector.h ****        *  element order.
 361:d:/software/ovi_2503a_s3trc/ovi_2503a_s3trc/Tools/MinGW/include/c++/3.3.1/bits/stl_vector.h ****        */
 362:d:/software/ovi_2503a_s3trc/ovi_2503a_s3trc/Tools/MinGW/include/c++/3.3.1/bits/stl_vector.h ****       const_iterator
 363:d:/software/ovi_2503a_s3trc/ovi_2503a_s3trc/Tools/MinGW/include/c++/3.3.1/bits/stl_vector.h ****       begin() const { return const_iterator (_M_start); }
 364:d:/software/ovi_2503a_s3trc/ovi_2503a_s3trc/Tools/MinGW/include/c++/3.3.1/bits/stl_vector.h ****       
 365:d:/software/ovi_2503a_s3trc/ovi_2503a_s3trc/Tools/MinGW/include/c++/3.3.1/bits/stl_vector.h ****       /**
 366:d:/software/ovi_2503a_s3trc/ovi_2503a_s3trc/Tools/MinGW/include/c++/3.3.1/bits/stl_vector.h ****        *  Returns a read/write iterator that points one past the last
 367:d:/software/ovi_2503a_s3trc/ovi_2503a_s3trc/Tools/MinGW/include/c++/3.3.1/bits/stl_vector.h ****        *  element in the %vector.  Iteration is done in ordinary
 368:d:/software/ovi_2503a_s3trc/ovi_2503a_s3trc/Tools/MinGW/include/c++/3.3.1/bits/stl_vector.h ****        *  element order.
 369:d:/software/ovi_2503a_s3trc/ovi_2503a_s3trc/Tools/MinGW/include/c++/3.3.1/bits/stl_vector.h ****        */
 370:d:/software/ovi_2503a_s3trc/ovi_2503a_s3trc/Tools/MinGW/include/c++/3.3.1/bits/stl_vector.h ****       iterator
 371:d:/software/ovi_2503a_s3trc/ovi_2503a_s3trc/Tools/MinGW/include/c++/3.3.1/bits/stl_vector.h ****       end() { return iterator (_M_finish); }
 372:d:/software/ovi_2503a_s3trc/ovi_2503a_s3trc/Tools/MinGW/include/c++/3.3.1/bits/stl_vector.h ****       
 373:d:/software/ovi_2503a_s3trc/ovi_2503a_s3trc/Tools/MinGW/include/c++/3.3.1/bits/stl_vector.h ****       /**
 374:d:/software/ovi_2503a_s3trc/ovi_2503a_s3trc/Tools/MinGW/include/c++/3.3.1/bits/stl_vector.h ****        *  Returns a read-only (constant) iterator that points one past the last
 375:d:/software/ovi_2503a_s3trc/ovi_2503a_s3trc/Tools/MinGW/include/c++/3.3.1/bits/stl_vector.h ****        *  element in the %vector.  Iteration is done in ordinary element order.
 376:d:/software/ovi_2503a_s3trc/ovi_2503a_s3trc/Tools/MinGW/include/c++/3.3.1/bits/stl_vector.h ****        */
 377:d:/software/ovi_2503a_s3trc/ovi_2503a_s3trc/Tools/MinGW/include/c++/3.3.1/bits/stl_vector.h ****       const_iterator
 378:d:/software/ovi_2503a_s3trc/ovi_2503a_s3trc/Tools/MinGW/include/c++/3.3.1/bits/stl_vector.h ****       end() const { return const_iterator (_M_finish); }
 379:d:/software/ovi_2503a_s3trc/ovi_2503a_s3trc/Tools/MinGW/include/c++/3.3.1/bits/stl_vector.h ****       
 380:d:/software/ovi_2503a_s3trc/ovi_2503a_s3trc/Tools/MinGW/include/c++/3.3.1/bits/stl_vector.h ****       /**
 381:d:/software/ovi_2503a_s3trc/ovi_2503a_s3trc/Tools/MinGW/include/c++/3.3.1/bits/stl_vector.h ****        *  Returns a read/write reverse iterator that points to the
 382:d:/software/ovi_2503a_s3trc/ovi_2503a_s3trc/Tools/MinGW/include/c++/3.3.1/bits/stl_vector.h ****        *  last element in the %vector.  Iteration is done in reverse
 383:d:/software/ovi_2503a_s3trc/ovi_2503a_s3trc/Tools/MinGW/include/c++/3.3.1/bits/stl_vector.h ****        *  element order.
 384:d:/software/ovi_2503a_s3trc/ovi_2503a_s3trc/Tools/MinGW/include/c++/3.3.1/bits/stl_vector.h ****        */
 385:d:/software/ovi_2503a_s3trc/ovi_2503a_s3trc/Tools/MinGW/include/c++/3.3.1/bits/stl_vector.h ****       reverse_iterator
 386:d:/software/ovi_2503a_s3trc/ovi_2503a_s3trc/Tools/MinGW/include/c++/3.3.1/bits/stl_vector.h ****       rbegin() { return reverse_iterator(end()); }
 387:d:/software/ovi_2503a_s3trc/ovi_2503a_s3trc/Tools/MinGW/include/c++/3.3.1/bits/stl_vector.h ****       
 388:d:/software/ovi_2503a_s3trc/ovi_2503a_s3trc/Tools/MinGW/include/c++/3.3.1/bits/stl_vector.h ****       /**
 389:d:/software/ovi_2503a_s3trc/ovi_2503a_s3trc/Tools/MinGW/include/c++/3.3.1/bits/stl_vector.h ****        *  Returns a read-only (constant) reverse iterator that points
 390:d:/software/ovi_2503a_s3trc/ovi_2503a_s3trc/Tools/MinGW/include/c++/3.3.1/bits/stl_vector.h ****        *  to the last element in the %vector.  Iteration is done in
 391:d:/software/ovi_2503a_s3trc/ovi_2503a_s3trc/Tools/MinGW/include/c++/3.3.1/bits/stl_vector.h ****        *  reverse element order.
 392:d:/software/ovi_2503a_s3trc/ovi_2503a_s3trc/Tools/MinGW/include/c++/3.3.1/bits/stl_vector.h ****        */
 393:d:/software/ovi_2503a_s3trc/ovi_2503a_s3trc/Tools/MinGW/include/c++/3.3.1/bits/stl_vector.h ****       const_reverse_iterator
 394:d:/software/ovi_2503a_s3trc/ovi_2503a_s3trc/Tools/MinGW/include/c++/3.3.1/bits/stl_vector.h ****       rbegin() const { return const_reverse_iterator(end()); }
 395:d:/software/ovi_2503a_s3trc/ovi_2503a_s3trc/Tools/MinGW/include/c++/3.3.1/bits/stl_vector.h ****       
 396:d:/software/ovi_2503a_s3trc/ovi_2503a_s3trc/Tools/MinGW/include/c++/3.3.1/bits/stl_vector.h ****       /**
 397:d:/software/ovi_2503a_s3trc/ovi_2503a_s3trc/Tools/MinGW/include/c++/3.3.1/bits/stl_vector.h ****        *  Returns a read/write reverse iterator that points to one before the
 398:d:/software/ovi_2503a_s3trc/ovi_2503a_s3trc/Tools/MinGW/include/c++/3.3.1/bits/stl_vector.h ****        *  first element in the %vector.  Iteration is done in reverse element
 399:d:/software/ovi_2503a_s3trc/ovi_2503a_s3trc/Tools/MinGW/include/c++/3.3.1/bits/stl_vector.h ****        *  order.
 400:d:/software/ovi_2503a_s3trc/ovi_2503a_s3trc/Tools/MinGW/include/c++/3.3.1/bits/stl_vector.h ****        */
 401:d:/software/ovi_2503a_s3trc/ovi_2503a_s3trc/Tools/MinGW/include/c++/3.3.1/bits/stl_vector.h ****       reverse_iterator
 402:d:/software/ovi_2503a_s3trc/ovi_2503a_s3trc/Tools/MinGW/include/c++/3.3.1/bits/stl_vector.h ****       rend() { return reverse_iterator(begin()); }
 403:d:/software/ovi_2503a_s3trc/ovi_2503a_s3trc/Tools/MinGW/include/c++/3.3.1/bits/stl_vector.h ****       
 404:d:/software/ovi_2503a_s3trc/ovi_2503a_s3trc/Tools/MinGW/include/c++/3.3.1/bits/stl_vector.h ****       /**
 405:d:/software/ovi_2503a_s3trc/ovi_2503a_s3trc/Tools/MinGW/include/c++/3.3.1/bits/stl_vector.h ****        *  Returns a read-only (constant) reverse iterator that points
 406:d:/software/ovi_2503a_s3trc/ovi_2503a_s3trc/Tools/MinGW/include/c++/3.3.1/bits/stl_vector.h ****        *  to one before the first element in the %vector.  Iteration
 407:d:/software/ovi_2503a_s3trc/ovi_2503a_s3trc/Tools/MinGW/include/c++/3.3.1/bits/stl_vector.h ****        *  is done in reverse element order.
 408:d:/software/ovi_2503a_s3trc/ovi_2503a_s3trc/Tools/MinGW/include/c++/3.3.1/bits/stl_vector.h ****        */
 409:d:/software/ovi_2503a_s3trc/ovi_2503a_s3trc/Tools/MinGW/include/c++/3.3.1/bits/stl_vector.h ****       const_reverse_iterator
 410:d:/software/ovi_2503a_s3trc/ovi_2503a_s3trc/Tools/MinGW/include/c++/3.3.1/bits/stl_vector.h ****       rend() const { return const_reverse_iterator(begin()); }
 411:d:/software/ovi_2503a_s3trc/ovi_2503a_s3trc/Tools/MinGW/include/c++/3.3.1/bits/stl_vector.h ****   
 412:d:/software/ovi_2503a_s3trc/ovi_2503a_s3trc/Tools/MinGW/include/c++/3.3.1/bits/stl_vector.h ****       // [23.2.4.2] capacity
 413:d:/software/ovi_2503a_s3trc/ovi_2503a_s3trc/Tools/MinGW/include/c++/3.3.1/bits/stl_vector.h ****       /**  Returns the number of elements in the %vector.  */
 414:d:/software/ovi_2503a_s3trc/ovi_2503a_s3trc/Tools/MinGW/include/c++/3.3.1/bits/stl_vector.h ****       size_type
GAS LISTING d:/software/ovi_2503a_s3trc/ovi_2503a_s3trc/plutommi/Customer/ResGenerator/gcctmp/ccgnaaaa.s 			page 254


 415:d:/software/ovi_2503a_s3trc/ovi_2503a_s3trc/Tools/MinGW/include/c++/3.3.1/bits/stl_vector.h ****       size() const { return size_type(end() - begin()); }
 10561              	LM845:
 10562 0000 55       		pushl	%ebp
 10563 0001 89E5     		movl	%esp, %ebp
 10564 0003 53       		pushl	%ebx
 10565 0004 83EC14   		subl	$20, %esp
 10567              	LM846:
 10568              	LBB100:
 10569 0007 8B4508   		movl	8(%ebp), %eax
 10570 000a 890424   		movl	%eax, (%esp)
 10571 000d E8000000 		call	__ZNKSt6vectorIP15ResFileGenParamSaIS1_EE5beginEv
 10571      00
 10572 0012 8945F8   		movl	%eax, -8(%ebp)
 10573 0015 8D5DF8   		leal	-8(%ebp), %ebx
 10574 0018 8B4508   		movl	8(%ebp), %eax
 10575 001b 890424   		movl	%eax, (%esp)
 10576 001e E8000000 		call	__ZNKSt6vectorIP15ResFileGenParamSaIS1_EE3endEv
 10576      00
 10577 0023 8945F4   		movl	%eax, -12(%ebp)
 10578 0026 8D45F4   		leal	-12(%ebp), %eax
 10579 0029 895C2404 		movl	%ebx, 4(%esp)
 10580 002d 890424   		movl	%eax, (%esp)
 10581 0030 E8000000 		call	__ZN9__gnu_cxxmiIPKP15ResFileGenParamS4_St6vectorIS2_SaIS2_EEEENS_17__normal_iteratorIT_T1_E1
 10581      00
 10582 0035 83C414   		addl	$20, %esp
 10583 0038 5B       		popl	%ebx
 10584 0039 5D       		popl	%ebp
 10585 003a C3       		ret
 10586              	LBE100:
 10587              	Lscope44:
 10589 003b 90       		.section	.text$_ZNSt6vectorIP15ResFileGenParamSaIS1_EEixEj,"x"
 10590              		.linkonce discard
 10591              		.align 2
 10595              	.globl __ZNSt6vectorIP15ResFileGenParamSaIS1_EEixEj
 10597              	__ZNSt6vectorIP15ResFileGenParamSaIS1_EEixEj:
 416:d:/software/ovi_2503a_s3trc/ovi_2503a_s3trc/Tools/MinGW/include/c++/3.3.1/bits/stl_vector.h ****       
 417:d:/software/ovi_2503a_s3trc/ovi_2503a_s3trc/Tools/MinGW/include/c++/3.3.1/bits/stl_vector.h ****       /**  Returns the size() of the largest possible %vector.  */
 418:d:/software/ovi_2503a_s3trc/ovi_2503a_s3trc/Tools/MinGW/include/c++/3.3.1/bits/stl_vector.h ****       size_type
 419:d:/software/ovi_2503a_s3trc/ovi_2503a_s3trc/Tools/MinGW/include/c++/3.3.1/bits/stl_vector.h ****       max_size() const { return size_type(-1) / sizeof(value_type); }
 420:d:/software/ovi_2503a_s3trc/ovi_2503a_s3trc/Tools/MinGW/include/c++/3.3.1/bits/stl_vector.h ****       
 421:d:/software/ovi_2503a_s3trc/ovi_2503a_s3trc/Tools/MinGW/include/c++/3.3.1/bits/stl_vector.h ****       /**
 422:d:/software/ovi_2503a_s3trc/ovi_2503a_s3trc/Tools/MinGW/include/c++/3.3.1/bits/stl_vector.h ****        *  @brief  Resizes the %vector to the specified number of elements.
 423:d:/software/ovi_2503a_s3trc/ovi_2503a_s3trc/Tools/MinGW/include/c++/3.3.1/bits/stl_vector.h ****        *  @param  new_size  Number of elements the %vector should contain.
 424:d:/software/ovi_2503a_s3trc/ovi_2503a_s3trc/Tools/MinGW/include/c++/3.3.1/bits/stl_vector.h ****        *  @param  x  Data with which new elements should be populated.
 425:d:/software/ovi_2503a_s3trc/ovi_2503a_s3trc/Tools/MinGW/include/c++/3.3.1/bits/stl_vector.h ****        *
 426:d:/software/ovi_2503a_s3trc/ovi_2503a_s3trc/Tools/MinGW/include/c++/3.3.1/bits/stl_vector.h ****        *  This function will %resize the %vector to the specified
 427:d:/software/ovi_2503a_s3trc/ovi_2503a_s3trc/Tools/MinGW/include/c++/3.3.1/bits/stl_vector.h ****        *  number of elements.  If the number is smaller than the
 428:d:/software/ovi_2503a_s3trc/ovi_2503a_s3trc/Tools/MinGW/include/c++/3.3.1/bits/stl_vector.h ****        *  %vector's current size the %vector is truncated, otherwise
 429:d:/software/ovi_2503a_s3trc/ovi_2503a_s3trc/Tools/MinGW/include/c++/3.3.1/bits/stl_vector.h ****        *  the %vector is extended and new elements are populated with
 430:d:/software/ovi_2503a_s3trc/ovi_2503a_s3trc/Tools/MinGW/include/c++/3.3.1/bits/stl_vector.h ****        *  given data.
 431:d:/software/ovi_2503a_s3trc/ovi_2503a_s3trc/Tools/MinGW/include/c++/3.3.1/bits/stl_vector.h ****        */
 432:d:/software/ovi_2503a_s3trc/ovi_2503a_s3trc/Tools/MinGW/include/c++/3.3.1/bits/stl_vector.h ****       void
 433:d:/software/ovi_2503a_s3trc/ovi_2503a_s3trc/Tools/MinGW/include/c++/3.3.1/bits/stl_vector.h ****       resize(size_type __new_size, const value_type& __x)
 434:d:/software/ovi_2503a_s3trc/ovi_2503a_s3trc/Tools/MinGW/include/c++/3.3.1/bits/stl_vector.h ****       {
 435:d:/software/ovi_2503a_s3trc/ovi_2503a_s3trc/Tools/MinGW/include/c++/3.3.1/bits/stl_vector.h **** 	if (__new_size < size())
 436:d:/software/ovi_2503a_s3trc/ovi_2503a_s3trc/Tools/MinGW/include/c++/3.3.1/bits/stl_vector.h **** 	  erase(begin() + __new_size, end());
 437:d:/software/ovi_2503a_s3trc/ovi_2503a_s3trc/Tools/MinGW/include/c++/3.3.1/bits/stl_vector.h **** 	else
GAS LISTING d:/software/ovi_2503a_s3trc/ovi_2503a_s3trc/plutommi/Customer/ResGenerator/gcctmp/ccgnaaaa.s 			page 255


 438:d:/software/ovi_2503a_s3trc/ovi_2503a_s3trc/Tools/MinGW/include/c++/3.3.1/bits/stl_vector.h **** 	  insert(end(), __new_size - size(), __x);
 439:d:/software/ovi_2503a_s3trc/ovi_2503a_s3trc/Tools/MinGW/include/c++/3.3.1/bits/stl_vector.h ****       }
 440:d:/software/ovi_2503a_s3trc/ovi_2503a_s3trc/Tools/MinGW/include/c++/3.3.1/bits/stl_vector.h ****       
 441:d:/software/ovi_2503a_s3trc/ovi_2503a_s3trc/Tools/MinGW/include/c++/3.3.1/bits/stl_vector.h ****       /**
 442:d:/software/ovi_2503a_s3trc/ovi_2503a_s3trc/Tools/MinGW/include/c++/3.3.1/bits/stl_vector.h ****        *  @brief  Resizes the %vector to the specified number of elements.
 443:d:/software/ovi_2503a_s3trc/ovi_2503a_s3trc/Tools/MinGW/include/c++/3.3.1/bits/stl_vector.h ****        *  @param  new_size  Number of elements the %vector should contain.
 444:d:/software/ovi_2503a_s3trc/ovi_2503a_s3trc/Tools/MinGW/include/c++/3.3.1/bits/stl_vector.h ****        *
 445:d:/software/ovi_2503a_s3trc/ovi_2503a_s3trc/Tools/MinGW/include/c++/3.3.1/bits/stl_vector.h ****        *  This function will resize the %vector to the specified
 446:d:/software/ovi_2503a_s3trc/ovi_2503a_s3trc/Tools/MinGW/include/c++/3.3.1/bits/stl_vector.h ****        *  number of elements.  If the number is smaller than the
 447:d:/software/ovi_2503a_s3trc/ovi_2503a_s3trc/Tools/MinGW/include/c++/3.3.1/bits/stl_vector.h ****        *  %vector's current size the %vector is truncated, otherwise
 448:d:/software/ovi_2503a_s3trc/ovi_2503a_s3trc/Tools/MinGW/include/c++/3.3.1/bits/stl_vector.h ****        *  the %vector is extended and new elements are
 449:d:/software/ovi_2503a_s3trc/ovi_2503a_s3trc/Tools/MinGW/include/c++/3.3.1/bits/stl_vector.h ****        *  default-constructed.
 450:d:/software/ovi_2503a_s3trc/ovi_2503a_s3trc/Tools/MinGW/include/c++/3.3.1/bits/stl_vector.h ****        */
 451:d:/software/ovi_2503a_s3trc/ovi_2503a_s3trc/Tools/MinGW/include/c++/3.3.1/bits/stl_vector.h ****       void
 452:d:/software/ovi_2503a_s3trc/ovi_2503a_s3trc/Tools/MinGW/include/c++/3.3.1/bits/stl_vector.h ****       resize(size_type __new_size) { resize(__new_size, value_type()); }
 453:d:/software/ovi_2503a_s3trc/ovi_2503a_s3trc/Tools/MinGW/include/c++/3.3.1/bits/stl_vector.h ****       
 454:d:/software/ovi_2503a_s3trc/ovi_2503a_s3trc/Tools/MinGW/include/c++/3.3.1/bits/stl_vector.h ****       /**
 455:d:/software/ovi_2503a_s3trc/ovi_2503a_s3trc/Tools/MinGW/include/c++/3.3.1/bits/stl_vector.h ****        *  Returns the total number of elements that the %vector can hold before
 456:d:/software/ovi_2503a_s3trc/ovi_2503a_s3trc/Tools/MinGW/include/c++/3.3.1/bits/stl_vector.h ****        *  needing to allocate more memory.
 457:d:/software/ovi_2503a_s3trc/ovi_2503a_s3trc/Tools/MinGW/include/c++/3.3.1/bits/stl_vector.h ****        */
 458:d:/software/ovi_2503a_s3trc/ovi_2503a_s3trc/Tools/MinGW/include/c++/3.3.1/bits/stl_vector.h ****       size_type
 459:d:/software/ovi_2503a_s3trc/ovi_2503a_s3trc/Tools/MinGW/include/c++/3.3.1/bits/stl_vector.h ****       capacity() const
 460:d:/software/ovi_2503a_s3trc/ovi_2503a_s3trc/Tools/MinGW/include/c++/3.3.1/bits/stl_vector.h ****       { return size_type(const_iterator(_M_end_of_storage) - begin()); }
 461:d:/software/ovi_2503a_s3trc/ovi_2503a_s3trc/Tools/MinGW/include/c++/3.3.1/bits/stl_vector.h ****       
 462:d:/software/ovi_2503a_s3trc/ovi_2503a_s3trc/Tools/MinGW/include/c++/3.3.1/bits/stl_vector.h ****       /**
 463:d:/software/ovi_2503a_s3trc/ovi_2503a_s3trc/Tools/MinGW/include/c++/3.3.1/bits/stl_vector.h ****        *  Returns true if the %vector is empty.  (Thus begin() would
 464:d:/software/ovi_2503a_s3trc/ovi_2503a_s3trc/Tools/MinGW/include/c++/3.3.1/bits/stl_vector.h ****        *  equal end().)
 465:d:/software/ovi_2503a_s3trc/ovi_2503a_s3trc/Tools/MinGW/include/c++/3.3.1/bits/stl_vector.h ****        */
 466:d:/software/ovi_2503a_s3trc/ovi_2503a_s3trc/Tools/MinGW/include/c++/3.3.1/bits/stl_vector.h ****       bool
 467:d:/software/ovi_2503a_s3trc/ovi_2503a_s3trc/Tools/MinGW/include/c++/3.3.1/bits/stl_vector.h ****       empty() const { return begin() == end(); }
 468:d:/software/ovi_2503a_s3trc/ovi_2503a_s3trc/Tools/MinGW/include/c++/3.3.1/bits/stl_vector.h ****       
 469:d:/software/ovi_2503a_s3trc/ovi_2503a_s3trc/Tools/MinGW/include/c++/3.3.1/bits/stl_vector.h ****       /**
 470:d:/software/ovi_2503a_s3trc/ovi_2503a_s3trc/Tools/MinGW/include/c++/3.3.1/bits/stl_vector.h ****        *  @brief  Attempt to preallocate enough memory for specified number of
 471:d:/software/ovi_2503a_s3trc/ovi_2503a_s3trc/Tools/MinGW/include/c++/3.3.1/bits/stl_vector.h ****        *          elements.
 472:d:/software/ovi_2503a_s3trc/ovi_2503a_s3trc/Tools/MinGW/include/c++/3.3.1/bits/stl_vector.h ****        *  @param  n  Number of elements required.
 473:d:/software/ovi_2503a_s3trc/ovi_2503a_s3trc/Tools/MinGW/include/c++/3.3.1/bits/stl_vector.h ****        *  @throw  std::length_error  If @a n exceeds @c max_size().
 474:d:/software/ovi_2503a_s3trc/ovi_2503a_s3trc/Tools/MinGW/include/c++/3.3.1/bits/stl_vector.h ****        *
 475:d:/software/ovi_2503a_s3trc/ovi_2503a_s3trc/Tools/MinGW/include/c++/3.3.1/bits/stl_vector.h ****        *  This function attempts to reserve enough memory for the
 476:d:/software/ovi_2503a_s3trc/ovi_2503a_s3trc/Tools/MinGW/include/c++/3.3.1/bits/stl_vector.h ****        *  %vector to hold the specified number of elements.  If the
 477:d:/software/ovi_2503a_s3trc/ovi_2503a_s3trc/Tools/MinGW/include/c++/3.3.1/bits/stl_vector.h ****        *  number requested is more than max_size(), length_error is
 478:d:/software/ovi_2503a_s3trc/ovi_2503a_s3trc/Tools/MinGW/include/c++/3.3.1/bits/stl_vector.h ****        *  thrown.
 479:d:/software/ovi_2503a_s3trc/ovi_2503a_s3trc/Tools/MinGW/include/c++/3.3.1/bits/stl_vector.h ****        *
 480:d:/software/ovi_2503a_s3trc/ovi_2503a_s3trc/Tools/MinGW/include/c++/3.3.1/bits/stl_vector.h ****        *  The advantage of this function is that if optimal code is a
 481:d:/software/ovi_2503a_s3trc/ovi_2503a_s3trc/Tools/MinGW/include/c++/3.3.1/bits/stl_vector.h ****        *  necessity and the user can determine the number of elements
 482:d:/software/ovi_2503a_s3trc/ovi_2503a_s3trc/Tools/MinGW/include/c++/3.3.1/bits/stl_vector.h ****        *  that will be required, the user can reserve the memory in
 483:d:/software/ovi_2503a_s3trc/ovi_2503a_s3trc/Tools/MinGW/include/c++/3.3.1/bits/stl_vector.h ****        *  %advance, and thus prevent a possible reallocation of memory
 484:d:/software/ovi_2503a_s3trc/ovi_2503a_s3trc/Tools/MinGW/include/c++/3.3.1/bits/stl_vector.h ****        *  and copying of %vector data.
 485:d:/software/ovi_2503a_s3trc/ovi_2503a_s3trc/Tools/MinGW/include/c++/3.3.1/bits/stl_vector.h ****        */
 486:d:/software/ovi_2503a_s3trc/ovi_2503a_s3trc/Tools/MinGW/include/c++/3.3.1/bits/stl_vector.h ****       void
 487:d:/software/ovi_2503a_s3trc/ovi_2503a_s3trc/Tools/MinGW/include/c++/3.3.1/bits/stl_vector.h ****       reserve(size_type __n);
 488:d:/software/ovi_2503a_s3trc/ovi_2503a_s3trc/Tools/MinGW/include/c++/3.3.1/bits/stl_vector.h ****       
 489:d:/software/ovi_2503a_s3trc/ovi_2503a_s3trc/Tools/MinGW/include/c++/3.3.1/bits/stl_vector.h ****       // element access
 490:d:/software/ovi_2503a_s3trc/ovi_2503a_s3trc/Tools/MinGW/include/c++/3.3.1/bits/stl_vector.h ****       /**
 491:d:/software/ovi_2503a_s3trc/ovi_2503a_s3trc/Tools/MinGW/include/c++/3.3.1/bits/stl_vector.h ****        *  @brief  Subscript access to the data contained in the %vector.
 492:d:/software/ovi_2503a_s3trc/ovi_2503a_s3trc/Tools/MinGW/include/c++/3.3.1/bits/stl_vector.h ****        *  @param  n  The index of the element for which data should be accessed.
 493:d:/software/ovi_2503a_s3trc/ovi_2503a_s3trc/Tools/MinGW/include/c++/3.3.1/bits/stl_vector.h ****        *  @return  Read/write reference to data.
 494:d:/software/ovi_2503a_s3trc/ovi_2503a_s3trc/Tools/MinGW/include/c++/3.3.1/bits/stl_vector.h ****        *
GAS LISTING d:/software/ovi_2503a_s3trc/ovi_2503a_s3trc/plutommi/Customer/ResGenerator/gcctmp/ccgnaaaa.s 			page 256


 495:d:/software/ovi_2503a_s3trc/ovi_2503a_s3trc/Tools/MinGW/include/c++/3.3.1/bits/stl_vector.h ****        *  This operator allows for easy, array-style, data access.
 496:d:/software/ovi_2503a_s3trc/ovi_2503a_s3trc/Tools/MinGW/include/c++/3.3.1/bits/stl_vector.h ****        *  Note that data access with this operator is unchecked and
 497:d:/software/ovi_2503a_s3trc/ovi_2503a_s3trc/Tools/MinGW/include/c++/3.3.1/bits/stl_vector.h ****        *  out_of_range lookups are not defined. (For checked lookups
 498:d:/software/ovi_2503a_s3trc/ovi_2503a_s3trc/Tools/MinGW/include/c++/3.3.1/bits/stl_vector.h ****        *  see at().)
 499:d:/software/ovi_2503a_s3trc/ovi_2503a_s3trc/Tools/MinGW/include/c++/3.3.1/bits/stl_vector.h ****        */
 500:d:/software/ovi_2503a_s3trc/ovi_2503a_s3trc/Tools/MinGW/include/c++/3.3.1/bits/stl_vector.h ****       reference
 501:d:/software/ovi_2503a_s3trc/ovi_2503a_s3trc/Tools/MinGW/include/c++/3.3.1/bits/stl_vector.h ****       operator[](size_type __n) { return *(begin() + __n); }
 10599              	LM847:
 10600 0000 55       		pushl	%ebp
 10601 0001 89E5     		movl	%esp, %ebp
 10602 0003 83EC18   		subl	$24, %esp
 10604              	LM848:
 10605              	LBB101:
 10606 0006 8B4508   		movl	8(%ebp), %eax
 10607 0009 890424   		movl	%eax, (%esp)
 10608 000c E8000000 		call	__ZNSt6vectorIP15ResFileGenParamSaIS1_EE5beginEv
 10608      00
 10609 0011 8945F8   		movl	%eax, -8(%ebp)
 10610 0014 8D55F8   		leal	-8(%ebp), %edx
 10611 0017 8B450C   		movl	12(%ebp), %eax
 10612 001a 8945F4   		movl	%eax, -12(%ebp)
 10613 001d 8D45F4   		leal	-12(%ebp), %eax
 10614 0020 89442404 		movl	%eax, 4(%esp)
 10615 0024 891424   		movl	%edx, (%esp)
 10616 0027 E8000000 		call	__ZNK9__gnu_cxx17__normal_iteratorIPP15ResFileGenParamSt6vectorIS2_SaIS2_EEEplERKi
 10616      00
 10617 002c 8945FC   		movl	%eax, -4(%ebp)
 10618 002f 8D45FC   		leal	-4(%ebp), %eax
 10619 0032 890424   		movl	%eax, (%esp)
 10620 0035 E8000000 		call	__ZNK9__gnu_cxx17__normal_iteratorIPP15ResFileGenParamSt6vectorIS2_SaIS2_EEEdeEv
 10620      00
 10621 003a C9       		leave
 10622 003b C3       		ret
 10623              	LBE101:
 10624              	Lscope45:
 10626              		.text
 10627              	LC346:
 10628 9111 424D5000 		.ascii "BMP\0"
 10629              	LC347:
 10630 9115 50424D00 		.ascii "PBM\0"
 10631              	LC348:
 10632 9119 4A504700 		.ascii "JPG\0"
 10633              	LC349:
 10634 911d 47494600 		.ascii "GIF\0"
 10635              	LC350:
 10636 9121 41424D00 		.ascii "ABM\0"
 10637              	LC351:
 10638 9125 41564900 		.ascii "AVI\0"
 10639              	LC352:
 10640 9129 33475000 		.ascii "3GP\0"
 10641              	LC353:
 10642 912d 4D503400 		.ascii "MP4\0"
 10643              	LC354:
 10644 9131 525600   		.ascii "RV\0"
 10645              	LC355:
 10646 9134 524D00   		.ascii "RM\0"
 10647              	LC356:
GAS LISTING d:/software/ovi_2503a_s3trc/ovi_2503a_s3trc/plutommi/Customer/ResGenerator/gcctmp/ccgnaaaa.s 			page 257


 10648 9137 524D5642 		.ascii "RMVB\0"
 10648      00
 10649              	LC357:
 10650 913c 504E4700 		.ascii "PNG\0"
 10651              	LC358:
 10652 9140 50504E00 		.ascii "PPN\0"
 10653              	LC359:
 10654 9144 4D334400 		.ascii "M3D\0"
 10655              	LC360:
 10656 9148 434D5000 		.ascii "CMP\0"
 10657              	LC361:
 10658 914c 56495300 		.ascii "VIS\0"
 10659              	LC362:
 10660 9150 53564700 		.ascii "SVG\0"
 10661              	LC363:
 10662 9154 54544600 		.ascii "TTF\0"
 10663              	LC364:
 10664 9158 53544600 		.ascii "STF\0"
 10665              	LC365:
 10666 915c 43434300 		.ascii "CCC\0"
 10667              	LC366:
 10668 9160 4B545800 		.ascii "KTX\0"
 10669 9164 90909090 		.align 32
 10669      90909090 
 10669      90909090 
 10669      90909090 
 10669      90909090 
 10670              	_image_resource_info:
 10671 9180 11910000 		.long	LC346
 10672 9184 01       		.byte	1
 10673 9185 000000   		.space 3
 10674 9188 15910000 		.long	LC347
 10675 918c 04       		.byte	4
 10676 918d 000000   		.space 3
 10677 9190 19910000 		.long	LC348
 10678 9194 09       		.byte	9
 10679 9195 000000   		.space 3
 10680 9198 1D910000 		.long	LC349
 10681 919c 03       		.byte	3
 10682 919d 000000   		.space 3
 10683 91a0 21910000 		.long	LC350
 10684 91a4 28       		.byte	40
 10685 91a5 000000   		.space 3
 10686 91a8 25910000 		.long	LC351
 10687 91ac 0C       		.byte	12
 10688 91ad 000000   		.space 3
 10689 91b0 29910000 		.long	LC352
 10690 91b4 0E       		.byte	14
 10691 91b5 000000   		.space 3
 10692 91b8 2D910000 		.long	LC353
 10693 91bc 10       		.byte	16
 10694 91bd 000000   		.space 3
 10695 91c0 31910000 		.long	LC354
 10696 91c4 4A       		.byte	74
 10697 91c5 000000   		.space 3
 10698 91c8 34910000 		.long	LC355
 10699 91cc 4C       		.byte	76
GAS LISTING d:/software/ovi_2503a_s3trc/ovi_2503a_s3trc/plutommi/Customer/ResGenerator/gcctmp/ccgnaaaa.s 			page 258


 10700 91cd 000000   		.space 3
 10701 91d0 37910000 		.long	LC356
 10702 91d4 4E       		.byte	78
 10703 91d5 000000   		.space 3
 10704 91d8 3C910000 		.long	LC357
 10705 91dc 13       		.byte	19
 10706 91dd 000000   		.space 3
 10707 91e0 40910000 		.long	LC358
 10708 91e4 48       		.byte	72
 10709 91e5 000000   		.space 3
 10710 91e8 44910000 		.long	LC359
 10711 91ec 19       		.byte	25
 10712 91ed 000000   		.space 3
 10713 91f0 48910000 		.long	LC360
 10714 91f4 1D       		.byte	29
 10715 91f5 000000   		.space 3
 10716 91f8 4C910000 		.long	LC361
 10717 91fc 31       		.byte	49
 10718 91fd 000000   		.space 3
 10719 9200 50910000 		.long	LC362
 10720 9204 1B       		.byte	27
 10721 9205 000000   		.space 3
 10722 9208 54910000 		.long	LC363
 10723 920c 49       		.byte	73
 10724 920d 000000   		.space 3
 10725 9210 58910000 		.long	LC364
 10726 9214 49       		.byte	73
 10727 9215 000000   		.space 3
 10728 9218 5C910000 		.long	LC365
 10729 921c 49       		.byte	73
 10730 921d 000000   		.space 3
 10731 9220 60910000 		.long	LC366
 10732 9224 43       		.byte	67
 10733 9225 000000   		.space 3
 10734              	_HEADER:
 10735 9228 5F5F616C 		.ascii "__align(4)\0"
 10735      69676E28 
 10735      342900
 10736              	_REP_HEADER:
 10737 9233 65787465 		.ascii "extern \0"
 10737      726E2000 
 10738              	.globl __ZNSt15basic_streambufIcSt11char_traitsIcEE13_S_pback_sizeE
 10739              		.section	.rdata$_ZNSt15basic_streambufIcSt11char_traitsIcEE13_S_pback_sizeE,""
 10740              		.linkonce same_size
 10741              		.align 4
 10742              	__ZNSt15basic_streambufIcSt11char_traitsIcEE13_S_pback_sizeE:
 10743 0000 01000000 		.long	1
 10744              		.section	.text$_ZN22StringParamTextFileDAOC1Ev,"x"
 10745              		.linkonce discard
 10746              		.align 2
 10749              	.globl __ZN22StringParamTextFileDAOC1Ev
 10751              	__ZN22StringParamTextFileDAOC1Ev:
 10753              	Ltext5:
 10755              	LM849:
 10756 0000 55       		pushl	%ebp
 10757 0001 89E5     		movl	%esp, %ebp
 10758 0003 83EC08   		subl	$8, %esp
GAS LISTING d:/software/ovi_2503a_s3trc/ovi_2503a_s3trc/plutommi/Customer/ResGenerator/gcctmp/ccgnaaaa.s 			page 259


 10760              	LM850:
 10761              	LBB102:
 10762 0006 8B4508   		movl	8(%ebp), %eax
 10763 0009 890424   		movl	%eax, (%esp)
 10764 000c E8000000 		call	__ZN16ParamTextFileDAOC2Ev
 10764      00
 10765 0011 8B4508   		movl	8(%ebp), %eax
 10766 0014 C7000800 		movl	$__ZTV22StringParamTextFileDAO+8, (%eax)
 10766      0000
 10767 001a C9       		leave
 10768 001b C3       		ret
 10769              	L406:
 10770              	L405:
 10771              	LBE102:
 10772              	Lscope46:
 10774              		.section	.text$_ZN21ImageParamTextFileDAOC1Ev,"x"
 10775              		.linkonce discard
 10776              		.align 2
 10779              	.globl __ZN21ImageParamTextFileDAOC1Ev
 10781              	__ZN21ImageParamTextFileDAOC1Ev:
 10783              	LM851:
 10784 0000 55       		pushl	%ebp
 10785 0001 89E5     		movl	%esp, %ebp
 10786 0003 83EC08   		subl	$8, %esp
 10788              	LM852:
 10789              	LBB103:
 10790 0006 8B4508   		movl	8(%ebp), %eax
 10791 0009 890424   		movl	%eax, (%esp)
 10792 000c E8000000 		call	__ZN16ParamTextFileDAOC2Ev
 10792      00
 10793 0011 8B4508   		movl	8(%ebp), %eax
 10794 0014 C7000800 		movl	$__ZTV21ImageParamTextFileDAO+8, (%eax)
 10794      0000
 10795 001a C9       		leave
 10796 001b C3       		ret
 10797              	L409:
 10798              	L408:
 10799              	LBE103:
 10800              	Lscope47:
 10802              		.section	.text$_ZN21AudioParamTextFileDAOC1Ev,"x"
 10803              		.linkonce discard
 10804              		.align 2
 10807              	.globl __ZN21AudioParamTextFileDAOC1Ev
 10809              	__ZN21AudioParamTextFileDAOC1Ev:
 10811              	LM853:
 10812 0000 55       		pushl	%ebp
 10813 0001 89E5     		movl	%esp, %ebp
 10814 0003 83EC08   		subl	$8, %esp
 10816              	LM854:
 10817              	LBB104:
 10818 0006 8B4508   		movl	8(%ebp), %eax
 10819 0009 890424   		movl	%eax, (%esp)
 10820 000c E8000000 		call	__ZN16ParamTextFileDAOC2Ev
 10820      00
 10821 0011 8B4508   		movl	8(%ebp), %eax
 10822 0014 C7000800 		movl	$__ZTV21AudioParamTextFileDAO+8, (%eax)
 10822      0000
GAS LISTING d:/software/ovi_2503a_s3trc/ovi_2503a_s3trc/plutommi/Customer/ResGenerator/gcctmp/ccgnaaaa.s 			page 260


 10823 001a C9       		leave
 10824 001b C3       		ret
 10825              	L412:
 10826              	L411:
 10827              	LBE104:
 10828              	Lscope48:
 10830              		.section	.text$_ZN26ResFileGenParamTextFileDAOC1Ev,"x"
 10831              		.linkonce discard
 10832              		.align 2
 10835              	.globl __ZN26ResFileGenParamTextFileDAOC1Ev
 10837              	__ZN26ResFileGenParamTextFileDAOC1Ev:
 10839              	LM855:
 10840 0000 55       		pushl	%ebp
 10841 0001 89E5     		movl	%esp, %ebp
 10843              	LM856:
 10844              	LBB105:
 10845 0003 8B4508   		movl	8(%ebp), %eax
 10846 0006 C7000800 		movl	$__ZTV26ResFileGenParamTextFileDAO+8, (%eax)
 10846      0000
 10847 000c 5D       		popl	%ebp
 10848 000d C3       		ret
 10849              	L415:
 10850              	L414:
 10851              	LBE105:
 10852              	Lscope49:
 10854 000e 9090     		.section	.text$_ZN25OfflineResPopAudioAdaptorC1Ev,"x"
 10855              		.linkonce discard
 10856              		.align 2
 10859              	.globl __ZN25OfflineResPopAudioAdaptorC1Ev
 10861              	__ZN25OfflineResPopAudioAdaptorC1Ev:
 10863              	LM857:
 10864 0000 55       		pushl	%ebp
 10865 0001 89E5     		movl	%esp, %ebp
 10866 0003 83EC08   		subl	$8, %esp
 10868              	LM858:
 10869              	LBB106:
 10870 0006 8B4508   		movl	8(%ebp), %eax
 10871 0009 890424   		movl	%eax, (%esp)
 10872 000c E8000000 		call	__ZN20OfflineResPopAdaptorC2Ev
 10872      00
 10873 0011 8B4508   		movl	8(%ebp), %eax
 10874 0014 C7000800 		movl	$__ZTV25OfflineResPopAudioAdaptor+8, (%eax)
 10874      0000
 10875 001a C9       		leave
 10876 001b C3       		ret
 10877              	L418:
 10878              	L417:
 10879              	LBE106:
 10880              	Lscope50:
 10882              		.section	.text$_ZN25OfflineResPopImageAdaptorC1Ei,"x"
 10883              		.linkonce discard
 10884              		.align 2
 10888              	.globl __ZN25OfflineResPopImageAdaptorC1Ei
 10890              	__ZN25OfflineResPopImageAdaptorC1Ei:
 10892              	LM859:
 10893 0000 55       		pushl	%ebp
 10894 0001 89E5     		movl	%esp, %ebp
GAS LISTING d:/software/ovi_2503a_s3trc/ovi_2503a_s3trc/plutommi/Customer/ResGenerator/gcctmp/ccgnaaaa.s 			page 261


 10895 0003 83EC08   		subl	$8, %esp
 10897              	LM860:
 10898              	LBB107:
 10899 0006 8B4508   		movl	8(%ebp), %eax
 10900 0009 890424   		movl	%eax, (%esp)
 10901 000c E8000000 		call	__ZN20OfflineResPopAdaptorC2Ev
 10901      00
 10902 0011 8B4508   		movl	8(%ebp), %eax
 10903 0014 C7000800 		movl	$__ZTV25OfflineResPopImageAdaptor+8, (%eax)
 10903      0000
 10905              	LM861:
 10906 001a 8B5508   		movl	8(%ebp), %edx
 10907 001d 8B450C   		movl	12(%ebp), %eax
 10908 0020 894208   		movl	%eax, 8(%edx)
 10910              	LM862:
 10911 0023 C9       		leave
 10912 0024 C3       		ret
 10913              	LBE107:
 10914              	Lscope51:
 10916 0025 909090   		.section	.text$_ZN26OfflineResPopStringAdaptorC1Ev,"x"
 10917              		.linkonce discard
 10918              		.align 2
 10921              	.globl __ZN26OfflineResPopStringAdaptorC1Ev
 10923              	__ZN26OfflineResPopStringAdaptorC1Ev:
 10925              	LM863:
 10926 0000 55       		pushl	%ebp
 10927 0001 89E5     		movl	%esp, %ebp
 10928 0003 83EC08   		subl	$8, %esp
 10930              	LM864:
 10931              	LBB108:
 10932 0006 8B4508   		movl	8(%ebp), %eax
 10933 0009 890424   		movl	%eax, (%esp)
 10934 000c E8000000 		call	__ZN20OfflineResPopAdaptorC2Ev
 10934      00
 10935 0011 8B4508   		movl	8(%ebp), %eax
 10936 0014 C7000800 		movl	$__ZTV26OfflineResPopStringAdaptor+8, (%eax)
 10936      0000
 10937 001a C9       		leave
 10938 001b C3       		ret
 10939              	L422:
 10940              	L421:
 10941              	LBE108:
 10942              	Lscope52:
 10944              		.section	.text$_ZN20OfflineResPopService16populateResourceEP13ResParamModelPcP16ParamTextFileDAOP1
 10945              		.linkonce discard
 10946              		.align 2
 10953              	.globl __ZN20OfflineResPopService16populateResourceEP13ResParamModelPcP16ParamTextFileDAOP19Offline
 10955              	__ZN20OfflineResPopService16populateResourceEP13ResParamModelPcP16ParamTextFileDAOP19OfflineResPopu
 10957              	LM865:
 10958 0000 55       		pushl	%ebp
 10959 0001 89E5     		movl	%esp, %ebp
 10960 0003 83EC08   		subl	$8, %esp
 10962              	LM866:
 10963              	LBB109:
 10964 0006 8B4510   		movl	16(%ebp), %eax
 10965 0009 89442404 		movl	%eax, 4(%esp)
 10966 000d 8B450C   		movl	12(%ebp), %eax
GAS LISTING d:/software/ovi_2503a_s3trc/ovi_2503a_s3trc/plutommi/Customer/ResGenerator/gcctmp/ccgnaaaa.s 			page 262


 10967 0010 890424   		movl	%eax, (%esp)
 10968 0013 E8000000 		call	__ZN13ResParamModel21setRepositoryFileNameEPc
 10968      00
 10970              	LM867:
 10971 0018 8B450C   		movl	12(%ebp), %eax
 10972 001b 8B10     		movl	(%eax), %edx
 10973 001d 83C218   		addl	$24, %edx
 10974 0020 8B4514   		movl	20(%ebp), %eax
 10975 0023 89442404 		movl	%eax, 4(%esp)
 10976 0027 8B450C   		movl	12(%ebp), %eax
 10977 002a 890424   		movl	%eax, (%esp)
 10978 002d 8B02     		movl	(%edx), %eax
 10979 002f FFD0     		call	*%eax
 10981              	LM868:
 10982 0031 8B4518   		movl	24(%ebp), %eax
 10983 0034 8B10     		movl	(%eax), %edx
 10984 0036 83C204   		addl	$4, %edx
 10985 0039 8B450C   		movl	12(%ebp), %eax
 10986 003c 89442404 		movl	%eax, 4(%esp)
 10987 0040 8B4518   		movl	24(%ebp), %eax
 10988 0043 890424   		movl	%eax, (%esp)
 10989 0046 8B02     		movl	(%edx), %eax
 10990 0048 FFD0     		call	*%eax
 10992              	LM869:
 10993 004a 8B4518   		movl	24(%ebp), %eax
 10994 004d 8B10     		movl	(%eax), %edx
 10995 004f 8B4518   		movl	24(%ebp), %eax
 10996 0052 890424   		movl	%eax, (%esp)
 10997 0055 8B02     		movl	(%edx), %eax
 10998 0057 FFD0     		call	*%eax
 11000              	LM870:
 11001 0059 C9       		leave
 11002 005a C3       		ret
 11003              	LBE109:
 11004              	Lscope53:
 11006 005b 90       		.section	.text$_ZN24BatchedResFileGenService16generateImageResEPcS0_,"x"
 11007              		.linkonce discard
 11008              		.align 2
 11013              	.globl __ZN24BatchedResFileGenService16generateImageResEPcS0_
 11015              	__ZN24BatchedResFileGenService16generateImageResEPcS0_:
 11017              	LM871:
 11018 0000 55       		pushl	%ebp
 11019 0001 89E5     		movl	%esp, %ebp
 11020 0003 81EC5804 		subl	$1112, %esp
 11020      0000
 11022              	LM872:
 11023              	LBB110:
 11024 0009 C745F400 		movl	$0, -12(%ebp)
 11024      000000
 11026              	LM873:
 11027 0010 C7442408 		movl	$512, 8(%esp)
 11027      00020000 
 11028 0018 8B450C   		movl	12(%ebp), %eax
 11029 001b 89442404 		movl	%eax, 4(%esp)
 11030 001f 8D85E8FD 		leal	-536(%ebp), %eax
 11030      FFFF
 11031 0025 890424   		movl	%eax, (%esp)
GAS LISTING d:/software/ovi_2503a_s3trc/ovi_2503a_s3trc/plutommi/Customer/ResGenerator/gcctmp/ccgnaaaa.s 			page 263


 11032 0028 E8000000 		call	_strncpy
 11032      00
 11034              	LM874:
 11035 002d C7442404 		movl	$512, 4(%esp)
 11035      00020000 
 11036 0035 8D85E8FD 		leal	-536(%ebp), %eax
 11036      FFFF
 11037 003b 890424   		movl	%eax, (%esp)
 11038 003e E8000000 		call	_str_upper
 11038      00
 11040              	LM875:
 11041 0043 8B4510   		movl	16(%ebp), %eax
 11042 0046 89442404 		movl	%eax, 4(%esp)
 11043 004a 8B4508   		movl	8(%ebp), %eax
 11044 004d 890424   		movl	%eax, (%esp)
 11045 0050 E8000000 		call	__ZN24BatchedResFileGenService17initResFileOutputEPc
 11045      00
 11046 0055 85C0     		testl	%eax, %eax
 11047 0057 7407     		je	L426
 11049              	LM876:
 11050 0059 C745F4FF 		movl	$-1, -12(%ebp)
 11050      FFFFFF
 11051              	L426:
 11053              	LM877:
 11054 0060 8D85C8FB 		leal	-1080(%ebp), %eax
 11054      FFFF
 11055 0066 890424   		movl	%eax, (%esp)
 11056 0069 E8000000 		call	_initImageProcessData
 11056      00
 11058              	LM878:
 11059 006e 8D85C4FB 		leal	-1084(%ebp), %eax
 11059      FFFF
 11060 0074 890424   		movl	%eax, (%esp)
 11061 0077 E8000000 		call	_ImageOutStreamInit
 11061      00
 11063              	LM879:
 11064 007c 8B85C4FB 		movl	-1084(%ebp), %eax
 11064      FFFF
 11065 0082 8985CCFD 		movl	%eax, -564(%ebp)
 11065      FFFF
 11067              	LM880:
 11068              	LBB111:
 11069 0088 8D85C8FB 		leal	-1080(%ebp), %eax
 11069      FFFF
 11070 008e 8944240C 		movl	%eax, 12(%esp)
 11071 0092 C7442408 		movl	$0, 8(%esp)
 11071      00000000 
 11072 009a C7442404 		movl	$0, 4(%esp)
 11072      00000000 
 11073 00a2 8D85E8FD 		leal	-536(%ebp), %eax
 11073      FFFF
 11074 00a8 890424   		movl	%eax, (%esp)
 11075 00ab E8000000 		call	_Iload
 11075      00
 11076 00b0 83F801   		cmpl	$1, %eax
 11077 00b3 0F85B100 		jne	L427
 11077      0000
GAS LISTING d:/software/ovi_2503a_s3trc/ovi_2503a_s3trc/plutommi/Customer/ResGenerator/gcctmp/ccgnaaaa.s 			page 264


 11079              	LM881:
 11080              	LBB112:
 11081 00b9 C785C0FB 		movl	$LC307, -1088(%ebp)
 11081      FFFFEE7F 
 11081      0000
 11083              	LM882:
 11084 00c3 C785BCFB 		movl	$0, -1092(%ebp)
 11084      FFFF0000 
 11084      0000
 11086              	LM883:
 11087 00cd C7442404 		movl	$LC308, 4(%esp)
 11087      F97F0000 
 11088 00d5 8B85C0FB 		movl	-1088(%ebp), %eax
 11088      FFFF
 11089 00db 890424   		movl	%eax, (%esp)
 11090 00de E8000000 		call	_fopen
 11090      00
 11091 00e3 8985BCFB 		movl	%eax, -1092(%ebp)
 11091      FFFF
 11093              	LM884:
 11094              	L428:
 11095 00e9 83BDBCFB 		cmpl	$0, -1092(%ebp)
 11095      FFFF00
 11096 00f0 7402     		je	L430
 11097 00f2 EB2D     		jmp	L429
 11098              	L430:
 11100              	LM885:
 11101 00f4 C7042432 		movl	$50, (%esp)
 11101      000000
 11102 00fb E8000000 		call	_Sleep@4
 11102      00
 11103 0100 83EC04   		subl	$4, %esp
 11105              	LM886:
 11106 0103 C7442404 		movl	$LC308, 4(%esp)
 11106      F97F0000 
 11107 010b 8B85C0FB 		movl	-1088(%ebp), %eax
 11107      FFFF
 11108 0111 890424   		movl	%eax, (%esp)
 11109 0114 E8000000 		call	_fopen
 11109      00
 11110 0119 8985BCFB 		movl	%eax, -1092(%ebp)
 11110      FFFF
 11111 011f EBC8     		jmp	L428
 11112              	L429:
 11114              	LM887:
 11115 0121 8B85BCFB 		movl	-1092(%ebp), %eax
 11115      FFFF
 11116 0127 89442404 		movl	%eax, 4(%esp)
 11117 012b 8B85C4FB 		movl	-1084(%ebp), %eax
 11117      FFFF
 11118 0131 890424   		movl	%eax, (%esp)
 11119 0134 E8000000 		call	_ImageOutStreamOutputFile
 11119      00
 11121              	LM888:
 11122 0139 8D85C4FB 		leal	-1084(%ebp), %eax
 11122      FFFF
 11123 013f 890424   		movl	%eax, (%esp)
GAS LISTING d:/software/ovi_2503a_s3trc/ovi_2503a_s3trc/plutommi/Customer/ResGenerator/gcctmp/ccgnaaaa.s 			page 265


 11124 0142 E8000000 		call	_ImageOutStreamDeinit
 11124      00
 11126              	LM889:
 11127 0147 83BDBCFB 		cmpl	$0, -1092(%ebp)
 11127      FFFF00
 11128 014e 742F     		je	L433
 11129 0150 8B85BCFB 		movl	-1092(%ebp), %eax
 11129      FFFF
 11130 0156 890424   		movl	%eax, (%esp)
 11131 0159 E8000000 		call	_fclose
 11131      00
 11132 015e C785BCFB 		movl	$0, -1092(%ebp)
 11132      FFFF0000 
 11132      0000
 11133              	LBE112:
 11134 0168 EB15     		jmp	L433
 11135              	L427:
 11137              	LM890:
 11138 016a C745F4FF 		movl	$-1, -12(%ebp)
 11138      FFFFFF
 11140              	LM891:
 11141 0171 8D85C4FB 		leal	-1084(%ebp), %eax
 11141      FFFF
 11142 0177 890424   		movl	%eax, (%esp)
 11143 017a E8000000 		call	_ImageOutStreamDeinit
 11143      00
 11144              	L433:
 11146              	LM892:
 11147              	LBE111:
 11148 017f 8B4508   		movl	8(%ebp), %eax
 11149 0182 890424   		movl	%eax, (%esp)
 11150 0185 E8000000 		call	__ZN24BatchedResFileGenService19deInitResFileOutputEv
 11150      00
 11151 018a 85C0     		testl	%eax, %eax
 11152 018c 7407     		je	L434
 11154              	LM893:
 11155 018e C745F4FF 		movl	$-1, -12(%ebp)
 11155      FFFFFF
 11156              	L434:
 11158              	LM894:
 11159 0195 8B45F4   		movl	-12(%ebp), %eax
 11161              	LM895:
 11162 0198 C9       		leave
 11163 0199 C3       		ret
 11164              	LBE110:
 11176              	Lscope54:
 11178 019a 9090     		.section	.text$_ZN24BatchedResFileGenService15generateFontResEPcS0_,"x"
 11179              		.linkonce discard
 11180              		.align 2
 11185              	.globl __ZN24BatchedResFileGenService15generateFontResEPcS0_
 11187              	__ZN24BatchedResFileGenService15generateFontResEPcS0_:
 11189              	LM896:
 11190 0000 55       		pushl	%ebp
 11191 0001 89E5     		movl	%esp, %ebp
 11192 0003 81EC2802 		subl	$552, %esp
 11192      0000
 11194              	LM897:
GAS LISTING d:/software/ovi_2503a_s3trc/ovi_2503a_s3trc/plutommi/Customer/ResGenerator/gcctmp/ccgnaaaa.s 			page 266


 11195              	LBB113:
 11196 0009 C745F400 		movl	$0, -12(%ebp)
 11196      000000
 11198              	LM898:
 11199 0010 C7442408 		movl	$512, 8(%esp)
 11199      00020000 
 11200 0018 8B450C   		movl	12(%ebp), %eax
 11201 001b 89442404 		movl	%eax, 4(%esp)
 11202 001f 8D85E8FD 		leal	-536(%ebp), %eax
 11202      FFFF
 11203 0025 890424   		movl	%eax, (%esp)
 11204 0028 E8000000 		call	_strncpy
 11204      00
 11206              	LM899:
 11207 002d C7442404 		movl	$512, 4(%esp)
 11207      00020000 
 11208 0035 8D85E8FD 		leal	-536(%ebp), %eax
 11208      FFFF
 11209 003b 890424   		movl	%eax, (%esp)
 11210 003e E8000000 		call	_str_upper
 11210      00
 11212              	LM900:
 11213 0043 8B4510   		movl	16(%ebp), %eax
 11214 0046 89442404 		movl	%eax, 4(%esp)
 11215 004a 8B4508   		movl	8(%ebp), %eax
 11216 004d 890424   		movl	%eax, (%esp)
 11217 0050 E8000000 		call	__ZN24BatchedResFileGenService17initResFileOutputEPc
 11217      00
 11218 0055 85C0     		testl	%eax, %eax
 11219 0057 7407     		je	L436
 11221              	LM901:
 11222 0059 C745F4FF 		movl	$-1, -12(%ebp)
 11222      FFFFFF
 11223              	L436:
 11225              	LM902:
 11226 0060 8D45F2   		leal	-14(%ebp), %eax
 11227 0063 89442404 		movl	%eax, 4(%esp)
 11228 0067 8D85E8FD 		leal	-536(%ebp), %eax
 11228      FFFF
 11229 006d 890424   		movl	%eax, (%esp)
 11230 0070 E8000000 		call	_Fload
 11230      00
 11231 0075 83F801   		cmpl	$1, %eax
 11232 0078 7407     		je	L437
 11234              	LM903:
 11235 007a C745F4FF 		movl	$-1, -12(%ebp)
 11235      FFFFFF
 11236              	L437:
 11238              	LM904:
 11239 0081 8B4508   		movl	8(%ebp), %eax
 11240 0084 890424   		movl	%eax, (%esp)
 11241 0087 E8000000 		call	__ZN24BatchedResFileGenService19deInitResFileOutputEv
 11241      00
 11242 008c 85C0     		testl	%eax, %eax
 11243 008e 7407     		je	L438
 11245              	LM905:
 11246 0090 C745F4FF 		movl	$-1, -12(%ebp)
GAS LISTING d:/software/ovi_2503a_s3trc/ovi_2503a_s3trc/plutommi/Customer/ResGenerator/gcctmp/ccgnaaaa.s 			page 267


 11246      FFFFFF
 11247              	L438:
 11249              	LM906:
 11250 0097 8B45F4   		movl	-12(%ebp), %eax
 11252              	LM907:
 11253 009a C9       		leave
 11254 009b C3       		ret
 11255              	LBE113:
 11261              	Lscope55:
 11263              		.section	.text$_ZN24BatchedResFileGenService16generateAudioResEPcS0_,"x"
 11264              		.linkonce discard
 11265              		.align 2
 11270              	.globl __ZN24BatchedResFileGenService16generateAudioResEPcS0_
 11272              	__ZN24BatchedResFileGenService16generateAudioResEPcS0_:
 11274              	LM908:
 11275 0000 55       		pushl	%ebp
 11276 0001 89E5     		movl	%esp, %ebp
 11277 0003 81EC2802 		subl	$552, %esp
 11277      0000
 11279              	LM909:
 11280              	LBB114:
 11281 0009 C745F400 		movl	$0, -12(%ebp)
 11281      000000
 11283              	LM910:
 11284 0010 C7442408 		movl	$512, 8(%esp)
 11284      00020000 
 11285 0018 8B450C   		movl	12(%ebp), %eax
 11286 001b 89442404 		movl	%eax, 4(%esp)
 11287 001f 8D85E8FD 		leal	-536(%ebp), %eax
 11287      FFFF
 11288 0025 890424   		movl	%eax, (%esp)
 11289 0028 E8000000 		call	_strncpy
 11289      00
 11291              	LM911:
 11292 002d C7442404 		movl	$512, 4(%esp)
 11292      00020000 
 11293 0035 8D85E8FD 		leal	-536(%ebp), %eax
 11293      FFFF
 11294 003b 890424   		movl	%eax, (%esp)
 11295 003e E8000000 		call	_str_upper
 11295      00
 11297              	LM912:
 11298 0043 8B4510   		movl	16(%ebp), %eax
 11299 0046 89442404 		movl	%eax, 4(%esp)
 11300 004a 8B4508   		movl	8(%ebp), %eax
 11301 004d 890424   		movl	%eax, (%esp)
 11302 0050 E8000000 		call	__ZN24BatchedResFileGenService17initResFileOutputEPc
 11302      00
 11303 0055 85C0     		testl	%eax, %eax
 11304 0057 7407     		je	L440
 11306              	LM913:
 11307 0059 C745F4FF 		movl	$-1, -12(%ebp)
 11307      FFFFFF
 11308              	L440:
 11310              	LM914:
 11311 0060 8D45F2   		leal	-14(%ebp), %eax
 11312 0063 89442404 		movl	%eax, 4(%esp)
GAS LISTING d:/software/ovi_2503a_s3trc/ovi_2503a_s3trc/plutommi/Customer/ResGenerator/gcctmp/ccgnaaaa.s 			page 268


 11313 0067 8D85E8FD 		leal	-536(%ebp), %eax
 11313      FFFF
 11314 006d 890424   		movl	%eax, (%esp)
 11315 0070 E8000000 		call	_Aload
 11315      00
 11316 0075 83F801   		cmpl	$1, %eax
 11317 0078 7407     		je	L441
 11319              	LM915:
 11320 007a C745F4FF 		movl	$-1, -12(%ebp)
 11320      FFFFFF
 11321              	L441:
 11323              	LM916:
 11324 0081 8B4508   		movl	8(%ebp), %eax
 11325 0084 890424   		movl	%eax, (%esp)
 11326 0087 E8000000 		call	__ZN24BatchedResFileGenService19deInitResFileOutputEv
 11326      00
 11327 008c 85C0     		testl	%eax, %eax
 11328 008e 7407     		je	L442
 11330              	LM917:
 11331 0090 C745F4FF 		movl	$-1, -12(%ebp)
 11331      FFFFFF
 11332              	L442:
 11334              	LM918:
 11335 0097 8B45F4   		movl	-12(%ebp), %eax
 11337              	LM919:
 11338 009a C9       		leave
 11339 009b C3       		ret
 11340              	LBE114:
 11346              	Lscope56:
 11348              		.section	.text$_ZNKSt6vectorIP15ResFileGenParamSaIS1_EE5beginEv,"x"
 11349              		.linkonce discard
 11350              		.align 2
 11353              	.globl __ZNKSt6vectorIP15ResFileGenParamSaIS1_EE5beginEv
 11355              	__ZNKSt6vectorIP15ResFileGenParamSaIS1_EE5beginEv:
 11357              	Ltext6:
 11359              	LM920:
 11360 0000 55       		pushl	%ebp
 11361 0001 89E5     		movl	%esp, %ebp
 11362 0003 83EC18   		subl	$24, %esp
 11364              	LM921:
 11365              	LBB115:
 11366 0006 8B4508   		movl	8(%ebp), %eax
 11367 0009 8B00     		movl	(%eax), %eax
 11368 000b 8945F8   		movl	%eax, -8(%ebp)
 11369 000e 8D45F8   		leal	-8(%ebp), %eax
 11370 0011 89442404 		movl	%eax, 4(%esp)
 11371 0015 8D45FC   		leal	-4(%ebp), %eax
 11372 0018 890424   		movl	%eax, (%esp)
 11373 001b E8000000 		call	__ZN9__gnu_cxx17__normal_iteratorIPKP15ResFileGenParamSt6vectorIS2_SaIS2_EEEC1ERKS4_
 11373      00
 11374 0020 8B45FC   		movl	-4(%ebp), %eax
 11375 0023 C9       		leave
 11376 0024 C3       		ret
 11377              	LBE115:
 11378              	Lscope57:
 11380 0025 909090   		.section	.text$_ZN9__gnu_cxx17__normal_iteratorIPKP15ResFileGenParamSt6vectorIS2_SaIS2_EEEC1ERKS4_
 11381              		.linkonce discard
GAS LISTING d:/software/ovi_2503a_s3trc/ovi_2503a_s3trc/plutommi/Customer/ResGenerator/gcctmp/ccgnaaaa.s 			page 269


 11382              		.align 2
 11386              	.globl __ZN9__gnu_cxx17__normal_iteratorIPKP15ResFileGenParamSt6vectorIS2_SaIS2_EEEC1ERKS4_
 11388              	__ZN9__gnu_cxx17__normal_iteratorIPKP15ResFileGenParamSt6vectorIS2_SaIS2_EEEC1ERKS4_:
 11390              	Ltext7:
   1:d:/software/ovi_2503a_s3trc/ovi_2503a_s3trc/Tools/MinGW/include/c++/3.3.1/bits/stl_iterator.h **** // Iterators -*- C++ -*-
   2:d:/software/ovi_2503a_s3trc/ovi_2503a_s3trc/Tools/MinGW/include/c++/3.3.1/bits/stl_iterator.h **** 
   3:d:/software/ovi_2503a_s3trc/ovi_2503a_s3trc/Tools/MinGW/include/c++/3.3.1/bits/stl_iterator.h **** // Copyright (C) 2001, 2002 Free Software Foundation, Inc.
   4:d:/software/ovi_2503a_s3trc/ovi_2503a_s3trc/Tools/MinGW/include/c++/3.3.1/bits/stl_iterator.h **** //
   5:d:/software/ovi_2503a_s3trc/ovi_2503a_s3trc/Tools/MinGW/include/c++/3.3.1/bits/stl_iterator.h **** // This file is part of the GNU ISO C++ Library.  This library is free
   6:d:/software/ovi_2503a_s3trc/ovi_2503a_s3trc/Tools/MinGW/include/c++/3.3.1/bits/stl_iterator.h **** // software; you can redistribute it and/or modify it under the
   7:d:/software/ovi_2503a_s3trc/ovi_2503a_s3trc/Tools/MinGW/include/c++/3.3.1/bits/stl_iterator.h **** // terms of the GNU General Public License as published by the
   8:d:/software/ovi_2503a_s3trc/ovi_2503a_s3trc/Tools/MinGW/include/c++/3.3.1/bits/stl_iterator.h **** // Free Software Foundation; either version 2, or (at your option)
   9:d:/software/ovi_2503a_s3trc/ovi_2503a_s3trc/Tools/MinGW/include/c++/3.3.1/bits/stl_iterator.h **** // any later version.
  10:d:/software/ovi_2503a_s3trc/ovi_2503a_s3trc/Tools/MinGW/include/c++/3.3.1/bits/stl_iterator.h **** 
  11:d:/software/ovi_2503a_s3trc/ovi_2503a_s3trc/Tools/MinGW/include/c++/3.3.1/bits/stl_iterator.h **** // This library is distributed in the hope that it will be useful,
  12:d:/software/ovi_2503a_s3trc/ovi_2503a_s3trc/Tools/MinGW/include/c++/3.3.1/bits/stl_iterator.h **** // but WITHOUT ANY WARRANTY; without even the implied warranty of
  13:d:/software/ovi_2503a_s3trc/ovi_2503a_s3trc/Tools/MinGW/include/c++/3.3.1/bits/stl_iterator.h **** // MERCHANTABILITY or FITNESS FOR A PARTICULAR PURPOSE.  See the
  14:d:/software/ovi_2503a_s3trc/ovi_2503a_s3trc/Tools/MinGW/include/c++/3.3.1/bits/stl_iterator.h **** // GNU General Public License for more details.
  15:d:/software/ovi_2503a_s3trc/ovi_2503a_s3trc/Tools/MinGW/include/c++/3.3.1/bits/stl_iterator.h **** 
  16:d:/software/ovi_2503a_s3trc/ovi_2503a_s3trc/Tools/MinGW/include/c++/3.3.1/bits/stl_iterator.h **** // You should have received a copy of the GNU General Public License along
  17:d:/software/ovi_2503a_s3trc/ovi_2503a_s3trc/Tools/MinGW/include/c++/3.3.1/bits/stl_iterator.h **** // with this library; see the file COPYING.  If not, write to the Free
  18:d:/software/ovi_2503a_s3trc/ovi_2503a_s3trc/Tools/MinGW/include/c++/3.3.1/bits/stl_iterator.h **** // Software Foundation, 59 Temple Place - Suite 330, Boston, MA 02111-1307,
  19:d:/software/ovi_2503a_s3trc/ovi_2503a_s3trc/Tools/MinGW/include/c++/3.3.1/bits/stl_iterator.h **** // USA.
  20:d:/software/ovi_2503a_s3trc/ovi_2503a_s3trc/Tools/MinGW/include/c++/3.3.1/bits/stl_iterator.h **** 
  21:d:/software/ovi_2503a_s3trc/ovi_2503a_s3trc/Tools/MinGW/include/c++/3.3.1/bits/stl_iterator.h **** // As a special exception, you may use this file as part of a free software
  22:d:/software/ovi_2503a_s3trc/ovi_2503a_s3trc/Tools/MinGW/include/c++/3.3.1/bits/stl_iterator.h **** // library without restriction.  Specifically, if other files instantiate
  23:d:/software/ovi_2503a_s3trc/ovi_2503a_s3trc/Tools/MinGW/include/c++/3.3.1/bits/stl_iterator.h **** // templates or use macros or inline functions from this file, or you compile
  24:d:/software/ovi_2503a_s3trc/ovi_2503a_s3trc/Tools/MinGW/include/c++/3.3.1/bits/stl_iterator.h **** // this file and link it with other files to produce an executable, this
  25:d:/software/ovi_2503a_s3trc/ovi_2503a_s3trc/Tools/MinGW/include/c++/3.3.1/bits/stl_iterator.h **** // file does not by itself cause the resulting executable to be covered by
  26:d:/software/ovi_2503a_s3trc/ovi_2503a_s3trc/Tools/MinGW/include/c++/3.3.1/bits/stl_iterator.h **** // the GNU General Public License.  This exception does not however
  27:d:/software/ovi_2503a_s3trc/ovi_2503a_s3trc/Tools/MinGW/include/c++/3.3.1/bits/stl_iterator.h **** // invalidate any other reasons why the executable file might be covered by
  28:d:/software/ovi_2503a_s3trc/ovi_2503a_s3trc/Tools/MinGW/include/c++/3.3.1/bits/stl_iterator.h **** // the GNU General Public License.
  29:d:/software/ovi_2503a_s3trc/ovi_2503a_s3trc/Tools/MinGW/include/c++/3.3.1/bits/stl_iterator.h **** 
  30:d:/software/ovi_2503a_s3trc/ovi_2503a_s3trc/Tools/MinGW/include/c++/3.3.1/bits/stl_iterator.h **** /*
  31:d:/software/ovi_2503a_s3trc/ovi_2503a_s3trc/Tools/MinGW/include/c++/3.3.1/bits/stl_iterator.h ****  *
  32:d:/software/ovi_2503a_s3trc/ovi_2503a_s3trc/Tools/MinGW/include/c++/3.3.1/bits/stl_iterator.h ****  * Copyright (c) 1994
  33:d:/software/ovi_2503a_s3trc/ovi_2503a_s3trc/Tools/MinGW/include/c++/3.3.1/bits/stl_iterator.h ****  * Hewlett-Packard Company
  34:d:/software/ovi_2503a_s3trc/ovi_2503a_s3trc/Tools/MinGW/include/c++/3.3.1/bits/stl_iterator.h ****  *
  35:d:/software/ovi_2503a_s3trc/ovi_2503a_s3trc/Tools/MinGW/include/c++/3.3.1/bits/stl_iterator.h ****  * Permission to use, copy, modify, distribute and sell this software
  36:d:/software/ovi_2503a_s3trc/ovi_2503a_s3trc/Tools/MinGW/include/c++/3.3.1/bits/stl_iterator.h ****  * and its documentation for any purpose is hereby granted without fee,
  37:d:/software/ovi_2503a_s3trc/ovi_2503a_s3trc/Tools/MinGW/include/c++/3.3.1/bits/stl_iterator.h ****  * provided that the above copyright notice appear in all copies and
  38:d:/software/ovi_2503a_s3trc/ovi_2503a_s3trc/Tools/MinGW/include/c++/3.3.1/bits/stl_iterator.h ****  * that both that copyright notice and this permission notice appear
  39:d:/software/ovi_2503a_s3trc/ovi_2503a_s3trc/Tools/MinGW/include/c++/3.3.1/bits/stl_iterator.h ****  * in supporting documentation.  Hewlett-Packard Company makes no
  40:d:/software/ovi_2503a_s3trc/ovi_2503a_s3trc/Tools/MinGW/include/c++/3.3.1/bits/stl_iterator.h ****  * representations about the suitability of this software for any
  41:d:/software/ovi_2503a_s3trc/ovi_2503a_s3trc/Tools/MinGW/include/c++/3.3.1/bits/stl_iterator.h ****  * purpose.  It is provided "as is" without express or implied warranty.
  42:d:/software/ovi_2503a_s3trc/ovi_2503a_s3trc/Tools/MinGW/include/c++/3.3.1/bits/stl_iterator.h ****  *
  43:d:/software/ovi_2503a_s3trc/ovi_2503a_s3trc/Tools/MinGW/include/c++/3.3.1/bits/stl_iterator.h ****  *
  44:d:/software/ovi_2503a_s3trc/ovi_2503a_s3trc/Tools/MinGW/include/c++/3.3.1/bits/stl_iterator.h ****  * Copyright (c) 1996-1998
  45:d:/software/ovi_2503a_s3trc/ovi_2503a_s3trc/Tools/MinGW/include/c++/3.3.1/bits/stl_iterator.h ****  * Silicon Graphics Computer Systems, Inc.
  46:d:/software/ovi_2503a_s3trc/ovi_2503a_s3trc/Tools/MinGW/include/c++/3.3.1/bits/stl_iterator.h ****  *
  47:d:/software/ovi_2503a_s3trc/ovi_2503a_s3trc/Tools/MinGW/include/c++/3.3.1/bits/stl_iterator.h ****  * Permission to use, copy, modify, distribute and sell this software
  48:d:/software/ovi_2503a_s3trc/ovi_2503a_s3trc/Tools/MinGW/include/c++/3.3.1/bits/stl_iterator.h ****  * and its documentation for any purpose is hereby granted without fee,
  49:d:/software/ovi_2503a_s3trc/ovi_2503a_s3trc/Tools/MinGW/include/c++/3.3.1/bits/stl_iterator.h ****  * provided that the above copyright notice appear in all copies and
  50:d:/software/ovi_2503a_s3trc/ovi_2503a_s3trc/Tools/MinGW/include/c++/3.3.1/bits/stl_iterator.h ****  * that both that copyright notice and this permission notice appear
  51:d:/software/ovi_2503a_s3trc/ovi_2503a_s3trc/Tools/MinGW/include/c++/3.3.1/bits/stl_iterator.h ****  * in supporting documentation.  Silicon Graphics makes no
  52:d:/software/ovi_2503a_s3trc/ovi_2503a_s3trc/Tools/MinGW/include/c++/3.3.1/bits/stl_iterator.h ****  * representations about the suitability of this software for any
  53:d:/software/ovi_2503a_s3trc/ovi_2503a_s3trc/Tools/MinGW/include/c++/3.3.1/bits/stl_iterator.h ****  * purpose.  It is provided "as is" without express or implied warranty.
GAS LISTING d:/software/ovi_2503a_s3trc/ovi_2503a_s3trc/plutommi/Customer/ResGenerator/gcctmp/ccgnaaaa.s 			page 270


  54:d:/software/ovi_2503a_s3trc/ovi_2503a_s3trc/Tools/MinGW/include/c++/3.3.1/bits/stl_iterator.h ****  */
  55:d:/software/ovi_2503a_s3trc/ovi_2503a_s3trc/Tools/MinGW/include/c++/3.3.1/bits/stl_iterator.h **** 
  56:d:/software/ovi_2503a_s3trc/ovi_2503a_s3trc/Tools/MinGW/include/c++/3.3.1/bits/stl_iterator.h **** /** @file stl_iterator.h
  57:d:/software/ovi_2503a_s3trc/ovi_2503a_s3trc/Tools/MinGW/include/c++/3.3.1/bits/stl_iterator.h ****  *  This is an internal header file, included by other library headers.
  58:d:/software/ovi_2503a_s3trc/ovi_2503a_s3trc/Tools/MinGW/include/c++/3.3.1/bits/stl_iterator.h ****  *  You should not attempt to use it directly.
  59:d:/software/ovi_2503a_s3trc/ovi_2503a_s3trc/Tools/MinGW/include/c++/3.3.1/bits/stl_iterator.h ****  *
  60:d:/software/ovi_2503a_s3trc/ovi_2503a_s3trc/Tools/MinGW/include/c++/3.3.1/bits/stl_iterator.h ****  *  This file implements reverse_iterator, back_insert_iterator,
  61:d:/software/ovi_2503a_s3trc/ovi_2503a_s3trc/Tools/MinGW/include/c++/3.3.1/bits/stl_iterator.h ****  *  front_insert_iterator, insert_iterator, __normal_iterator, and their
  62:d:/software/ovi_2503a_s3trc/ovi_2503a_s3trc/Tools/MinGW/include/c++/3.3.1/bits/stl_iterator.h ****  *  supporting functions and overloaded operators.
  63:d:/software/ovi_2503a_s3trc/ovi_2503a_s3trc/Tools/MinGW/include/c++/3.3.1/bits/stl_iterator.h ****  */
  64:d:/software/ovi_2503a_s3trc/ovi_2503a_s3trc/Tools/MinGW/include/c++/3.3.1/bits/stl_iterator.h **** 
  65:d:/software/ovi_2503a_s3trc/ovi_2503a_s3trc/Tools/MinGW/include/c++/3.3.1/bits/stl_iterator.h **** #ifndef __GLIBCPP_INTERNAL_ITERATOR_H
  66:d:/software/ovi_2503a_s3trc/ovi_2503a_s3trc/Tools/MinGW/include/c++/3.3.1/bits/stl_iterator.h **** #define __GLIBCPP_INTERNAL_ITERATOR_H
  67:d:/software/ovi_2503a_s3trc/ovi_2503a_s3trc/Tools/MinGW/include/c++/3.3.1/bits/stl_iterator.h **** 
  68:d:/software/ovi_2503a_s3trc/ovi_2503a_s3trc/Tools/MinGW/include/c++/3.3.1/bits/stl_iterator.h **** namespace std
  69:d:/software/ovi_2503a_s3trc/ovi_2503a_s3trc/Tools/MinGW/include/c++/3.3.1/bits/stl_iterator.h **** {
  70:d:/software/ovi_2503a_s3trc/ovi_2503a_s3trc/Tools/MinGW/include/c++/3.3.1/bits/stl_iterator.h ****   // 24.4.1 Reverse iterators
  71:d:/software/ovi_2503a_s3trc/ovi_2503a_s3trc/Tools/MinGW/include/c++/3.3.1/bits/stl_iterator.h ****   /**
  72:d:/software/ovi_2503a_s3trc/ovi_2503a_s3trc/Tools/MinGW/include/c++/3.3.1/bits/stl_iterator.h ****    *  "Bidirectional and random access iterators have corresponding reverse
  73:d:/software/ovi_2503a_s3trc/ovi_2503a_s3trc/Tools/MinGW/include/c++/3.3.1/bits/stl_iterator.h ****    *  %iterator adaptors that iterate through the data structure in the
  74:d:/software/ovi_2503a_s3trc/ovi_2503a_s3trc/Tools/MinGW/include/c++/3.3.1/bits/stl_iterator.h ****    *  opposite direction.  They have the same signatures as the corresponding
  75:d:/software/ovi_2503a_s3trc/ovi_2503a_s3trc/Tools/MinGW/include/c++/3.3.1/bits/stl_iterator.h ****    *  iterators.  The fundamental relation between a reverse %iterator and its
  76:d:/software/ovi_2503a_s3trc/ovi_2503a_s3trc/Tools/MinGW/include/c++/3.3.1/bits/stl_iterator.h ****    *  corresponding %iterator @c i is established by the identity:
  77:d:/software/ovi_2503a_s3trc/ovi_2503a_s3trc/Tools/MinGW/include/c++/3.3.1/bits/stl_iterator.h ****    *  @code
  78:d:/software/ovi_2503a_s3trc/ovi_2503a_s3trc/Tools/MinGW/include/c++/3.3.1/bits/stl_iterator.h ****    *      &*(reverse_iterator(i)) == &*(i - 1)
  79:d:/software/ovi_2503a_s3trc/ovi_2503a_s3trc/Tools/MinGW/include/c++/3.3.1/bits/stl_iterator.h ****    *  @endcode
  80:d:/software/ovi_2503a_s3trc/ovi_2503a_s3trc/Tools/MinGW/include/c++/3.3.1/bits/stl_iterator.h ****    *
  81:d:/software/ovi_2503a_s3trc/ovi_2503a_s3trc/Tools/MinGW/include/c++/3.3.1/bits/stl_iterator.h ****    *  This mapping is dictated by the fact that while there is always a
  82:d:/software/ovi_2503a_s3trc/ovi_2503a_s3trc/Tools/MinGW/include/c++/3.3.1/bits/stl_iterator.h ****    *  pointer past the end of an array, there might not be a valid pointer
  83:d:/software/ovi_2503a_s3trc/ovi_2503a_s3trc/Tools/MinGW/include/c++/3.3.1/bits/stl_iterator.h ****    *  before the beginning of an array." [24.4.1]/1,2
  84:d:/software/ovi_2503a_s3trc/ovi_2503a_s3trc/Tools/MinGW/include/c++/3.3.1/bits/stl_iterator.h ****    *
  85:d:/software/ovi_2503a_s3trc/ovi_2503a_s3trc/Tools/MinGW/include/c++/3.3.1/bits/stl_iterator.h ****    *  Reverse iterators can be tricky and surprising at first.  Their
  86:d:/software/ovi_2503a_s3trc/ovi_2503a_s3trc/Tools/MinGW/include/c++/3.3.1/bits/stl_iterator.h ****    *  semantics make sense, however, and the trickiness is a side effect of
  87:d:/software/ovi_2503a_s3trc/ovi_2503a_s3trc/Tools/MinGW/include/c++/3.3.1/bits/stl_iterator.h ****    *  the requirement that the iterators must be safe.
  88:d:/software/ovi_2503a_s3trc/ovi_2503a_s3trc/Tools/MinGW/include/c++/3.3.1/bits/stl_iterator.h ****   */
  89:d:/software/ovi_2503a_s3trc/ovi_2503a_s3trc/Tools/MinGW/include/c++/3.3.1/bits/stl_iterator.h ****   template<typename _Iterator>
  90:d:/software/ovi_2503a_s3trc/ovi_2503a_s3trc/Tools/MinGW/include/c++/3.3.1/bits/stl_iterator.h ****     class reverse_iterator 
  91:d:/software/ovi_2503a_s3trc/ovi_2503a_s3trc/Tools/MinGW/include/c++/3.3.1/bits/stl_iterator.h ****     : public iterator<typename iterator_traits<_Iterator>::iterator_category,
  92:d:/software/ovi_2503a_s3trc/ovi_2503a_s3trc/Tools/MinGW/include/c++/3.3.1/bits/stl_iterator.h **** 		      typename iterator_traits<_Iterator>::value_type,
  93:d:/software/ovi_2503a_s3trc/ovi_2503a_s3trc/Tools/MinGW/include/c++/3.3.1/bits/stl_iterator.h **** 		      typename iterator_traits<_Iterator>::difference_type,
  94:d:/software/ovi_2503a_s3trc/ovi_2503a_s3trc/Tools/MinGW/include/c++/3.3.1/bits/stl_iterator.h **** 		      typename iterator_traits<_Iterator>::pointer,
  95:d:/software/ovi_2503a_s3trc/ovi_2503a_s3trc/Tools/MinGW/include/c++/3.3.1/bits/stl_iterator.h ****                       typename iterator_traits<_Iterator>::reference>
  96:d:/software/ovi_2503a_s3trc/ovi_2503a_s3trc/Tools/MinGW/include/c++/3.3.1/bits/stl_iterator.h ****     {
  97:d:/software/ovi_2503a_s3trc/ovi_2503a_s3trc/Tools/MinGW/include/c++/3.3.1/bits/stl_iterator.h ****     protected:
  98:d:/software/ovi_2503a_s3trc/ovi_2503a_s3trc/Tools/MinGW/include/c++/3.3.1/bits/stl_iterator.h ****       _Iterator current;
  99:d:/software/ovi_2503a_s3trc/ovi_2503a_s3trc/Tools/MinGW/include/c++/3.3.1/bits/stl_iterator.h **** 
 100:d:/software/ovi_2503a_s3trc/ovi_2503a_s3trc/Tools/MinGW/include/c++/3.3.1/bits/stl_iterator.h ****     public:
 101:d:/software/ovi_2503a_s3trc/ovi_2503a_s3trc/Tools/MinGW/include/c++/3.3.1/bits/stl_iterator.h ****       typedef _Iterator 				       iterator_type;
 102:d:/software/ovi_2503a_s3trc/ovi_2503a_s3trc/Tools/MinGW/include/c++/3.3.1/bits/stl_iterator.h ****       typedef typename iterator_traits<_Iterator>::difference_type 	
 103:d:/software/ovi_2503a_s3trc/ovi_2503a_s3trc/Tools/MinGW/include/c++/3.3.1/bits/stl_iterator.h ****       							       difference_type;
 104:d:/software/ovi_2503a_s3trc/ovi_2503a_s3trc/Tools/MinGW/include/c++/3.3.1/bits/stl_iterator.h ****       typedef typename iterator_traits<_Iterator>::reference   reference;
 105:d:/software/ovi_2503a_s3trc/ovi_2503a_s3trc/Tools/MinGW/include/c++/3.3.1/bits/stl_iterator.h ****       typedef typename iterator_traits<_Iterator>::pointer     pointer;
 106:d:/software/ovi_2503a_s3trc/ovi_2503a_s3trc/Tools/MinGW/include/c++/3.3.1/bits/stl_iterator.h **** 
 107:d:/software/ovi_2503a_s3trc/ovi_2503a_s3trc/Tools/MinGW/include/c++/3.3.1/bits/stl_iterator.h ****     public:
 108:d:/software/ovi_2503a_s3trc/ovi_2503a_s3trc/Tools/MinGW/include/c++/3.3.1/bits/stl_iterator.h ****       /**
 109:d:/software/ovi_2503a_s3trc/ovi_2503a_s3trc/Tools/MinGW/include/c++/3.3.1/bits/stl_iterator.h ****        *  The default constructor default-initializes member @p current.
 110:d:/software/ovi_2503a_s3trc/ovi_2503a_s3trc/Tools/MinGW/include/c++/3.3.1/bits/stl_iterator.h ****        *  If it is a pointer, that means it is zero-initialized.
GAS LISTING d:/software/ovi_2503a_s3trc/ovi_2503a_s3trc/plutommi/Customer/ResGenerator/gcctmp/ccgnaaaa.s 			page 271


 111:d:/software/ovi_2503a_s3trc/ovi_2503a_s3trc/Tools/MinGW/include/c++/3.3.1/bits/stl_iterator.h ****       */
 112:d:/software/ovi_2503a_s3trc/ovi_2503a_s3trc/Tools/MinGW/include/c++/3.3.1/bits/stl_iterator.h ****       // _GLIBCPP_RESOLVE_LIB_DEFECTS
 113:d:/software/ovi_2503a_s3trc/ovi_2503a_s3trc/Tools/MinGW/include/c++/3.3.1/bits/stl_iterator.h ****       // 235 No specification of default ctor for reverse_iterator
 114:d:/software/ovi_2503a_s3trc/ovi_2503a_s3trc/Tools/MinGW/include/c++/3.3.1/bits/stl_iterator.h ****       reverse_iterator() : current() { }
 115:d:/software/ovi_2503a_s3trc/ovi_2503a_s3trc/Tools/MinGW/include/c++/3.3.1/bits/stl_iterator.h **** 
 116:d:/software/ovi_2503a_s3trc/ovi_2503a_s3trc/Tools/MinGW/include/c++/3.3.1/bits/stl_iterator.h ****       /**
 117:d:/software/ovi_2503a_s3trc/ovi_2503a_s3trc/Tools/MinGW/include/c++/3.3.1/bits/stl_iterator.h ****        *  This %iterator will move in the opposite direction that @p x does.
 118:d:/software/ovi_2503a_s3trc/ovi_2503a_s3trc/Tools/MinGW/include/c++/3.3.1/bits/stl_iterator.h ****       */
 119:d:/software/ovi_2503a_s3trc/ovi_2503a_s3trc/Tools/MinGW/include/c++/3.3.1/bits/stl_iterator.h ****       explicit 
 120:d:/software/ovi_2503a_s3trc/ovi_2503a_s3trc/Tools/MinGW/include/c++/3.3.1/bits/stl_iterator.h ****       reverse_iterator(iterator_type __x) : current(__x) { }
 121:d:/software/ovi_2503a_s3trc/ovi_2503a_s3trc/Tools/MinGW/include/c++/3.3.1/bits/stl_iterator.h **** 
 122:d:/software/ovi_2503a_s3trc/ovi_2503a_s3trc/Tools/MinGW/include/c++/3.3.1/bits/stl_iterator.h ****       /**
 123:d:/software/ovi_2503a_s3trc/ovi_2503a_s3trc/Tools/MinGW/include/c++/3.3.1/bits/stl_iterator.h ****        *  The copy constructor is normal.
 124:d:/software/ovi_2503a_s3trc/ovi_2503a_s3trc/Tools/MinGW/include/c++/3.3.1/bits/stl_iterator.h ****       */
 125:d:/software/ovi_2503a_s3trc/ovi_2503a_s3trc/Tools/MinGW/include/c++/3.3.1/bits/stl_iterator.h ****       reverse_iterator(const reverse_iterator& __x) 
 126:d:/software/ovi_2503a_s3trc/ovi_2503a_s3trc/Tools/MinGW/include/c++/3.3.1/bits/stl_iterator.h ****       : current(__x.current) { }
 127:d:/software/ovi_2503a_s3trc/ovi_2503a_s3trc/Tools/MinGW/include/c++/3.3.1/bits/stl_iterator.h **** 
 128:d:/software/ovi_2503a_s3trc/ovi_2503a_s3trc/Tools/MinGW/include/c++/3.3.1/bits/stl_iterator.h ****       /**
 129:d:/software/ovi_2503a_s3trc/ovi_2503a_s3trc/Tools/MinGW/include/c++/3.3.1/bits/stl_iterator.h ****        *  A reverse_iterator across other types can be copied in the normal
 130:d:/software/ovi_2503a_s3trc/ovi_2503a_s3trc/Tools/MinGW/include/c++/3.3.1/bits/stl_iterator.h ****        *  fashion.
 131:d:/software/ovi_2503a_s3trc/ovi_2503a_s3trc/Tools/MinGW/include/c++/3.3.1/bits/stl_iterator.h ****       */
 132:d:/software/ovi_2503a_s3trc/ovi_2503a_s3trc/Tools/MinGW/include/c++/3.3.1/bits/stl_iterator.h ****       template<typename _Iter>
 133:d:/software/ovi_2503a_s3trc/ovi_2503a_s3trc/Tools/MinGW/include/c++/3.3.1/bits/stl_iterator.h ****         reverse_iterator(const reverse_iterator<_Iter>& __x)
 134:d:/software/ovi_2503a_s3trc/ovi_2503a_s3trc/Tools/MinGW/include/c++/3.3.1/bits/stl_iterator.h **** 	: current(__x.base()) { }
 135:d:/software/ovi_2503a_s3trc/ovi_2503a_s3trc/Tools/MinGW/include/c++/3.3.1/bits/stl_iterator.h ****     
 136:d:/software/ovi_2503a_s3trc/ovi_2503a_s3trc/Tools/MinGW/include/c++/3.3.1/bits/stl_iterator.h ****       /**
 137:d:/software/ovi_2503a_s3trc/ovi_2503a_s3trc/Tools/MinGW/include/c++/3.3.1/bits/stl_iterator.h ****        *  @return  @c current, the %iterator used for underlying work.
 138:d:/software/ovi_2503a_s3trc/ovi_2503a_s3trc/Tools/MinGW/include/c++/3.3.1/bits/stl_iterator.h ****       */
 139:d:/software/ovi_2503a_s3trc/ovi_2503a_s3trc/Tools/MinGW/include/c++/3.3.1/bits/stl_iterator.h ****       iterator_type 
 140:d:/software/ovi_2503a_s3trc/ovi_2503a_s3trc/Tools/MinGW/include/c++/3.3.1/bits/stl_iterator.h ****       base() const { return current; }
 141:d:/software/ovi_2503a_s3trc/ovi_2503a_s3trc/Tools/MinGW/include/c++/3.3.1/bits/stl_iterator.h **** 
 142:d:/software/ovi_2503a_s3trc/ovi_2503a_s3trc/Tools/MinGW/include/c++/3.3.1/bits/stl_iterator.h ****       /**
 143:d:/software/ovi_2503a_s3trc/ovi_2503a_s3trc/Tools/MinGW/include/c++/3.3.1/bits/stl_iterator.h ****        *  @return  TODO
 144:d:/software/ovi_2503a_s3trc/ovi_2503a_s3trc/Tools/MinGW/include/c++/3.3.1/bits/stl_iterator.h ****        *
 145:d:/software/ovi_2503a_s3trc/ovi_2503a_s3trc/Tools/MinGW/include/c++/3.3.1/bits/stl_iterator.h ****        *  @doctodo
 146:d:/software/ovi_2503a_s3trc/ovi_2503a_s3trc/Tools/MinGW/include/c++/3.3.1/bits/stl_iterator.h ****       */
 147:d:/software/ovi_2503a_s3trc/ovi_2503a_s3trc/Tools/MinGW/include/c++/3.3.1/bits/stl_iterator.h ****       reference 
 148:d:/software/ovi_2503a_s3trc/ovi_2503a_s3trc/Tools/MinGW/include/c++/3.3.1/bits/stl_iterator.h ****       operator*() const 
 149:d:/software/ovi_2503a_s3trc/ovi_2503a_s3trc/Tools/MinGW/include/c++/3.3.1/bits/stl_iterator.h ****       {
 150:d:/software/ovi_2503a_s3trc/ovi_2503a_s3trc/Tools/MinGW/include/c++/3.3.1/bits/stl_iterator.h **** 	_Iterator __tmp = current;
 151:d:/software/ovi_2503a_s3trc/ovi_2503a_s3trc/Tools/MinGW/include/c++/3.3.1/bits/stl_iterator.h **** 	return *--__tmp;
 152:d:/software/ovi_2503a_s3trc/ovi_2503a_s3trc/Tools/MinGW/include/c++/3.3.1/bits/stl_iterator.h ****       }
 153:d:/software/ovi_2503a_s3trc/ovi_2503a_s3trc/Tools/MinGW/include/c++/3.3.1/bits/stl_iterator.h **** 
 154:d:/software/ovi_2503a_s3trc/ovi_2503a_s3trc/Tools/MinGW/include/c++/3.3.1/bits/stl_iterator.h ****       /**
 155:d:/software/ovi_2503a_s3trc/ovi_2503a_s3trc/Tools/MinGW/include/c++/3.3.1/bits/stl_iterator.h ****        *  @return  TODO
 156:d:/software/ovi_2503a_s3trc/ovi_2503a_s3trc/Tools/MinGW/include/c++/3.3.1/bits/stl_iterator.h ****        *
 157:d:/software/ovi_2503a_s3trc/ovi_2503a_s3trc/Tools/MinGW/include/c++/3.3.1/bits/stl_iterator.h ****        *  @doctodo
 158:d:/software/ovi_2503a_s3trc/ovi_2503a_s3trc/Tools/MinGW/include/c++/3.3.1/bits/stl_iterator.h ****       */
 159:d:/software/ovi_2503a_s3trc/ovi_2503a_s3trc/Tools/MinGW/include/c++/3.3.1/bits/stl_iterator.h ****       pointer 
 160:d:/software/ovi_2503a_s3trc/ovi_2503a_s3trc/Tools/MinGW/include/c++/3.3.1/bits/stl_iterator.h ****       operator->() const { return &(operator*()); }
 161:d:/software/ovi_2503a_s3trc/ovi_2503a_s3trc/Tools/MinGW/include/c++/3.3.1/bits/stl_iterator.h **** 
 162:d:/software/ovi_2503a_s3trc/ovi_2503a_s3trc/Tools/MinGW/include/c++/3.3.1/bits/stl_iterator.h ****       /**
 163:d:/software/ovi_2503a_s3trc/ovi_2503a_s3trc/Tools/MinGW/include/c++/3.3.1/bits/stl_iterator.h ****        *  @return  TODO
 164:d:/software/ovi_2503a_s3trc/ovi_2503a_s3trc/Tools/MinGW/include/c++/3.3.1/bits/stl_iterator.h ****        *
 165:d:/software/ovi_2503a_s3trc/ovi_2503a_s3trc/Tools/MinGW/include/c++/3.3.1/bits/stl_iterator.h ****        *  @doctodo
 166:d:/software/ovi_2503a_s3trc/ovi_2503a_s3trc/Tools/MinGW/include/c++/3.3.1/bits/stl_iterator.h ****       */
 167:d:/software/ovi_2503a_s3trc/ovi_2503a_s3trc/Tools/MinGW/include/c++/3.3.1/bits/stl_iterator.h ****       reverse_iterator& 
GAS LISTING d:/software/ovi_2503a_s3trc/ovi_2503a_s3trc/plutommi/Customer/ResGenerator/gcctmp/ccgnaaaa.s 			page 272


 168:d:/software/ovi_2503a_s3trc/ovi_2503a_s3trc/Tools/MinGW/include/c++/3.3.1/bits/stl_iterator.h ****       operator++() 
 169:d:/software/ovi_2503a_s3trc/ovi_2503a_s3trc/Tools/MinGW/include/c++/3.3.1/bits/stl_iterator.h ****       {
 170:d:/software/ovi_2503a_s3trc/ovi_2503a_s3trc/Tools/MinGW/include/c++/3.3.1/bits/stl_iterator.h **** 	--current;
 171:d:/software/ovi_2503a_s3trc/ovi_2503a_s3trc/Tools/MinGW/include/c++/3.3.1/bits/stl_iterator.h **** 	return *this;
 172:d:/software/ovi_2503a_s3trc/ovi_2503a_s3trc/Tools/MinGW/include/c++/3.3.1/bits/stl_iterator.h ****       }
 173:d:/software/ovi_2503a_s3trc/ovi_2503a_s3trc/Tools/MinGW/include/c++/3.3.1/bits/stl_iterator.h **** 
 174:d:/software/ovi_2503a_s3trc/ovi_2503a_s3trc/Tools/MinGW/include/c++/3.3.1/bits/stl_iterator.h ****       /**
 175:d:/software/ovi_2503a_s3trc/ovi_2503a_s3trc/Tools/MinGW/include/c++/3.3.1/bits/stl_iterator.h ****        *  @return  TODO
 176:d:/software/ovi_2503a_s3trc/ovi_2503a_s3trc/Tools/MinGW/include/c++/3.3.1/bits/stl_iterator.h ****        *
 177:d:/software/ovi_2503a_s3trc/ovi_2503a_s3trc/Tools/MinGW/include/c++/3.3.1/bits/stl_iterator.h ****        *  @doctodo
 178:d:/software/ovi_2503a_s3trc/ovi_2503a_s3trc/Tools/MinGW/include/c++/3.3.1/bits/stl_iterator.h ****       */
 179:d:/software/ovi_2503a_s3trc/ovi_2503a_s3trc/Tools/MinGW/include/c++/3.3.1/bits/stl_iterator.h ****       reverse_iterator 
 180:d:/software/ovi_2503a_s3trc/ovi_2503a_s3trc/Tools/MinGW/include/c++/3.3.1/bits/stl_iterator.h ****       operator++(int) 
 181:d:/software/ovi_2503a_s3trc/ovi_2503a_s3trc/Tools/MinGW/include/c++/3.3.1/bits/stl_iterator.h ****       {
 182:d:/software/ovi_2503a_s3trc/ovi_2503a_s3trc/Tools/MinGW/include/c++/3.3.1/bits/stl_iterator.h **** 	reverse_iterator __tmp = *this;
 183:d:/software/ovi_2503a_s3trc/ovi_2503a_s3trc/Tools/MinGW/include/c++/3.3.1/bits/stl_iterator.h **** 	--current;
 184:d:/software/ovi_2503a_s3trc/ovi_2503a_s3trc/Tools/MinGW/include/c++/3.3.1/bits/stl_iterator.h **** 	return __tmp;
 185:d:/software/ovi_2503a_s3trc/ovi_2503a_s3trc/Tools/MinGW/include/c++/3.3.1/bits/stl_iterator.h ****       }
 186:d:/software/ovi_2503a_s3trc/ovi_2503a_s3trc/Tools/MinGW/include/c++/3.3.1/bits/stl_iterator.h **** 
 187:d:/software/ovi_2503a_s3trc/ovi_2503a_s3trc/Tools/MinGW/include/c++/3.3.1/bits/stl_iterator.h ****       /**
 188:d:/software/ovi_2503a_s3trc/ovi_2503a_s3trc/Tools/MinGW/include/c++/3.3.1/bits/stl_iterator.h ****        *  @return  TODO
 189:d:/software/ovi_2503a_s3trc/ovi_2503a_s3trc/Tools/MinGW/include/c++/3.3.1/bits/stl_iterator.h ****        *
 190:d:/software/ovi_2503a_s3trc/ovi_2503a_s3trc/Tools/MinGW/include/c++/3.3.1/bits/stl_iterator.h ****        *  @doctodo
 191:d:/software/ovi_2503a_s3trc/ovi_2503a_s3trc/Tools/MinGW/include/c++/3.3.1/bits/stl_iterator.h ****       */
 192:d:/software/ovi_2503a_s3trc/ovi_2503a_s3trc/Tools/MinGW/include/c++/3.3.1/bits/stl_iterator.h ****       reverse_iterator& 
 193:d:/software/ovi_2503a_s3trc/ovi_2503a_s3trc/Tools/MinGW/include/c++/3.3.1/bits/stl_iterator.h ****       operator--() 
 194:d:/software/ovi_2503a_s3trc/ovi_2503a_s3trc/Tools/MinGW/include/c++/3.3.1/bits/stl_iterator.h ****       {
 195:d:/software/ovi_2503a_s3trc/ovi_2503a_s3trc/Tools/MinGW/include/c++/3.3.1/bits/stl_iterator.h **** 	++current;
 196:d:/software/ovi_2503a_s3trc/ovi_2503a_s3trc/Tools/MinGW/include/c++/3.3.1/bits/stl_iterator.h **** 	return *this;
 197:d:/software/ovi_2503a_s3trc/ovi_2503a_s3trc/Tools/MinGW/include/c++/3.3.1/bits/stl_iterator.h ****       }
 198:d:/software/ovi_2503a_s3trc/ovi_2503a_s3trc/Tools/MinGW/include/c++/3.3.1/bits/stl_iterator.h **** 
 199:d:/software/ovi_2503a_s3trc/ovi_2503a_s3trc/Tools/MinGW/include/c++/3.3.1/bits/stl_iterator.h ****       /**
 200:d:/software/ovi_2503a_s3trc/ovi_2503a_s3trc/Tools/MinGW/include/c++/3.3.1/bits/stl_iterator.h ****        *  @return  TODO
 201:d:/software/ovi_2503a_s3trc/ovi_2503a_s3trc/Tools/MinGW/include/c++/3.3.1/bits/stl_iterator.h ****        *
 202:d:/software/ovi_2503a_s3trc/ovi_2503a_s3trc/Tools/MinGW/include/c++/3.3.1/bits/stl_iterator.h ****        *  @doctodo
 203:d:/software/ovi_2503a_s3trc/ovi_2503a_s3trc/Tools/MinGW/include/c++/3.3.1/bits/stl_iterator.h ****       */
 204:d:/software/ovi_2503a_s3trc/ovi_2503a_s3trc/Tools/MinGW/include/c++/3.3.1/bits/stl_iterator.h ****       reverse_iterator operator--(int) 
 205:d:/software/ovi_2503a_s3trc/ovi_2503a_s3trc/Tools/MinGW/include/c++/3.3.1/bits/stl_iterator.h ****       {
 206:d:/software/ovi_2503a_s3trc/ovi_2503a_s3trc/Tools/MinGW/include/c++/3.3.1/bits/stl_iterator.h **** 	reverse_iterator __tmp = *this;
 207:d:/software/ovi_2503a_s3trc/ovi_2503a_s3trc/Tools/MinGW/include/c++/3.3.1/bits/stl_iterator.h **** 	++current;
 208:d:/software/ovi_2503a_s3trc/ovi_2503a_s3trc/Tools/MinGW/include/c++/3.3.1/bits/stl_iterator.h **** 	return __tmp;
 209:d:/software/ovi_2503a_s3trc/ovi_2503a_s3trc/Tools/MinGW/include/c++/3.3.1/bits/stl_iterator.h ****       }
 210:d:/software/ovi_2503a_s3trc/ovi_2503a_s3trc/Tools/MinGW/include/c++/3.3.1/bits/stl_iterator.h ****       
 211:d:/software/ovi_2503a_s3trc/ovi_2503a_s3trc/Tools/MinGW/include/c++/3.3.1/bits/stl_iterator.h ****       /**
 212:d:/software/ovi_2503a_s3trc/ovi_2503a_s3trc/Tools/MinGW/include/c++/3.3.1/bits/stl_iterator.h ****        *  @return  TODO
 213:d:/software/ovi_2503a_s3trc/ovi_2503a_s3trc/Tools/MinGW/include/c++/3.3.1/bits/stl_iterator.h ****        *
 214:d:/software/ovi_2503a_s3trc/ovi_2503a_s3trc/Tools/MinGW/include/c++/3.3.1/bits/stl_iterator.h ****        *  @doctodo
 215:d:/software/ovi_2503a_s3trc/ovi_2503a_s3trc/Tools/MinGW/include/c++/3.3.1/bits/stl_iterator.h ****       */
 216:d:/software/ovi_2503a_s3trc/ovi_2503a_s3trc/Tools/MinGW/include/c++/3.3.1/bits/stl_iterator.h ****       reverse_iterator 
 217:d:/software/ovi_2503a_s3trc/ovi_2503a_s3trc/Tools/MinGW/include/c++/3.3.1/bits/stl_iterator.h ****       operator+(difference_type __n) const 
 218:d:/software/ovi_2503a_s3trc/ovi_2503a_s3trc/Tools/MinGW/include/c++/3.3.1/bits/stl_iterator.h ****       { return reverse_iterator(current - __n); }
 219:d:/software/ovi_2503a_s3trc/ovi_2503a_s3trc/Tools/MinGW/include/c++/3.3.1/bits/stl_iterator.h **** 
 220:d:/software/ovi_2503a_s3trc/ovi_2503a_s3trc/Tools/MinGW/include/c++/3.3.1/bits/stl_iterator.h ****       /**
 221:d:/software/ovi_2503a_s3trc/ovi_2503a_s3trc/Tools/MinGW/include/c++/3.3.1/bits/stl_iterator.h ****        *  @return  TODO
 222:d:/software/ovi_2503a_s3trc/ovi_2503a_s3trc/Tools/MinGW/include/c++/3.3.1/bits/stl_iterator.h ****        *
 223:d:/software/ovi_2503a_s3trc/ovi_2503a_s3trc/Tools/MinGW/include/c++/3.3.1/bits/stl_iterator.h ****        *  @doctodo
 224:d:/software/ovi_2503a_s3trc/ovi_2503a_s3trc/Tools/MinGW/include/c++/3.3.1/bits/stl_iterator.h ****       */
GAS LISTING d:/software/ovi_2503a_s3trc/ovi_2503a_s3trc/plutommi/Customer/ResGenerator/gcctmp/ccgnaaaa.s 			page 273


 225:d:/software/ovi_2503a_s3trc/ovi_2503a_s3trc/Tools/MinGW/include/c++/3.3.1/bits/stl_iterator.h ****       reverse_iterator& 
 226:d:/software/ovi_2503a_s3trc/ovi_2503a_s3trc/Tools/MinGW/include/c++/3.3.1/bits/stl_iterator.h ****       operator+=(difference_type __n) 
 227:d:/software/ovi_2503a_s3trc/ovi_2503a_s3trc/Tools/MinGW/include/c++/3.3.1/bits/stl_iterator.h ****       {
 228:d:/software/ovi_2503a_s3trc/ovi_2503a_s3trc/Tools/MinGW/include/c++/3.3.1/bits/stl_iterator.h **** 	current -= __n;
 229:d:/software/ovi_2503a_s3trc/ovi_2503a_s3trc/Tools/MinGW/include/c++/3.3.1/bits/stl_iterator.h **** 	return *this;
 230:d:/software/ovi_2503a_s3trc/ovi_2503a_s3trc/Tools/MinGW/include/c++/3.3.1/bits/stl_iterator.h ****       }
 231:d:/software/ovi_2503a_s3trc/ovi_2503a_s3trc/Tools/MinGW/include/c++/3.3.1/bits/stl_iterator.h **** 
 232:d:/software/ovi_2503a_s3trc/ovi_2503a_s3trc/Tools/MinGW/include/c++/3.3.1/bits/stl_iterator.h ****       /**
 233:d:/software/ovi_2503a_s3trc/ovi_2503a_s3trc/Tools/MinGW/include/c++/3.3.1/bits/stl_iterator.h ****        *  @return  TODO
 234:d:/software/ovi_2503a_s3trc/ovi_2503a_s3trc/Tools/MinGW/include/c++/3.3.1/bits/stl_iterator.h ****        *
 235:d:/software/ovi_2503a_s3trc/ovi_2503a_s3trc/Tools/MinGW/include/c++/3.3.1/bits/stl_iterator.h ****        *  @doctodo
 236:d:/software/ovi_2503a_s3trc/ovi_2503a_s3trc/Tools/MinGW/include/c++/3.3.1/bits/stl_iterator.h ****       */
 237:d:/software/ovi_2503a_s3trc/ovi_2503a_s3trc/Tools/MinGW/include/c++/3.3.1/bits/stl_iterator.h ****       reverse_iterator 
 238:d:/software/ovi_2503a_s3trc/ovi_2503a_s3trc/Tools/MinGW/include/c++/3.3.1/bits/stl_iterator.h ****       operator-(difference_type __n) const 
 239:d:/software/ovi_2503a_s3trc/ovi_2503a_s3trc/Tools/MinGW/include/c++/3.3.1/bits/stl_iterator.h ****       { return reverse_iterator(current + __n); }
 240:d:/software/ovi_2503a_s3trc/ovi_2503a_s3trc/Tools/MinGW/include/c++/3.3.1/bits/stl_iterator.h **** 
 241:d:/software/ovi_2503a_s3trc/ovi_2503a_s3trc/Tools/MinGW/include/c++/3.3.1/bits/stl_iterator.h ****       /**
 242:d:/software/ovi_2503a_s3trc/ovi_2503a_s3trc/Tools/MinGW/include/c++/3.3.1/bits/stl_iterator.h ****        *  @return  TODO
 243:d:/software/ovi_2503a_s3trc/ovi_2503a_s3trc/Tools/MinGW/include/c++/3.3.1/bits/stl_iterator.h ****        *
 244:d:/software/ovi_2503a_s3trc/ovi_2503a_s3trc/Tools/MinGW/include/c++/3.3.1/bits/stl_iterator.h ****        *  @doctodo
 245:d:/software/ovi_2503a_s3trc/ovi_2503a_s3trc/Tools/MinGW/include/c++/3.3.1/bits/stl_iterator.h ****       */
 246:d:/software/ovi_2503a_s3trc/ovi_2503a_s3trc/Tools/MinGW/include/c++/3.3.1/bits/stl_iterator.h ****       reverse_iterator& 
 247:d:/software/ovi_2503a_s3trc/ovi_2503a_s3trc/Tools/MinGW/include/c++/3.3.1/bits/stl_iterator.h ****       operator-=(difference_type __n) 
 248:d:/software/ovi_2503a_s3trc/ovi_2503a_s3trc/Tools/MinGW/include/c++/3.3.1/bits/stl_iterator.h ****       {
 249:d:/software/ovi_2503a_s3trc/ovi_2503a_s3trc/Tools/MinGW/include/c++/3.3.1/bits/stl_iterator.h **** 	current += __n;
 250:d:/software/ovi_2503a_s3trc/ovi_2503a_s3trc/Tools/MinGW/include/c++/3.3.1/bits/stl_iterator.h **** 	return *this;
 251:d:/software/ovi_2503a_s3trc/ovi_2503a_s3trc/Tools/MinGW/include/c++/3.3.1/bits/stl_iterator.h ****       }
 252:d:/software/ovi_2503a_s3trc/ovi_2503a_s3trc/Tools/MinGW/include/c++/3.3.1/bits/stl_iterator.h **** 
 253:d:/software/ovi_2503a_s3trc/ovi_2503a_s3trc/Tools/MinGW/include/c++/3.3.1/bits/stl_iterator.h ****       /**
 254:d:/software/ovi_2503a_s3trc/ovi_2503a_s3trc/Tools/MinGW/include/c++/3.3.1/bits/stl_iterator.h ****        *  @return  TODO
 255:d:/software/ovi_2503a_s3trc/ovi_2503a_s3trc/Tools/MinGW/include/c++/3.3.1/bits/stl_iterator.h ****        *
 256:d:/software/ovi_2503a_s3trc/ovi_2503a_s3trc/Tools/MinGW/include/c++/3.3.1/bits/stl_iterator.h ****        *  @doctodo
 257:d:/software/ovi_2503a_s3trc/ovi_2503a_s3trc/Tools/MinGW/include/c++/3.3.1/bits/stl_iterator.h ****       */
 258:d:/software/ovi_2503a_s3trc/ovi_2503a_s3trc/Tools/MinGW/include/c++/3.3.1/bits/stl_iterator.h ****       reference 
 259:d:/software/ovi_2503a_s3trc/ovi_2503a_s3trc/Tools/MinGW/include/c++/3.3.1/bits/stl_iterator.h ****       operator[](difference_type __n) const { return *(*this + __n); }  
 260:d:/software/ovi_2503a_s3trc/ovi_2503a_s3trc/Tools/MinGW/include/c++/3.3.1/bits/stl_iterator.h ****     }; 
 261:d:/software/ovi_2503a_s3trc/ovi_2503a_s3trc/Tools/MinGW/include/c++/3.3.1/bits/stl_iterator.h ****  
 262:d:/software/ovi_2503a_s3trc/ovi_2503a_s3trc/Tools/MinGW/include/c++/3.3.1/bits/stl_iterator.h ****   //@{
 263:d:/software/ovi_2503a_s3trc/ovi_2503a_s3trc/Tools/MinGW/include/c++/3.3.1/bits/stl_iterator.h ****   /**
 264:d:/software/ovi_2503a_s3trc/ovi_2503a_s3trc/Tools/MinGW/include/c++/3.3.1/bits/stl_iterator.h ****    *  @param  x  A %reverse_iterator.
 265:d:/software/ovi_2503a_s3trc/ovi_2503a_s3trc/Tools/MinGW/include/c++/3.3.1/bits/stl_iterator.h ****    *  @param  y  A %reverse_iterator.
 266:d:/software/ovi_2503a_s3trc/ovi_2503a_s3trc/Tools/MinGW/include/c++/3.3.1/bits/stl_iterator.h ****    *  @return  A simple bool.
 267:d:/software/ovi_2503a_s3trc/ovi_2503a_s3trc/Tools/MinGW/include/c++/3.3.1/bits/stl_iterator.h ****    *
 268:d:/software/ovi_2503a_s3trc/ovi_2503a_s3trc/Tools/MinGW/include/c++/3.3.1/bits/stl_iterator.h ****    *  Reverse iterators forward many operations to their underlying base()
 269:d:/software/ovi_2503a_s3trc/ovi_2503a_s3trc/Tools/MinGW/include/c++/3.3.1/bits/stl_iterator.h ****    *  iterators.  Others are implemented in terms of one another.
 270:d:/software/ovi_2503a_s3trc/ovi_2503a_s3trc/Tools/MinGW/include/c++/3.3.1/bits/stl_iterator.h ****    *
 271:d:/software/ovi_2503a_s3trc/ovi_2503a_s3trc/Tools/MinGW/include/c++/3.3.1/bits/stl_iterator.h ****   */
 272:d:/software/ovi_2503a_s3trc/ovi_2503a_s3trc/Tools/MinGW/include/c++/3.3.1/bits/stl_iterator.h ****   template<typename _Iterator>
 273:d:/software/ovi_2503a_s3trc/ovi_2503a_s3trc/Tools/MinGW/include/c++/3.3.1/bits/stl_iterator.h ****     inline bool 
 274:d:/software/ovi_2503a_s3trc/ovi_2503a_s3trc/Tools/MinGW/include/c++/3.3.1/bits/stl_iterator.h ****     operator==(const reverse_iterator<_Iterator>& __x, 
 275:d:/software/ovi_2503a_s3trc/ovi_2503a_s3trc/Tools/MinGW/include/c++/3.3.1/bits/stl_iterator.h **** 	       const reverse_iterator<_Iterator>& __y) 
 276:d:/software/ovi_2503a_s3trc/ovi_2503a_s3trc/Tools/MinGW/include/c++/3.3.1/bits/stl_iterator.h ****     { return __x.base() == __y.base(); }
 277:d:/software/ovi_2503a_s3trc/ovi_2503a_s3trc/Tools/MinGW/include/c++/3.3.1/bits/stl_iterator.h **** 
 278:d:/software/ovi_2503a_s3trc/ovi_2503a_s3trc/Tools/MinGW/include/c++/3.3.1/bits/stl_iterator.h ****   template<typename _Iterator>
 279:d:/software/ovi_2503a_s3trc/ovi_2503a_s3trc/Tools/MinGW/include/c++/3.3.1/bits/stl_iterator.h ****     inline bool 
 280:d:/software/ovi_2503a_s3trc/ovi_2503a_s3trc/Tools/MinGW/include/c++/3.3.1/bits/stl_iterator.h ****     operator<(const reverse_iterator<_Iterator>& __x, 
 281:d:/software/ovi_2503a_s3trc/ovi_2503a_s3trc/Tools/MinGW/include/c++/3.3.1/bits/stl_iterator.h **** 	      const reverse_iterator<_Iterator>& __y) 
GAS LISTING d:/software/ovi_2503a_s3trc/ovi_2503a_s3trc/plutommi/Customer/ResGenerator/gcctmp/ccgnaaaa.s 			page 274


 282:d:/software/ovi_2503a_s3trc/ovi_2503a_s3trc/Tools/MinGW/include/c++/3.3.1/bits/stl_iterator.h ****     { return __y.base() < __x.base(); }
 283:d:/software/ovi_2503a_s3trc/ovi_2503a_s3trc/Tools/MinGW/include/c++/3.3.1/bits/stl_iterator.h **** 
 284:d:/software/ovi_2503a_s3trc/ovi_2503a_s3trc/Tools/MinGW/include/c++/3.3.1/bits/stl_iterator.h ****   template<typename _Iterator>
 285:d:/software/ovi_2503a_s3trc/ovi_2503a_s3trc/Tools/MinGW/include/c++/3.3.1/bits/stl_iterator.h ****     inline bool 
 286:d:/software/ovi_2503a_s3trc/ovi_2503a_s3trc/Tools/MinGW/include/c++/3.3.1/bits/stl_iterator.h ****     operator!=(const reverse_iterator<_Iterator>& __x, 
 287:d:/software/ovi_2503a_s3trc/ovi_2503a_s3trc/Tools/MinGW/include/c++/3.3.1/bits/stl_iterator.h **** 	       const reverse_iterator<_Iterator>& __y) 
 288:d:/software/ovi_2503a_s3trc/ovi_2503a_s3trc/Tools/MinGW/include/c++/3.3.1/bits/stl_iterator.h ****     { return !(__x == __y); }
 289:d:/software/ovi_2503a_s3trc/ovi_2503a_s3trc/Tools/MinGW/include/c++/3.3.1/bits/stl_iterator.h **** 
 290:d:/software/ovi_2503a_s3trc/ovi_2503a_s3trc/Tools/MinGW/include/c++/3.3.1/bits/stl_iterator.h ****   template<typename _Iterator>
 291:d:/software/ovi_2503a_s3trc/ovi_2503a_s3trc/Tools/MinGW/include/c++/3.3.1/bits/stl_iterator.h ****     inline bool 
 292:d:/software/ovi_2503a_s3trc/ovi_2503a_s3trc/Tools/MinGW/include/c++/3.3.1/bits/stl_iterator.h ****     operator>(const reverse_iterator<_Iterator>& __x, 
 293:d:/software/ovi_2503a_s3trc/ovi_2503a_s3trc/Tools/MinGW/include/c++/3.3.1/bits/stl_iterator.h **** 	      const reverse_iterator<_Iterator>& __y) 
 294:d:/software/ovi_2503a_s3trc/ovi_2503a_s3trc/Tools/MinGW/include/c++/3.3.1/bits/stl_iterator.h ****     { return __y < __x; }
 295:d:/software/ovi_2503a_s3trc/ovi_2503a_s3trc/Tools/MinGW/include/c++/3.3.1/bits/stl_iterator.h **** 
 296:d:/software/ovi_2503a_s3trc/ovi_2503a_s3trc/Tools/MinGW/include/c++/3.3.1/bits/stl_iterator.h ****   template<typename _Iterator>
 297:d:/software/ovi_2503a_s3trc/ovi_2503a_s3trc/Tools/MinGW/include/c++/3.3.1/bits/stl_iterator.h ****     inline bool 
 298:d:/software/ovi_2503a_s3trc/ovi_2503a_s3trc/Tools/MinGW/include/c++/3.3.1/bits/stl_iterator.h ****     operator<=(const reverse_iterator<_Iterator>& __x, 
 299:d:/software/ovi_2503a_s3trc/ovi_2503a_s3trc/Tools/MinGW/include/c++/3.3.1/bits/stl_iterator.h **** 		const reverse_iterator<_Iterator>& __y) 
 300:d:/software/ovi_2503a_s3trc/ovi_2503a_s3trc/Tools/MinGW/include/c++/3.3.1/bits/stl_iterator.h ****     { return !(__y < __x); }
 301:d:/software/ovi_2503a_s3trc/ovi_2503a_s3trc/Tools/MinGW/include/c++/3.3.1/bits/stl_iterator.h **** 
 302:d:/software/ovi_2503a_s3trc/ovi_2503a_s3trc/Tools/MinGW/include/c++/3.3.1/bits/stl_iterator.h ****   template<typename _Iterator>
 303:d:/software/ovi_2503a_s3trc/ovi_2503a_s3trc/Tools/MinGW/include/c++/3.3.1/bits/stl_iterator.h ****     inline bool 
 304:d:/software/ovi_2503a_s3trc/ovi_2503a_s3trc/Tools/MinGW/include/c++/3.3.1/bits/stl_iterator.h ****     operator>=(const reverse_iterator<_Iterator>& __x, 
 305:d:/software/ovi_2503a_s3trc/ovi_2503a_s3trc/Tools/MinGW/include/c++/3.3.1/bits/stl_iterator.h **** 	       const reverse_iterator<_Iterator>& __y) 
 306:d:/software/ovi_2503a_s3trc/ovi_2503a_s3trc/Tools/MinGW/include/c++/3.3.1/bits/stl_iterator.h ****     { return !(__x < __y); }
 307:d:/software/ovi_2503a_s3trc/ovi_2503a_s3trc/Tools/MinGW/include/c++/3.3.1/bits/stl_iterator.h **** 
 308:d:/software/ovi_2503a_s3trc/ovi_2503a_s3trc/Tools/MinGW/include/c++/3.3.1/bits/stl_iterator.h ****   template<typename _Iterator>
 309:d:/software/ovi_2503a_s3trc/ovi_2503a_s3trc/Tools/MinGW/include/c++/3.3.1/bits/stl_iterator.h ****     inline typename reverse_iterator<_Iterator>::difference_type
 310:d:/software/ovi_2503a_s3trc/ovi_2503a_s3trc/Tools/MinGW/include/c++/3.3.1/bits/stl_iterator.h ****     operator-(const reverse_iterator<_Iterator>& __x, 
 311:d:/software/ovi_2503a_s3trc/ovi_2503a_s3trc/Tools/MinGW/include/c++/3.3.1/bits/stl_iterator.h **** 	      const reverse_iterator<_Iterator>& __y) 
 312:d:/software/ovi_2503a_s3trc/ovi_2503a_s3trc/Tools/MinGW/include/c++/3.3.1/bits/stl_iterator.h ****     { return __y.base() - __x.base(); }
 313:d:/software/ovi_2503a_s3trc/ovi_2503a_s3trc/Tools/MinGW/include/c++/3.3.1/bits/stl_iterator.h **** 
 314:d:/software/ovi_2503a_s3trc/ovi_2503a_s3trc/Tools/MinGW/include/c++/3.3.1/bits/stl_iterator.h ****   template<typename _Iterator>
 315:d:/software/ovi_2503a_s3trc/ovi_2503a_s3trc/Tools/MinGW/include/c++/3.3.1/bits/stl_iterator.h ****     inline reverse_iterator<_Iterator> 
 316:d:/software/ovi_2503a_s3trc/ovi_2503a_s3trc/Tools/MinGW/include/c++/3.3.1/bits/stl_iterator.h ****     operator+(typename reverse_iterator<_Iterator>::difference_type __n,
 317:d:/software/ovi_2503a_s3trc/ovi_2503a_s3trc/Tools/MinGW/include/c++/3.3.1/bits/stl_iterator.h **** 	      const reverse_iterator<_Iterator>& __x) 
 318:d:/software/ovi_2503a_s3trc/ovi_2503a_s3trc/Tools/MinGW/include/c++/3.3.1/bits/stl_iterator.h ****     { return reverse_iterator<_Iterator>(__x.base() - __n); }
 319:d:/software/ovi_2503a_s3trc/ovi_2503a_s3trc/Tools/MinGW/include/c++/3.3.1/bits/stl_iterator.h ****   //@}
 320:d:/software/ovi_2503a_s3trc/ovi_2503a_s3trc/Tools/MinGW/include/c++/3.3.1/bits/stl_iterator.h **** 
 321:d:/software/ovi_2503a_s3trc/ovi_2503a_s3trc/Tools/MinGW/include/c++/3.3.1/bits/stl_iterator.h ****   // 24.4.2.2.1 back_insert_iterator
 322:d:/software/ovi_2503a_s3trc/ovi_2503a_s3trc/Tools/MinGW/include/c++/3.3.1/bits/stl_iterator.h ****   /**
 323:d:/software/ovi_2503a_s3trc/ovi_2503a_s3trc/Tools/MinGW/include/c++/3.3.1/bits/stl_iterator.h ****    *  @brief  Turns assignment into insertion.
 324:d:/software/ovi_2503a_s3trc/ovi_2503a_s3trc/Tools/MinGW/include/c++/3.3.1/bits/stl_iterator.h ****    *
 325:d:/software/ovi_2503a_s3trc/ovi_2503a_s3trc/Tools/MinGW/include/c++/3.3.1/bits/stl_iterator.h ****    *  These are output iterators, constructed from a container-of-T.
 326:d:/software/ovi_2503a_s3trc/ovi_2503a_s3trc/Tools/MinGW/include/c++/3.3.1/bits/stl_iterator.h ****    *  Assigning a T to the iterator appends it to the container using
 327:d:/software/ovi_2503a_s3trc/ovi_2503a_s3trc/Tools/MinGW/include/c++/3.3.1/bits/stl_iterator.h ****    *  push_back.
 328:d:/software/ovi_2503a_s3trc/ovi_2503a_s3trc/Tools/MinGW/include/c++/3.3.1/bits/stl_iterator.h ****    *
 329:d:/software/ovi_2503a_s3trc/ovi_2503a_s3trc/Tools/MinGW/include/c++/3.3.1/bits/stl_iterator.h ****    *  Tip:  Using the back_inserter function to create these iterators can
 330:d:/software/ovi_2503a_s3trc/ovi_2503a_s3trc/Tools/MinGW/include/c++/3.3.1/bits/stl_iterator.h ****    *  save typing.
 331:d:/software/ovi_2503a_s3trc/ovi_2503a_s3trc/Tools/MinGW/include/c++/3.3.1/bits/stl_iterator.h ****   */
 332:d:/software/ovi_2503a_s3trc/ovi_2503a_s3trc/Tools/MinGW/include/c++/3.3.1/bits/stl_iterator.h ****   template<typename _Container>
 333:d:/software/ovi_2503a_s3trc/ovi_2503a_s3trc/Tools/MinGW/include/c++/3.3.1/bits/stl_iterator.h ****     class back_insert_iterator 
 334:d:/software/ovi_2503a_s3trc/ovi_2503a_s3trc/Tools/MinGW/include/c++/3.3.1/bits/stl_iterator.h ****     : public iterator<output_iterator_tag, void, void, void, void>
 335:d:/software/ovi_2503a_s3trc/ovi_2503a_s3trc/Tools/MinGW/include/c++/3.3.1/bits/stl_iterator.h ****     {
 336:d:/software/ovi_2503a_s3trc/ovi_2503a_s3trc/Tools/MinGW/include/c++/3.3.1/bits/stl_iterator.h ****     protected:
 337:d:/software/ovi_2503a_s3trc/ovi_2503a_s3trc/Tools/MinGW/include/c++/3.3.1/bits/stl_iterator.h ****       _Container* container;
 338:d:/software/ovi_2503a_s3trc/ovi_2503a_s3trc/Tools/MinGW/include/c++/3.3.1/bits/stl_iterator.h **** 
GAS LISTING d:/software/ovi_2503a_s3trc/ovi_2503a_s3trc/plutommi/Customer/ResGenerator/gcctmp/ccgnaaaa.s 			page 275


 339:d:/software/ovi_2503a_s3trc/ovi_2503a_s3trc/Tools/MinGW/include/c++/3.3.1/bits/stl_iterator.h ****     public:
 340:d:/software/ovi_2503a_s3trc/ovi_2503a_s3trc/Tools/MinGW/include/c++/3.3.1/bits/stl_iterator.h ****       /// A nested typedef for the type of whatever container you used.
 341:d:/software/ovi_2503a_s3trc/ovi_2503a_s3trc/Tools/MinGW/include/c++/3.3.1/bits/stl_iterator.h ****       typedef _Container          container_type;
 342:d:/software/ovi_2503a_s3trc/ovi_2503a_s3trc/Tools/MinGW/include/c++/3.3.1/bits/stl_iterator.h ****       
 343:d:/software/ovi_2503a_s3trc/ovi_2503a_s3trc/Tools/MinGW/include/c++/3.3.1/bits/stl_iterator.h ****       /// The only way to create this %iterator is with a container.
 344:d:/software/ovi_2503a_s3trc/ovi_2503a_s3trc/Tools/MinGW/include/c++/3.3.1/bits/stl_iterator.h ****       explicit 
 345:d:/software/ovi_2503a_s3trc/ovi_2503a_s3trc/Tools/MinGW/include/c++/3.3.1/bits/stl_iterator.h ****       back_insert_iterator(_Container& __x) : container(&__x) { }
 346:d:/software/ovi_2503a_s3trc/ovi_2503a_s3trc/Tools/MinGW/include/c++/3.3.1/bits/stl_iterator.h **** 
 347:d:/software/ovi_2503a_s3trc/ovi_2503a_s3trc/Tools/MinGW/include/c++/3.3.1/bits/stl_iterator.h ****       /**
 348:d:/software/ovi_2503a_s3trc/ovi_2503a_s3trc/Tools/MinGW/include/c++/3.3.1/bits/stl_iterator.h ****        *  @param  value  An instance of whatever type
 349:d:/software/ovi_2503a_s3trc/ovi_2503a_s3trc/Tools/MinGW/include/c++/3.3.1/bits/stl_iterator.h ****        *                 container_type::const_reference is; presumably a
 350:d:/software/ovi_2503a_s3trc/ovi_2503a_s3trc/Tools/MinGW/include/c++/3.3.1/bits/stl_iterator.h ****        *                 reference-to-const T for container<T>.
 351:d:/software/ovi_2503a_s3trc/ovi_2503a_s3trc/Tools/MinGW/include/c++/3.3.1/bits/stl_iterator.h ****        *  @return  This %iterator, for chained operations.
 352:d:/software/ovi_2503a_s3trc/ovi_2503a_s3trc/Tools/MinGW/include/c++/3.3.1/bits/stl_iterator.h ****        *
 353:d:/software/ovi_2503a_s3trc/ovi_2503a_s3trc/Tools/MinGW/include/c++/3.3.1/bits/stl_iterator.h ****        *  This kind of %iterator doesn't really have a "position" in the
 354:d:/software/ovi_2503a_s3trc/ovi_2503a_s3trc/Tools/MinGW/include/c++/3.3.1/bits/stl_iterator.h ****        *  container (you can think of the position as being permanently at
 355:d:/software/ovi_2503a_s3trc/ovi_2503a_s3trc/Tools/MinGW/include/c++/3.3.1/bits/stl_iterator.h ****        *  the end, if you like).  Assigning a value to the %iterator will
 356:d:/software/ovi_2503a_s3trc/ovi_2503a_s3trc/Tools/MinGW/include/c++/3.3.1/bits/stl_iterator.h ****        *  always append the value to the end of the container.
 357:d:/software/ovi_2503a_s3trc/ovi_2503a_s3trc/Tools/MinGW/include/c++/3.3.1/bits/stl_iterator.h ****       */
 358:d:/software/ovi_2503a_s3trc/ovi_2503a_s3trc/Tools/MinGW/include/c++/3.3.1/bits/stl_iterator.h ****       back_insert_iterator&
 359:d:/software/ovi_2503a_s3trc/ovi_2503a_s3trc/Tools/MinGW/include/c++/3.3.1/bits/stl_iterator.h ****       operator=(typename _Container::const_reference __value) 
 360:d:/software/ovi_2503a_s3trc/ovi_2503a_s3trc/Tools/MinGW/include/c++/3.3.1/bits/stl_iterator.h ****       { 
 361:d:/software/ovi_2503a_s3trc/ovi_2503a_s3trc/Tools/MinGW/include/c++/3.3.1/bits/stl_iterator.h **** 	container->push_back(__value);
 362:d:/software/ovi_2503a_s3trc/ovi_2503a_s3trc/Tools/MinGW/include/c++/3.3.1/bits/stl_iterator.h **** 	return *this;
 363:d:/software/ovi_2503a_s3trc/ovi_2503a_s3trc/Tools/MinGW/include/c++/3.3.1/bits/stl_iterator.h ****       }
 364:d:/software/ovi_2503a_s3trc/ovi_2503a_s3trc/Tools/MinGW/include/c++/3.3.1/bits/stl_iterator.h **** 
 365:d:/software/ovi_2503a_s3trc/ovi_2503a_s3trc/Tools/MinGW/include/c++/3.3.1/bits/stl_iterator.h ****       /// Simply returns *this.
 366:d:/software/ovi_2503a_s3trc/ovi_2503a_s3trc/Tools/MinGW/include/c++/3.3.1/bits/stl_iterator.h ****       back_insert_iterator& 
 367:d:/software/ovi_2503a_s3trc/ovi_2503a_s3trc/Tools/MinGW/include/c++/3.3.1/bits/stl_iterator.h ****       operator*() { return *this; }
 368:d:/software/ovi_2503a_s3trc/ovi_2503a_s3trc/Tools/MinGW/include/c++/3.3.1/bits/stl_iterator.h **** 
 369:d:/software/ovi_2503a_s3trc/ovi_2503a_s3trc/Tools/MinGW/include/c++/3.3.1/bits/stl_iterator.h ****       /// Simply returns *this.  (This %iterator does not "move".)
 370:d:/software/ovi_2503a_s3trc/ovi_2503a_s3trc/Tools/MinGW/include/c++/3.3.1/bits/stl_iterator.h ****       back_insert_iterator& 
 371:d:/software/ovi_2503a_s3trc/ovi_2503a_s3trc/Tools/MinGW/include/c++/3.3.1/bits/stl_iterator.h ****       operator++() { return *this; }
 372:d:/software/ovi_2503a_s3trc/ovi_2503a_s3trc/Tools/MinGW/include/c++/3.3.1/bits/stl_iterator.h **** 
 373:d:/software/ovi_2503a_s3trc/ovi_2503a_s3trc/Tools/MinGW/include/c++/3.3.1/bits/stl_iterator.h ****       /// Simply returns *this.  (This %iterator does not "move".)
 374:d:/software/ovi_2503a_s3trc/ovi_2503a_s3trc/Tools/MinGW/include/c++/3.3.1/bits/stl_iterator.h ****       back_insert_iterator
 375:d:/software/ovi_2503a_s3trc/ovi_2503a_s3trc/Tools/MinGW/include/c++/3.3.1/bits/stl_iterator.h ****       operator++(int) { return *this; }
 376:d:/software/ovi_2503a_s3trc/ovi_2503a_s3trc/Tools/MinGW/include/c++/3.3.1/bits/stl_iterator.h ****     };
 377:d:/software/ovi_2503a_s3trc/ovi_2503a_s3trc/Tools/MinGW/include/c++/3.3.1/bits/stl_iterator.h **** 
 378:d:/software/ovi_2503a_s3trc/ovi_2503a_s3trc/Tools/MinGW/include/c++/3.3.1/bits/stl_iterator.h ****   /**
 379:d:/software/ovi_2503a_s3trc/ovi_2503a_s3trc/Tools/MinGW/include/c++/3.3.1/bits/stl_iterator.h ****    *  @param  x  A container of arbitrary type.
 380:d:/software/ovi_2503a_s3trc/ovi_2503a_s3trc/Tools/MinGW/include/c++/3.3.1/bits/stl_iterator.h ****    *  @return  An instance of back_insert_iterator working on @p x.
 381:d:/software/ovi_2503a_s3trc/ovi_2503a_s3trc/Tools/MinGW/include/c++/3.3.1/bits/stl_iterator.h ****    *
 382:d:/software/ovi_2503a_s3trc/ovi_2503a_s3trc/Tools/MinGW/include/c++/3.3.1/bits/stl_iterator.h ****    *  This wrapper function helps in creating back_insert_iterator instances.
 383:d:/software/ovi_2503a_s3trc/ovi_2503a_s3trc/Tools/MinGW/include/c++/3.3.1/bits/stl_iterator.h ****    *  Typing the name of the %iterator requires knowing the precise full
 384:d:/software/ovi_2503a_s3trc/ovi_2503a_s3trc/Tools/MinGW/include/c++/3.3.1/bits/stl_iterator.h ****    *  type of the container, which can be tedious and impedes generic
 385:d:/software/ovi_2503a_s3trc/ovi_2503a_s3trc/Tools/MinGW/include/c++/3.3.1/bits/stl_iterator.h ****    *  programming.  Using this function lets you take advantage of automatic
 386:d:/software/ovi_2503a_s3trc/ovi_2503a_s3trc/Tools/MinGW/include/c++/3.3.1/bits/stl_iterator.h ****    *  template parameter deduction, making the compiler match the correct
 387:d:/software/ovi_2503a_s3trc/ovi_2503a_s3trc/Tools/MinGW/include/c++/3.3.1/bits/stl_iterator.h ****    *  types for you.
 388:d:/software/ovi_2503a_s3trc/ovi_2503a_s3trc/Tools/MinGW/include/c++/3.3.1/bits/stl_iterator.h ****   */
 389:d:/software/ovi_2503a_s3trc/ovi_2503a_s3trc/Tools/MinGW/include/c++/3.3.1/bits/stl_iterator.h ****   template<typename _Container>
 390:d:/software/ovi_2503a_s3trc/ovi_2503a_s3trc/Tools/MinGW/include/c++/3.3.1/bits/stl_iterator.h ****     inline back_insert_iterator<_Container> 
 391:d:/software/ovi_2503a_s3trc/ovi_2503a_s3trc/Tools/MinGW/include/c++/3.3.1/bits/stl_iterator.h ****     back_inserter(_Container& __x) 
 392:d:/software/ovi_2503a_s3trc/ovi_2503a_s3trc/Tools/MinGW/include/c++/3.3.1/bits/stl_iterator.h ****     { return back_insert_iterator<_Container>(__x); }
 393:d:/software/ovi_2503a_s3trc/ovi_2503a_s3trc/Tools/MinGW/include/c++/3.3.1/bits/stl_iterator.h **** 
 394:d:/software/ovi_2503a_s3trc/ovi_2503a_s3trc/Tools/MinGW/include/c++/3.3.1/bits/stl_iterator.h ****   /**
 395:d:/software/ovi_2503a_s3trc/ovi_2503a_s3trc/Tools/MinGW/include/c++/3.3.1/bits/stl_iterator.h ****    *  @brief  Turns assignment into insertion.
GAS LISTING d:/software/ovi_2503a_s3trc/ovi_2503a_s3trc/plutommi/Customer/ResGenerator/gcctmp/ccgnaaaa.s 			page 276


 396:d:/software/ovi_2503a_s3trc/ovi_2503a_s3trc/Tools/MinGW/include/c++/3.3.1/bits/stl_iterator.h ****    *
 397:d:/software/ovi_2503a_s3trc/ovi_2503a_s3trc/Tools/MinGW/include/c++/3.3.1/bits/stl_iterator.h ****    *  These are output iterators, constructed from a container-of-T.
 398:d:/software/ovi_2503a_s3trc/ovi_2503a_s3trc/Tools/MinGW/include/c++/3.3.1/bits/stl_iterator.h ****    *  Assigning a T to the iterator prepends it to the container using
 399:d:/software/ovi_2503a_s3trc/ovi_2503a_s3trc/Tools/MinGW/include/c++/3.3.1/bits/stl_iterator.h ****    *  push_front.
 400:d:/software/ovi_2503a_s3trc/ovi_2503a_s3trc/Tools/MinGW/include/c++/3.3.1/bits/stl_iterator.h ****    *
 401:d:/software/ovi_2503a_s3trc/ovi_2503a_s3trc/Tools/MinGW/include/c++/3.3.1/bits/stl_iterator.h ****    *  Tip:  Using the front_inserter function to create these iterators can
 402:d:/software/ovi_2503a_s3trc/ovi_2503a_s3trc/Tools/MinGW/include/c++/3.3.1/bits/stl_iterator.h ****    *  save typing.
 403:d:/software/ovi_2503a_s3trc/ovi_2503a_s3trc/Tools/MinGW/include/c++/3.3.1/bits/stl_iterator.h ****   */
 404:d:/software/ovi_2503a_s3trc/ovi_2503a_s3trc/Tools/MinGW/include/c++/3.3.1/bits/stl_iterator.h ****   template<typename _Container>
 405:d:/software/ovi_2503a_s3trc/ovi_2503a_s3trc/Tools/MinGW/include/c++/3.3.1/bits/stl_iterator.h ****     class front_insert_iterator 
 406:d:/software/ovi_2503a_s3trc/ovi_2503a_s3trc/Tools/MinGW/include/c++/3.3.1/bits/stl_iterator.h ****     : public iterator<output_iterator_tag, void, void, void, void>
 407:d:/software/ovi_2503a_s3trc/ovi_2503a_s3trc/Tools/MinGW/include/c++/3.3.1/bits/stl_iterator.h ****     {
 408:d:/software/ovi_2503a_s3trc/ovi_2503a_s3trc/Tools/MinGW/include/c++/3.3.1/bits/stl_iterator.h ****     protected:
 409:d:/software/ovi_2503a_s3trc/ovi_2503a_s3trc/Tools/MinGW/include/c++/3.3.1/bits/stl_iterator.h ****       _Container* container;
 410:d:/software/ovi_2503a_s3trc/ovi_2503a_s3trc/Tools/MinGW/include/c++/3.3.1/bits/stl_iterator.h **** 
 411:d:/software/ovi_2503a_s3trc/ovi_2503a_s3trc/Tools/MinGW/include/c++/3.3.1/bits/stl_iterator.h ****     public:
 412:d:/software/ovi_2503a_s3trc/ovi_2503a_s3trc/Tools/MinGW/include/c++/3.3.1/bits/stl_iterator.h ****       /// A nested typedef for the type of whatever container you used.
 413:d:/software/ovi_2503a_s3trc/ovi_2503a_s3trc/Tools/MinGW/include/c++/3.3.1/bits/stl_iterator.h ****       typedef _Container          container_type;
 414:d:/software/ovi_2503a_s3trc/ovi_2503a_s3trc/Tools/MinGW/include/c++/3.3.1/bits/stl_iterator.h **** 
 415:d:/software/ovi_2503a_s3trc/ovi_2503a_s3trc/Tools/MinGW/include/c++/3.3.1/bits/stl_iterator.h ****       /// The only way to create this %iterator is with a container.
 416:d:/software/ovi_2503a_s3trc/ovi_2503a_s3trc/Tools/MinGW/include/c++/3.3.1/bits/stl_iterator.h ****       explicit front_insert_iterator(_Container& __x) : container(&__x) { }
 417:d:/software/ovi_2503a_s3trc/ovi_2503a_s3trc/Tools/MinGW/include/c++/3.3.1/bits/stl_iterator.h **** 
 418:d:/software/ovi_2503a_s3trc/ovi_2503a_s3trc/Tools/MinGW/include/c++/3.3.1/bits/stl_iterator.h ****       /**
 419:d:/software/ovi_2503a_s3trc/ovi_2503a_s3trc/Tools/MinGW/include/c++/3.3.1/bits/stl_iterator.h ****        *  @param  value  An instance of whatever type
 420:d:/software/ovi_2503a_s3trc/ovi_2503a_s3trc/Tools/MinGW/include/c++/3.3.1/bits/stl_iterator.h ****        *                 container_type::const_reference is; presumably a
 421:d:/software/ovi_2503a_s3trc/ovi_2503a_s3trc/Tools/MinGW/include/c++/3.3.1/bits/stl_iterator.h ****        *                 reference-to-const T for container<T>.
 422:d:/software/ovi_2503a_s3trc/ovi_2503a_s3trc/Tools/MinGW/include/c++/3.3.1/bits/stl_iterator.h ****        *  @return  This %iterator, for chained operations.
 423:d:/software/ovi_2503a_s3trc/ovi_2503a_s3trc/Tools/MinGW/include/c++/3.3.1/bits/stl_iterator.h ****        *
 424:d:/software/ovi_2503a_s3trc/ovi_2503a_s3trc/Tools/MinGW/include/c++/3.3.1/bits/stl_iterator.h ****        *  This kind of %iterator doesn't really have a "position" in the
 425:d:/software/ovi_2503a_s3trc/ovi_2503a_s3trc/Tools/MinGW/include/c++/3.3.1/bits/stl_iterator.h ****        *  container (you can think of the position as being permanently at
 426:d:/software/ovi_2503a_s3trc/ovi_2503a_s3trc/Tools/MinGW/include/c++/3.3.1/bits/stl_iterator.h ****        *  the front, if you like).  Assigning a value to the %iterator will
 427:d:/software/ovi_2503a_s3trc/ovi_2503a_s3trc/Tools/MinGW/include/c++/3.3.1/bits/stl_iterator.h ****        *  always prepend the value to the front of the container.
 428:d:/software/ovi_2503a_s3trc/ovi_2503a_s3trc/Tools/MinGW/include/c++/3.3.1/bits/stl_iterator.h ****       */
 429:d:/software/ovi_2503a_s3trc/ovi_2503a_s3trc/Tools/MinGW/include/c++/3.3.1/bits/stl_iterator.h ****       front_insert_iterator&
 430:d:/software/ovi_2503a_s3trc/ovi_2503a_s3trc/Tools/MinGW/include/c++/3.3.1/bits/stl_iterator.h ****       operator=(typename _Container::const_reference __value) 
 431:d:/software/ovi_2503a_s3trc/ovi_2503a_s3trc/Tools/MinGW/include/c++/3.3.1/bits/stl_iterator.h ****       { 
 432:d:/software/ovi_2503a_s3trc/ovi_2503a_s3trc/Tools/MinGW/include/c++/3.3.1/bits/stl_iterator.h **** 	container->push_front(__value);
 433:d:/software/ovi_2503a_s3trc/ovi_2503a_s3trc/Tools/MinGW/include/c++/3.3.1/bits/stl_iterator.h **** 	return *this;
 434:d:/software/ovi_2503a_s3trc/ovi_2503a_s3trc/Tools/MinGW/include/c++/3.3.1/bits/stl_iterator.h ****       }
 435:d:/software/ovi_2503a_s3trc/ovi_2503a_s3trc/Tools/MinGW/include/c++/3.3.1/bits/stl_iterator.h **** 
 436:d:/software/ovi_2503a_s3trc/ovi_2503a_s3trc/Tools/MinGW/include/c++/3.3.1/bits/stl_iterator.h ****       /// Simply returns *this.
 437:d:/software/ovi_2503a_s3trc/ovi_2503a_s3trc/Tools/MinGW/include/c++/3.3.1/bits/stl_iterator.h ****       front_insert_iterator& 
 438:d:/software/ovi_2503a_s3trc/ovi_2503a_s3trc/Tools/MinGW/include/c++/3.3.1/bits/stl_iterator.h ****       operator*() { return *this; }
 439:d:/software/ovi_2503a_s3trc/ovi_2503a_s3trc/Tools/MinGW/include/c++/3.3.1/bits/stl_iterator.h **** 
 440:d:/software/ovi_2503a_s3trc/ovi_2503a_s3trc/Tools/MinGW/include/c++/3.3.1/bits/stl_iterator.h ****       /// Simply returns *this.  (This %iterator does not "move".)
 441:d:/software/ovi_2503a_s3trc/ovi_2503a_s3trc/Tools/MinGW/include/c++/3.3.1/bits/stl_iterator.h ****       front_insert_iterator& 
 442:d:/software/ovi_2503a_s3trc/ovi_2503a_s3trc/Tools/MinGW/include/c++/3.3.1/bits/stl_iterator.h ****       operator++() { return *this; }
 443:d:/software/ovi_2503a_s3trc/ovi_2503a_s3trc/Tools/MinGW/include/c++/3.3.1/bits/stl_iterator.h **** 
 444:d:/software/ovi_2503a_s3trc/ovi_2503a_s3trc/Tools/MinGW/include/c++/3.3.1/bits/stl_iterator.h ****       /// Simply returns *this.  (This %iterator does not "move".)
 445:d:/software/ovi_2503a_s3trc/ovi_2503a_s3trc/Tools/MinGW/include/c++/3.3.1/bits/stl_iterator.h ****       front_insert_iterator 
 446:d:/software/ovi_2503a_s3trc/ovi_2503a_s3trc/Tools/MinGW/include/c++/3.3.1/bits/stl_iterator.h ****       operator++(int) { return *this; }
 447:d:/software/ovi_2503a_s3trc/ovi_2503a_s3trc/Tools/MinGW/include/c++/3.3.1/bits/stl_iterator.h ****     };
 448:d:/software/ovi_2503a_s3trc/ovi_2503a_s3trc/Tools/MinGW/include/c++/3.3.1/bits/stl_iterator.h **** 
 449:d:/software/ovi_2503a_s3trc/ovi_2503a_s3trc/Tools/MinGW/include/c++/3.3.1/bits/stl_iterator.h ****   /**
 450:d:/software/ovi_2503a_s3trc/ovi_2503a_s3trc/Tools/MinGW/include/c++/3.3.1/bits/stl_iterator.h ****    *  @param  x  A container of arbitrary type.
 451:d:/software/ovi_2503a_s3trc/ovi_2503a_s3trc/Tools/MinGW/include/c++/3.3.1/bits/stl_iterator.h ****    *  @return  An instance of front_insert_iterator working on @p x.
 452:d:/software/ovi_2503a_s3trc/ovi_2503a_s3trc/Tools/MinGW/include/c++/3.3.1/bits/stl_iterator.h ****    *
GAS LISTING d:/software/ovi_2503a_s3trc/ovi_2503a_s3trc/plutommi/Customer/ResGenerator/gcctmp/ccgnaaaa.s 			page 277


 453:d:/software/ovi_2503a_s3trc/ovi_2503a_s3trc/Tools/MinGW/include/c++/3.3.1/bits/stl_iterator.h ****    *  This wrapper function helps in creating front_insert_iterator instances.
 454:d:/software/ovi_2503a_s3trc/ovi_2503a_s3trc/Tools/MinGW/include/c++/3.3.1/bits/stl_iterator.h ****    *  Typing the name of the %iterator requires knowing the precise full
 455:d:/software/ovi_2503a_s3trc/ovi_2503a_s3trc/Tools/MinGW/include/c++/3.3.1/bits/stl_iterator.h ****    *  type of the container, which can be tedious and impedes generic
 456:d:/software/ovi_2503a_s3trc/ovi_2503a_s3trc/Tools/MinGW/include/c++/3.3.1/bits/stl_iterator.h ****    *  programming.  Using this function lets you take advantage of automatic
 457:d:/software/ovi_2503a_s3trc/ovi_2503a_s3trc/Tools/MinGW/include/c++/3.3.1/bits/stl_iterator.h ****    *  template parameter deduction, making the compiler match the correct
 458:d:/software/ovi_2503a_s3trc/ovi_2503a_s3trc/Tools/MinGW/include/c++/3.3.1/bits/stl_iterator.h ****    *  types for you.
 459:d:/software/ovi_2503a_s3trc/ovi_2503a_s3trc/Tools/MinGW/include/c++/3.3.1/bits/stl_iterator.h ****   */
 460:d:/software/ovi_2503a_s3trc/ovi_2503a_s3trc/Tools/MinGW/include/c++/3.3.1/bits/stl_iterator.h ****   template<typename _Container>
 461:d:/software/ovi_2503a_s3trc/ovi_2503a_s3trc/Tools/MinGW/include/c++/3.3.1/bits/stl_iterator.h ****     inline front_insert_iterator<_Container> 
 462:d:/software/ovi_2503a_s3trc/ovi_2503a_s3trc/Tools/MinGW/include/c++/3.3.1/bits/stl_iterator.h ****     front_inserter(_Container& __x) 
 463:d:/software/ovi_2503a_s3trc/ovi_2503a_s3trc/Tools/MinGW/include/c++/3.3.1/bits/stl_iterator.h ****     { return front_insert_iterator<_Container>(__x); }
 464:d:/software/ovi_2503a_s3trc/ovi_2503a_s3trc/Tools/MinGW/include/c++/3.3.1/bits/stl_iterator.h **** 
 465:d:/software/ovi_2503a_s3trc/ovi_2503a_s3trc/Tools/MinGW/include/c++/3.3.1/bits/stl_iterator.h ****   /**
 466:d:/software/ovi_2503a_s3trc/ovi_2503a_s3trc/Tools/MinGW/include/c++/3.3.1/bits/stl_iterator.h ****    *  @brief  Turns assignment into insertion.
 467:d:/software/ovi_2503a_s3trc/ovi_2503a_s3trc/Tools/MinGW/include/c++/3.3.1/bits/stl_iterator.h ****    *
 468:d:/software/ovi_2503a_s3trc/ovi_2503a_s3trc/Tools/MinGW/include/c++/3.3.1/bits/stl_iterator.h ****    *  These are output iterators, constructed from a container-of-T.
 469:d:/software/ovi_2503a_s3trc/ovi_2503a_s3trc/Tools/MinGW/include/c++/3.3.1/bits/stl_iterator.h ****    *  Assigning a T to the iterator inserts it in the container at the
 470:d:/software/ovi_2503a_s3trc/ovi_2503a_s3trc/Tools/MinGW/include/c++/3.3.1/bits/stl_iterator.h ****    *  %iterator's position, rather than overwriting the value at that
 471:d:/software/ovi_2503a_s3trc/ovi_2503a_s3trc/Tools/MinGW/include/c++/3.3.1/bits/stl_iterator.h ****    *  position.
 472:d:/software/ovi_2503a_s3trc/ovi_2503a_s3trc/Tools/MinGW/include/c++/3.3.1/bits/stl_iterator.h ****    *
 473:d:/software/ovi_2503a_s3trc/ovi_2503a_s3trc/Tools/MinGW/include/c++/3.3.1/bits/stl_iterator.h ****    *  (Sequences will actually insert a @e copy of the value before the
 474:d:/software/ovi_2503a_s3trc/ovi_2503a_s3trc/Tools/MinGW/include/c++/3.3.1/bits/stl_iterator.h ****    *  %iterator's position.)
 475:d:/software/ovi_2503a_s3trc/ovi_2503a_s3trc/Tools/MinGW/include/c++/3.3.1/bits/stl_iterator.h ****    *
 476:d:/software/ovi_2503a_s3trc/ovi_2503a_s3trc/Tools/MinGW/include/c++/3.3.1/bits/stl_iterator.h ****    *  Tip:  Using the inserter function to create these iterators can
 477:d:/software/ovi_2503a_s3trc/ovi_2503a_s3trc/Tools/MinGW/include/c++/3.3.1/bits/stl_iterator.h ****    *  save typing.
 478:d:/software/ovi_2503a_s3trc/ovi_2503a_s3trc/Tools/MinGW/include/c++/3.3.1/bits/stl_iterator.h ****   */
 479:d:/software/ovi_2503a_s3trc/ovi_2503a_s3trc/Tools/MinGW/include/c++/3.3.1/bits/stl_iterator.h ****   template<typename _Container>
 480:d:/software/ovi_2503a_s3trc/ovi_2503a_s3trc/Tools/MinGW/include/c++/3.3.1/bits/stl_iterator.h ****     class insert_iterator 
 481:d:/software/ovi_2503a_s3trc/ovi_2503a_s3trc/Tools/MinGW/include/c++/3.3.1/bits/stl_iterator.h ****     : public iterator<output_iterator_tag, void, void, void, void>
 482:d:/software/ovi_2503a_s3trc/ovi_2503a_s3trc/Tools/MinGW/include/c++/3.3.1/bits/stl_iterator.h ****     {
 483:d:/software/ovi_2503a_s3trc/ovi_2503a_s3trc/Tools/MinGW/include/c++/3.3.1/bits/stl_iterator.h ****     protected:
 484:d:/software/ovi_2503a_s3trc/ovi_2503a_s3trc/Tools/MinGW/include/c++/3.3.1/bits/stl_iterator.h ****       _Container* container;
 485:d:/software/ovi_2503a_s3trc/ovi_2503a_s3trc/Tools/MinGW/include/c++/3.3.1/bits/stl_iterator.h ****       typename _Container::iterator iter;
 486:d:/software/ovi_2503a_s3trc/ovi_2503a_s3trc/Tools/MinGW/include/c++/3.3.1/bits/stl_iterator.h **** 
 487:d:/software/ovi_2503a_s3trc/ovi_2503a_s3trc/Tools/MinGW/include/c++/3.3.1/bits/stl_iterator.h ****     public:
 488:d:/software/ovi_2503a_s3trc/ovi_2503a_s3trc/Tools/MinGW/include/c++/3.3.1/bits/stl_iterator.h ****       /// A nested typedef for the type of whatever container you used.
 489:d:/software/ovi_2503a_s3trc/ovi_2503a_s3trc/Tools/MinGW/include/c++/3.3.1/bits/stl_iterator.h ****       typedef _Container          container_type;
 490:d:/software/ovi_2503a_s3trc/ovi_2503a_s3trc/Tools/MinGW/include/c++/3.3.1/bits/stl_iterator.h ****       
 491:d:/software/ovi_2503a_s3trc/ovi_2503a_s3trc/Tools/MinGW/include/c++/3.3.1/bits/stl_iterator.h ****       /**
 492:d:/software/ovi_2503a_s3trc/ovi_2503a_s3trc/Tools/MinGW/include/c++/3.3.1/bits/stl_iterator.h ****        *  The only way to create this %iterator is with a container and an
 493:d:/software/ovi_2503a_s3trc/ovi_2503a_s3trc/Tools/MinGW/include/c++/3.3.1/bits/stl_iterator.h ****        *  initial position (a normal %iterator into the container).
 494:d:/software/ovi_2503a_s3trc/ovi_2503a_s3trc/Tools/MinGW/include/c++/3.3.1/bits/stl_iterator.h ****       */
 495:d:/software/ovi_2503a_s3trc/ovi_2503a_s3trc/Tools/MinGW/include/c++/3.3.1/bits/stl_iterator.h ****       insert_iterator(_Container& __x, typename _Container::iterator __i) 
 496:d:/software/ovi_2503a_s3trc/ovi_2503a_s3trc/Tools/MinGW/include/c++/3.3.1/bits/stl_iterator.h ****       : container(&__x), iter(__i) {}
 497:d:/software/ovi_2503a_s3trc/ovi_2503a_s3trc/Tools/MinGW/include/c++/3.3.1/bits/stl_iterator.h ****    
 498:d:/software/ovi_2503a_s3trc/ovi_2503a_s3trc/Tools/MinGW/include/c++/3.3.1/bits/stl_iterator.h ****       /**
 499:d:/software/ovi_2503a_s3trc/ovi_2503a_s3trc/Tools/MinGW/include/c++/3.3.1/bits/stl_iterator.h ****        *  @param  value  An instance of whatever type
 500:d:/software/ovi_2503a_s3trc/ovi_2503a_s3trc/Tools/MinGW/include/c++/3.3.1/bits/stl_iterator.h ****        *                 container_type::const_reference is; presumably a
 501:d:/software/ovi_2503a_s3trc/ovi_2503a_s3trc/Tools/MinGW/include/c++/3.3.1/bits/stl_iterator.h ****        *                 reference-to-const T for container<T>.
 502:d:/software/ovi_2503a_s3trc/ovi_2503a_s3trc/Tools/MinGW/include/c++/3.3.1/bits/stl_iterator.h ****        *  @return  This %iterator, for chained operations.
 503:d:/software/ovi_2503a_s3trc/ovi_2503a_s3trc/Tools/MinGW/include/c++/3.3.1/bits/stl_iterator.h ****        *
 504:d:/software/ovi_2503a_s3trc/ovi_2503a_s3trc/Tools/MinGW/include/c++/3.3.1/bits/stl_iterator.h ****        *  This kind of %iterator maintains its own position in the
 505:d:/software/ovi_2503a_s3trc/ovi_2503a_s3trc/Tools/MinGW/include/c++/3.3.1/bits/stl_iterator.h ****        *  container.  Assigning a value to the %iterator will insert the
 506:d:/software/ovi_2503a_s3trc/ovi_2503a_s3trc/Tools/MinGW/include/c++/3.3.1/bits/stl_iterator.h ****        *  value into the container at the place before the %iterator.
 507:d:/software/ovi_2503a_s3trc/ovi_2503a_s3trc/Tools/MinGW/include/c++/3.3.1/bits/stl_iterator.h ****        *
 508:d:/software/ovi_2503a_s3trc/ovi_2503a_s3trc/Tools/MinGW/include/c++/3.3.1/bits/stl_iterator.h ****        *  The position is maintained such that subsequent assignments will
 509:d:/software/ovi_2503a_s3trc/ovi_2503a_s3trc/Tools/MinGW/include/c++/3.3.1/bits/stl_iterator.h ****        *  insert values immediately after one another.  For example,
GAS LISTING d:/software/ovi_2503a_s3trc/ovi_2503a_s3trc/plutommi/Customer/ResGenerator/gcctmp/ccgnaaaa.s 			page 278


 510:d:/software/ovi_2503a_s3trc/ovi_2503a_s3trc/Tools/MinGW/include/c++/3.3.1/bits/stl_iterator.h ****        *  @code
 511:d:/software/ovi_2503a_s3trc/ovi_2503a_s3trc/Tools/MinGW/include/c++/3.3.1/bits/stl_iterator.h ****        *     // vector v contains A and Z
 512:d:/software/ovi_2503a_s3trc/ovi_2503a_s3trc/Tools/MinGW/include/c++/3.3.1/bits/stl_iterator.h ****        *
 513:d:/software/ovi_2503a_s3trc/ovi_2503a_s3trc/Tools/MinGW/include/c++/3.3.1/bits/stl_iterator.h ****        *     insert_iterator i (v, ++v.begin());
 514:d:/software/ovi_2503a_s3trc/ovi_2503a_s3trc/Tools/MinGW/include/c++/3.3.1/bits/stl_iterator.h ****        *     i = 1;
 515:d:/software/ovi_2503a_s3trc/ovi_2503a_s3trc/Tools/MinGW/include/c++/3.3.1/bits/stl_iterator.h ****        *     i = 2;
 516:d:/software/ovi_2503a_s3trc/ovi_2503a_s3trc/Tools/MinGW/include/c++/3.3.1/bits/stl_iterator.h ****        *     i = 3;
 517:d:/software/ovi_2503a_s3trc/ovi_2503a_s3trc/Tools/MinGW/include/c++/3.3.1/bits/stl_iterator.h ****        *
 518:d:/software/ovi_2503a_s3trc/ovi_2503a_s3trc/Tools/MinGW/include/c++/3.3.1/bits/stl_iterator.h ****        *     // vector v contains A, 1, 2, 3, and Z
 519:d:/software/ovi_2503a_s3trc/ovi_2503a_s3trc/Tools/MinGW/include/c++/3.3.1/bits/stl_iterator.h ****        *  @endcode
 520:d:/software/ovi_2503a_s3trc/ovi_2503a_s3trc/Tools/MinGW/include/c++/3.3.1/bits/stl_iterator.h ****       */
 521:d:/software/ovi_2503a_s3trc/ovi_2503a_s3trc/Tools/MinGW/include/c++/3.3.1/bits/stl_iterator.h ****       insert_iterator&
 522:d:/software/ovi_2503a_s3trc/ovi_2503a_s3trc/Tools/MinGW/include/c++/3.3.1/bits/stl_iterator.h ****       operator=(const typename _Container::const_reference __value) 
 523:d:/software/ovi_2503a_s3trc/ovi_2503a_s3trc/Tools/MinGW/include/c++/3.3.1/bits/stl_iterator.h ****       { 
 524:d:/software/ovi_2503a_s3trc/ovi_2503a_s3trc/Tools/MinGW/include/c++/3.3.1/bits/stl_iterator.h **** 	iter = container->insert(iter, __value);
 525:d:/software/ovi_2503a_s3trc/ovi_2503a_s3trc/Tools/MinGW/include/c++/3.3.1/bits/stl_iterator.h **** 	++iter;
 526:d:/software/ovi_2503a_s3trc/ovi_2503a_s3trc/Tools/MinGW/include/c++/3.3.1/bits/stl_iterator.h **** 	return *this;
 527:d:/software/ovi_2503a_s3trc/ovi_2503a_s3trc/Tools/MinGW/include/c++/3.3.1/bits/stl_iterator.h ****       }
 528:d:/software/ovi_2503a_s3trc/ovi_2503a_s3trc/Tools/MinGW/include/c++/3.3.1/bits/stl_iterator.h **** 
 529:d:/software/ovi_2503a_s3trc/ovi_2503a_s3trc/Tools/MinGW/include/c++/3.3.1/bits/stl_iterator.h ****       /// Simply returns *this.
 530:d:/software/ovi_2503a_s3trc/ovi_2503a_s3trc/Tools/MinGW/include/c++/3.3.1/bits/stl_iterator.h ****       insert_iterator& 
 531:d:/software/ovi_2503a_s3trc/ovi_2503a_s3trc/Tools/MinGW/include/c++/3.3.1/bits/stl_iterator.h ****       operator*() { return *this; }
 532:d:/software/ovi_2503a_s3trc/ovi_2503a_s3trc/Tools/MinGW/include/c++/3.3.1/bits/stl_iterator.h **** 
 533:d:/software/ovi_2503a_s3trc/ovi_2503a_s3trc/Tools/MinGW/include/c++/3.3.1/bits/stl_iterator.h ****       /// Simply returns *this.  (This %iterator does not "move".)
 534:d:/software/ovi_2503a_s3trc/ovi_2503a_s3trc/Tools/MinGW/include/c++/3.3.1/bits/stl_iterator.h ****       insert_iterator& 
 535:d:/software/ovi_2503a_s3trc/ovi_2503a_s3trc/Tools/MinGW/include/c++/3.3.1/bits/stl_iterator.h ****       operator++() { return *this; }
 536:d:/software/ovi_2503a_s3trc/ovi_2503a_s3trc/Tools/MinGW/include/c++/3.3.1/bits/stl_iterator.h **** 
 537:d:/software/ovi_2503a_s3trc/ovi_2503a_s3trc/Tools/MinGW/include/c++/3.3.1/bits/stl_iterator.h ****       /// Simply returns *this.  (This %iterator does not "move".)
 538:d:/software/ovi_2503a_s3trc/ovi_2503a_s3trc/Tools/MinGW/include/c++/3.3.1/bits/stl_iterator.h ****       insert_iterator& 
 539:d:/software/ovi_2503a_s3trc/ovi_2503a_s3trc/Tools/MinGW/include/c++/3.3.1/bits/stl_iterator.h ****       operator++(int) { return *this; }
 540:d:/software/ovi_2503a_s3trc/ovi_2503a_s3trc/Tools/MinGW/include/c++/3.3.1/bits/stl_iterator.h ****     };
 541:d:/software/ovi_2503a_s3trc/ovi_2503a_s3trc/Tools/MinGW/include/c++/3.3.1/bits/stl_iterator.h ****   
 542:d:/software/ovi_2503a_s3trc/ovi_2503a_s3trc/Tools/MinGW/include/c++/3.3.1/bits/stl_iterator.h ****   /**
 543:d:/software/ovi_2503a_s3trc/ovi_2503a_s3trc/Tools/MinGW/include/c++/3.3.1/bits/stl_iterator.h ****    *  @param  x  A container of arbitrary type.
 544:d:/software/ovi_2503a_s3trc/ovi_2503a_s3trc/Tools/MinGW/include/c++/3.3.1/bits/stl_iterator.h ****    *  @return  An instance of insert_iterator working on @p x.
 545:d:/software/ovi_2503a_s3trc/ovi_2503a_s3trc/Tools/MinGW/include/c++/3.3.1/bits/stl_iterator.h ****    *
 546:d:/software/ovi_2503a_s3trc/ovi_2503a_s3trc/Tools/MinGW/include/c++/3.3.1/bits/stl_iterator.h ****    *  This wrapper function helps in creating insert_iterator instances.
 547:d:/software/ovi_2503a_s3trc/ovi_2503a_s3trc/Tools/MinGW/include/c++/3.3.1/bits/stl_iterator.h ****    *  Typing the name of the %iterator requires knowing the precise full
 548:d:/software/ovi_2503a_s3trc/ovi_2503a_s3trc/Tools/MinGW/include/c++/3.3.1/bits/stl_iterator.h ****    *  type of the container, which can be tedious and impedes generic
 549:d:/software/ovi_2503a_s3trc/ovi_2503a_s3trc/Tools/MinGW/include/c++/3.3.1/bits/stl_iterator.h ****    *  programming.  Using this function lets you take advantage of automatic
 550:d:/software/ovi_2503a_s3trc/ovi_2503a_s3trc/Tools/MinGW/include/c++/3.3.1/bits/stl_iterator.h ****    *  template parameter deduction, making the compiler match the correct
 551:d:/software/ovi_2503a_s3trc/ovi_2503a_s3trc/Tools/MinGW/include/c++/3.3.1/bits/stl_iterator.h ****    *  types for you.
 552:d:/software/ovi_2503a_s3trc/ovi_2503a_s3trc/Tools/MinGW/include/c++/3.3.1/bits/stl_iterator.h ****   */
 553:d:/software/ovi_2503a_s3trc/ovi_2503a_s3trc/Tools/MinGW/include/c++/3.3.1/bits/stl_iterator.h ****   template<typename _Container, typename _Iterator>
 554:d:/software/ovi_2503a_s3trc/ovi_2503a_s3trc/Tools/MinGW/include/c++/3.3.1/bits/stl_iterator.h ****     inline insert_iterator<_Container> 
 555:d:/software/ovi_2503a_s3trc/ovi_2503a_s3trc/Tools/MinGW/include/c++/3.3.1/bits/stl_iterator.h ****     inserter(_Container& __x, _Iterator __i)
 556:d:/software/ovi_2503a_s3trc/ovi_2503a_s3trc/Tools/MinGW/include/c++/3.3.1/bits/stl_iterator.h ****     {
 557:d:/software/ovi_2503a_s3trc/ovi_2503a_s3trc/Tools/MinGW/include/c++/3.3.1/bits/stl_iterator.h ****       return insert_iterator<_Container>(__x, 
 558:d:/software/ovi_2503a_s3trc/ovi_2503a_s3trc/Tools/MinGW/include/c++/3.3.1/bits/stl_iterator.h **** 					 typename _Container::iterator(__i));
 559:d:/software/ovi_2503a_s3trc/ovi_2503a_s3trc/Tools/MinGW/include/c++/3.3.1/bits/stl_iterator.h ****     }
 560:d:/software/ovi_2503a_s3trc/ovi_2503a_s3trc/Tools/MinGW/include/c++/3.3.1/bits/stl_iterator.h **** } // namespace std
 561:d:/software/ovi_2503a_s3trc/ovi_2503a_s3trc/Tools/MinGW/include/c++/3.3.1/bits/stl_iterator.h **** 
 562:d:/software/ovi_2503a_s3trc/ovi_2503a_s3trc/Tools/MinGW/include/c++/3.3.1/bits/stl_iterator.h **** namespace __gnu_cxx
 563:d:/software/ovi_2503a_s3trc/ovi_2503a_s3trc/Tools/MinGW/include/c++/3.3.1/bits/stl_iterator.h **** {  
 564:d:/software/ovi_2503a_s3trc/ovi_2503a_s3trc/Tools/MinGW/include/c++/3.3.1/bits/stl_iterator.h ****   // This iterator adapter is 'normal' in the sense that it does not
 565:d:/software/ovi_2503a_s3trc/ovi_2503a_s3trc/Tools/MinGW/include/c++/3.3.1/bits/stl_iterator.h ****   // change the semantics of any of the operators of its iterator
 566:d:/software/ovi_2503a_s3trc/ovi_2503a_s3trc/Tools/MinGW/include/c++/3.3.1/bits/stl_iterator.h ****   // parameter.  Its primary purpose is to convert an iterator that is
GAS LISTING d:/software/ovi_2503a_s3trc/ovi_2503a_s3trc/plutommi/Customer/ResGenerator/gcctmp/ccgnaaaa.s 			page 279


 567:d:/software/ovi_2503a_s3trc/ovi_2503a_s3trc/Tools/MinGW/include/c++/3.3.1/bits/stl_iterator.h ****   // not a class, e.g. a pointer, into an iterator that is a class.
 568:d:/software/ovi_2503a_s3trc/ovi_2503a_s3trc/Tools/MinGW/include/c++/3.3.1/bits/stl_iterator.h ****   // The _Container parameter exists solely so that different containers
 569:d:/software/ovi_2503a_s3trc/ovi_2503a_s3trc/Tools/MinGW/include/c++/3.3.1/bits/stl_iterator.h ****   // using this template can instantiate different types, even if the
 570:d:/software/ovi_2503a_s3trc/ovi_2503a_s3trc/Tools/MinGW/include/c++/3.3.1/bits/stl_iterator.h ****   // _Iterator parameter is the same.
 571:d:/software/ovi_2503a_s3trc/ovi_2503a_s3trc/Tools/MinGW/include/c++/3.3.1/bits/stl_iterator.h ****   using std::iterator_traits;
 572:d:/software/ovi_2503a_s3trc/ovi_2503a_s3trc/Tools/MinGW/include/c++/3.3.1/bits/stl_iterator.h ****   using std::iterator;
 573:d:/software/ovi_2503a_s3trc/ovi_2503a_s3trc/Tools/MinGW/include/c++/3.3.1/bits/stl_iterator.h ****   template<typename _Iterator, typename _Container>
 574:d:/software/ovi_2503a_s3trc/ovi_2503a_s3trc/Tools/MinGW/include/c++/3.3.1/bits/stl_iterator.h ****     class __normal_iterator
 575:d:/software/ovi_2503a_s3trc/ovi_2503a_s3trc/Tools/MinGW/include/c++/3.3.1/bits/stl_iterator.h ****       : public iterator<typename iterator_traits<_Iterator>::iterator_category,
 576:d:/software/ovi_2503a_s3trc/ovi_2503a_s3trc/Tools/MinGW/include/c++/3.3.1/bits/stl_iterator.h ****                         typename iterator_traits<_Iterator>::value_type,
 577:d:/software/ovi_2503a_s3trc/ovi_2503a_s3trc/Tools/MinGW/include/c++/3.3.1/bits/stl_iterator.h ****                         typename iterator_traits<_Iterator>::difference_type,
 578:d:/software/ovi_2503a_s3trc/ovi_2503a_s3trc/Tools/MinGW/include/c++/3.3.1/bits/stl_iterator.h ****                         typename iterator_traits<_Iterator>::pointer,
 579:d:/software/ovi_2503a_s3trc/ovi_2503a_s3trc/Tools/MinGW/include/c++/3.3.1/bits/stl_iterator.h ****                         typename iterator_traits<_Iterator>::reference>
 580:d:/software/ovi_2503a_s3trc/ovi_2503a_s3trc/Tools/MinGW/include/c++/3.3.1/bits/stl_iterator.h ****     {
 581:d:/software/ovi_2503a_s3trc/ovi_2503a_s3trc/Tools/MinGW/include/c++/3.3.1/bits/stl_iterator.h ****     protected:
 582:d:/software/ovi_2503a_s3trc/ovi_2503a_s3trc/Tools/MinGW/include/c++/3.3.1/bits/stl_iterator.h ****       _Iterator _M_current;
 583:d:/software/ovi_2503a_s3trc/ovi_2503a_s3trc/Tools/MinGW/include/c++/3.3.1/bits/stl_iterator.h ****       
 584:d:/software/ovi_2503a_s3trc/ovi_2503a_s3trc/Tools/MinGW/include/c++/3.3.1/bits/stl_iterator.h ****     public:
 585:d:/software/ovi_2503a_s3trc/ovi_2503a_s3trc/Tools/MinGW/include/c++/3.3.1/bits/stl_iterator.h ****       typedef typename iterator_traits<_Iterator>::difference_type 	
 586:d:/software/ovi_2503a_s3trc/ovi_2503a_s3trc/Tools/MinGW/include/c++/3.3.1/bits/stl_iterator.h ****       							       difference_type;
 587:d:/software/ovi_2503a_s3trc/ovi_2503a_s3trc/Tools/MinGW/include/c++/3.3.1/bits/stl_iterator.h ****       typedef typename iterator_traits<_Iterator>::reference   reference;
 588:d:/software/ovi_2503a_s3trc/ovi_2503a_s3trc/Tools/MinGW/include/c++/3.3.1/bits/stl_iterator.h ****       typedef typename iterator_traits<_Iterator>::pointer     pointer;
 589:d:/software/ovi_2503a_s3trc/ovi_2503a_s3trc/Tools/MinGW/include/c++/3.3.1/bits/stl_iterator.h **** 
 590:d:/software/ovi_2503a_s3trc/ovi_2503a_s3trc/Tools/MinGW/include/c++/3.3.1/bits/stl_iterator.h ****       __normal_iterator() : _M_current(_Iterator()) { }
 591:d:/software/ovi_2503a_s3trc/ovi_2503a_s3trc/Tools/MinGW/include/c++/3.3.1/bits/stl_iterator.h **** 
 592:d:/software/ovi_2503a_s3trc/ovi_2503a_s3trc/Tools/MinGW/include/c++/3.3.1/bits/stl_iterator.h ****       explicit 
 593:d:/software/ovi_2503a_s3trc/ovi_2503a_s3trc/Tools/MinGW/include/c++/3.3.1/bits/stl_iterator.h ****       __normal_iterator(const _Iterator& __i) : _M_current(__i) { }
 11392              	LM922:
 11393 0000 55       		pushl	%ebp
 11394 0001 89E5     		movl	%esp, %ebp
 11395 0003 83EC08   		subl	$8, %esp
 11397              	LM923:
 11398              	LBB116:
 11399 0006 8B4508   		movl	8(%ebp), %eax
 11400 0009 890424   		movl	%eax, (%esp)
 11401 000c E8000000 		call	__ZNSt8iteratorISt26random_access_iterator_tagP15ResFileGenParamiPKS2_RS3_EC2Ev
 11401      00
 11402 0011 8B5508   		movl	8(%ebp), %edx
 11403 0014 8B450C   		movl	12(%ebp), %eax
 11404 0017 8B00     		movl	(%eax), %eax
 11405 0019 8902     		movl	%eax, (%edx)
 11406 001b C9       		leave
 11407 001c C3       		ret
 11408              	LBE116:
 11409              	Lscope58:
 11411 001d 909090   		.section	.text$_ZNKSt6vectorIP15ResFileGenParamSaIS1_EE3endEv,"x"
 11412              		.linkonce discard
 11413              		.align 2
 11416              	.globl __ZNKSt6vectorIP15ResFileGenParamSaIS1_EE3endEv
 11418              	__ZNKSt6vectorIP15ResFileGenParamSaIS1_EE3endEv:
 11420              	Ltext8:
 11422              	LM924:
 11423 0000 55       		pushl	%ebp
 11424 0001 89E5     		movl	%esp, %ebp
 11425 0003 83EC18   		subl	$24, %esp
 11427              	LM925:
 11428              	LBB117:
GAS LISTING d:/software/ovi_2503a_s3trc/ovi_2503a_s3trc/plutommi/Customer/ResGenerator/gcctmp/ccgnaaaa.s 			page 280


 11429 0006 8B4508   		movl	8(%ebp), %eax
 11430 0009 8B4004   		movl	4(%eax), %eax
 11431 000c 8945F8   		movl	%eax, -8(%ebp)
 11432 000f 8D45F8   		leal	-8(%ebp), %eax
 11433 0012 89442404 		movl	%eax, 4(%esp)
 11434 0016 8D45FC   		leal	-4(%ebp), %eax
 11435 0019 890424   		movl	%eax, (%esp)
 11436 001c E8000000 		call	__ZN9__gnu_cxx17__normal_iteratorIPKP15ResFileGenParamSt6vectorIS2_SaIS2_EEEC1ERKS4_
 11436      00
 11437 0021 8B45FC   		movl	-4(%ebp), %eax
 11438 0024 C9       		leave
 11439 0025 C3       		ret
 11440              	LBE117:
 11441              	Lscope59:
 11443 0026 9090     		.section	.text$_ZN9__gnu_cxxmiIPKP15ResFileGenParamS4_St6vectorIS2_SaIS2_EEEENS_17__normal_iterato
 11444              		.linkonce discard
 11445              		.align 2
 11449              	.globl __ZN9__gnu_cxxmiIPKP15ResFileGenParamS4_St6vectorIS2_SaIS2_EEEENS_17__normal_iteratorIT_T1_E
 11451              	__ZN9__gnu_cxxmiIPKP15ResFileGenParamS4_St6vectorIS2_SaIS2_EEEENS_17__normal_iteratorIT_T1_E15diffe
 11453              	Ltext9:
 594:d:/software/ovi_2503a_s3trc/ovi_2503a_s3trc/Tools/MinGW/include/c++/3.3.1/bits/stl_iterator.h **** 
 595:d:/software/ovi_2503a_s3trc/ovi_2503a_s3trc/Tools/MinGW/include/c++/3.3.1/bits/stl_iterator.h ****       // Allow iterator to const_iterator conversion
 596:d:/software/ovi_2503a_s3trc/ovi_2503a_s3trc/Tools/MinGW/include/c++/3.3.1/bits/stl_iterator.h ****       template<typename _Iter>
 597:d:/software/ovi_2503a_s3trc/ovi_2503a_s3trc/Tools/MinGW/include/c++/3.3.1/bits/stl_iterator.h ****       inline __normal_iterator(const __normal_iterator<_Iter, _Container>& __i)
 598:d:/software/ovi_2503a_s3trc/ovi_2503a_s3trc/Tools/MinGW/include/c++/3.3.1/bits/stl_iterator.h **** 	: _M_current(__i.base()) { }
 599:d:/software/ovi_2503a_s3trc/ovi_2503a_s3trc/Tools/MinGW/include/c++/3.3.1/bits/stl_iterator.h **** 
 600:d:/software/ovi_2503a_s3trc/ovi_2503a_s3trc/Tools/MinGW/include/c++/3.3.1/bits/stl_iterator.h ****       // Forward iterator requirements
 601:d:/software/ovi_2503a_s3trc/ovi_2503a_s3trc/Tools/MinGW/include/c++/3.3.1/bits/stl_iterator.h ****       reference
 602:d:/software/ovi_2503a_s3trc/ovi_2503a_s3trc/Tools/MinGW/include/c++/3.3.1/bits/stl_iterator.h ****       operator*() const { return *_M_current; }
 603:d:/software/ovi_2503a_s3trc/ovi_2503a_s3trc/Tools/MinGW/include/c++/3.3.1/bits/stl_iterator.h ****       
 604:d:/software/ovi_2503a_s3trc/ovi_2503a_s3trc/Tools/MinGW/include/c++/3.3.1/bits/stl_iterator.h ****       pointer
 605:d:/software/ovi_2503a_s3trc/ovi_2503a_s3trc/Tools/MinGW/include/c++/3.3.1/bits/stl_iterator.h ****       operator->() const { return _M_current; }
 606:d:/software/ovi_2503a_s3trc/ovi_2503a_s3trc/Tools/MinGW/include/c++/3.3.1/bits/stl_iterator.h ****       
 607:d:/software/ovi_2503a_s3trc/ovi_2503a_s3trc/Tools/MinGW/include/c++/3.3.1/bits/stl_iterator.h ****       __normal_iterator&
 608:d:/software/ovi_2503a_s3trc/ovi_2503a_s3trc/Tools/MinGW/include/c++/3.3.1/bits/stl_iterator.h ****       operator++() { ++_M_current; return *this; }
 609:d:/software/ovi_2503a_s3trc/ovi_2503a_s3trc/Tools/MinGW/include/c++/3.3.1/bits/stl_iterator.h ****       
 610:d:/software/ovi_2503a_s3trc/ovi_2503a_s3trc/Tools/MinGW/include/c++/3.3.1/bits/stl_iterator.h ****       __normal_iterator
 611:d:/software/ovi_2503a_s3trc/ovi_2503a_s3trc/Tools/MinGW/include/c++/3.3.1/bits/stl_iterator.h ****       operator++(int) { return __normal_iterator(_M_current++); }
 612:d:/software/ovi_2503a_s3trc/ovi_2503a_s3trc/Tools/MinGW/include/c++/3.3.1/bits/stl_iterator.h ****       
 613:d:/software/ovi_2503a_s3trc/ovi_2503a_s3trc/Tools/MinGW/include/c++/3.3.1/bits/stl_iterator.h ****       // Bidirectional iterator requirements
 614:d:/software/ovi_2503a_s3trc/ovi_2503a_s3trc/Tools/MinGW/include/c++/3.3.1/bits/stl_iterator.h ****       __normal_iterator&
 615:d:/software/ovi_2503a_s3trc/ovi_2503a_s3trc/Tools/MinGW/include/c++/3.3.1/bits/stl_iterator.h ****       operator--() { --_M_current; return *this; }
 616:d:/software/ovi_2503a_s3trc/ovi_2503a_s3trc/Tools/MinGW/include/c++/3.3.1/bits/stl_iterator.h ****       
 617:d:/software/ovi_2503a_s3trc/ovi_2503a_s3trc/Tools/MinGW/include/c++/3.3.1/bits/stl_iterator.h ****       __normal_iterator
 618:d:/software/ovi_2503a_s3trc/ovi_2503a_s3trc/Tools/MinGW/include/c++/3.3.1/bits/stl_iterator.h ****       operator--(int) { return __normal_iterator(_M_current--); }
 619:d:/software/ovi_2503a_s3trc/ovi_2503a_s3trc/Tools/MinGW/include/c++/3.3.1/bits/stl_iterator.h ****       
 620:d:/software/ovi_2503a_s3trc/ovi_2503a_s3trc/Tools/MinGW/include/c++/3.3.1/bits/stl_iterator.h ****       // Random access iterator requirements
 621:d:/software/ovi_2503a_s3trc/ovi_2503a_s3trc/Tools/MinGW/include/c++/3.3.1/bits/stl_iterator.h ****       reference
 622:d:/software/ovi_2503a_s3trc/ovi_2503a_s3trc/Tools/MinGW/include/c++/3.3.1/bits/stl_iterator.h ****       operator[](const difference_type& __n) const
 623:d:/software/ovi_2503a_s3trc/ovi_2503a_s3trc/Tools/MinGW/include/c++/3.3.1/bits/stl_iterator.h ****       { return _M_current[__n]; }
 624:d:/software/ovi_2503a_s3trc/ovi_2503a_s3trc/Tools/MinGW/include/c++/3.3.1/bits/stl_iterator.h ****       
 625:d:/software/ovi_2503a_s3trc/ovi_2503a_s3trc/Tools/MinGW/include/c++/3.3.1/bits/stl_iterator.h ****       __normal_iterator&
 626:d:/software/ovi_2503a_s3trc/ovi_2503a_s3trc/Tools/MinGW/include/c++/3.3.1/bits/stl_iterator.h ****       operator+=(const difference_type& __n)
 627:d:/software/ovi_2503a_s3trc/ovi_2503a_s3trc/Tools/MinGW/include/c++/3.3.1/bits/stl_iterator.h ****       { _M_current += __n; return *this; }
 628:d:/software/ovi_2503a_s3trc/ovi_2503a_s3trc/Tools/MinGW/include/c++/3.3.1/bits/stl_iterator.h **** 
 629:d:/software/ovi_2503a_s3trc/ovi_2503a_s3trc/Tools/MinGW/include/c++/3.3.1/bits/stl_iterator.h ****       __normal_iterator
 630:d:/software/ovi_2503a_s3trc/ovi_2503a_s3trc/Tools/MinGW/include/c++/3.3.1/bits/stl_iterator.h ****       operator+(const difference_type& __n) const
GAS LISTING d:/software/ovi_2503a_s3trc/ovi_2503a_s3trc/plutommi/Customer/ResGenerator/gcctmp/ccgnaaaa.s 			page 281


 631:d:/software/ovi_2503a_s3trc/ovi_2503a_s3trc/Tools/MinGW/include/c++/3.3.1/bits/stl_iterator.h ****       { return __normal_iterator(_M_current + __n); }
 632:d:/software/ovi_2503a_s3trc/ovi_2503a_s3trc/Tools/MinGW/include/c++/3.3.1/bits/stl_iterator.h ****       
 633:d:/software/ovi_2503a_s3trc/ovi_2503a_s3trc/Tools/MinGW/include/c++/3.3.1/bits/stl_iterator.h ****       __normal_iterator&
 634:d:/software/ovi_2503a_s3trc/ovi_2503a_s3trc/Tools/MinGW/include/c++/3.3.1/bits/stl_iterator.h ****       operator-=(const difference_type& __n)
 635:d:/software/ovi_2503a_s3trc/ovi_2503a_s3trc/Tools/MinGW/include/c++/3.3.1/bits/stl_iterator.h ****       { _M_current -= __n; return *this; }
 636:d:/software/ovi_2503a_s3trc/ovi_2503a_s3trc/Tools/MinGW/include/c++/3.3.1/bits/stl_iterator.h ****       
 637:d:/software/ovi_2503a_s3trc/ovi_2503a_s3trc/Tools/MinGW/include/c++/3.3.1/bits/stl_iterator.h ****       __normal_iterator
 638:d:/software/ovi_2503a_s3trc/ovi_2503a_s3trc/Tools/MinGW/include/c++/3.3.1/bits/stl_iterator.h ****       operator-(const difference_type& __n) const
 639:d:/software/ovi_2503a_s3trc/ovi_2503a_s3trc/Tools/MinGW/include/c++/3.3.1/bits/stl_iterator.h ****       { return __normal_iterator(_M_current - __n); }
 640:d:/software/ovi_2503a_s3trc/ovi_2503a_s3trc/Tools/MinGW/include/c++/3.3.1/bits/stl_iterator.h ****       
 641:d:/software/ovi_2503a_s3trc/ovi_2503a_s3trc/Tools/MinGW/include/c++/3.3.1/bits/stl_iterator.h ****       const _Iterator& 
 642:d:/software/ovi_2503a_s3trc/ovi_2503a_s3trc/Tools/MinGW/include/c++/3.3.1/bits/stl_iterator.h ****       base() const { return _M_current; }
 643:d:/software/ovi_2503a_s3trc/ovi_2503a_s3trc/Tools/MinGW/include/c++/3.3.1/bits/stl_iterator.h ****     };
 644:d:/software/ovi_2503a_s3trc/ovi_2503a_s3trc/Tools/MinGW/include/c++/3.3.1/bits/stl_iterator.h **** 
 645:d:/software/ovi_2503a_s3trc/ovi_2503a_s3trc/Tools/MinGW/include/c++/3.3.1/bits/stl_iterator.h ****   // Note: In what follows, the left- and right-hand-side iterators are
 646:d:/software/ovi_2503a_s3trc/ovi_2503a_s3trc/Tools/MinGW/include/c++/3.3.1/bits/stl_iterator.h ****   // allowed to vary in types (conceptually in cv-qualification) so that
 647:d:/software/ovi_2503a_s3trc/ovi_2503a_s3trc/Tools/MinGW/include/c++/3.3.1/bits/stl_iterator.h ****   // comparaison between cv-qualified and non-cv-qualified iterators be
 648:d:/software/ovi_2503a_s3trc/ovi_2503a_s3trc/Tools/MinGW/include/c++/3.3.1/bits/stl_iterator.h ****   // valid.  However, the greedy and unfriendly operators in std::rel_ops
 649:d:/software/ovi_2503a_s3trc/ovi_2503a_s3trc/Tools/MinGW/include/c++/3.3.1/bits/stl_iterator.h ****   // will make overload resolution ambiguous (when in scope) if we don't
 650:d:/software/ovi_2503a_s3trc/ovi_2503a_s3trc/Tools/MinGW/include/c++/3.3.1/bits/stl_iterator.h ****   // provide overloads whose operands are of the same type.  Can someone
 651:d:/software/ovi_2503a_s3trc/ovi_2503a_s3trc/Tools/MinGW/include/c++/3.3.1/bits/stl_iterator.h ****   // remind me what generic programming is about? -- Gaby
 652:d:/software/ovi_2503a_s3trc/ovi_2503a_s3trc/Tools/MinGW/include/c++/3.3.1/bits/stl_iterator.h ****   
 653:d:/software/ovi_2503a_s3trc/ovi_2503a_s3trc/Tools/MinGW/include/c++/3.3.1/bits/stl_iterator.h ****   // Forward iterator requirements
 654:d:/software/ovi_2503a_s3trc/ovi_2503a_s3trc/Tools/MinGW/include/c++/3.3.1/bits/stl_iterator.h ****   template<typename _IteratorL, typename _IteratorR, typename _Container>
 655:d:/software/ovi_2503a_s3trc/ovi_2503a_s3trc/Tools/MinGW/include/c++/3.3.1/bits/stl_iterator.h ****   inline bool
 656:d:/software/ovi_2503a_s3trc/ovi_2503a_s3trc/Tools/MinGW/include/c++/3.3.1/bits/stl_iterator.h ****   operator==(const __normal_iterator<_IteratorL, _Container>& __lhs,
 657:d:/software/ovi_2503a_s3trc/ovi_2503a_s3trc/Tools/MinGW/include/c++/3.3.1/bits/stl_iterator.h **** 	     const __normal_iterator<_IteratorR, _Container>& __rhs)
 658:d:/software/ovi_2503a_s3trc/ovi_2503a_s3trc/Tools/MinGW/include/c++/3.3.1/bits/stl_iterator.h ****   { return __lhs.base() == __rhs.base(); }
 659:d:/software/ovi_2503a_s3trc/ovi_2503a_s3trc/Tools/MinGW/include/c++/3.3.1/bits/stl_iterator.h **** 
 660:d:/software/ovi_2503a_s3trc/ovi_2503a_s3trc/Tools/MinGW/include/c++/3.3.1/bits/stl_iterator.h ****   template<typename _Iterator, typename _Container>
 661:d:/software/ovi_2503a_s3trc/ovi_2503a_s3trc/Tools/MinGW/include/c++/3.3.1/bits/stl_iterator.h ****   inline bool
 662:d:/software/ovi_2503a_s3trc/ovi_2503a_s3trc/Tools/MinGW/include/c++/3.3.1/bits/stl_iterator.h ****   operator==(const __normal_iterator<_Iterator, _Container>& __lhs,
 663:d:/software/ovi_2503a_s3trc/ovi_2503a_s3trc/Tools/MinGW/include/c++/3.3.1/bits/stl_iterator.h ****              const __normal_iterator<_Iterator, _Container>& __rhs)
 664:d:/software/ovi_2503a_s3trc/ovi_2503a_s3trc/Tools/MinGW/include/c++/3.3.1/bits/stl_iterator.h ****   { return __lhs.base() == __rhs.base(); }
 665:d:/software/ovi_2503a_s3trc/ovi_2503a_s3trc/Tools/MinGW/include/c++/3.3.1/bits/stl_iterator.h **** 
 666:d:/software/ovi_2503a_s3trc/ovi_2503a_s3trc/Tools/MinGW/include/c++/3.3.1/bits/stl_iterator.h ****   template<typename _IteratorL, typename _IteratorR, typename _Container>
 667:d:/software/ovi_2503a_s3trc/ovi_2503a_s3trc/Tools/MinGW/include/c++/3.3.1/bits/stl_iterator.h ****   inline bool
 668:d:/software/ovi_2503a_s3trc/ovi_2503a_s3trc/Tools/MinGW/include/c++/3.3.1/bits/stl_iterator.h ****   operator!=(const __normal_iterator<_IteratorL, _Container>& __lhs,
 669:d:/software/ovi_2503a_s3trc/ovi_2503a_s3trc/Tools/MinGW/include/c++/3.3.1/bits/stl_iterator.h **** 	     const __normal_iterator<_IteratorR, _Container>& __rhs)
 670:d:/software/ovi_2503a_s3trc/ovi_2503a_s3trc/Tools/MinGW/include/c++/3.3.1/bits/stl_iterator.h ****   { return __lhs.base() != __rhs.base(); }
 671:d:/software/ovi_2503a_s3trc/ovi_2503a_s3trc/Tools/MinGW/include/c++/3.3.1/bits/stl_iterator.h **** 
 672:d:/software/ovi_2503a_s3trc/ovi_2503a_s3trc/Tools/MinGW/include/c++/3.3.1/bits/stl_iterator.h ****   template<typename _Iterator, typename _Container>
 673:d:/software/ovi_2503a_s3trc/ovi_2503a_s3trc/Tools/MinGW/include/c++/3.3.1/bits/stl_iterator.h ****   inline bool
 674:d:/software/ovi_2503a_s3trc/ovi_2503a_s3trc/Tools/MinGW/include/c++/3.3.1/bits/stl_iterator.h ****   operator!=(const __normal_iterator<_Iterator, _Container>& __lhs,
 675:d:/software/ovi_2503a_s3trc/ovi_2503a_s3trc/Tools/MinGW/include/c++/3.3.1/bits/stl_iterator.h ****              const __normal_iterator<_Iterator, _Container>& __rhs)
 676:d:/software/ovi_2503a_s3trc/ovi_2503a_s3trc/Tools/MinGW/include/c++/3.3.1/bits/stl_iterator.h ****   { return __lhs.base() != __rhs.base(); }
 677:d:/software/ovi_2503a_s3trc/ovi_2503a_s3trc/Tools/MinGW/include/c++/3.3.1/bits/stl_iterator.h **** 
 678:d:/software/ovi_2503a_s3trc/ovi_2503a_s3trc/Tools/MinGW/include/c++/3.3.1/bits/stl_iterator.h ****   // Random access iterator requirements
 679:d:/software/ovi_2503a_s3trc/ovi_2503a_s3trc/Tools/MinGW/include/c++/3.3.1/bits/stl_iterator.h ****   template<typename _IteratorL, typename _IteratorR, typename _Container>
 680:d:/software/ovi_2503a_s3trc/ovi_2503a_s3trc/Tools/MinGW/include/c++/3.3.1/bits/stl_iterator.h ****   inline bool 
 681:d:/software/ovi_2503a_s3trc/ovi_2503a_s3trc/Tools/MinGW/include/c++/3.3.1/bits/stl_iterator.h ****   operator<(const __normal_iterator<_IteratorL, _Container>& __lhs,
 682:d:/software/ovi_2503a_s3trc/ovi_2503a_s3trc/Tools/MinGW/include/c++/3.3.1/bits/stl_iterator.h **** 	    const __normal_iterator<_IteratorR, _Container>& __rhs)
 683:d:/software/ovi_2503a_s3trc/ovi_2503a_s3trc/Tools/MinGW/include/c++/3.3.1/bits/stl_iterator.h ****   { return __lhs.base() < __rhs.base(); }
 684:d:/software/ovi_2503a_s3trc/ovi_2503a_s3trc/Tools/MinGW/include/c++/3.3.1/bits/stl_iterator.h **** 
 685:d:/software/ovi_2503a_s3trc/ovi_2503a_s3trc/Tools/MinGW/include/c++/3.3.1/bits/stl_iterator.h ****   template<typename _Iterator, typename _Container>
 686:d:/software/ovi_2503a_s3trc/ovi_2503a_s3trc/Tools/MinGW/include/c++/3.3.1/bits/stl_iterator.h ****   inline bool
 687:d:/software/ovi_2503a_s3trc/ovi_2503a_s3trc/Tools/MinGW/include/c++/3.3.1/bits/stl_iterator.h ****   operator<(const __normal_iterator<_Iterator, _Container>& __lhs,
GAS LISTING d:/software/ovi_2503a_s3trc/ovi_2503a_s3trc/plutommi/Customer/ResGenerator/gcctmp/ccgnaaaa.s 			page 282


 688:d:/software/ovi_2503a_s3trc/ovi_2503a_s3trc/Tools/MinGW/include/c++/3.3.1/bits/stl_iterator.h ****              const __normal_iterator<_Iterator, _Container>& __rhs)
 689:d:/software/ovi_2503a_s3trc/ovi_2503a_s3trc/Tools/MinGW/include/c++/3.3.1/bits/stl_iterator.h ****   { return __lhs.base() < __rhs.base(); }
 690:d:/software/ovi_2503a_s3trc/ovi_2503a_s3trc/Tools/MinGW/include/c++/3.3.1/bits/stl_iterator.h **** 
 691:d:/software/ovi_2503a_s3trc/ovi_2503a_s3trc/Tools/MinGW/include/c++/3.3.1/bits/stl_iterator.h ****   template<typename _IteratorL, typename _IteratorR, typename _Container>
 692:d:/software/ovi_2503a_s3trc/ovi_2503a_s3trc/Tools/MinGW/include/c++/3.3.1/bits/stl_iterator.h ****   inline bool
 693:d:/software/ovi_2503a_s3trc/ovi_2503a_s3trc/Tools/MinGW/include/c++/3.3.1/bits/stl_iterator.h ****   operator>(const __normal_iterator<_IteratorL, _Container>& __lhs,
 694:d:/software/ovi_2503a_s3trc/ovi_2503a_s3trc/Tools/MinGW/include/c++/3.3.1/bits/stl_iterator.h **** 	    const __normal_iterator<_IteratorR, _Container>& __rhs)
 695:d:/software/ovi_2503a_s3trc/ovi_2503a_s3trc/Tools/MinGW/include/c++/3.3.1/bits/stl_iterator.h ****   { return __lhs.base() > __rhs.base(); }
 696:d:/software/ovi_2503a_s3trc/ovi_2503a_s3trc/Tools/MinGW/include/c++/3.3.1/bits/stl_iterator.h **** 
 697:d:/software/ovi_2503a_s3trc/ovi_2503a_s3trc/Tools/MinGW/include/c++/3.3.1/bits/stl_iterator.h ****   template<typename _Iterator, typename _Container>
 698:d:/software/ovi_2503a_s3trc/ovi_2503a_s3trc/Tools/MinGW/include/c++/3.3.1/bits/stl_iterator.h ****   inline bool
 699:d:/software/ovi_2503a_s3trc/ovi_2503a_s3trc/Tools/MinGW/include/c++/3.3.1/bits/stl_iterator.h ****   operator>(const __normal_iterator<_Iterator, _Container>& __lhs,
 700:d:/software/ovi_2503a_s3trc/ovi_2503a_s3trc/Tools/MinGW/include/c++/3.3.1/bits/stl_iterator.h **** 	    const __normal_iterator<_Iterator, _Container>& __rhs)
 701:d:/software/ovi_2503a_s3trc/ovi_2503a_s3trc/Tools/MinGW/include/c++/3.3.1/bits/stl_iterator.h ****   { return __lhs.base() > __rhs.base(); }
 702:d:/software/ovi_2503a_s3trc/ovi_2503a_s3trc/Tools/MinGW/include/c++/3.3.1/bits/stl_iterator.h **** 
 703:d:/software/ovi_2503a_s3trc/ovi_2503a_s3trc/Tools/MinGW/include/c++/3.3.1/bits/stl_iterator.h ****   template<typename _IteratorL, typename _IteratorR, typename _Container>
 704:d:/software/ovi_2503a_s3trc/ovi_2503a_s3trc/Tools/MinGW/include/c++/3.3.1/bits/stl_iterator.h ****   inline bool
 705:d:/software/ovi_2503a_s3trc/ovi_2503a_s3trc/Tools/MinGW/include/c++/3.3.1/bits/stl_iterator.h ****   operator<=(const __normal_iterator<_IteratorL, _Container>& __lhs,
 706:d:/software/ovi_2503a_s3trc/ovi_2503a_s3trc/Tools/MinGW/include/c++/3.3.1/bits/stl_iterator.h **** 	     const __normal_iterator<_IteratorR, _Container>& __rhs)
 707:d:/software/ovi_2503a_s3trc/ovi_2503a_s3trc/Tools/MinGW/include/c++/3.3.1/bits/stl_iterator.h ****   { return __lhs.base() <= __rhs.base(); }
 708:d:/software/ovi_2503a_s3trc/ovi_2503a_s3trc/Tools/MinGW/include/c++/3.3.1/bits/stl_iterator.h **** 
 709:d:/software/ovi_2503a_s3trc/ovi_2503a_s3trc/Tools/MinGW/include/c++/3.3.1/bits/stl_iterator.h ****   template<typename _Iterator, typename _Container>
 710:d:/software/ovi_2503a_s3trc/ovi_2503a_s3trc/Tools/MinGW/include/c++/3.3.1/bits/stl_iterator.h ****   inline bool
 711:d:/software/ovi_2503a_s3trc/ovi_2503a_s3trc/Tools/MinGW/include/c++/3.3.1/bits/stl_iterator.h ****   operator<=(const __normal_iterator<_Iterator, _Container>& __lhs,
 712:d:/software/ovi_2503a_s3trc/ovi_2503a_s3trc/Tools/MinGW/include/c++/3.3.1/bits/stl_iterator.h **** 	     const __normal_iterator<_Iterator, _Container>& __rhs)
 713:d:/software/ovi_2503a_s3trc/ovi_2503a_s3trc/Tools/MinGW/include/c++/3.3.1/bits/stl_iterator.h ****   { return __lhs.base() <= __rhs.base(); }
 714:d:/software/ovi_2503a_s3trc/ovi_2503a_s3trc/Tools/MinGW/include/c++/3.3.1/bits/stl_iterator.h **** 
 715:d:/software/ovi_2503a_s3trc/ovi_2503a_s3trc/Tools/MinGW/include/c++/3.3.1/bits/stl_iterator.h ****   template<typename _IteratorL, typename _IteratorR, typename _Container>
 716:d:/software/ovi_2503a_s3trc/ovi_2503a_s3trc/Tools/MinGW/include/c++/3.3.1/bits/stl_iterator.h ****   inline bool
 717:d:/software/ovi_2503a_s3trc/ovi_2503a_s3trc/Tools/MinGW/include/c++/3.3.1/bits/stl_iterator.h ****   operator>=(const __normal_iterator<_IteratorL, _Container>& __lhs,
 718:d:/software/ovi_2503a_s3trc/ovi_2503a_s3trc/Tools/MinGW/include/c++/3.3.1/bits/stl_iterator.h **** 	     const __normal_iterator<_IteratorR, _Container>& __rhs)
 719:d:/software/ovi_2503a_s3trc/ovi_2503a_s3trc/Tools/MinGW/include/c++/3.3.1/bits/stl_iterator.h ****   { return __lhs.base() >= __rhs.base(); }
 720:d:/software/ovi_2503a_s3trc/ovi_2503a_s3trc/Tools/MinGW/include/c++/3.3.1/bits/stl_iterator.h **** 
 721:d:/software/ovi_2503a_s3trc/ovi_2503a_s3trc/Tools/MinGW/include/c++/3.3.1/bits/stl_iterator.h ****   template<typename _Iterator, typename _Container>
 722:d:/software/ovi_2503a_s3trc/ovi_2503a_s3trc/Tools/MinGW/include/c++/3.3.1/bits/stl_iterator.h ****   inline bool
 723:d:/software/ovi_2503a_s3trc/ovi_2503a_s3trc/Tools/MinGW/include/c++/3.3.1/bits/stl_iterator.h ****   operator>=(const __normal_iterator<_Iterator, _Container>& __lhs,
 724:d:/software/ovi_2503a_s3trc/ovi_2503a_s3trc/Tools/MinGW/include/c++/3.3.1/bits/stl_iterator.h **** 	     const __normal_iterator<_Iterator, _Container>& __rhs)
 725:d:/software/ovi_2503a_s3trc/ovi_2503a_s3trc/Tools/MinGW/include/c++/3.3.1/bits/stl_iterator.h ****   { return __lhs.base() >= __rhs.base(); }
 726:d:/software/ovi_2503a_s3trc/ovi_2503a_s3trc/Tools/MinGW/include/c++/3.3.1/bits/stl_iterator.h **** 
 727:d:/software/ovi_2503a_s3trc/ovi_2503a_s3trc/Tools/MinGW/include/c++/3.3.1/bits/stl_iterator.h ****   // _GLIBCPP_RESOLVE_LIB_DEFECTS
 728:d:/software/ovi_2503a_s3trc/ovi_2503a_s3trc/Tools/MinGW/include/c++/3.3.1/bits/stl_iterator.h ****   // According to the resolution of DR179 not only the various comparison
 729:d:/software/ovi_2503a_s3trc/ovi_2503a_s3trc/Tools/MinGW/include/c++/3.3.1/bits/stl_iterator.h ****   // operators but also operator- must accept mixed iterator/const_iterator
 730:d:/software/ovi_2503a_s3trc/ovi_2503a_s3trc/Tools/MinGW/include/c++/3.3.1/bits/stl_iterator.h ****   // parameters.
 731:d:/software/ovi_2503a_s3trc/ovi_2503a_s3trc/Tools/MinGW/include/c++/3.3.1/bits/stl_iterator.h ****   template<typename _IteratorL, typename _IteratorR, typename _Container>
 732:d:/software/ovi_2503a_s3trc/ovi_2503a_s3trc/Tools/MinGW/include/c++/3.3.1/bits/stl_iterator.h ****   inline typename __normal_iterator<_IteratorL, _Container>::difference_type
 733:d:/software/ovi_2503a_s3trc/ovi_2503a_s3trc/Tools/MinGW/include/c++/3.3.1/bits/stl_iterator.h ****   operator-(const __normal_iterator<_IteratorL, _Container>& __lhs,
 734:d:/software/ovi_2503a_s3trc/ovi_2503a_s3trc/Tools/MinGW/include/c++/3.3.1/bits/stl_iterator.h **** 	     const __normal_iterator<_IteratorR, _Container>& __rhs)
 735:d:/software/ovi_2503a_s3trc/ovi_2503a_s3trc/Tools/MinGW/include/c++/3.3.1/bits/stl_iterator.h ****   { return __lhs.base() - __rhs.base(); }
 11455              	LM926:
 11456 0000 55       		pushl	%ebp
 11457 0001 89E5     		movl	%esp, %ebp
 11458 0003 53       		pushl	%ebx
 11459 0004 83EC04   		subl	$4, %esp
 11461              	LM927:
 11462              	LBB118:
 11463 0007 8B4508   		movl	8(%ebp), %eax
 11464 000a 890424   		movl	%eax, (%esp)
GAS LISTING d:/software/ovi_2503a_s3trc/ovi_2503a_s3trc/plutommi/Customer/ResGenerator/gcctmp/ccgnaaaa.s 			page 283


 11465 000d E8000000 		call	__ZNK9__gnu_cxx17__normal_iteratorIPKP15ResFileGenParamSt6vectorIS2_SaIS2_EEE4baseEv
 11465      00
 11466 0012 89C3     		movl	%eax, %ebx
 11467 0014 8B450C   		movl	12(%ebp), %eax
 11468 0017 890424   		movl	%eax, (%esp)
 11469 001a E8000000 		call	__ZNK9__gnu_cxx17__normal_iteratorIPKP15ResFileGenParamSt6vectorIS2_SaIS2_EEE4baseEv
 11469      00
 11470 001f 8B10     		movl	(%eax), %edx
 11471 0021 8B03     		movl	(%ebx), %eax
 11472 0023 29D0     		subl	%edx, %eax
 11473 0025 C1F802   		sarl	$2, %eax
 11474 0028 83C404   		addl	$4, %esp
 11475 002b 5B       		popl	%ebx
 11476 002c 5D       		popl	%ebp
 11477 002d C3       		ret
 11478              	LBE118:
 11479              	Lscope60:
 11481 002e 9090     		.section	.text$_ZNK9__gnu_cxx17__normal_iteratorIPKP15ResFileGenParamSt6vectorIS2_SaIS2_EEE4baseEv
 11482              		.linkonce discard
 11483              		.align 2
 11486              	.globl __ZNK9__gnu_cxx17__normal_iteratorIPKP15ResFileGenParamSt6vectorIS2_SaIS2_EEE4baseEv
 11488              	__ZNK9__gnu_cxx17__normal_iteratorIPKP15ResFileGenParamSt6vectorIS2_SaIS2_EEE4baseEv:
 11490              	LM928:
 11491 0000 55       		pushl	%ebp
 11492 0001 89E5     		movl	%esp, %ebp
 11494              	LM929:
 11495              	LBB119:
 11496 0003 8B4508   		movl	8(%ebp), %eax
 11497 0006 5D       		popl	%ebp
 11498 0007 C3       		ret
 11499              	LBE119:
 11500              	Lscope61:
 11502              		.section	.text$_ZNSt6vectorIP15ResFileGenParamSaIS1_EE5beginEv,"x"
 11503              		.linkonce discard
 11504              		.align 2
 11507              	.globl __ZNSt6vectorIP15ResFileGenParamSaIS1_EE5beginEv
 11509              	__ZNSt6vectorIP15ResFileGenParamSaIS1_EE5beginEv:
 11511              	Ltext10:
 11513              	LM930:
 11514 0000 55       		pushl	%ebp
 11515 0001 89E5     		movl	%esp, %ebp
 11516 0003 83EC18   		subl	$24, %esp
 11518              	LM931:
 11519              	LBB120:
 11520 0006 8B4508   		movl	8(%ebp), %eax
 11521 0009 89442404 		movl	%eax, 4(%esp)
 11522 000d 8D45FC   		leal	-4(%ebp), %eax
 11523 0010 890424   		movl	%eax, (%esp)
 11524 0013 E8000000 		call	__ZN9__gnu_cxx17__normal_iteratorIPP15ResFileGenParamSt6vectorIS2_SaIS2_EEEC1ERKS3_
 11524      00
 11525 0018 8B45FC   		movl	-4(%ebp), %eax
 11526 001b C9       		leave
 11527 001c C3       		ret
 11528              	LBE120:
 11529              	Lscope62:
 11531 001d 909090   		.section	.text$_ZN9__gnu_cxx17__normal_iteratorIPP15ResFileGenParamSt6vectorIS2_SaIS2_EEEC1ERKS3_,
 11532              		.linkonce discard
GAS LISTING d:/software/ovi_2503a_s3trc/ovi_2503a_s3trc/plutommi/Customer/ResGenerator/gcctmp/ccgnaaaa.s 			page 284


 11533              		.align 2
 11537              	.globl __ZN9__gnu_cxx17__normal_iteratorIPP15ResFileGenParamSt6vectorIS2_SaIS2_EEEC1ERKS3_
 11539              	__ZN9__gnu_cxx17__normal_iteratorIPP15ResFileGenParamSt6vectorIS2_SaIS2_EEEC1ERKS3_:
 11541              	Ltext11:
 11543              	LM932:
 11544 0000 55       		pushl	%ebp
 11545 0001 89E5     		movl	%esp, %ebp
 11546 0003 83EC08   		subl	$8, %esp
 11548              	LM933:
 11549              	LBB121:
 11550 0006 8B4508   		movl	8(%ebp), %eax
 11551 0009 890424   		movl	%eax, (%esp)
 11552 000c E8000000 		call	__ZNSt8iteratorISt26random_access_iterator_tagP15ResFileGenParamiPS2_RS2_EC2Ev
 11552      00
 11553 0011 8B5508   		movl	8(%ebp), %edx
 11554 0014 8B450C   		movl	12(%ebp), %eax
 11555 0017 8B00     		movl	(%eax), %eax
 11556 0019 8902     		movl	%eax, (%edx)
 11557 001b C9       		leave
 11558 001c C3       		ret
 11559              	LBE121:
 11560              	Lscope63:
 11562 001d 909090   		.section	.text$_ZNK9__gnu_cxx17__normal_iteratorIPP15ResFileGenParamSt6vectorIS2_SaIS2_EEEplERKi,"
 11563              		.linkonce discard
 11564              		.align 2
 11568              	.globl __ZNK9__gnu_cxx17__normal_iteratorIPP15ResFileGenParamSt6vectorIS2_SaIS2_EEEplERKi
 11570              	__ZNK9__gnu_cxx17__normal_iteratorIPP15ResFileGenParamSt6vectorIS2_SaIS2_EEEplERKi:
 11572              	LM934:
 11573 0000 55       		pushl	%ebp
 11574 0001 89E5     		movl	%esp, %ebp
 11575 0003 83EC18   		subl	$24, %esp
 11577              	LM935:
 11578              	LBB122:
 11579 0006 8B5508   		movl	8(%ebp), %edx
 11580 0009 8B450C   		movl	12(%ebp), %eax
 11581 000c 8B00     		movl	(%eax), %eax
 11582 000e C1E002   		sall	$2, %eax
 11583 0011 0302     		addl	(%edx), %eax
 11584 0013 8945F8   		movl	%eax, -8(%ebp)
 11585 0016 8D45F8   		leal	-8(%ebp), %eax
 11586 0019 89442404 		movl	%eax, 4(%esp)
 11587 001d 8D45FC   		leal	-4(%ebp), %eax
 11588 0020 890424   		movl	%eax, (%esp)
 11589 0023 E8000000 		call	__ZN9__gnu_cxx17__normal_iteratorIPP15ResFileGenParamSt6vectorIS2_SaIS2_EEEC1ERKS3_
 11589      00
 11590 0028 8B45FC   		movl	-4(%ebp), %eax
 11591 002b C9       		leave
 11592 002c C3       		ret
 11593              	LBE122:
 11594              	Lscope64:
 11596 002d 909090   		.section	.text$_ZNK9__gnu_cxx17__normal_iteratorIPP15ResFileGenParamSt6vectorIS2_SaIS2_EEEdeEv,"x"
 11597              		.linkonce discard
 11598              		.align 2
 11601              	.globl __ZNK9__gnu_cxx17__normal_iteratorIPP15ResFileGenParamSt6vectorIS2_SaIS2_EEEdeEv
 11603              	__ZNK9__gnu_cxx17__normal_iteratorIPP15ResFileGenParamSt6vectorIS2_SaIS2_EEEdeEv:
 11605              	LM936:
 11606 0000 55       		pushl	%ebp
GAS LISTING d:/software/ovi_2503a_s3trc/ovi_2503a_s3trc/plutommi/Customer/ResGenerator/gcctmp/ccgnaaaa.s 			page 285


 11607 0001 89E5     		movl	%esp, %ebp
 11609              	LM937:
 11610              	LBB123:
 11611 0003 8B4508   		movl	8(%ebp), %eax
 11612 0006 8B00     		movl	(%eax), %eax
 11613 0008 5D       		popl	%ebp
 11614 0009 C3       		ret
 11615              	LBE123:
 11616              	Lscope65:
 11618              	.globl __ZTV26OfflineResPopStringAdaptor
 11619 000a 9090     		.section	.rdata$_ZTV26OfflineResPopStringAdaptor,""
 11620              		.linkonce same_size
 11621              		.align 8
 11622              	__ZTV26OfflineResPopStringAdaptor:
 11623 0000 00000000 		.long	0
 11624 0004 00000000 		.long	__ZTI26OfflineResPopStringAdaptor
 11625 0008 00000000 		.long	__ZN20OfflineResPopAdaptor8populateEv
 11626 000c 00000000 		.long	__ZN20OfflineResPopAdaptor14setResPopModelEP13ResParamModel
 11627 0010 00000000 		.long	__ZN20OfflineResPopAdaptor14getResPopModelEv
 11628 0014 00000000 		.long	__ZN26OfflineResPopStringAdaptor21issueLecacyPopulationEP11ResPopParam
 11630              	.globl __ZTV25OfflineResPopImageAdaptor
 11631              		.section	.rdata$_ZTV25OfflineResPopImageAdaptor,""
 11632              		.linkonce same_size
 11633              		.align 8
 11634              	__ZTV25OfflineResPopImageAdaptor:
 11635 0000 00000000 		.long	0
 11636 0004 00000000 		.long	__ZTI25OfflineResPopImageAdaptor
 11637 0008 00000000 		.long	__ZN20OfflineResPopAdaptor8populateEv
 11638 000c 00000000 		.long	__ZN20OfflineResPopAdaptor14setResPopModelEP13ResParamModel
 11639 0010 00000000 		.long	__ZN20OfflineResPopAdaptor14getResPopModelEv
 11640 0014 00000000 		.long	__ZN25OfflineResPopImageAdaptor21issueLecacyPopulationEP11ResPopParam
 11642              	.globl __ZTV25OfflineResPopAudioAdaptor
 11643              		.section	.rdata$_ZTV25OfflineResPopAudioAdaptor,""
 11644              		.linkonce same_size
 11645              		.align 8
 11646              	__ZTV25OfflineResPopAudioAdaptor:
 11647 0000 00000000 		.long	0
 11648 0004 00000000 		.long	__ZTI25OfflineResPopAudioAdaptor
 11649 0008 00000000 		.long	__ZN20OfflineResPopAdaptor8populateEv
 11650 000c 00000000 		.long	__ZN20OfflineResPopAdaptor14setResPopModelEP13ResParamModel
 11651 0010 00000000 		.long	__ZN20OfflineResPopAdaptor14getResPopModelEv
 11652 0014 00000000 		.long	__ZN25OfflineResPopAudioAdaptor21issueLecacyPopulationEP11ResPopParam
 11655              		.section	.text$_ZN16ParamTextFileDAOC2Ev,"x"
 11656              		.linkonce discard
 11657              		.align 2
 11660              	.globl __ZN16ParamTextFileDAOC2Ev
 11662              	__ZN16ParamTextFileDAOC2Ev:
 11664              	Ltext12:
 11666              	LM938:
 11667 0000 55       		pushl	%ebp
 11668 0001 89E5     		movl	%esp, %ebp
 11670              	LM939:
 11671              	LBB124:
 11672 0003 8B4508   		movl	8(%ebp), %eax
 11673 0006 C7000800 		movl	$__ZTV16ParamTextFileDAO+8, (%eax)
 11673      0000
 11674 000c 5D       		popl	%ebp
GAS LISTING d:/software/ovi_2503a_s3trc/ovi_2503a_s3trc/plutommi/Customer/ResGenerator/gcctmp/ccgnaaaa.s 			page 286


 11675 000d C3       		ret
 11676              	L453:
 11677              	L452:
 11678              	LBE124:
 11679              	Lscope66:
 11681 000e 9090     		.section	.text$_ZN20OfflineResPopAdaptorC2Ev,"x"
 11682              		.linkonce discard
 11683              		.align 2
 11686              	.globl __ZN20OfflineResPopAdaptorC2Ev
 11688              	__ZN20OfflineResPopAdaptorC2Ev:
 11690              	LM940:
 11691 0000 55       		pushl	%ebp
 11692 0001 89E5     		movl	%esp, %ebp
 11693 0003 83EC08   		subl	$8, %esp
 11695              	LM941:
 11696              	LBB125:
 11697 0006 8B4508   		movl	8(%ebp), %eax
 11698 0009 890424   		movl	%eax, (%esp)
 11699 000c E8000000 		call	__ZN19OfflineResPopulatorC2Ev
 11699      00
 11700 0011 8B4508   		movl	8(%ebp), %eax
 11701 0014 C7000800 		movl	$__ZTV20OfflineResPopAdaptor+8, (%eax)
 11701      0000
 11702 001a C9       		leave
 11703 001b C3       		ret
 11704              	L456:
 11705              	L455:
 11706              	LBE125:
 11707              	Lscope67:
 11709              		.text
 11710 923b 908D7426 		.align 32
 11710      00
 11711              	LC367:
 11712 9240 4552524F 		.ascii "ERROR!! _audioParam can't be NULL\0"
 11712      52212120 
 11712      5F617564 
 11712      696F5061 
 11712      72616D20 
 11713              		.section	.text$_ZN25OfflineResPopAudioAdaptor21issueLecacyPopulationEP11ResPopParam,"x"
 11714              		.linkonce discard
 11715              		.align 2
 11719              	.globl __ZN25OfflineResPopAudioAdaptor21issueLecacyPopulationEP11ResPopParam
 11721              	__ZN25OfflineResPopAudioAdaptor21issueLecacyPopulationEP11ResPopParam:
 11723              	LM942:
 11724 0000 55       		pushl	%ebp
 11725 0001 89E5     		movl	%esp, %ebp
 11726 0003 56       		pushl	%esi
 11727 0004 53       		pushl	%ebx
 11728 0005 83EC30   		subl	$48, %esp
 11730              	LM943:
 11731              	LBB126:
 11732 0008 C745F400 		movl	$0, -12(%ebp)
 11732      000000
 11734              	LM944:
 11735 000f C745F000 		movl	$0, -16(%ebp)
 11735      000000
 11737              	LM945:
GAS LISTING d:/software/ovi_2503a_s3trc/ovi_2503a_s3trc/plutommi/Customer/ResGenerator/gcctmp/ccgnaaaa.s 			page 287


 11738 0016 8B450C   		movl	12(%ebp), %eax
 11739 0019 8945EC   		movl	%eax, -20(%ebp)
 11741              	LM946:
 11742 001c 837D0C00 		cmpl	$0, 12(%ebp)
 11743 0020 7530     		jne	L459
 11745              	LM947:
 11746 0022 C7442404 		movl	$LC367, 4(%esp)
 11746      40920000 
 11747 002a C7042400 		movl	$__ZSt4cout, (%esp)
 11747      000000
 11748 0031 E8000000 		call	__ZStlsISt11char_traitsIcEERSt13basic_ostreamIcT_ES5_PKc
 11748      00
 11749 0036 C7442404 		movl	$__ZSt4endlIcSt11char_traitsIcEERSt13basic_ostreamIT_T0_ES6_, 4(%esp)
 11749      00000000 
 11750 003e 890424   		movl	%eax, (%esp)
 11751 0041 E8000000 		call	__ZNSolsEPFRSoS_E
 11751      00
 11753              	LM948:
 11754 0046 C745E8FF 		movl	$-1, -24(%ebp)
 11754      FFFFFF
 11755 004d E93A0100 		jmp	L458
 11755      00
 11756              	L459:
 11758              	LM949:
 11759 0052 8B45EC   		movl	-20(%ebp), %eax
 11760 0055 890424   		movl	%eax, (%esp)
 11761 0058 E8000000 		call	__ZN13AudioResParam16getAudioFilePathEv
 11761      00
 11762 005d 890424   		movl	%eax, (%esp)
 11763 0060 E8000000 		call	__ZNKSs4sizeEv
 11763      00
 11764 0065 40       		incl	%eax
 11765 0066 890424   		movl	%eax, (%esp)
 11766 0069 E8000000 		call	__Znaj
 11766      00
 11767 006e 8945F4   		movl	%eax, -12(%ebp)
 11769              	LM950:
 11770 0071 8B45EC   		movl	-20(%ebp), %eax
 11771 0074 890424   		movl	%eax, (%esp)
 11772 0077 E8000000 		call	__ZN11ResPopParam15getIdEnumStringEv
 11772      00
 11773 007c 890424   		movl	%eax, (%esp)
 11774 007f E8000000 		call	__ZNKSs4sizeEv
 11774      00
 11775 0084 40       		incl	%eax
 11776 0085 890424   		movl	%eax, (%esp)
 11777 0088 E8000000 		call	__Znaj
 11777      00
 11778 008d 8945F0   		movl	%eax, -16(%ebp)
 11780              	LM951:
 11781 0090 8B45EC   		movl	-20(%ebp), %eax
 11782 0093 890424   		movl	%eax, (%esp)
 11783 0096 E8000000 		call	__ZN13AudioResParam16getAudioFilePathEv
 11783      00
 11784 009b 890424   		movl	%eax, (%esp)
 11785 009e E8000000 		call	__ZNKSs5c_strEv
 11785      00
GAS LISTING d:/software/ovi_2503a_s3trc/ovi_2503a_s3trc/plutommi/Customer/ResGenerator/gcctmp/ccgnaaaa.s 			page 288


 11786 00a3 89442404 		movl	%eax, 4(%esp)
 11787 00a7 8B45F4   		movl	-12(%ebp), %eax
 11788 00aa 890424   		movl	%eax, (%esp)
 11789 00ad E8000000 		call	_strcpy
 11789      00
 11791              	LM952:
 11792 00b2 8B45EC   		movl	-20(%ebp), %eax
 11793 00b5 890424   		movl	%eax, (%esp)
 11794 00b8 E8000000 		call	__ZN11ResPopParam15getIdEnumStringEv
 11794      00
 11795 00bd 890424   		movl	%eax, (%esp)
 11796 00c0 E8000000 		call	__ZNKSs5c_strEv
 11796      00
 11797 00c5 89442404 		movl	%eax, 4(%esp)
 11798 00c9 8B45F0   		movl	-16(%ebp), %eax
 11799 00cc 890424   		movl	%eax, (%esp)
 11800 00cf E8000000 		call	_strcpy
 11800      00
 11802              	LM953:
 11803 00d4 8B45EC   		movl	-20(%ebp), %eax
 11804 00d7 890424   		movl	%eax, (%esp)
 11805 00da E8000000 		call	__ZN13AudioResParam12getForceTypeEv
 11805      00
 11806 00df 3DFE0000 		cmpl	$254, %eax
 11806      00
 11807 00e4 7E37     		jle	L460
 11809              	LM954:
 11810 00e6 8B45EC   		movl	-20(%ebp), %eax
 11811 00e9 890424   		movl	%eax, (%esp)
 11812 00ec E8000000 		call	__ZN13AudioResParam16getIsMultipleBinEv
 11812      00
 11813 00f1 89C3     		movl	%eax, %ebx
 11814 00f3 8B45EC   		movl	-20(%ebp), %eax
 11815 00f6 890424   		movl	%eax, (%esp)
 11816 00f9 E8000000 		call	__ZN11ResPopParam14getIdEnumValueEv
 11816      00
 11817 00fe 0FB7D0   		movzwl	%ax, %edx
 11818 0101 895C240C 		movl	%ebx, 12(%esp)
 11819 0105 8B45F0   		movl	-16(%ebp), %eax
 11820 0108 89442408 		movl	%eax, 8(%esp)
 11821 010c 8B45F4   		movl	-12(%ebp), %eax
 11822 010f 89442404 		movl	%eax, 4(%esp)
 11823 0113 891424   		movl	%edx, (%esp)
 11824 0116 E8000000 		call	_SetAudioWithBuffer
 11824      00
 11825 011b EB46     		jmp	L461
 11826              	L460:
 11828              	LM955:
 11829 011d 8B45EC   		movl	-20(%ebp), %eax
 11830 0120 890424   		movl	%eax, (%esp)
 11831 0123 E8000000 		call	__ZN13AudioResParam12getForceTypeEv
 11831      00
 11832 0128 89C3     		movl	%eax, %ebx
 11833 012a 8B45EC   		movl	-20(%ebp), %eax
 11834 012d 890424   		movl	%eax, (%esp)
 11835 0130 E8000000 		call	__ZN13AudioResParam16getIsMultipleBinEv
 11835      00
GAS LISTING d:/software/ovi_2503a_s3trc/ovi_2503a_s3trc/plutommi/Customer/ResGenerator/gcctmp/ccgnaaaa.s 			page 289


 11836 0135 89C6     		movl	%eax, %esi
 11837 0137 8B45EC   		movl	-20(%ebp), %eax
 11838 013a 890424   		movl	%eax, (%esp)
 11839 013d E8000000 		call	__ZN11ResPopParam14getIdEnumValueEv
 11839      00
 11840 0142 0FB7D0   		movzwl	%ax, %edx
 11841 0145 895C2410 		movl	%ebx, 16(%esp)
 11842 0149 8974240C 		movl	%esi, 12(%esp)
 11843 014d 8B45F0   		movl	-16(%ebp), %eax
 11844 0150 89442408 		movl	%eax, 8(%esp)
 11845 0154 8B45F4   		movl	-12(%ebp), %eax
 11846 0157 89442404 		movl	%eax, 4(%esp)
 11847 015b 891424   		movl	%edx, (%esp)
 11848 015e E8000000 		call	_SetAudioWithBufferForceType
 11848      00
 11849              	L461:
 11851              	LM956:
 11852 0163 837DF400 		cmpl	$0, -12(%ebp)
 11853 0167 740B     		je	L463
 11854 0169 8B45F4   		movl	-12(%ebp), %eax
 11855 016c 890424   		movl	%eax, (%esp)
 11856 016f E8000000 		call	__ZdaPv
 11856      00
 11857              	L463:
 11859              	LM957:
 11860 0174 837DF000 		cmpl	$0, -16(%ebp)
 11861 0178 740B     		je	L465
 11862 017a 8B45F0   		movl	-16(%ebp), %eax
 11863 017d 890424   		movl	%eax, (%esp)
 11864 0180 E8000000 		call	__ZdaPv
 11864      00
 11865              	L465:
 11867              	LM958:
 11868 0185 C745E800 		movl	$0, -24(%ebp)
 11868      000000
 11870              	LM959:
 11871              	L458:
 11872              	LBE126:
 11873 018c 8B45E8   		movl	-24(%ebp), %eax
 11874 018f 83C430   		addl	$48, %esp
 11875 0192 5B       		popl	%ebx
 11876 0193 5E       		popl	%esi
 11877 0194 5D       		popl	%ebp
 11878 0195 C3       		ret
 11884              	Lscope68:
 11886 0196 9090     		.text
 11887 9262 90909090 		.align 32
 11887      90909090 
 11887      90909090 
 11887      90909090 
 11887      90909090 
 11888              	LC368:
 11889 9280 5B455252 		.ascii "[ERROR] imageParam can't be NULL\0"
 11889      4F525D20 
 11889      696D6167 
 11889      65506172 
 11889      616D2063 
GAS LISTING d:/software/ovi_2503a_s3trc/ovi_2503a_s3trc/plutommi/Customer/ResGenerator/gcctmp/ccgnaaaa.s 			page 290


 11890              		.section	.text$_ZN25OfflineResPopImageAdaptor21issueLecacyPopulationEP11ResPopParam,"x"
 11891              		.linkonce discard
 11892              		.align 2
 11896              	.globl __ZN25OfflineResPopImageAdaptor21issueLecacyPopulationEP11ResPopParam
 11898              	__ZN25OfflineResPopImageAdaptor21issueLecacyPopulationEP11ResPopParam:
 11900              	LM960:
 11901 0000 55       		pushl	%ebp
 11902 0001 89E5     		movl	%esp, %ebp
 11903 0003 56       		pushl	%esi
 11904 0004 53       		pushl	%ebx
 11905 0005 83EC30   		subl	$48, %esp
 11907              	LM961:
 11908              	LBB127:
 11909 0008 C745F400 		movl	$0, -12(%ebp)
 11909      000000
 11911              	LM962:
 11912 000f C745F000 		movl	$0, -16(%ebp)
 11912      000000
 11914              	LM963:
 11915 0016 A1040000 		movl	__ZN25OfflineResPopImageAdaptor33IMAGE_REPLACEBALE_SUPPORT_DISABLEE, %eax
 11915      00
 11916 001b 8945EC   		movl	%eax, -20(%ebp)
 11918              	LM964:
 11919 001e 8B450C   		movl	12(%ebp), %eax
 11920 0021 8945E8   		movl	%eax, -24(%ebp)
 11922              	LM965:
 11923 0024 837DE800 		cmpl	$0, -24(%ebp)
 11924 0028 7530     		jne	L467
 11926              	LM966:
 11927 002a C7442404 		movl	$LC368, 4(%esp)
 11927      80920000 
 11928 0032 C7042400 		movl	$__ZSt4cout, (%esp)
 11928      000000
 11929 0039 E8000000 		call	__ZStlsISt11char_traitsIcEERSt13basic_ostreamIcT_ES5_PKc
 11929      00
 11930 003e C7442404 		movl	$__ZSt4endlIcSt11char_traitsIcEERSt13basic_ostreamIT_T0_ES6_, 4(%esp)
 11930      00000000 
 11931 0046 890424   		movl	%eax, (%esp)
 11932 0049 E8000000 		call	__ZNSolsEPFRSoS_E
 11932      00
 11934              	LM967:
 11935 004e C745E4FF 		movl	$-1, -28(%ebp)
 11935      FFFFFF
 11936 0055 E96E0100 		jmp	L466
 11936      00
 11937              	L467:
 11939              	LM968:
 11940 005a 8B45E8   		movl	-24(%ebp), %eax
 11941 005d 890424   		movl	%eax, (%esp)
 11942 0060 E8000000 		call	__ZN13ImageResParam16getImageFilePathEv
 11942      00
 11943 0065 890424   		movl	%eax, (%esp)
 11944 0068 E8000000 		call	__ZNKSs4sizeEv
 11944      00
 11945 006d 40       		incl	%eax
 11946 006e 890424   		movl	%eax, (%esp)
 11947 0071 E8000000 		call	__Znaj
GAS LISTING d:/software/ovi_2503a_s3trc/ovi_2503a_s3trc/plutommi/Customer/ResGenerator/gcctmp/ccgnaaaa.s 			page 291


 11947      00
 11948 0076 8945F4   		movl	%eax, -12(%ebp)
 11950              	LM969:
 11951 0079 8B45E8   		movl	-24(%ebp), %eax
 11952 007c 890424   		movl	%eax, (%esp)
 11953 007f E8000000 		call	__ZN11ResPopParam15getIdEnumStringEv
 11953      00
 11954 0084 890424   		movl	%eax, (%esp)
 11955 0087 E8000000 		call	__ZNKSs4sizeEv
 11955      00
 11956 008c 40       		incl	%eax
 11957 008d 890424   		movl	%eax, (%esp)
 11958 0090 E8000000 		call	__Znaj
 11958      00
 11959 0095 8945F0   		movl	%eax, -16(%ebp)
 11961              	LM970:
 11962 0098 8B45E8   		movl	-24(%ebp), %eax
 11963 009b 890424   		movl	%eax, (%esp)
 11964 009e E8000000 		call	__ZN13ImageResParam16getImageFilePathEv
 11964      00
 11965 00a3 890424   		movl	%eax, (%esp)
 11966 00a6 E8000000 		call	__ZNKSs5c_strEv
 11966      00
 11967 00ab 89442404 		movl	%eax, 4(%esp)
 11968 00af 8B45F4   		movl	-12(%ebp), %eax
 11969 00b2 890424   		movl	%eax, (%esp)
 11970 00b5 E8000000 		call	_strcpy
 11970      00
 11972              	LM971:
 11973 00ba 8B45E8   		movl	-24(%ebp), %eax
 11974 00bd 890424   		movl	%eax, (%esp)
 11975 00c0 E8000000 		call	__ZN11ResPopParam15getIdEnumStringEv
 11975      00
 11976 00c5 890424   		movl	%eax, (%esp)
 11977 00c8 E8000000 		call	__ZNKSs5c_strEv
 11977      00
 11978 00cd 89442404 		movl	%eax, 4(%esp)
 11979 00d1 8B45F0   		movl	-16(%ebp), %eax
 11980 00d4 890424   		movl	%eax, (%esp)
 11981 00d7 E8000000 		call	_strcpy
 11981      00
 11983              	LM972:
 11984 00dc 8B4508   		movl	8(%ebp), %eax
 11985 00df 8B4008   		movl	8(%eax), %eax
 11986 00e2 3B051400 		cmpl	__ZN25OfflineResPopImageAdaptor32IMAGE_REPLACEBALE_SUPPORT_ENABLEE, %eax
 11986      0000
 11987 00e8 7510     		jne	L468
 11989              	LM973:
 11990 00ea 8B45E8   		movl	-24(%ebp), %eax
 11991 00ed 890424   		movl	%eax, (%esp)
 11992 00f0 E8000000 		call	__ZN13ImageResParam16getIsMultipleBinEv
 11992      00
 11993 00f5 8945EC   		movl	%eax, -20(%ebp)
 11994 00f8 EB08     		jmp	L469
 11995              	L468:
 11997              	LM974:
 11998 00fa A1040000 		movl	__ZN25OfflineResPopImageAdaptor33IMAGE_REPLACEBALE_SUPPORT_DISABLEE, %eax
GAS LISTING d:/software/ovi_2503a_s3trc/ovi_2503a_s3trc/plutommi/Customer/ResGenerator/gcctmp/ccgnaaaa.s 			page 292


 11998      00
 11999 00ff 8945EC   		movl	%eax, -20(%ebp)
 12000              	L469:
 12002              	LM975:
 12003 0102 8B45E8   		movl	-24(%ebp), %eax
 12004 0105 890424   		movl	%eax, (%esp)
 12005 0108 E8000000 		call	__ZN13ImageResParam12getForceTypeEv
 12005      00
 12006 010d 3DFE0000 		cmpl	$254, %eax
 12006      00
 12007 0112 7E3E     		jle	L470
 12009              	LM976:
 12010 0114 8B45E8   		movl	-24(%ebp), %eax
 12011 0117 890424   		movl	%eax, (%esp)
 12012 011a E8000000 		call	__ZN13ImageResParam10getQualityEv
 12012      00
 12013 011f 89C3     		movl	%eax, %ebx
 12014 0121 8B45E8   		movl	-24(%ebp), %eax
 12015 0124 890424   		movl	%eax, (%esp)
 12016 0127 E8000000 		call	__ZN11ResPopParam14getIdEnumValueEv
 12016      00
 12017 012c 0FB7D0   		movzwl	%ax, %edx
 12018 012f 895C2410 		movl	%ebx, 16(%esp)
 12019 0133 8B45EC   		movl	-20(%ebp), %eax
 12020 0136 8944240C 		movl	%eax, 12(%esp)
 12021 013a 8B45F0   		movl	-16(%ebp), %eax
 12022 013d 89442408 		movl	%eax, 8(%esp)
 12023 0141 8B45F4   		movl	-12(%ebp), %eax
 12024 0144 89442404 		movl	%eax, 4(%esp)
 12025 0148 891424   		movl	%edx, (%esp)
 12026 014b E8000000 		call	_SetImageQWithBuffer
 12026      00
 12027 0150 EB4D     		jmp	L471
 12028              	L470:
 12030              	LM977:
 12031 0152 8B45E8   		movl	-24(%ebp), %eax
 12032 0155 890424   		movl	%eax, (%esp)
 12033 0158 E8000000 		call	__ZN13ImageResParam10getQualityEv
 12033      00
 12034 015d 89C3     		movl	%eax, %ebx
 12035 015f 8B45E8   		movl	-24(%ebp), %eax
 12036 0162 890424   		movl	%eax, (%esp)
 12037 0165 E8000000 		call	__ZN13ImageResParam12getForceTypeEv
 12037      00
 12038 016a 89C6     		movl	%eax, %esi
 12039 016c 8B45E8   		movl	-24(%ebp), %eax
 12040 016f 890424   		movl	%eax, (%esp)
 12041 0172 E8000000 		call	__ZN11ResPopParam14getIdEnumValueEv
 12041      00
 12042 0177 0FB7D0   		movzwl	%ax, %edx
 12043 017a 895C2414 		movl	%ebx, 20(%esp)
 12044 017e 89742410 		movl	%esi, 16(%esp)
 12045 0182 8B45EC   		movl	-20(%ebp), %eax
 12046 0185 8944240C 		movl	%eax, 12(%esp)
 12047 0189 8B45F0   		movl	-16(%ebp), %eax
 12048 018c 89442408 		movl	%eax, 8(%esp)
 12049 0190 8B45F4   		movl	-12(%ebp), %eax
GAS LISTING d:/software/ovi_2503a_s3trc/ovi_2503a_s3trc/plutommi/Customer/ResGenerator/gcctmp/ccgnaaaa.s 			page 293


 12050 0193 89442404 		movl	%eax, 4(%esp)
 12051 0197 891424   		movl	%edx, (%esp)
 12052 019a E8000000 		call	_SetImageQWithBufferForceType
 12052      00
 12053              	L471:
 12055              	LM978:
 12056 019f 837DF400 		cmpl	$0, -12(%ebp)
 12057 01a3 740B     		je	L473
 12058 01a5 8B45F4   		movl	-12(%ebp), %eax
 12059 01a8 890424   		movl	%eax, (%esp)
 12060 01ab E8000000 		call	__ZdaPv
 12060      00
 12061              	L473:
 12063              	LM979:
 12064 01b0 837DF000 		cmpl	$0, -16(%ebp)
 12065 01b4 740B     		je	L475
 12066 01b6 8B45F0   		movl	-16(%ebp), %eax
 12067 01b9 890424   		movl	%eax, (%esp)
 12068 01bc E8000000 		call	__ZdaPv
 12068      00
 12069              	L475:
 12071              	LM980:
 12072 01c1 C745E400 		movl	$0, -28(%ebp)
 12072      000000
 12074              	LM981:
 12075              	L466:
 12076              	LBE127:
 12077 01c8 8B45E4   		movl	-28(%ebp), %eax
 12078 01cb 83C430   		addl	$48, %esp
 12079 01ce 5B       		popl	%ebx
 12080 01cf 5E       		popl	%esi
 12081 01d0 5D       		popl	%ebp
 12082 01d1 C3       		ret
 12089              	Lscope69:
 12091 01d2 9090     		.section	.text$_ZN26OfflineResPopStringAdaptor21issueLecacyPopulationEP11ResPopParam,"x"
 12092              		.linkonce discard
 12093              		.align 2
 12097              	.globl __ZN26OfflineResPopStringAdaptor21issueLecacyPopulationEP11ResPopParam
 12099              	__ZN26OfflineResPopStringAdaptor21issueLecacyPopulationEP11ResPopParam:
 12101              	LM982:
 12102 0000 55       		pushl	%ebp
 12103 0001 89E5     		movl	%esp, %ebp
 12104 0003 83EC28   		subl	$40, %esp
 12106              	LM983:
 12107              	LBB128:
 12108 0006 837D0C00 		cmpl	$0, 12(%ebp)
 12109 000a 750C     		jne	L477
 12111              	LM984:
 12112 000c C745F0FF 		movl	$-1, -16(%ebp)
 12112      FFFFFF
 12113 0013 E9D50000 		jmp	L476
 12113      00
 12114              	L477:
 12116              	LM985:
 12117 0018 8B450C   		movl	12(%ebp), %eax
 12118 001b 8945FC   		movl	%eax, -4(%ebp)
 12120              	LM986:
GAS LISTING d:/software/ovi_2503a_s3trc/ovi_2503a_s3trc/plutommi/Customer/ResGenerator/gcctmp/ccgnaaaa.s 			page 294


 12121 001e 8B45FC   		movl	-4(%ebp), %eax
 12122 0021 890424   		movl	%eax, (%esp)
 12123 0024 E8000000 		call	__ZN14StringResParam16getDefaultStringEv
 12123      00
 12124 0029 890424   		movl	%eax, (%esp)
 12125 002c E8000000 		call	__ZNKSs4sizeEv
 12125      00
 12126 0031 40       		incl	%eax
 12127 0032 890424   		movl	%eax, (%esp)
 12128 0035 E8000000 		call	__Znaj
 12128      00
 12129 003a 8945F8   		movl	%eax, -8(%ebp)
 12131              	LM987:
 12132 003d 8B45FC   		movl	-4(%ebp), %eax
 12133 0040 890424   		movl	%eax, (%esp)
 12134 0043 E8000000 		call	__ZN14StringResParam16getDefaultStringEv
 12134      00
 12135 0048 890424   		movl	%eax, (%esp)
 12136 004b E8000000 		call	__ZNKSs5c_strEv
 12136      00
 12137 0050 89442404 		movl	%eax, 4(%esp)
 12138 0054 8B45F8   		movl	-8(%ebp), %eax
 12139 0057 890424   		movl	%eax, (%esp)
 12140 005a E8000000 		call	_strcpy
 12140      00
 12142              	LM988:
 12143 005f 8B45FC   		movl	-4(%ebp), %eax
 12144 0062 890424   		movl	%eax, (%esp)
 12145 0065 E8000000 		call	__ZN11ResPopParam15getIdEnumStringEv
 12145      00
 12146 006a 890424   		movl	%eax, (%esp)
 12147 006d E8000000 		call	__ZNKSs4sizeEv
 12147      00
 12148 0072 40       		incl	%eax
 12149 0073 890424   		movl	%eax, (%esp)
 12150 0076 E8000000 		call	__Znaj
 12150      00
 12151 007b 8945F4   		movl	%eax, -12(%ebp)
 12153              	LM989:
 12154 007e 8B45FC   		movl	-4(%ebp), %eax
 12155 0081 890424   		movl	%eax, (%esp)
 12156 0084 E8000000 		call	__ZN11ResPopParam15getIdEnumStringEv
 12156      00
 12157 0089 890424   		movl	%eax, (%esp)
 12158 008c E8000000 		call	__ZNKSs5c_strEv
 12158      00
 12159 0091 89442404 		movl	%eax, 4(%esp)
 12160 0095 8B45F4   		movl	-12(%ebp), %eax
 12161 0098 890424   		movl	%eax, (%esp)
 12162 009b E8000000 		call	_strcpy
 12162      00
 12164              	LM990:
 12165 00a0 8B45FC   		movl	-4(%ebp), %eax
 12166 00a3 890424   		movl	%eax, (%esp)
 12167 00a6 E8000000 		call	__ZN11ResPopParam14getIdEnumValueEv
 12167      00
 12168 00ab 0FB7D0   		movzwl	%ax, %edx
GAS LISTING d:/software/ovi_2503a_s3trc/ovi_2503a_s3trc/plutommi/Customer/ResGenerator/gcctmp/ccgnaaaa.s 			page 295


 12169 00ae 8B45F4   		movl	-12(%ebp), %eax
 12170 00b1 89442408 		movl	%eax, 8(%esp)
 12171 00b5 8B45F8   		movl	-8(%ebp), %eax
 12172 00b8 89442404 		movl	%eax, 4(%esp)
 12173 00bc 891424   		movl	%edx, (%esp)
 12174 00bf E8000000 		call	_SetString
 12174      00
 12176              	LM991:
 12177 00c4 837DF800 		cmpl	$0, -8(%ebp)
 12178 00c8 740B     		je	L479
 12179 00ca 8B45F8   		movl	-8(%ebp), %eax
 12180 00cd 890424   		movl	%eax, (%esp)
 12181 00d0 E8000000 		call	__ZdaPv
 12181      00
 12182              	L479:
 12184              	LM992:
 12185 00d5 837DF400 		cmpl	$0, -12(%ebp)
 12186 00d9 740B     		je	L481
 12187 00db 8B45F4   		movl	-12(%ebp), %eax
 12188 00de 890424   		movl	%eax, (%esp)
 12189 00e1 E8000000 		call	__ZdaPv
 12189      00
 12190              	L481:
 12192              	LM993:
 12193 00e6 C745F000 		movl	$0, -16(%ebp)
 12193      000000
 12195              	LM994:
 12196              	L476:
 12197              	LBE128:
 12198 00ed 8B45F0   		movl	-16(%ebp), %eax
 12199 00f0 C9       		leave
 12200 00f1 C3       		ret
 12206              	Lscope70:
 12208 00f2 9090     		.text
 12209              	LC369:
 12210 92a1 64657374 		.ascii "dest_file could not open!\12\0"
 12210      5F66696C 
 12210      6520636F 
 12210      756C6420 
 12210      6E6F7420 
 12211              		.section	.text$_ZN24BatchedResFileGenService17initResFileOutputEPc,"x"
 12212              		.linkonce discard
 12213              		.align 2
 12217              	.globl __ZN24BatchedResFileGenService17initResFileOutputEPc
 12219              	__ZN24BatchedResFileGenService17initResFileOutputEPc:
 12221              	LM995:
 12222 0000 55       		pushl	%ebp
 12223 0001 89E5     		movl	%esp, %ebp
 12224 0003 83EC18   		subl	$24, %esp
 12226              	LM996:
 12227              	LBB129:
 12228 0006 C745FC00 		movl	$0, -4(%ebp)
 12228      000000
 12230              	LM997:
 12231 000d C7442404 		movl	$LC42, 4(%esp)
 12231      590C0000 
 12232 0015 8B450C   		movl	12(%ebp), %eax
GAS LISTING d:/software/ovi_2503a_s3trc/ovi_2503a_s3trc/plutommi/Customer/ResGenerator/gcctmp/ccgnaaaa.s 			page 296


 12233 0018 890424   		movl	%eax, (%esp)
 12234 001b E8000000 		call	_fopen
 12234      00
 12235 0020 A3000000 		movl	%eax, _dest_file
 12235      00
 12237              	LM998:
 12238 0025 833D0000 		cmpl	$0, _dest_file
 12238      000000
 12239 002c 752B     		jne	L483
 12241              	LM999:
 12242 002e C745FCFF 		movl	$-1, -4(%ebp)
 12242      FFFFFF
 12244              	LM1000:
 12245 0035 C7442404 		movl	$LC369, 4(%esp)
 12245      A1920000 
 12246 003d C7042400 		movl	$__ZSt4cout, (%esp)
 12246      000000
 12247 0044 E8000000 		call	__ZStlsISt11char_traitsIcEERSt13basic_ostreamIcT_ES5_PKc
 12247      00
 12248 0049 C7442404 		movl	$__ZSt4endlIcSt11char_traitsIcEERSt13basic_ostreamIT_T0_ES6_, 4(%esp)
 12248      00000000 
 12249 0051 890424   		movl	%eax, (%esp)
 12250 0054 E8000000 		call	__ZNSolsEPFRSoS_E
 12250      00
 12251              	L483:
 12253              	LM1001:
 12254 0059 C7050000 		movl	$1, _toolFlag
 12254      00000100 
 12254      0000
 12256              	LM1002:
 12257 0063 E8000000 		call	_ToolPopulateInitial
 12257      00
 12259              	LM1003:
 12260 0068 8B45FC   		movl	-4(%ebp), %eax
 12262              	LM1004:
 12263 006b C9       		leave
 12264 006c C3       		ret
 12265              	LBE129:
 12269              	Lscope71:
 12271 006d 909090   		.section	.text$_ZN24BatchedResFileGenService19deInitResFileOutputEv,"x"
 12272              		.linkonce discard
 12273              		.align 2
 12276              	.globl __ZN24BatchedResFileGenService19deInitResFileOutputEv
 12278              	__ZN24BatchedResFileGenService19deInitResFileOutputEv:
 12280              	LM1005:
 12281 0000 55       		pushl	%ebp
 12282 0001 89E5     		movl	%esp, %ebp
 12283 0003 83EC08   		subl	$8, %esp
 12285              	LM1006:
 12286              	LBB130:
 12287 0006 833D0000 		cmpl	$0, _dest_file
 12287      000000
 12288 000d 740D     		je	L485
 12290              	LM1007:
 12291 000f A1000000 		movl	_dest_file, %eax
 12291      00
 12292 0014 890424   		movl	%eax, (%esp)
GAS LISTING d:/software/ovi_2503a_s3trc/ovi_2503a_s3trc/plutommi/Customer/ResGenerator/gcctmp/ccgnaaaa.s 			page 297


 12293 0017 E8000000 		call	_fclose
 12293      00
 12294              	L485:
 12296              	LM1008:
 12297 001c C7050000 		movl	$0, _dest_file
 12297      00000000 
 12297      0000
 12299              	LM1009:
 12300 0026 B8000000 		movl	$0, %eax
 12300      00
 12302              	LM1010:
 12303 002b C9       		leave
 12304 002c C3       		ret
 12305              	LBE130:
 12306              	Lscope72:
 12308 002d 909090   		.section	.text$_ZNSt8iteratorISt26random_access_iterator_tagP15ResFileGenParamiPKS2_RS3_EC2Ev,"x"
 12309              		.linkonce discard
 12310              		.align 2
 12313              	.globl __ZNSt8iteratorISt26random_access_iterator_tagP15ResFileGenParamiPKS2_RS3_EC2Ev
 12315              	__ZNSt8iteratorISt26random_access_iterator_tagP15ResFileGenParamiPKS2_RS3_EC2Ev:
 12317              	Ltext13:
 12319              	LM1011:
 12320              	L487:
 12321              	L486:
 12322 0000 55       		pushl	%ebp
 12323 0001 89E5     		movl	%esp, %ebp
 12325              	LM1012:
 12326 0003 5D       		popl	%ebp
 12327 0004 C3       		ret
 12328              	Lscope73:
 12330 0005 909090   		.section	.text$_ZNSt8iteratorISt26random_access_iterator_tagP15ResFileGenParamiPS2_RS2_EC2Ev,"x"
 12331              		.linkonce discard
 12332              		.align 2
 12335              	.globl __ZNSt8iteratorISt26random_access_iterator_tagP15ResFileGenParamiPS2_RS2_EC2Ev
 12337              	__ZNSt8iteratorISt26random_access_iterator_tagP15ResFileGenParamiPS2_RS2_EC2Ev:
 12339              	LM1013:
 12340              	L490:
 12341              	L489:
 12342 0000 55       		pushl	%ebp
 12343 0001 89E5     		movl	%esp, %ebp
 12345              	LM1014:
 12346 0003 5D       		popl	%ebp
 12347 0004 C3       		ret
 12348              	Lscope74:
 12350              	.globl __ZTI25OfflineResPopAudioAdaptor
 12351 0005 909090   		.section	.rdata$_ZTI25OfflineResPopAudioAdaptor,""
 12352              		.linkonce same_size
 12353              		.align 4
 12354              	__ZTI25OfflineResPopAudioAdaptor:
 12355 0000 08000000 		.long	__ZTVN10__cxxabiv120__si_class_type_infoE+8
 12356 0004 00000000 		.long	__ZTS25OfflineResPopAudioAdaptor
 12357 0008 00000000 		.long	__ZTI20OfflineResPopAdaptor
 12358              	.globl __ZTI25OfflineResPopImageAdaptor
 12359              		.section	.rdata$_ZTI25OfflineResPopImageAdaptor,""
 12360              		.linkonce same_size
 12361              		.align 4
 12362              	__ZTI25OfflineResPopImageAdaptor:
GAS LISTING d:/software/ovi_2503a_s3trc/ovi_2503a_s3trc/plutommi/Customer/ResGenerator/gcctmp/ccgnaaaa.s 			page 298


 12363 0000 08000000 		.long	__ZTVN10__cxxabiv120__si_class_type_infoE+8
 12364 0004 00000000 		.long	__ZTS25OfflineResPopImageAdaptor
 12365 0008 00000000 		.long	__ZTI20OfflineResPopAdaptor
 12366              	.globl __ZTI26OfflineResPopStringAdaptor
 12367              		.section	.rdata$_ZTI26OfflineResPopStringAdaptor,""
 12368              		.linkonce same_size
 12369              		.align 4
 12370              	__ZTI26OfflineResPopStringAdaptor:
 12371 0000 08000000 		.long	__ZTVN10__cxxabiv120__si_class_type_infoE+8
 12372 0004 00000000 		.long	__ZTS26OfflineResPopStringAdaptor
 12373 0008 00000000 		.long	__ZTI20OfflineResPopAdaptor
 12374              	.globl __ZTS26OfflineResPopStringAdaptor
 12375              		.section	.rdata$_ZTS26OfflineResPopStringAdaptor,""
 12376              		.linkonce same_size
 12377              	__ZTS26OfflineResPopStringAdaptor:
 12378 0000 32364F66 		.ascii "26OfflineResPopStringAdaptor\0"
 12378      666C696E 
 12378      65526573 
 12378      506F7053 
 12378      7472696E 
 12379              	.globl __ZTS25OfflineResPopImageAdaptor
 12380 001d 000000   		.section	.rdata$_ZTS25OfflineResPopImageAdaptor,""
 12381              		.linkonce same_size
 12382              	__ZTS25OfflineResPopImageAdaptor:
 12383 0000 32354F66 		.ascii "25OfflineResPopImageAdaptor\0"
 12383      666C696E 
 12383      65526573 
 12383      506F7049 
 12383      6D616765 
 12384              	.globl __ZTS25OfflineResPopAudioAdaptor
 12385              		.section	.rdata$_ZTS25OfflineResPopAudioAdaptor,""
 12386              		.linkonce same_size
 12387              	__ZTS25OfflineResPopAudioAdaptor:
 12388 0000 32354F66 		.ascii "25OfflineResPopAudioAdaptor\0"
 12388      666C696E 
 12388      65526573 
 12388      506F7041 
 12388      7564696F 
 12389              		.section	.text$_ZN19OfflineResPopulatorC2Ev,"x"
 12390              		.linkonce discard
 12391              		.align 2
 12394              	.globl __ZN19OfflineResPopulatorC2Ev
 12396              	__ZN19OfflineResPopulatorC2Ev:
 12398              	Ltext14:
 12400              	LM1015:
 12401 0000 55       		pushl	%ebp
 12402 0001 89E5     		movl	%esp, %ebp
 12404              	LM1016:
 12405              	LBB131:
 12406 0003 8B4508   		movl	8(%ebp), %eax
 12407 0006 C7000800 		movl	$__ZTV19OfflineResPopulator+8, (%eax)
 12407      0000
 12408 000c 5D       		popl	%ebp
 12409 000d C3       		ret
 12410              	L493:
 12411              	L492:
 12412              	LBE131:
GAS LISTING d:/software/ovi_2503a_s3trc/ovi_2503a_s3trc/plutommi/Customer/ResGenerator/gcctmp/ccgnaaaa.s 			page 299


 12413              	Lscope75:
 12415              	.globl __ZTI20OfflineResPopAdaptor
 12416 000e 9090     		.section	.rdata$_ZTI20OfflineResPopAdaptor,""
 12417              		.linkonce same_size
 12418              		.align 4
 12419              	__ZTI20OfflineResPopAdaptor:
 12420 0000 08000000 		.long	__ZTVN10__cxxabiv120__si_class_type_infoE+8
 12421 0004 00000000 		.long	__ZTS20OfflineResPopAdaptor
 12422 0008 00000000 		.long	__ZTI19OfflineResPopulator
 12423              	.globl __ZTS20OfflineResPopAdaptor
 12424              		.section	.rdata$_ZTS20OfflineResPopAdaptor,""
 12425              		.linkonce same_size
 12426              	__ZTS20OfflineResPopAdaptor:
 12427 0000 32304F66 		.ascii "20OfflineResPopAdaptor\0"
 12427      666C696E 
 12427      65526573 
 12427      506F7041 
 12427      64617074 
 12428              	.globl __ZTV19OfflineResPopulator
 12429 0017 00       		.section	.rdata$_ZTV19OfflineResPopulator,""
 12430              		.linkonce same_size
 12431              		.align 8
 12432              	__ZTV19OfflineResPopulator:
 12433 0000 00000000 		.long	0
 12434 0004 00000000 		.long	__ZTI19OfflineResPopulator
 12435 0008 00000000 		.long	___cxa_pure_virtual
 12436 000c 00000000 		.long	___cxa_pure_virtual
 12437 0010 00000000 		.long	___cxa_pure_virtual
 12438              	.globl __ZTI19OfflineResPopulator
 12439 0014 00000000 		.section	.rdata$_ZTI19OfflineResPopulator,""
 12440              		.linkonce same_size
 12441              		.align 4
 12442              	__ZTI19OfflineResPopulator:
 12443 0000 08000000 		.long	__ZTVN10__cxxabiv117__class_type_infoE+8
 12444 0004 00000000 		.long	__ZTS19OfflineResPopulator
 12445              	.globl __ZTS19OfflineResPopulator
 12446              		.section	.rdata$_ZTS19OfflineResPopulator,""
 12447              		.linkonce same_size
 12448              	__ZTS19OfflineResPopulator:
 12449 0000 31394F66 		.ascii "19OfflineResPopulator\0"
 12449      666C696E 
 12449      65526573 
 12449      506F7075 
 12449      6C61746F 
 12450 0016 0000     		.text
 12451              		.align 2
 12454              	__GLOBAL__I_g_is_clean:
 12456              	LM1017:
 12457 92bc 55       		pushl	%ebp
 12458 92bd 89E5     		movl	%esp, %ebp
 12459 92bf 83EC08   		subl	$8, %esp
 12461              	LM1018:
 12462 92c2 C7442404 		movl	$65535, 4(%esp)
 12462      FFFF0000 
 12463 92ca C7042401 		movl	$1, (%esp)
 12463      000000
 12464 92d1 E8B0FDFF 		call	__Z41__static_initialization_and_destruction_0ii
GAS LISTING d:/software/ovi_2503a_s3trc/ovi_2503a_s3trc/plutommi/Customer/ResGenerator/gcctmp/ccgnaaaa.s 			page 300


 12464      FF
 12465 92d6 C9       		leave
 12466 92d7 C3       		ret
 12467              	Lscope76:
 12469              		.section	.ctors,"w"
 12470              		.align 4
 12471 0000 BC920000 		.long	__GLOBAL__I_g_is_clean
 12472              		.text
 12473              		.align 2
 12476              	__GLOBAL__D_g_is_clean:
 12478              	LM1019:
 12479 92d8 55       		pushl	%ebp
 12480 92d9 89E5     		movl	%esp, %ebp
 12481 92db 83EC08   		subl	$8, %esp
 12483              	LM1020:
 12484 92de C7442404 		movl	$65535, 4(%esp)
 12484      FFFF0000 
 12485 92e6 C7042400 		movl	$0, (%esp)
 12485      000000
 12486 92ed E894FDFF 		call	__Z41__static_initialization_and_destruction_0ii
 12486      FF
 12487 92f2 C9       		leave
 12488 92f3 C3       		ret
 12489              	Lscope77:
 12491              		.section	.dtors,"w"
 12492              		.align 4
 12493 0000 D8920000 		.long	__GLOBAL__D_g_is_clean
 12514              		.text
 12516              	Letext:
GAS LISTING d:/software/ovi_2503a_s3trc/ovi_2503a_s3trc/plutommi/Customer/ResGenerator/gcctmp/ccgnaaaa.s 			page 301


DEFINED SYMBOLS
                            *ABS*:00000000 mtk_resgenerator.cpp
d:/software/ovi_2503a_s3trc/ovi_2503a_s3trc/plutommi/Customer/ResGenerator/gcctmp/ccgnaaaa.s:838    .bss:00000008 __ZSt8__ioinit
d:/software/ovi_2503a_s3trc/ovi_2503a_s3trc/plutommi/Customer/ResGenerator/gcctmp/ccgnaaaa.s:2901   .bss:00000000 _g_is_clean
d:/software/ovi_2503a_s3trc/ovi_2503a_s3trc/plutommi/Customer/ResGenerator/gcctmp/ccgnaaaa.s:2955   .text:00000442 __Z28GenerateENFBAssociatedIDFilev
d:/software/ovi_2503a_s3trc/ovi_2503a_s3trc/plutommi/Customer/ResGenerator/gcctmp/ccgnaaaa.s:3304   .text:0000090e __Z10UnzipImagev
d:/software/ovi_2503a_s3trc/ovi_2503a_s3trc/plutommi/Customer/ResGenerator/gcctmp/ccgnaaaa.s:3483   .text:00000d2a __Z10UnzipAudiov
d:/software/ovi_2503a_s3trc/ovi_2503a_s3trc/plutommi/Customer/ResGenerator/gcctmp/ccgnaaaa.s:3753   .text:000010ba _MtkResgenTrace
d:/software/ovi_2503a_s3trc/ovi_2503a_s3trc/plutommi/Customer/ResGenerator/gcctmp/ccgnaaaa.s:3772   .text:000010c0 __Z21PopulateSearchMap_ExtP13CUSTOM_ID_MAPP20CUSTOM_ID_SEARCH_MAPPtS3_t
d:/software/ovi_2503a_s3trc/ovi_2503a_s3trc/plutommi/Customer/ResGenerator/gcctmp/ccgnaaaa.s:3972   .text:0000127c __Z19PopulateImageSearchv
d:/software/ovi_2503a_s3trc/ovi_2503a_s3trc/plutommi/Customer/ResGenerator/gcctmp/ccgnaaaa.s:4014   .text:0000133c __Z19PopulateAudioSearchv
d:/software/ovi_2503a_s3trc/ovi_2503a_s3trc/plutommi/Customer/ResGenerator/gcctmp/ccgnaaaa.s:4056   .text:000013fa __Z18PopulateFontSearchv
d:/software/ovi_2503a_s3trc/ovi_2503a_s3trc/plutommi/Customer/ResGenerator/gcctmp/ccgnaaaa.s:4163   .text:00001a02 __Z19GenerateResFile_Exti18RESOURCE_TYPE_LISTP16CUSTOM_NAME_LISTtPcS2_S2_S2_S2_S2_S2_S2_j
d:/software/ovi_2503a_s3trc/ovi_2503a_s3trc/plutommi/Customer/ResGenerator/gcctmp/ccgnaaaa.s:4587   .text:00001f84 __Z20GenerateImageResFilev
d:/software/ovi_2503a_s3trc/ovi_2503a_s3trc/plutommi/Customer/ResGenerator/gcctmp/ccgnaaaa.s:4816   .text:000023e4 __Z20GenerateAudioResFilev
d:/software/ovi_2503a_s3trc/ovi_2503a_s3trc/plutommi/Customer/ResGenerator/gcctmp/ccgnaaaa.s:4893   .text:0000260a __Z19GenerateFontResFilev
d:/software/ovi_2503a_s3trc/ovi_2503a_s3trc/plutommi/Customer/ResGenerator/gcctmp/ccgnaaaa.s:4953   .text:000027ee __Z19GenerateMapFile_ExtP13CUSTOM_ID_MAPtPcS1_S1_S1_S1_
d:/software/ovi_2503a_s3trc/ovi_2503a_s3trc/plutommi/Customer/ResGenerator/gcctmp/ccgnaaaa.s:5114   .text:00002a7e __Z20GenerateImageMapFilev
d:/software/ovi_2503a_s3trc/ovi_2503a_s3trc/plutommi/Customer/ResGenerator/gcctmp/ccgnaaaa.s:5182   .text:00002c5e __Z20GenerateAudioMapFilev
d:/software/ovi_2503a_s3trc/ovi_2503a_s3trc/plutommi/Customer/ResGenerator/gcctmp/ccgnaaaa.s:5241   .text:00002dd6 __Z19GenerateFontMapFilev
d:/software/ovi_2503a_s3trc/ovi_2503a_s3trc/plutommi/Customer/ResGenerator/gcctmp/ccgnaaaa.s:5289   .text:00002e70 __Z25GenerateMapSearchFile_ExtP20CUSTOM_ID_SEARCH_MAPtPcS1_S1_S1_
d:/software/ovi_2503a_s3trc/ovi_2503a_s3trc/plutommi/Customer/ResGenerator/gcctmp/ccgnaaaa.s:5429   .text:00003072 __Z26GenerateImageMapSearchFilev
d:/software/ovi_2503a_s3trc/ovi_2503a_s3trc/plutommi/Customer/ResGenerator/gcctmp/ccgnaaaa.s:5485   .text:000031d2 __Z26GenerateAudioMapSearchFilev
d:/software/ovi_2503a_s3trc/ovi_2503a_s3trc/plutommi/Customer/ResGenerator/gcctmp/ccgnaaaa.s:5537   .text:00003314 __Z25GenerateFontMapSearchFilev
d:/software/ovi_2503a_s3trc/ovi_2503a_s3trc/plutommi/Customer/ResGenerator/gcctmp/ccgnaaaa.s:5689   .text:00004980 __Z16GenerateMenuFilet
d:/software/ovi_2503a_s3trc/ovi_2503a_s3trc/plutommi/Customer/ResGenerator/gcctmp/ccgnaaaa.s:6514   .data:00000000 _output_file_name
d:/software/ovi_2503a_s3trc/ovi_2503a_s3trc/plutommi/Customer/ResGenerator/gcctmp/ccgnaaaa.s:6520   .bss:00000018 _ZZ19process_line_bufferPcE5bjump
d:/software/ovi_2503a_s3trc/ovi_2503a_s3trc/plutommi/Customer/ResGenerator/gcctmp/ccgnaaaa.s:6527   .text:00005430 __Z19process_line_bufferPc
d:/software/ovi_2503a_s3trc/ovi_2503a_s3trc/plutommi/Customer/ResGenerator/gcctmp/ccgnaaaa.s:10736  .text:00009233 _REP_HEADER
d:/software/ovi_2503a_s3trc/ovi_2503a_s3trc/plutommi/Customer/ResGenerator/gcctmp/ccgnaaaa.s:10734  .text:00009228 _HEADER
d:/software/ovi_2503a_s3trc/ovi_2503a_s3trc/plutommi/Customer/ResGenerator/gcctmp/ccgnaaaa.s:6696   .bss:00000028 _ZZ16get_file_headersPcPPA1024_cPiE5bjump
d:/software/ovi_2503a_s3trc/ovi_2503a_s3trc/plutommi/Customer/ResGenerator/gcctmp/ccgnaaaa.s:6706   .text:00005558 __Z16get_file_headersPcPPA1024_cPi
d:/software/ovi_2503a_s3trc/ovi_2503a_s3trc/plutommi/Customer/ResGenerator/gcctmp/ccgnaaaa.s:6771   .bss:00000038 _ZZ22generate_img_data_fileP6_iobufPA1024_ciiE5count
d:/software/ovi_2503a_s3trc/ovi_2503a_s3trc/plutommi/Customer/ResGenerator/gcctmp/ccgnaaaa.s:6791   .text:00005696 __Z22generate_img_data_fileP6_iobufPA1024_cii
d:/software/ovi_2503a_s3trc/ovi_2503a_s3trc/plutommi/Customer/ResGenerator/gcctmp/ccgnaaaa.s:7111   .bss:00000048 _ZZ13get_img_countP6_iobufE9const_num
d:/software/ovi_2503a_s3trc/ovi_2503a_s3trc/plutommi/Customer/ResGenerator/gcctmp/ccgnaaaa.s:7119   .text:00005a18 __Z13get_img_countP6_iobuf
d:/software/ovi_2503a_s3trc/ovi_2503a_s3trc/plutommi/Customer/ResGenerator/gcctmp/ccgnaaaa.s:7253   .text:00005e4e __Z19split_img_data_filev
d:/software/ovi_2503a_s3trc/ovi_2503a_s3trc/plutommi/Customer/ResGenerator/gcctmp/ccgnaaaa.s:7619   .data:00000010 _g_error
d:/software/ovi_2503a_s3trc/ovi_2503a_s3trc/plutommi/Customer/ResGenerator/gcctmp/ccgnaaaa.s:7625   .text:00006280 __Z22launch_resgen_servicesv
d:/software/ovi_2503a_s3trc/ovi_2503a_s3trc/plutommi/Customer/ResGenerator/gcctmp/ccgnaaaa.s:7715   .text:0000664c __Z19handle_regen_errorsv
d:/software/ovi_2503a_s3trc/ovi_2503a_s3trc/plutommi/Customer/ResGenerator/gcctmp/ccgnaaaa.s:7870   .text:00006800 __Z18check_fatal_errorsv
d:/software/ovi_2503a_s3trc/ovi_2503a_s3trc/plutommi/Customer/ResGenerator/gcctmp/ccgnaaaa.s:7911   .text:0000682a __Z20stop_resgen_servicesv
d:/software/ovi_2503a_s3trc/ovi_2503a_s3trc/plutommi/Customer/ResGenerator/gcctmp/ccgnaaaa.s:7952   .text:000068cc __Z14resgen_on_exitv
d:/software/ovi_2503a_s3trc/ovi_2503a_s3trc/plutommi/Customer/ResGenerator/gcctmp/ccgnaaaa.s:8017   .text:00006950 __Z14writeLogToFilePcS_i
d:/software/ovi_2503a_s3trc/ovi_2503a_s3trc/plutommi/Customer/ResGenerator/gcctmp/ccgnaaaa.s:8078   .text:000069b6 __Z21CATResourceGenerationv
d:/software/ovi_2503a_s3trc/ovi_2503a_s3trc/plutommi/Customer/ResGenerator/gcctmp/ccgnaaaa.s:8092   .bss:00000004 __ZN25OfflineResPopImageAdaptor33IMAGE_REPLACEBALE_SUPPORT_DISABLEE
d:/software/ovi_2503a_s3trc/ovi_2503a_s3trc/plutommi/Customer/ResGenerator/gcctmp/ccgnaaaa.s:8097   .data:00000014 __ZN25OfflineResPopImageAdaptor32IMAGE_REPLACEBALE_SUPPORT_ENABLEE
d:/software/ovi_2503a_s3trc/ovi_2503a_s3trc/plutommi/Customer/ResGenerator/gcctmp/ccgnaaaa.s:8158   .text:00006f6a __Z23OfflineResPopControllerv
d:/software/ovi_2503a_s3trc/ovi_2503a_s3trc/plutommi/Customer/ResGenerator/gcctmp/ccgnaaaa.s:8395   .text:0000752a __Z23prepare3DMetaPopulationv
d:/software/ovi_2503a_s3trc/ovi_2503a_s3trc/plutommi/Customer/ResGenerator/gcctmp/ccgnaaaa.s:8493   .text:00007df0 __Z19PostRegenOperationsv
d:/software/ovi_2503a_s3trc/ovi_2503a_s3trc/plutommi/Customer/ResGenerator/gcctmp/ccgnaaaa.s:8723   .text:00008680 _main
d:/software/ovi_2503a_s3trc/ovi_2503a_s3trc/plutommi/Customer/ResGenerator/gcctmp/ccgnaaaa.s:9601   .text:00009086 __Z41__static_initialization_and_destruction_0ii
d:/software/ovi_2503a_s3trc/ovi_2503a_s3trc/plutommi/Customer/ResGenerator/gcctmp/ccgnaaaa.s:10670  .text:00009180 _image_resource_info
d:/software/ovi_2503a_s3trc/ovi_2503a_s3trc/plutommi/Customer/ResGenerator/gcctmp/ccgnaaaa.s:10742  .rdata$_ZNSt15basic_streambufIcSt11char_traitsIcEE13_S_pback_sizeE:00000000 __ZNSt15basic_streambufIcSt11char_traitsIcEE13_S_pback_sizeE
d:/software/ovi_2503a_s3trc/ovi_2503a_s3trc/plutommi/Customer/ResGenerator/gcctmp/ccgnaaaa.s:11646  .rdata$_ZTV25OfflineResPopAudioAdaptor:00000000 __ZTV25OfflineResPopAudioAdaptor
d:/software/ovi_2503a_s3trc/ovi_2503a_s3trc/plutommi/Customer/ResGenerator/gcctmp/ccgnaaaa.s:11634  .rdata$_ZTV25OfflineResPopImageAdaptor:00000000 __ZTV25OfflineResPopImageAdaptor
d:/software/ovi_2503a_s3trc/ovi_2503a_s3trc/plutommi/Customer/ResGenerator/gcctmp/ccgnaaaa.s:11622  .rdata$_ZTV26OfflineResPopStringAdaptor:00000000 __ZTV26OfflineResPopStringAdaptor
GAS LISTING d:/software/ovi_2503a_s3trc/ovi_2503a_s3trc/plutommi/Customer/ResGenerator/gcctmp/ccgnaaaa.s 			page 302


d:/software/ovi_2503a_s3trc/ovi_2503a_s3trc/plutommi/Customer/ResGenerator/gcctmp/ccgnaaaa.s:12370  .rdata$_ZTI26OfflineResPopStringAdaptor:00000000 __ZTI26OfflineResPopStringAdaptor
d:/software/ovi_2503a_s3trc/ovi_2503a_s3trc/plutommi/Customer/ResGenerator/gcctmp/ccgnaaaa.s:12362  .rdata$_ZTI25OfflineResPopImageAdaptor:00000000 __ZTI25OfflineResPopImageAdaptor
d:/software/ovi_2503a_s3trc/ovi_2503a_s3trc/plutommi/Customer/ResGenerator/gcctmp/ccgnaaaa.s:12354  .rdata$_ZTI25OfflineResPopAudioAdaptor:00000000 __ZTI25OfflineResPopAudioAdaptor
d:/software/ovi_2503a_s3trc/ovi_2503a_s3trc/plutommi/Customer/ResGenerator/gcctmp/ccgnaaaa.s:12387  .rdata$_ZTS25OfflineResPopAudioAdaptor:00000000 __ZTS25OfflineResPopAudioAdaptor
d:/software/ovi_2503a_s3trc/ovi_2503a_s3trc/plutommi/Customer/ResGenerator/gcctmp/ccgnaaaa.s:12419  .rdata$_ZTI20OfflineResPopAdaptor:00000000 __ZTI20OfflineResPopAdaptor
d:/software/ovi_2503a_s3trc/ovi_2503a_s3trc/plutommi/Customer/ResGenerator/gcctmp/ccgnaaaa.s:12382  .rdata$_ZTS25OfflineResPopImageAdaptor:00000000 __ZTS25OfflineResPopImageAdaptor
d:/software/ovi_2503a_s3trc/ovi_2503a_s3trc/plutommi/Customer/ResGenerator/gcctmp/ccgnaaaa.s:12377  .rdata$_ZTS26OfflineResPopStringAdaptor:00000000 __ZTS26OfflineResPopStringAdaptor
d:/software/ovi_2503a_s3trc/ovi_2503a_s3trc/plutommi/Customer/ResGenerator/gcctmp/ccgnaaaa.s:12432  .rdata$_ZTV19OfflineResPopulator:00000000 __ZTV19OfflineResPopulator
d:/software/ovi_2503a_s3trc/ovi_2503a_s3trc/plutommi/Customer/ResGenerator/gcctmp/ccgnaaaa.s:12426  .rdata$_ZTS20OfflineResPopAdaptor:00000000 __ZTS20OfflineResPopAdaptor
d:/software/ovi_2503a_s3trc/ovi_2503a_s3trc/plutommi/Customer/ResGenerator/gcctmp/ccgnaaaa.s:12442  .rdata$_ZTI19OfflineResPopulator:00000000 __ZTI19OfflineResPopulator
d:/software/ovi_2503a_s3trc/ovi_2503a_s3trc/plutommi/Customer/ResGenerator/gcctmp/ccgnaaaa.s:12448  .rdata$_ZTS19OfflineResPopulator:00000000 __ZTS19OfflineResPopulator
d:/software/ovi_2503a_s3trc/ovi_2503a_s3trc/plutommi/Customer/ResGenerator/gcctmp/ccgnaaaa.s:12454  .text:000092bc __GLOBAL__I_g_is_clean
d:/software/ovi_2503a_s3trc/ovi_2503a_s3trc/plutommi/Customer/ResGenerator/gcctmp/ccgnaaaa.s:12476  .text:000092d8 __GLOBAL__D_g_is_clean
d:/software/ovi_2503a_s3trc/ovi_2503a_s3trc/plutommi/Customer/ResGenerator/gcctmp/ccgnaaaa.s:11721  .text$_ZN25OfflineResPopAudioAdaptor21issueLecacyPopulationEP11ResPopParam:00000000 __ZN25OfflineResPopAudioAdaptor21issueLecacyPopulationEP11ResPopParam
d:/software/ovi_2503a_s3trc/ovi_2503a_s3trc/plutommi/Customer/ResGenerator/gcctmp/ccgnaaaa.s:11898  .text$_ZN25OfflineResPopImageAdaptor21issueLecacyPopulationEP11ResPopParam:00000000 __ZN25OfflineResPopImageAdaptor21issueLecacyPopulationEP11ResPopParam
d:/software/ovi_2503a_s3trc/ovi_2503a_s3trc/plutommi/Customer/ResGenerator/gcctmp/ccgnaaaa.s:12099  .text$_ZN26OfflineResPopStringAdaptor21issueLecacyPopulationEP11ResPopParam:00000000 __ZN26OfflineResPopStringAdaptor21issueLecacyPopulationEP11ResPopParam
d:/software/ovi_2503a_s3trc/ovi_2503a_s3trc/plutommi/Customer/ResGenerator/gcctmp/ccgnaaaa.s:11603  .text$_ZNK9__gnu_cxx17__normal_iteratorIPP15ResFileGenParamSt6vectorIS2_SaIS2_EEEdeEv:00000000 __ZNK9__gnu_cxx17__normal_iteratorIPP15ResFileGenParamSt6vectorIS2_SaIS2_EEEdeEv
d:/software/ovi_2503a_s3trc/ovi_2503a_s3trc/plutommi/Customer/ResGenerator/gcctmp/ccgnaaaa.s:11570  .text$_ZNK9__gnu_cxx17__normal_iteratorIPP15ResFileGenParamSt6vectorIS2_SaIS2_EEEplERKi:00000000 __ZNK9__gnu_cxx17__normal_iteratorIPP15ResFileGenParamSt6vectorIS2_SaIS2_EEEplERKi
d:/software/ovi_2503a_s3trc/ovi_2503a_s3trc/plutommi/Customer/ResGenerator/gcctmp/ccgnaaaa.s:12337  .text$_ZNSt8iteratorISt26random_access_iterator_tagP15ResFileGenParamiPS2_RS2_EC2Ev:00000000 __ZNSt8iteratorISt26random_access_iterator_tagP15ResFileGenParamiPS2_RS2_EC2Ev
d:/software/ovi_2503a_s3trc/ovi_2503a_s3trc/plutommi/Customer/ResGenerator/gcctmp/ccgnaaaa.s:11539  .text$_ZN9__gnu_cxx17__normal_iteratorIPP15ResFileGenParamSt6vectorIS2_SaIS2_EEEC1ERKS3_:00000000 __ZN9__gnu_cxx17__normal_iteratorIPP15ResFileGenParamSt6vectorIS2_SaIS2_EEEC1ERKS3_
d:/software/ovi_2503a_s3trc/ovi_2503a_s3trc/plutommi/Customer/ResGenerator/gcctmp/ccgnaaaa.s:11509  .text$_ZNSt6vectorIP15ResFileGenParamSaIS1_EE5beginEv:00000000 __ZNSt6vectorIP15ResFileGenParamSaIS1_EE5beginEv
d:/software/ovi_2503a_s3trc/ovi_2503a_s3trc/plutommi/Customer/ResGenerator/gcctmp/ccgnaaaa.s:11488  .text$_ZNK9__gnu_cxx17__normal_iteratorIPKP15ResFileGenParamSt6vectorIS2_SaIS2_EEE4baseEv:00000000 __ZNK9__gnu_cxx17__normal_iteratorIPKP15ResFileGenParamSt6vectorIS2_SaIS2_EEE4baseEv
d:/software/ovi_2503a_s3trc/ovi_2503a_s3trc/plutommi/Customer/ResGenerator/gcctmp/ccgnaaaa.s:11451  .text$_ZN9__gnu_cxxmiIPKP15ResFileGenParamS4_St6vectorIS2_SaIS2_EEEENS_17__normal_iteratorIT_T1_E15difference_typeERKSB_RKNS8_IT0_SA_EE:00000000 __ZN9__gnu_cxxmiIPKP15ResFileGenParamS4_St6vectorIS2_SaIS2_EEEENS_17__normal_iteratorIT_T1_E15difference_typeERKSB_RKNS8_IT0_SA_EE
d:/software/ovi_2503a_s3trc/ovi_2503a_s3trc/plutommi/Customer/ResGenerator/gcctmp/ccgnaaaa.s:11418  .text$_ZNKSt6vectorIP15ResFileGenParamSaIS1_EE3endEv:00000000 __ZNKSt6vectorIP15ResFileGenParamSaIS1_EE3endEv
d:/software/ovi_2503a_s3trc/ovi_2503a_s3trc/plutommi/Customer/ResGenerator/gcctmp/ccgnaaaa.s:12315  .text$_ZNSt8iteratorISt26random_access_iterator_tagP15ResFileGenParamiPKS2_RS3_EC2Ev:00000000 __ZNSt8iteratorISt26random_access_iterator_tagP15ResFileGenParamiPKS2_RS3_EC2Ev
d:/software/ovi_2503a_s3trc/ovi_2503a_s3trc/plutommi/Customer/ResGenerator/gcctmp/ccgnaaaa.s:11388  .text$_ZN9__gnu_cxx17__normal_iteratorIPKP15ResFileGenParamSt6vectorIS2_SaIS2_EEEC1ERKS4_:00000000 __ZN9__gnu_cxx17__normal_iteratorIPKP15ResFileGenParamSt6vectorIS2_SaIS2_EEEC1ERKS4_
d:/software/ovi_2503a_s3trc/ovi_2503a_s3trc/plutommi/Customer/ResGenerator/gcctmp/ccgnaaaa.s:11355  .text$_ZNKSt6vectorIP15ResFileGenParamSaIS1_EE5beginEv:00000000 __ZNKSt6vectorIP15ResFileGenParamSaIS1_EE5beginEv
d:/software/ovi_2503a_s3trc/ovi_2503a_s3trc/plutommi/Customer/ResGenerator/gcctmp/ccgnaaaa.s:10178  .text$_ZN24BatchedResFileGenService16generateResourceEPc:00000000 __ZN24BatchedResFileGenService16generateResourceEPc
d:/software/ovi_2503a_s3trc/ovi_2503a_s3trc/plutommi/Customer/ResGenerator/gcctmp/ccgnaaaa.s:12278  .text$_ZN24BatchedResFileGenService19deInitResFileOutputEv:00000000 __ZN24BatchedResFileGenService19deInitResFileOutputEv
d:/software/ovi_2503a_s3trc/ovi_2503a_s3trc/plutommi/Customer/ResGenerator/gcctmp/ccgnaaaa.s:12219  .text$_ZN24BatchedResFileGenService17initResFileOutputEPc:00000000 __ZN24BatchedResFileGenService17initResFileOutputEPc
d:/software/ovi_2503a_s3trc/ovi_2503a_s3trc/plutommi/Customer/ResGenerator/gcctmp/ccgnaaaa.s:11272  .text$_ZN24BatchedResFileGenService16generateAudioResEPcS0_:00000000 __ZN24BatchedResFileGenService16generateAudioResEPcS0_
d:/software/ovi_2503a_s3trc/ovi_2503a_s3trc/plutommi/Customer/ResGenerator/gcctmp/ccgnaaaa.s:11187  .text$_ZN24BatchedResFileGenService15generateFontResEPcS0_:00000000 __ZN24BatchedResFileGenService15generateFontResEPcS0_
d:/software/ovi_2503a_s3trc/ovi_2503a_s3trc/plutommi/Customer/ResGenerator/gcctmp/ccgnaaaa.s:11015  .text$_ZN24BatchedResFileGenService16generateImageResEPcS0_:00000000 __ZN24BatchedResFileGenService16generateImageResEPcS0_
d:/software/ovi_2503a_s3trc/ovi_2503a_s3trc/plutommi/Customer/ResGenerator/gcctmp/ccgnaaaa.s:10597  .text$_ZNSt6vectorIP15ResFileGenParamSaIS1_EEixEj:00000000 __ZNSt6vectorIP15ResFileGenParamSaIS1_EEixEj
d:/software/ovi_2503a_s3trc/ovi_2503a_s3trc/plutommi/Customer/ResGenerator/gcctmp/ccgnaaaa.s:10557  .text$_ZNKSt6vectorIP15ResFileGenParamSaIS1_EE4sizeEv:00000000 __ZNKSt6vectorIP15ResFileGenParamSaIS1_EE4sizeEv
d:/software/ovi_2503a_s3trc/ovi_2503a_s3trc/plutommi/Customer/ResGenerator/gcctmp/ccgnaaaa.s:10837  .text$_ZN26ResFileGenParamTextFileDAOC1Ev:00000000 __ZN26ResFileGenParamTextFileDAOC1Ev
d:/software/ovi_2503a_s3trc/ovi_2503a_s3trc/plutommi/Customer/ResGenerator/gcctmp/ccgnaaaa.s:9693   .text$_ZN20OfflineResPopService21populateAudioResourceEPc:00000000 __ZN20OfflineResPopService21populateAudioResourceEPc
d:/software/ovi_2503a_s3trc/ovi_2503a_s3trc/plutommi/Customer/ResGenerator/gcctmp/ccgnaaaa.s:9850   .text$_ZN20OfflineResPopService21populateImageResourceEPc:00000000 __ZN20OfflineResPopService21populateImageResourceEPc
d:/software/ovi_2503a_s3trc/ovi_2503a_s3trc/plutommi/Customer/ResGenerator/gcctmp/ccgnaaaa.s:10016  .text$_ZN20OfflineResPopService22populateStringResourceEPc:00000000 __ZN20OfflineResPopService22populateStringResourceEPc
d:/software/ovi_2503a_s3trc/ovi_2503a_s3trc/plutommi/Customer/ResGenerator/gcctmp/ccgnaaaa.s:10923  .text$_ZN26OfflineResPopStringAdaptorC1Ev:00000000 __ZN26OfflineResPopStringAdaptorC1Ev
d:/software/ovi_2503a_s3trc/ovi_2503a_s3trc/plutommi/Customer/ResGenerator/gcctmp/ccgnaaaa.s:10751  .text$_ZN22StringParamTextFileDAOC1Ev:00000000 __ZN22StringParamTextFileDAOC1Ev
d:/software/ovi_2503a_s3trc/ovi_2503a_s3trc/plutommi/Customer/ResGenerator/gcctmp/ccgnaaaa.s:10890  .text$_ZN25OfflineResPopImageAdaptorC1Ei:00000000 __ZN25OfflineResPopImageAdaptorC1Ei
d:/software/ovi_2503a_s3trc/ovi_2503a_s3trc/plutommi/Customer/ResGenerator/gcctmp/ccgnaaaa.s:10781  .text$_ZN21ImageParamTextFileDAOC1Ev:00000000 __ZN21ImageParamTextFileDAOC1Ev
d:/software/ovi_2503a_s3trc/ovi_2503a_s3trc/plutommi/Customer/ResGenerator/gcctmp/ccgnaaaa.s:10861  .text$_ZN25OfflineResPopAudioAdaptorC1Ev:00000000 __ZN25OfflineResPopAudioAdaptorC1Ev
d:/software/ovi_2503a_s3trc/ovi_2503a_s3trc/plutommi/Customer/ResGenerator/gcctmp/ccgnaaaa.s:10809  .text$_ZN21AudioParamTextFileDAOC1Ev:00000000 __ZN21AudioParamTextFileDAOC1Ev
d:/software/ovi_2503a_s3trc/ovi_2503a_s3trc/plutommi/Customer/ResGenerator/gcctmp/ccgnaaaa.s:10955  .text$_ZN20OfflineResPopService16populateResourceEP13ResParamModelPcP16ParamTextFileDAOP19OfflineResPopulator:00000000 __ZN20OfflineResPopService16populateResourceEP13ResParamModelPcP16ParamTextFileDAOP19OfflineResPopulator
d:/software/ovi_2503a_s3trc/ovi_2503a_s3trc/plutommi/Customer/ResGenerator/gcctmp/ccgnaaaa.s:11662  .text$_ZN16ParamTextFileDAOC2Ev:00000000 __ZN16ParamTextFileDAOC2Ev
d:/software/ovi_2503a_s3trc/ovi_2503a_s3trc/plutommi/Customer/ResGenerator/gcctmp/ccgnaaaa.s:12396  .text$_ZN19OfflineResPopulatorC2Ev:00000000 __ZN19OfflineResPopulatorC2Ev
d:/software/ovi_2503a_s3trc/ovi_2503a_s3trc/plutommi/Customer/ResGenerator/gcctmp/ccgnaaaa.s:11688  .text$_ZN20OfflineResPopAdaptorC2Ev:00000000 __ZN20OfflineResPopAdaptorC2Ev
d:/software/ovi_2503a_s3trc/ovi_2503a_s3trc/plutommi/Customer/ResGenerator/gcctmp/ccgnaaaa.s:9666   .text$_ZSt6strstrPcPKc:00000000 __ZSt6strstrPcPKc
d:/software/ovi_2503a_s3trc/ovi_2503a_s3trc/plutommi/Customer/ResGenerator/gcctmp/ccgnaaaa.s:9637   .text$_ZSt6strchrPci:00000000 __ZSt6strchrPci

UNDEFINED SYMBOLS
_CurrMaxENFBAssociatedIDNum
_ENFBAssociatedIDList
__imp___iob
_FindFirstFileA@8
GAS LISTING d:/software/ovi_2503a_s3trc/ovi_2503a_s3trc/plutommi/Customer/ResGenerator/gcctmp/ccgnaaaa.s 			page 303


_GetLastError@0
_FindClose@4
_CompareFileTime@8
_CurrMaxSearchImageId
_CurrMaxImageId
_ImageIdSearchMap
_ImageIdMap
_CurrMaxSearchImageIdEXT
_CurrMaxImageIdEXT
_ImageIdSearchMapEXT
_ImageIdMapEXT
_CurrMaxSearchAudioId
_CurrMaxAudioId
_AudioIdSearchMap
_AudioIdMap
_CurrMaxSearchAudioIdEXT
_CurrMaxAudioIdEXT
_AudioIdSearchMapEXT
_AudioIdMapEXT
_CurrMaxSearchFontIdEXT
_CurrMaxFontIdEXT
_FontIdSearchMapEXT
_FontIdMapEXT
__Unwind_SjLj_Resume
___gxx_personality_sj0
__Unwind_SjLj_Register
__Unwind_SjLj_Unregister
_CurrMaxImageNum
_ImageNameList
_CurrMaxImageNumEXT
_ImageNameListEXT
_CurrMaxAudioNum
_AudioNameList
_CurrMaxAudioNumEXT
_AudioNameListEXT
_CurrMaxFontNumEXT
_FontNameListEXT
_nCustMenus
_HintHdlrCount
_HiliteHdlrCount
_nMenuHiliteHandlers
_nMenuHintHandlers
__ZN18ResgenConfigurator19DEFAULT_CONFIG_FILEE
___main
__alloca
_dest_file
_resultFailFlag
_toolFlag
_Sleep@4
_CreateDirectoryA@8
_g_is_log
_CurrMaxMenuItemIndex
__ZN15ResFileGenParam10IMAGE_TYPEE
__ZN15ResFileGenParam9FONT_TYPEE
__ZN15ResFileGenParam10AUDIO_TYPEE
__ZTV22StringParamTextFileDAO
__ZTV21ImageParamTextFileDAO
GAS LISTING d:/software/ovi_2503a_s3trc/ovi_2503a_s3trc/plutommi/Customer/ResGenerator/gcctmp/ccgnaaaa.s 			page 304


__ZTV21AudioParamTextFileDAO
__ZTV26ResFileGenParamTextFileDAO
__ZTV16ParamTextFileDAO
__ZTV20OfflineResPopAdaptor
__ZSt4cout
__ZTVN10__cxxabiv120__si_class_type_infoE
__ZTVN10__cxxabiv117__class_type_infoE
___cxa_pure_virtual
__ZN20OfflineResPopAdaptor14getResPopModelEv
__ZN20OfflineResPopAdaptor14setResPopModelEP13ResParamModel
__ZN20OfflineResPopAdaptor8populateEv
__ZNSt8ios_base4InitD1Ev
_GenerateStrResFile
_MergeStrRes
_InitStrPopulate
_atexit
_strcmp
_remove
_reslog_adaptor_fatal_error_pending_log
_mtk_resgen_set_error
_ImageOutStreamDeinit
_ImageOutStreamOutputFile
_Iload
_ImageOutStreamInit
_initImageProcessData
_Fload
_Aload
_str_upper
_strncpy
__ZN20ResFileGenParamModelD1Ev
__ZN15ResFileGenParam7getTypeEv
__ZN15ResFileGenParam11getDestPathEv
__ZN15ResFileGenParam10getSrcPathEv
__ZN20ResFileGenParamModel21setRepositoryFileNameEPc
__ZN20ResFileGenParamModelC1Ev
_ToolPopulateInitial
_ResPopDeinitAll
_PopulateResDataPostXML
_PopulateResDataXML
_BinaryAdaptorStopOfflinePopulation
_AudioAdaptorStopOfflinePopulation
_ImageAdaptorStopOfflinePopulation
_StringAdaptorStopOfflinePopulation
_PopulateResDataPreXML
_ResPopInitAll
_BinaryAdaptorStartOfflinePopulation
_AudioAdaptorStartOfflinePopulation
_ImageAdaptorStartOfflinePopulation
_StringAdaptorStartOfflinePopulation
__ZN13ResParamModelD1Ev
__ZN13ResParamModelC1Ev
__ZN13ResParamModel21setRepositoryFileNameEPc
_SetString
__ZN14StringResParam16getDefaultStringEv
_SetImageQWithBufferForceType
_SetImageQWithBuffer
__ZN13ImageResParam10getQualityEv
GAS LISTING d:/software/ovi_2503a_s3trc/ovi_2503a_s3trc/plutommi/Customer/ResGenerator/gcctmp/ccgnaaaa.s 			page 305


__ZN13ImageResParam12getForceTypeEv
__ZN13ImageResParam16getIsMultipleBinEv
__ZN13ImageResParam16getImageFilePathEv
_SetAudioWithBufferForceType
_SetAudioWithBuffer
__ZN13AudioResParam16getIsMultipleBinEv
__ZN13AudioResParam12getForceTypeEv
__ZN13AudioResParam16getAudioFilePathEv
__ZdaPv
__ZN11ResPopParam14getIdEnumValueEv
__ZNKSs5c_strEv
__ZN11ResPopParam15getIdEnumStringEv
__Znaj
__ZNKSs4sizeEv
__ZNSolsEPFRSoS_E
__ZSt4endlIcSt11char_traitsIcEERSt13basic_ostreamIT_T0_ES6_
__ZStlsISt11char_traitsIcEERSt13basic_ostreamIcT_ES5_PKc
_fflush
_reslog_adaptor_stop_service
__ZN18ResgenConfigurator7releaseEv
__ZN26ResgenCrashHandlingService4stopEv
_reslog_adaptor_flush_pending_fatal_error
_reslog_adaptor_has_pending_fatal_error
_fwprintf
_reslog_adaptor_wlog
_str_merge_get_err
_mtk_resgen_has_error
__ZN26ResgenCrashHandlingService5startEv
__ZN26ResgenCrashHandlingService11getInstanceEv
_reslog_adaptor_set_max_level
__ZN18ResgenConfigurator13getDebugLevelEv
__ZN18ResgenConfigurator17loadConfigurationEPKc
__ZN18ResgenConfigurator11getInstanceEv
_reslog_adaptor_start_service
_memset
_rewind
_malloc
_feof
_fgets
_strcpy
_strlen
_strcat
__ZN28ImageGroupMappingMetaCreatorD1Ev
__ZN28ImageGroupMappingMetaCreator16generateMetaFileEPKc
__ZN28ImageGroupMappingMetaCreator8addImageEPKc
__ZN28ImageGroupMappingMetaCreatorC1Ev
_Extract_Name
_fputs
_fwrite
_fread
_exit
_execute_ext_command
_sprintf
_fclose
_free
_fprintf
_fopen
GAS LISTING d:/software/ovi_2503a_s3trc/ovi_2503a_s3trc/plutommi/Customer/ResGenerator/gcctmp/ccgnaaaa.s 			page 306


_reslog_adaptor_log
__ZNSt8ios_base4InitC1Ev
__ZdlPv
__Znwj
_strstr
_strchr
__exit
