GAS LISTING d:/software/ovi_2503a_s3trc/ovi_2503a_s3trc/plutommi/Customer/ResGenerator/gcctmp/cci0baaa.s 			page 1


   1              		.file	"ThreadPool.cpp"
   4              		.text
   5              	Ltext0:
 2849              		.align 32
 2850              	LC0:
 2851 0000 556E6162 		.ascii "Unable to create thread pool due to lack of memory.\0"
 2851      6C652074 
 2851      6F206372 
 2851      65617465 
 2851      20746872 
 2852              	LC1:
 2853 0034 54485245 		.ascii "THREADPOLL\0"
 2853      4144504F 
 2853      4C4C00
 2854              	LC2:
 2855 003f 556E6162 		.ascii "Unable to create thread pool\0"
 2855      6C652074 
 2855      6F206372 
 2855      65617465 
 2855      20746872 
 2856              		.align 2
 2861              	.globl __ZN10ThreadPoolC2Eii
 2863              	__ZN10ThreadPoolC2Eii:
   1:../../MMI/Resource/ThreadPool.cpp **** #include <windows.h>
   2:../../MMI/Resource/ThreadPool.cpp **** #include "ThreadPool.h"
   3:../../MMI/Resource/ThreadPool.cpp **** #include <process.h>
   4:../../MMI/Resource/ThreadPool.cpp **** #include <assert.h>
   5:../../MMI/Resource/ThreadPool.cpp **** #include "ResgenLogCAPI.h"
   6:../../MMI/Resource/ThreadPool.cpp **** 
   7:../../MMI/Resource/ThreadPool.cpp **** #define THREADP_TAG "THREADPOLL"
   8:../../MMI/Resource/ThreadPool.cpp **** 
   9:../../MMI/Resource/ThreadPool.cpp **** #define THREADP_LOG_D(format, args...) RES_LOG_D((THREADP_TAG), (format) , ##args)
  10:../../MMI/Resource/ThreadPool.cpp **** #define THREADP_LOG_V(format, args...) RES_LOG_V((THREADP_TAG), (format) , ##args)
  11:../../MMI/Resource/ThreadPool.cpp **** #define THREADP_LOG_W(format, args...) RES_LOG_W((THREADP_TAG), (format) , ##args)
  12:../../MMI/Resource/ThreadPool.cpp **** #define THREADP_LOG_E(format, args...) RES_LOG_E((THREADP_TAG), (format) , ##args)
  13:../../MMI/Resource/ThreadPool.cpp **** 
  14:../../MMI/Resource/ThreadPool.cpp **** ThreadPool::ThreadPool(int poolSize, int waitTimeForThreadsToCompleteMS)
  15:../../MMI/Resource/ThreadPool.cpp **** {
 2865              	LM1:
 2866 005c 55       		pushl	%ebp
 2867 005d 89E5     		movl	%esp, %ebp
 2868 005f 57       		pushl	%edi
 2869 0060 56       		pushl	%esi
 2870 0061 53       		pushl	%ebx
 2871 0062 83EC7C   		subl	$124, %esp
 2872 0065 C745C400 		movl	$___gxx_personality_sj0, -60(%ebp)
 2872      000000
 2873 006c C745C800 		movl	$LLSDA645, -56(%ebp)
 2873      000000
 2874 0073 8D45CC   		leal	-52(%ebp), %eax
 2875 0076 8D55E8   		leal	-24(%ebp), %edx
 2876 0079 8910     		movl	%edx, (%eax)
 2877 007b BADC0100 		movl	$L21, %edx
 2877      00
 2878 0080 895004   		movl	%edx, 4(%eax)
 2879 0083 896008   		movl	%esp, 8(%eax)
 2880 0086 8D45AC   		leal	-84(%ebp), %eax
GAS LISTING d:/software/ovi_2503a_s3trc/ovi_2503a_s3trc/plutommi/Customer/ResGenerator/gcctmp/cci0baaa.s 			page 2


 2881 0089 890424   		movl	%eax, (%esp)
 2882 008c E8000000 		call	__Unwind_SjLj_Register
 2882      00
 2884              	LM2:
 2885              	LBB2:
 2886 0091 8B4508   		movl	8(%ebp), %eax
 2887 0094 C7000800 		movl	$__ZTV10ThreadPool+8, (%eax)
 2887      0000
 2888 009a 8D45D8   		leal	-40(%ebp), %eax
 2889 009d 890424   		movl	%eax, (%esp)
 2890 00a0 E8000000 		call	__ZNSaIN10ThreadPool7JobDataEEC1Ev
 2890      00
 2891 00a5 8D45D8   		leal	-40(%ebp), %eax
 2892 00a8 89442404 		movl	%eax, 4(%esp)
 2893 00ac 8B4508   		movl	8(%ebp), %eax
 2894 00af 83C004   		addl	$4, %eax
 2895 00b2 890424   		movl	%eax, (%esp)
 2896 00b5 C745B003 		movl	$3, -80(%ebp)
 2896      000000
 2897 00bc E8000000 		call	__ZNSt4listIN10ThreadPool7JobDataESaIS1_EEC1ERKS2_
 2897      00
 2898 00c1 EB29     		jmp	L3
 2899              	L2:
 2900 00c3 8B45A4   		movl	-92(%ebp), %eax
 2901 00c6 8945A8   		movl	%eax, -88(%ebp)
 2902 00c9 8D45D8   		leal	-40(%ebp), %eax
 2903 00cc 890424   		movl	%eax, (%esp)
 2904 00cf E8000000 		call	__ZNSaIN10ThreadPool7JobDataEED1Ev
 2904      00
 2905 00d4 8B55A8   		movl	-88(%ebp), %edx
 2906 00d7 8955A4   		movl	%edx, -92(%ebp)
 2907              	L4:
 2908 00da 8B45A4   		movl	-92(%ebp), %eax
 2909 00dd 890424   		movl	%eax, (%esp)
 2910 00e0 C745B0FF 		movl	$-1, -80(%ebp)
 2910      FFFFFF
 2911 00e7 E8000000 		call	__Unwind_SjLj_Resume
 2911      00
 2912              	L3:
 2913 00ec 8D45D8   		leal	-40(%ebp), %eax
 2914 00ef 890424   		movl	%eax, (%esp)
 2915 00f2 E8000000 		call	__ZNSaIN10ThreadPool7JobDataEED1Ev
 2915      00
 2916 00f7 8D45D8   		leal	-40(%ebp), %eax
 2917 00fa 890424   		movl	%eax, (%esp)
 2918 00fd E8000000 		call	__ZNSaIN10ThreadPool10ThreadDataEEC1Ev
 2918      00
 2919 0102 8D45D8   		leal	-40(%ebp), %eax
 2920 0105 89442404 		movl	%eax, 4(%esp)
 2921 0109 8B4508   		movl	8(%ebp), %eax
 2922 010c 83C008   		addl	$8, %eax
 2923 010f 890424   		movl	%eax, (%esp)
 2924 0112 C745B002 		movl	$2, -80(%ebp)
 2924      000000
 2925 0119 E8000000 		call	__ZNSt6vectorIN10ThreadPool10ThreadDataESaIS1_EEC1ERKS2_
 2925      00
 2926 011e EB1C     		jmp	L7
GAS LISTING d:/software/ovi_2503a_s3trc/ovi_2503a_s3trc/plutommi/Customer/ResGenerator/gcctmp/cci0baaa.s 			page 3


 2927              	L6:
 2928 0120 8B55A4   		movl	-92(%ebp), %edx
 2929 0123 8955A0   		movl	%edx, -96(%ebp)
 2930 0126 8D45D8   		leal	-40(%ebp), %eax
 2931 0129 890424   		movl	%eax, (%esp)
 2932 012c E8000000 		call	__ZNSaIN10ThreadPool10ThreadDataEED1Ev
 2932      00
 2933 0131 8B45A0   		movl	-96(%ebp), %eax
 2934 0134 8945A4   		movl	%eax, -92(%ebp)
 2935              	L8:
 2936 0137 E9E40000 		jmp	L17
 2936      00
 2937              	L7:
 2938 013c 8D45D8   		leal	-40(%ebp), %eax
 2939 013f 890424   		movl	%eax, (%esp)
 2940 0142 E8000000 		call	__ZNSaIN10ThreadPool10ThreadDataEED1Ev
 2940      00
  16:../../MMI/Resource/ThreadPool.cpp ****     m_nWaitForThreadsToDieMS = waitTimeForThreadsToCompleteMS;
 2942              	LM3:
 2943 0147 8B5508   		movl	8(%ebp), %edx
 2944 014a 8B4510   		movl	16(%ebp), %eax
 2945 014d 894214   		movl	%eax, 20(%edx)
  17:../../MMI/Resource/ThreadPool.cpp ****     m_hNotifyShutdown = NULL;
 2947              	LM4:
 2948 0150 8B4508   		movl	8(%ebp), %eax
 2949 0153 C7401800 		movl	$0, 24(%eax)
 2949      000000
  18:../../MMI/Resource/ThreadPool.cpp **** 
  19:../../MMI/Resource/ThreadPool.cpp ****     InitializeCriticalSection(&m_cs);
 2951              	LM5:
 2952 015a 8B4508   		movl	8(%ebp), %eax
 2953 015d 83C01C   		addl	$28, %eax
 2954 0160 890424   		movl	%eax, (%esp)
 2955 0163 C745B001 		movl	$1, -80(%ebp)
 2955      000000
 2956 016a E8000000 		call	_InitializeCriticalSection@4
 2956      00
 2957 016f 83EC04   		subl	$4, %esp
  20:../../MMI/Resource/ThreadPool.cpp **** 
  21:../../MMI/Resource/ThreadPool.cpp ****     if (poolSize > 0 && !Create(poolSize))
 2959              	LM6:
 2960 0172 837D0C00 		cmpl	$0, 12(%ebp)
 2961 0176 0F8ED700 		jle	L1
 2961      0000
 2962 017c 8B450C   		movl	12(%ebp), %eax
 2963 017f 89442404 		movl	%eax, 4(%esp)
 2964 0183 8B4508   		movl	8(%ebp), %eax
 2965 0186 890424   		movl	%eax, (%esp)
 2966 0189 E8FC0600 		call	__ZN10ThreadPool6CreateEi
 2966      00
 2967 018e 84C0     		testb	%al, %al
 2968 0190 0F85BD00 		jne	L1
 2968      0000
  22:../../MMI/Resource/ThreadPool.cpp ****     {
  23:../../MMI/Resource/ThreadPool.cpp ****         THREADP_LOG_E("Unable to create thread pool due to lack of memory.");
 2970              	LM7:
 2971 0196 C7442408 		movl	$LC0, 8(%esp)
GAS LISTING d:/software/ovi_2503a_s3trc/ovi_2503a_s3trc/plutommi/Customer/ResGenerator/gcctmp/cci0baaa.s 			page 4


 2971      00000000 
 2972 019e C7442404 		movl	$LC1, 4(%esp)
 2972      34000000 
 2973 01a6 C7042403 		movl	$3, (%esp)
 2973      000000
 2974 01ad E8000000 		call	_reslog_adaptor_log
 2974      00
  24:../../MMI/Resource/ThreadPool.cpp ****         throw "Unable to create thread pool";
 2976              	LM8:
 2977 01b2 C7042404 		movl	$4, (%esp)
 2977      000000
 2978 01b9 E8000000 		call	___cxa_allocate_exception
 2978      00
 2979 01be C7003F00 		movl	$LC2, (%eax)
 2979      0000
 2980              	L11:
 2981 01c4 C7442408 		movl	$0, 8(%esp)
 2981      00000000 
 2982 01cc C7442404 		movl	$__ZTIPKc, 4(%esp)
 2982      00000000 
 2983 01d4 890424   		movl	%eax, (%esp)
 2984 01d7 E8000000 		call	___cxa_throw
 2984      00
 2985              	L21:
 2986 01dc 8D6D18   		leal	24(%ebp), %ebp
 2987 01df 8B55B0   		movl	-80(%ebp), %edx
 2988 01e2 895594   		movl	%edx, -108(%ebp)
 2989 01e5 8B45B4   		movl	-76(%ebp), %eax
 2990 01e8 8945A4   		movl	%eax, -92(%ebp)
 2991 01eb 837D9401 		cmpl	$1, -108(%ebp)
 2992 01ef 0F842BFF 		je	L6
 2992      FFFF
 2993 01f5 837D9402 		cmpl	$2, -108(%ebp)
 2994 01f9 0F84C4FE 		je	L2
 2994      FFFF
 2995              	L13:
 2996 01ff 8B55A4   		movl	-92(%ebp), %edx
 2997 0202 89559C   		movl	%edx, -100(%ebp)
 2998 0205 8B4508   		movl	8(%ebp), %eax
 2999 0208 83C008   		addl	$8, %eax
 3000 020b 890424   		movl	%eax, (%esp)
 3001 020e C745B000 		movl	$0, -80(%ebp)
 3001      000000
 3002 0215 E8000000 		call	__ZNSt6vectorIN10ThreadPool10ThreadDataESaIS1_EED1Ev
 3002      00
 3003 021a 8B459C   		movl	-100(%ebp), %eax
 3004 021d 8945A4   		movl	%eax, -92(%ebp)
 3005              	L15:
 3006              	L17:
 3007 0220 8B55A4   		movl	-92(%ebp), %edx
 3008 0223 895598   		movl	%edx, -104(%ebp)
 3009 0226 8B4508   		movl	8(%ebp), %eax
 3010 0229 83C004   		addl	$4, %eax
 3011 022c 890424   		movl	%eax, (%esp)
 3012 022f C745B000 		movl	$0, -80(%ebp)
 3012      000000
 3013 0236 E8000000 		call	__ZNSt4listIN10ThreadPool7JobDataESaIS1_EED1Ev
GAS LISTING d:/software/ovi_2503a_s3trc/ovi_2503a_s3trc/plutommi/Customer/ResGenerator/gcctmp/cci0baaa.s 			page 5


 3013      00
 3014 023b 8B4598   		movl	-104(%ebp), %eax
 3015 023e 8945A4   		movl	%eax, -92(%ebp)
 3016              	L19:
 3017 0241 8B55A4   		movl	-92(%ebp), %edx
 3018 0244 891424   		movl	%edx, (%esp)
 3019 0247 C745B0FF 		movl	$-1, -80(%ebp)
 3019      FFFFFF
 3020 024e E8000000 		call	__Unwind_SjLj_Resume
 3020      00
  25:../../MMI/Resource/ThreadPool.cpp ****     }
  26:../../MMI/Resource/ThreadPool.cpp **** }
 3022              	LM9:
 3023              	L1:
 3024 0253 8D45AC   		leal	-84(%ebp), %eax
 3025 0256 890424   		movl	%eax, (%esp)
 3026 0259 E8000000 		call	__Unwind_SjLj_Unregister
 3026      00
 3027 025e 8D65F4   		leal	-12(%ebp), %esp
 3028 0261 5B       		popl	%ebx
 3029 0262 5E       		popl	%esi
 3030 0263 5F       		popl	%edi
 3031 0264 5D       		popl	%ebp
 3032 0265 C3       		ret
 3033              	LBE2:
 3034              		.section	.gcc_except_table,""
 3035              	LLSDA645:
 3036 0000 FF       		.byte	0xff
 3037 0001 FF       		.byte	0xff
 3038 0002 01       		.byte	0x1
 3039 0003 06       		.uleb128 LLSDACSE645-LLSDACSB645
 3040              	LLSDACSB645:
 3041 0004 00       		.uleb128 0x0
 3042 0005 00       		.uleb128 0x0
 3043 0006 01       		.uleb128 0x1
 3044 0007 00       		.uleb128 0x0
 3045 0008 02       		.uleb128 0x2
 3046 0009 00       		.uleb128 0x0
 3047              	LLSDACSE645:
 3048              		.text
 3049              	Lscope0:
 3051              		.align 2
 3056              	.globl __ZN10ThreadPoolC1Eii
 3058              	__ZN10ThreadPoolC1Eii:
 3060              	LM10:
 3061 0266 55       		pushl	%ebp
 3062 0267 89E5     		movl	%esp, %ebp
 3063 0269 57       		pushl	%edi
 3064 026a 56       		pushl	%esi
 3065 026b 53       		pushl	%ebx
 3066 026c 83EC7C   		subl	$124, %esp
 3067 026f C745C400 		movl	$___gxx_personality_sj0, -60(%ebp)
 3067      000000
 3068 0276 C745C80A 		movl	$LLSDA647, -56(%ebp)
 3068      000000
 3069 027d 8D45CC   		leal	-52(%ebp), %eax
 3070 0280 8D55E8   		leal	-24(%ebp), %edx
GAS LISTING d:/software/ovi_2503a_s3trc/ovi_2503a_s3trc/plutommi/Customer/ResGenerator/gcctmp/cci0baaa.s 			page 6


 3071 0283 8910     		movl	%edx, (%eax)
 3072 0285 BAE60300 		movl	$L42, %edx
 3072      00
 3073 028a 895004   		movl	%edx, 4(%eax)
 3074 028d 896008   		movl	%esp, 8(%eax)
 3075 0290 8D45AC   		leal	-84(%ebp), %eax
 3076 0293 890424   		movl	%eax, (%esp)
 3077 0296 E8000000 		call	__Unwind_SjLj_Register
 3077      00
 3079              	LM11:
 3080              	LBB3:
 3081 029b 8B4508   		movl	8(%ebp), %eax
 3082 029e C7000800 		movl	$__ZTV10ThreadPool+8, (%eax)
 3082      0000
 3083 02a4 8D45D8   		leal	-40(%ebp), %eax
 3084 02a7 890424   		movl	%eax, (%esp)
 3085 02aa E8000000 		call	__ZNSaIN10ThreadPool7JobDataEEC1Ev
 3085      00
 3086 02af 8D45D8   		leal	-40(%ebp), %eax
 3087 02b2 89442404 		movl	%eax, 4(%esp)
 3088 02b6 8B4508   		movl	8(%ebp), %eax
 3089 02b9 83C004   		addl	$4, %eax
 3090 02bc 890424   		movl	%eax, (%esp)
 3091 02bf C745B003 		movl	$3, -80(%ebp)
 3091      000000
 3092 02c6 E8000000 		call	__ZNSt4listIN10ThreadPool7JobDataESaIS1_EEC1ERKS2_
 3092      00
 3093 02cb EB29     		jmp	L24
 3094              	L23:
 3095 02cd 8B45A4   		movl	-92(%ebp), %eax
 3096 02d0 8945A8   		movl	%eax, -88(%ebp)
 3097 02d3 8D45D8   		leal	-40(%ebp), %eax
 3098 02d6 890424   		movl	%eax, (%esp)
 3099 02d9 E8000000 		call	__ZNSaIN10ThreadPool7JobDataEED1Ev
 3099      00
 3100 02de 8B55A8   		movl	-88(%ebp), %edx
 3101 02e1 8955A4   		movl	%edx, -92(%ebp)
 3102              	L25:
 3103 02e4 8B45A4   		movl	-92(%ebp), %eax
 3104 02e7 890424   		movl	%eax, (%esp)
 3105 02ea C745B0FF 		movl	$-1, -80(%ebp)
 3105      FFFFFF
 3106 02f1 E8000000 		call	__Unwind_SjLj_Resume
 3106      00
 3107              	L24:
 3108 02f6 8D45D8   		leal	-40(%ebp), %eax
 3109 02f9 890424   		movl	%eax, (%esp)
 3110 02fc E8000000 		call	__ZNSaIN10ThreadPool7JobDataEED1Ev
 3110      00
 3111 0301 8D45D8   		leal	-40(%ebp), %eax
 3112 0304 890424   		movl	%eax, (%esp)
 3113 0307 E8000000 		call	__ZNSaIN10ThreadPool10ThreadDataEEC1Ev
 3113      00
 3114 030c 8D45D8   		leal	-40(%ebp), %eax
 3115 030f 89442404 		movl	%eax, 4(%esp)
 3116 0313 8B4508   		movl	8(%ebp), %eax
 3117 0316 83C008   		addl	$8, %eax
GAS LISTING d:/software/ovi_2503a_s3trc/ovi_2503a_s3trc/plutommi/Customer/ResGenerator/gcctmp/cci0baaa.s 			page 7


 3118 0319 890424   		movl	%eax, (%esp)
 3119 031c C745B002 		movl	$2, -80(%ebp)
 3119      000000
 3120 0323 E8000000 		call	__ZNSt6vectorIN10ThreadPool10ThreadDataESaIS1_EEC1ERKS2_
 3120      00
 3121 0328 EB1C     		jmp	L28
 3122              	L27:
 3123 032a 8B55A4   		movl	-92(%ebp), %edx
 3124 032d 8955A0   		movl	%edx, -96(%ebp)
 3125 0330 8D45D8   		leal	-40(%ebp), %eax
 3126 0333 890424   		movl	%eax, (%esp)
 3127 0336 E8000000 		call	__ZNSaIN10ThreadPool10ThreadDataEED1Ev
 3127      00
 3128 033b 8B45A0   		movl	-96(%ebp), %eax
 3129 033e 8945A4   		movl	%eax, -92(%ebp)
 3130              	L29:
 3131 0341 E9E40000 		jmp	L38
 3131      00
 3132              	L28:
 3133 0346 8D45D8   		leal	-40(%ebp), %eax
 3134 0349 890424   		movl	%eax, (%esp)
 3135 034c E8000000 		call	__ZNSaIN10ThreadPool10ThreadDataEED1Ev
 3135      00
 3137              	LM12:
 3138 0351 8B5508   		movl	8(%ebp), %edx
 3139 0354 8B4510   		movl	16(%ebp), %eax
 3140 0357 894214   		movl	%eax, 20(%edx)
 3142              	LM13:
 3143 035a 8B4508   		movl	8(%ebp), %eax
 3144 035d C7401800 		movl	$0, 24(%eax)
 3144      000000
 3146              	LM14:
 3147 0364 8B4508   		movl	8(%ebp), %eax
 3148 0367 83C01C   		addl	$28, %eax
 3149 036a 890424   		movl	%eax, (%esp)
 3150 036d C745B001 		movl	$1, -80(%ebp)
 3150      000000
 3151 0374 E8000000 		call	_InitializeCriticalSection@4
 3151      00
 3152 0379 83EC04   		subl	$4, %esp
 3154              	LM15:
 3155 037c 837D0C00 		cmpl	$0, 12(%ebp)
 3156 0380 0F8ED700 		jle	L22
 3156      0000
 3157 0386 8B450C   		movl	12(%ebp), %eax
 3158 0389 89442404 		movl	%eax, 4(%esp)
 3159 038d 8B4508   		movl	8(%ebp), %eax
 3160 0390 890424   		movl	%eax, (%esp)
 3161 0393 E8F20400 		call	__ZN10ThreadPool6CreateEi
 3161      00
 3162 0398 84C0     		testb	%al, %al
 3163 039a 0F85BD00 		jne	L22
 3163      0000
 3165              	LM16:
 3166 03a0 C7442408 		movl	$LC0, 8(%esp)
 3166      00000000 
 3167 03a8 C7442404 		movl	$LC1, 4(%esp)
GAS LISTING d:/software/ovi_2503a_s3trc/ovi_2503a_s3trc/plutommi/Customer/ResGenerator/gcctmp/cci0baaa.s 			page 8


 3167      34000000 
 3168 03b0 C7042403 		movl	$3, (%esp)
 3168      000000
 3169 03b7 E8000000 		call	_reslog_adaptor_log
 3169      00
 3171              	LM17:
 3172 03bc C7042404 		movl	$4, (%esp)
 3172      000000
 3173 03c3 E8000000 		call	___cxa_allocate_exception
 3173      00
 3174 03c8 C7003F00 		movl	$LC2, (%eax)
 3174      0000
 3175              	L32:
 3176 03ce C7442408 		movl	$0, 8(%esp)
 3176      00000000 
 3177 03d6 C7442404 		movl	$__ZTIPKc, 4(%esp)
 3177      00000000 
 3178 03de 890424   		movl	%eax, (%esp)
 3179 03e1 E8000000 		call	___cxa_throw
 3179      00
 3180              	L42:
 3181 03e6 8D6D18   		leal	24(%ebp), %ebp
 3182 03e9 8B55B0   		movl	-80(%ebp), %edx
 3183 03ec 895594   		movl	%edx, -108(%ebp)
 3184 03ef 8B45B4   		movl	-76(%ebp), %eax
 3185 03f2 8945A4   		movl	%eax, -92(%ebp)
 3186 03f5 837D9401 		cmpl	$1, -108(%ebp)
 3187 03f9 0F842BFF 		je	L27
 3187      FFFF
 3188 03ff 837D9402 		cmpl	$2, -108(%ebp)
 3189 0403 0F84C4FE 		je	L23
 3189      FFFF
 3190              	L34:
 3191 0409 8B55A4   		movl	-92(%ebp), %edx
 3192 040c 89559C   		movl	%edx, -100(%ebp)
 3193 040f 8B4508   		movl	8(%ebp), %eax
 3194 0412 83C008   		addl	$8, %eax
 3195 0415 890424   		movl	%eax, (%esp)
 3196 0418 C745B000 		movl	$0, -80(%ebp)
 3196      000000
 3197 041f E8000000 		call	__ZNSt6vectorIN10ThreadPool10ThreadDataESaIS1_EED1Ev
 3197      00
 3198 0424 8B459C   		movl	-100(%ebp), %eax
 3199 0427 8945A4   		movl	%eax, -92(%ebp)
 3200              	L36:
 3201              	L38:
 3202 042a 8B55A4   		movl	-92(%ebp), %edx
 3203 042d 895598   		movl	%edx, -104(%ebp)
 3204 0430 8B4508   		movl	8(%ebp), %eax
 3205 0433 83C004   		addl	$4, %eax
 3206 0436 890424   		movl	%eax, (%esp)
 3207 0439 C745B000 		movl	$0, -80(%ebp)
 3207      000000
 3208 0440 E8000000 		call	__ZNSt4listIN10ThreadPool7JobDataESaIS1_EED1Ev
 3208      00
 3209 0445 8B4598   		movl	-104(%ebp), %eax
 3210 0448 8945A4   		movl	%eax, -92(%ebp)
GAS LISTING d:/software/ovi_2503a_s3trc/ovi_2503a_s3trc/plutommi/Customer/ResGenerator/gcctmp/cci0baaa.s 			page 9


 3211              	L40:
 3212 044b 8B55A4   		movl	-92(%ebp), %edx
 3213 044e 891424   		movl	%edx, (%esp)
 3214 0451 C745B0FF 		movl	$-1, -80(%ebp)
 3214      FFFFFF
 3215 0458 E8000000 		call	__Unwind_SjLj_Resume
 3215      00
 3217              	LM18:
 3218              	L22:
 3219 045d 8D45AC   		leal	-84(%ebp), %eax
 3220 0460 890424   		movl	%eax, (%esp)
 3221 0463 E8000000 		call	__Unwind_SjLj_Unregister
 3221      00
 3222 0468 8D65F4   		leal	-12(%ebp), %esp
 3223 046b 5B       		popl	%ebx
 3224 046c 5E       		popl	%esi
 3225 046d 5F       		popl	%edi
 3226 046e 5D       		popl	%ebp
 3227 046f C3       		ret
 3228              	LBE3:
 3229              		.section	.gcc_except_table,""
 3230              	LLSDA647:
 3231 000a FF       		.byte	0xff
 3232 000b FF       		.byte	0xff
 3233 000c 01       		.byte	0x1
 3234 000d 06       		.uleb128 LLSDACSE647-LLSDACSB647
 3235              	LLSDACSB647:
 3236 000e 00       		.uleb128 0x0
 3237 000f 00       		.uleb128 0x0
 3238 0010 01       		.uleb128 0x1
 3239 0011 00       		.uleb128 0x0
 3240 0012 02       		.uleb128 0x2
 3241 0013 00       		.uleb128 0x0
 3242              	LLSDACSE647:
 3243              		.text
 3244              	Lscope1:
 3247              		.section	.text$_ZNSt4listIN10ThreadPool7JobDataESaIS1_EED1Ev,"x"
 3248              		.linkonce discard
 3249              		.align 2
 3252              	.globl __ZNSt4listIN10ThreadPool7JobDataESaIS1_EED1Ev
 3254              	__ZNSt4listIN10ThreadPool7JobDataESaIS1_EED1Ev:
 3256              	Ltext1:
   1:d:/software/ovi_2503a_s3trc/ovi_2503a_s3trc/Tools/MinGW/include/c++/3.3.1/bits/stl_list.h **** // List implementation -*- C++ -*-
   2:d:/software/ovi_2503a_s3trc/ovi_2503a_s3trc/Tools/MinGW/include/c++/3.3.1/bits/stl_list.h **** 
   3:d:/software/ovi_2503a_s3trc/ovi_2503a_s3trc/Tools/MinGW/include/c++/3.3.1/bits/stl_list.h **** // Copyright (C) 2001, 2002 Free Software Foundation, Inc.
   4:d:/software/ovi_2503a_s3trc/ovi_2503a_s3trc/Tools/MinGW/include/c++/3.3.1/bits/stl_list.h **** //
   5:d:/software/ovi_2503a_s3trc/ovi_2503a_s3trc/Tools/MinGW/include/c++/3.3.1/bits/stl_list.h **** // This file is part of the GNU ISO C++ Library.  This library is free
   6:d:/software/ovi_2503a_s3trc/ovi_2503a_s3trc/Tools/MinGW/include/c++/3.3.1/bits/stl_list.h **** // software; you can redistribute it and/or modify it under the
   7:d:/software/ovi_2503a_s3trc/ovi_2503a_s3trc/Tools/MinGW/include/c++/3.3.1/bits/stl_list.h **** // terms of the GNU General Public License as published by the
   8:d:/software/ovi_2503a_s3trc/ovi_2503a_s3trc/Tools/MinGW/include/c++/3.3.1/bits/stl_list.h **** // Free Software Foundation; either version 2, or (at your option)
   9:d:/software/ovi_2503a_s3trc/ovi_2503a_s3trc/Tools/MinGW/include/c++/3.3.1/bits/stl_list.h **** // any later version.
  10:d:/software/ovi_2503a_s3trc/ovi_2503a_s3trc/Tools/MinGW/include/c++/3.3.1/bits/stl_list.h **** 
  11:d:/software/ovi_2503a_s3trc/ovi_2503a_s3trc/Tools/MinGW/include/c++/3.3.1/bits/stl_list.h **** // This library is distributed in the hope that it will be useful,
  12:d:/software/ovi_2503a_s3trc/ovi_2503a_s3trc/Tools/MinGW/include/c++/3.3.1/bits/stl_list.h **** // but WITHOUT ANY WARRANTY; without even the implied warranty of
  13:d:/software/ovi_2503a_s3trc/ovi_2503a_s3trc/Tools/MinGW/include/c++/3.3.1/bits/stl_list.h **** // MERCHANTABILITY or FITNESS FOR A PARTICULAR PURPOSE.  See the
  14:d:/software/ovi_2503a_s3trc/ovi_2503a_s3trc/Tools/MinGW/include/c++/3.3.1/bits/stl_list.h **** // GNU General Public License for more details.
  15:d:/software/ovi_2503a_s3trc/ovi_2503a_s3trc/Tools/MinGW/include/c++/3.3.1/bits/stl_list.h **** 
GAS LISTING d:/software/ovi_2503a_s3trc/ovi_2503a_s3trc/plutommi/Customer/ResGenerator/gcctmp/cci0baaa.s 			page 10


  16:d:/software/ovi_2503a_s3trc/ovi_2503a_s3trc/Tools/MinGW/include/c++/3.3.1/bits/stl_list.h **** // You should have received a copy of the GNU General Public License along
  17:d:/software/ovi_2503a_s3trc/ovi_2503a_s3trc/Tools/MinGW/include/c++/3.3.1/bits/stl_list.h **** // with this library; see the file COPYING.  If not, write to the Free
  18:d:/software/ovi_2503a_s3trc/ovi_2503a_s3trc/Tools/MinGW/include/c++/3.3.1/bits/stl_list.h **** // Software Foundation, 59 Temple Place - Suite 330, Boston, MA 02111-1307,
  19:d:/software/ovi_2503a_s3trc/ovi_2503a_s3trc/Tools/MinGW/include/c++/3.3.1/bits/stl_list.h **** // USA.
  20:d:/software/ovi_2503a_s3trc/ovi_2503a_s3trc/Tools/MinGW/include/c++/3.3.1/bits/stl_list.h **** 
  21:d:/software/ovi_2503a_s3trc/ovi_2503a_s3trc/Tools/MinGW/include/c++/3.3.1/bits/stl_list.h **** // As a special exception, you may use this file as part of a free software
  22:d:/software/ovi_2503a_s3trc/ovi_2503a_s3trc/Tools/MinGW/include/c++/3.3.1/bits/stl_list.h **** // library without restriction.  Specifically, if other files instantiate
  23:d:/software/ovi_2503a_s3trc/ovi_2503a_s3trc/Tools/MinGW/include/c++/3.3.1/bits/stl_list.h **** // templates or use macros or inline functions from this file, or you compile
  24:d:/software/ovi_2503a_s3trc/ovi_2503a_s3trc/Tools/MinGW/include/c++/3.3.1/bits/stl_list.h **** // this file and link it with other files to produce an executable, this
  25:d:/software/ovi_2503a_s3trc/ovi_2503a_s3trc/Tools/MinGW/include/c++/3.3.1/bits/stl_list.h **** // file does not by itself cause the resulting executable to be covered by
  26:d:/software/ovi_2503a_s3trc/ovi_2503a_s3trc/Tools/MinGW/include/c++/3.3.1/bits/stl_list.h **** // the GNU General Public License.  This exception does not however
  27:d:/software/ovi_2503a_s3trc/ovi_2503a_s3trc/Tools/MinGW/include/c++/3.3.1/bits/stl_list.h **** // invalidate any other reasons why the executable file might be covered by
  28:d:/software/ovi_2503a_s3trc/ovi_2503a_s3trc/Tools/MinGW/include/c++/3.3.1/bits/stl_list.h **** // the GNU General Public License.
  29:d:/software/ovi_2503a_s3trc/ovi_2503a_s3trc/Tools/MinGW/include/c++/3.3.1/bits/stl_list.h **** 
  30:d:/software/ovi_2503a_s3trc/ovi_2503a_s3trc/Tools/MinGW/include/c++/3.3.1/bits/stl_list.h **** /*
  31:d:/software/ovi_2503a_s3trc/ovi_2503a_s3trc/Tools/MinGW/include/c++/3.3.1/bits/stl_list.h ****  *
  32:d:/software/ovi_2503a_s3trc/ovi_2503a_s3trc/Tools/MinGW/include/c++/3.3.1/bits/stl_list.h ****  * Copyright (c) 1994
  33:d:/software/ovi_2503a_s3trc/ovi_2503a_s3trc/Tools/MinGW/include/c++/3.3.1/bits/stl_list.h ****  * Hewlett-Packard Company
  34:d:/software/ovi_2503a_s3trc/ovi_2503a_s3trc/Tools/MinGW/include/c++/3.3.1/bits/stl_list.h ****  *
  35:d:/software/ovi_2503a_s3trc/ovi_2503a_s3trc/Tools/MinGW/include/c++/3.3.1/bits/stl_list.h ****  * Permission to use, copy, modify, distribute and sell this software
  36:d:/software/ovi_2503a_s3trc/ovi_2503a_s3trc/Tools/MinGW/include/c++/3.3.1/bits/stl_list.h ****  * and its documentation for any purpose is hereby granted without fee,
  37:d:/software/ovi_2503a_s3trc/ovi_2503a_s3trc/Tools/MinGW/include/c++/3.3.1/bits/stl_list.h ****  * provided that the above copyright notice appear in all copies and
  38:d:/software/ovi_2503a_s3trc/ovi_2503a_s3trc/Tools/MinGW/include/c++/3.3.1/bits/stl_list.h ****  * that both that copyright notice and this permission notice appear
  39:d:/software/ovi_2503a_s3trc/ovi_2503a_s3trc/Tools/MinGW/include/c++/3.3.1/bits/stl_list.h ****  * in supporting documentation.  Hewlett-Packard Company makes no
  40:d:/software/ovi_2503a_s3trc/ovi_2503a_s3trc/Tools/MinGW/include/c++/3.3.1/bits/stl_list.h ****  * representations about the suitability of this software for any
  41:d:/software/ovi_2503a_s3trc/ovi_2503a_s3trc/Tools/MinGW/include/c++/3.3.1/bits/stl_list.h ****  * purpose.  It is provided "as is" without express or implied warranty.
  42:d:/software/ovi_2503a_s3trc/ovi_2503a_s3trc/Tools/MinGW/include/c++/3.3.1/bits/stl_list.h ****  *
  43:d:/software/ovi_2503a_s3trc/ovi_2503a_s3trc/Tools/MinGW/include/c++/3.3.1/bits/stl_list.h ****  *
  44:d:/software/ovi_2503a_s3trc/ovi_2503a_s3trc/Tools/MinGW/include/c++/3.3.1/bits/stl_list.h ****  * Copyright (c) 1996,1997
  45:d:/software/ovi_2503a_s3trc/ovi_2503a_s3trc/Tools/MinGW/include/c++/3.3.1/bits/stl_list.h ****  * Silicon Graphics Computer Systems, Inc.
  46:d:/software/ovi_2503a_s3trc/ovi_2503a_s3trc/Tools/MinGW/include/c++/3.3.1/bits/stl_list.h ****  *
  47:d:/software/ovi_2503a_s3trc/ovi_2503a_s3trc/Tools/MinGW/include/c++/3.3.1/bits/stl_list.h ****  * Permission to use, copy, modify, distribute and sell this software
  48:d:/software/ovi_2503a_s3trc/ovi_2503a_s3trc/Tools/MinGW/include/c++/3.3.1/bits/stl_list.h ****  * and its documentation for any purpose is hereby granted without fee,
  49:d:/software/ovi_2503a_s3trc/ovi_2503a_s3trc/Tools/MinGW/include/c++/3.3.1/bits/stl_list.h ****  * provided that the above copyright notice appear in all copies and
  50:d:/software/ovi_2503a_s3trc/ovi_2503a_s3trc/Tools/MinGW/include/c++/3.3.1/bits/stl_list.h ****  * that both that copyright notice and this permission notice appear
  51:d:/software/ovi_2503a_s3trc/ovi_2503a_s3trc/Tools/MinGW/include/c++/3.3.1/bits/stl_list.h ****  * in supporting documentation.  Silicon Graphics makes no
  52:d:/software/ovi_2503a_s3trc/ovi_2503a_s3trc/Tools/MinGW/include/c++/3.3.1/bits/stl_list.h ****  * representations about the suitability of this software for any
  53:d:/software/ovi_2503a_s3trc/ovi_2503a_s3trc/Tools/MinGW/include/c++/3.3.1/bits/stl_list.h ****  * purpose.  It is provided "as is" without express or implied warranty.
  54:d:/software/ovi_2503a_s3trc/ovi_2503a_s3trc/Tools/MinGW/include/c++/3.3.1/bits/stl_list.h ****  */
  55:d:/software/ovi_2503a_s3trc/ovi_2503a_s3trc/Tools/MinGW/include/c++/3.3.1/bits/stl_list.h **** 
  56:d:/software/ovi_2503a_s3trc/ovi_2503a_s3trc/Tools/MinGW/include/c++/3.3.1/bits/stl_list.h **** /** @file stl_list.h
  57:d:/software/ovi_2503a_s3trc/ovi_2503a_s3trc/Tools/MinGW/include/c++/3.3.1/bits/stl_list.h ****  *  This is an internal header file, included by other library headers.
  58:d:/software/ovi_2503a_s3trc/ovi_2503a_s3trc/Tools/MinGW/include/c++/3.3.1/bits/stl_list.h ****  *  You should not attempt to use it directly.
  59:d:/software/ovi_2503a_s3trc/ovi_2503a_s3trc/Tools/MinGW/include/c++/3.3.1/bits/stl_list.h ****  */
  60:d:/software/ovi_2503a_s3trc/ovi_2503a_s3trc/Tools/MinGW/include/c++/3.3.1/bits/stl_list.h **** 
  61:d:/software/ovi_2503a_s3trc/ovi_2503a_s3trc/Tools/MinGW/include/c++/3.3.1/bits/stl_list.h **** #ifndef __GLIBCPP_INTERNAL_LIST_H
  62:d:/software/ovi_2503a_s3trc/ovi_2503a_s3trc/Tools/MinGW/include/c++/3.3.1/bits/stl_list.h **** #define __GLIBCPP_INTERNAL_LIST_H
  63:d:/software/ovi_2503a_s3trc/ovi_2503a_s3trc/Tools/MinGW/include/c++/3.3.1/bits/stl_list.h **** 
  64:d:/software/ovi_2503a_s3trc/ovi_2503a_s3trc/Tools/MinGW/include/c++/3.3.1/bits/stl_list.h **** #include <bits/concept_check.h>
  65:d:/software/ovi_2503a_s3trc/ovi_2503a_s3trc/Tools/MinGW/include/c++/3.3.1/bits/stl_list.h **** 
  66:d:/software/ovi_2503a_s3trc/ovi_2503a_s3trc/Tools/MinGW/include/c++/3.3.1/bits/stl_list.h **** namespace std
  67:d:/software/ovi_2503a_s3trc/ovi_2503a_s3trc/Tools/MinGW/include/c++/3.3.1/bits/stl_list.h **** {
  68:d:/software/ovi_2503a_s3trc/ovi_2503a_s3trc/Tools/MinGW/include/c++/3.3.1/bits/stl_list.h ****   // Supporting structures are split into common and templated types; the
  69:d:/software/ovi_2503a_s3trc/ovi_2503a_s3trc/Tools/MinGW/include/c++/3.3.1/bits/stl_list.h ****   // latter publicly inherits from the former in an effort to reduce code
  70:d:/software/ovi_2503a_s3trc/ovi_2503a_s3trc/Tools/MinGW/include/c++/3.3.1/bits/stl_list.h ****   // duplication.  This results in some "needless" static_cast'ing later on,
  71:d:/software/ovi_2503a_s3trc/ovi_2503a_s3trc/Tools/MinGW/include/c++/3.3.1/bits/stl_list.h ****   // but it's all safe downcasting.
  72:d:/software/ovi_2503a_s3trc/ovi_2503a_s3trc/Tools/MinGW/include/c++/3.3.1/bits/stl_list.h ****   
GAS LISTING d:/software/ovi_2503a_s3trc/ovi_2503a_s3trc/plutommi/Customer/ResGenerator/gcctmp/cci0baaa.s 			page 11


  73:d:/software/ovi_2503a_s3trc/ovi_2503a_s3trc/Tools/MinGW/include/c++/3.3.1/bits/stl_list.h ****   /// @if maint Common part of a node in the %list.  @endif
  74:d:/software/ovi_2503a_s3trc/ovi_2503a_s3trc/Tools/MinGW/include/c++/3.3.1/bits/stl_list.h ****   struct _List_node_base
  75:d:/software/ovi_2503a_s3trc/ovi_2503a_s3trc/Tools/MinGW/include/c++/3.3.1/bits/stl_list.h ****   {
  76:d:/software/ovi_2503a_s3trc/ovi_2503a_s3trc/Tools/MinGW/include/c++/3.3.1/bits/stl_list.h ****     _List_node_base* _M_next;   ///< Self-explanatory
  77:d:/software/ovi_2503a_s3trc/ovi_2503a_s3trc/Tools/MinGW/include/c++/3.3.1/bits/stl_list.h ****     _List_node_base* _M_prev;   ///< Self-explanatory
  78:d:/software/ovi_2503a_s3trc/ovi_2503a_s3trc/Tools/MinGW/include/c++/3.3.1/bits/stl_list.h ****   };
  79:d:/software/ovi_2503a_s3trc/ovi_2503a_s3trc/Tools/MinGW/include/c++/3.3.1/bits/stl_list.h ****   
  80:d:/software/ovi_2503a_s3trc/ovi_2503a_s3trc/Tools/MinGW/include/c++/3.3.1/bits/stl_list.h ****   /// @if maint An actual node in the %list.  @endif
  81:d:/software/ovi_2503a_s3trc/ovi_2503a_s3trc/Tools/MinGW/include/c++/3.3.1/bits/stl_list.h ****   template<typename _Tp>
  82:d:/software/ovi_2503a_s3trc/ovi_2503a_s3trc/Tools/MinGW/include/c++/3.3.1/bits/stl_list.h ****     struct _List_node : public _List_node_base
  83:d:/software/ovi_2503a_s3trc/ovi_2503a_s3trc/Tools/MinGW/include/c++/3.3.1/bits/stl_list.h ****   {
  84:d:/software/ovi_2503a_s3trc/ovi_2503a_s3trc/Tools/MinGW/include/c++/3.3.1/bits/stl_list.h ****     _Tp _M_data;                ///< User's data.
  85:d:/software/ovi_2503a_s3trc/ovi_2503a_s3trc/Tools/MinGW/include/c++/3.3.1/bits/stl_list.h ****   };
  86:d:/software/ovi_2503a_s3trc/ovi_2503a_s3trc/Tools/MinGW/include/c++/3.3.1/bits/stl_list.h ****   
  87:d:/software/ovi_2503a_s3trc/ovi_2503a_s3trc/Tools/MinGW/include/c++/3.3.1/bits/stl_list.h ****   
  88:d:/software/ovi_2503a_s3trc/ovi_2503a_s3trc/Tools/MinGW/include/c++/3.3.1/bits/stl_list.h ****   /**
  89:d:/software/ovi_2503a_s3trc/ovi_2503a_s3trc/Tools/MinGW/include/c++/3.3.1/bits/stl_list.h ****    *  @if maint
  90:d:/software/ovi_2503a_s3trc/ovi_2503a_s3trc/Tools/MinGW/include/c++/3.3.1/bits/stl_list.h ****    *  @brief Common part of a list::iterator.
  91:d:/software/ovi_2503a_s3trc/ovi_2503a_s3trc/Tools/MinGW/include/c++/3.3.1/bits/stl_list.h ****    *
  92:d:/software/ovi_2503a_s3trc/ovi_2503a_s3trc/Tools/MinGW/include/c++/3.3.1/bits/stl_list.h ****    *  A simple type to walk a doubly-linked list.  All operations here should
  93:d:/software/ovi_2503a_s3trc/ovi_2503a_s3trc/Tools/MinGW/include/c++/3.3.1/bits/stl_list.h ****    *  be self-explanatory after taking any decent introductory data structures
  94:d:/software/ovi_2503a_s3trc/ovi_2503a_s3trc/Tools/MinGW/include/c++/3.3.1/bits/stl_list.h ****    *  course.
  95:d:/software/ovi_2503a_s3trc/ovi_2503a_s3trc/Tools/MinGW/include/c++/3.3.1/bits/stl_list.h ****    *  @endif
  96:d:/software/ovi_2503a_s3trc/ovi_2503a_s3trc/Tools/MinGW/include/c++/3.3.1/bits/stl_list.h ****   */
  97:d:/software/ovi_2503a_s3trc/ovi_2503a_s3trc/Tools/MinGW/include/c++/3.3.1/bits/stl_list.h ****   struct _List_iterator_base
  98:d:/software/ovi_2503a_s3trc/ovi_2503a_s3trc/Tools/MinGW/include/c++/3.3.1/bits/stl_list.h ****   {
  99:d:/software/ovi_2503a_s3trc/ovi_2503a_s3trc/Tools/MinGW/include/c++/3.3.1/bits/stl_list.h ****     typedef size_t                        size_type;
 100:d:/software/ovi_2503a_s3trc/ovi_2503a_s3trc/Tools/MinGW/include/c++/3.3.1/bits/stl_list.h ****     typedef ptrdiff_t                     difference_type;
 101:d:/software/ovi_2503a_s3trc/ovi_2503a_s3trc/Tools/MinGW/include/c++/3.3.1/bits/stl_list.h ****     typedef bidirectional_iterator_tag    iterator_category;
 102:d:/software/ovi_2503a_s3trc/ovi_2503a_s3trc/Tools/MinGW/include/c++/3.3.1/bits/stl_list.h ****   
 103:d:/software/ovi_2503a_s3trc/ovi_2503a_s3trc/Tools/MinGW/include/c++/3.3.1/bits/stl_list.h ****     /// The only member points to the %list element.
 104:d:/software/ovi_2503a_s3trc/ovi_2503a_s3trc/Tools/MinGW/include/c++/3.3.1/bits/stl_list.h ****     _List_node_base* _M_node;
 105:d:/software/ovi_2503a_s3trc/ovi_2503a_s3trc/Tools/MinGW/include/c++/3.3.1/bits/stl_list.h ****   
 106:d:/software/ovi_2503a_s3trc/ovi_2503a_s3trc/Tools/MinGW/include/c++/3.3.1/bits/stl_list.h ****     _List_iterator_base(_List_node_base* __x)
 107:d:/software/ovi_2503a_s3trc/ovi_2503a_s3trc/Tools/MinGW/include/c++/3.3.1/bits/stl_list.h ****     : _M_node(__x)
 108:d:/software/ovi_2503a_s3trc/ovi_2503a_s3trc/Tools/MinGW/include/c++/3.3.1/bits/stl_list.h ****     { }
 109:d:/software/ovi_2503a_s3trc/ovi_2503a_s3trc/Tools/MinGW/include/c++/3.3.1/bits/stl_list.h ****   
 110:d:/software/ovi_2503a_s3trc/ovi_2503a_s3trc/Tools/MinGW/include/c++/3.3.1/bits/stl_list.h ****     _List_iterator_base()
 111:d:/software/ovi_2503a_s3trc/ovi_2503a_s3trc/Tools/MinGW/include/c++/3.3.1/bits/stl_list.h ****     { }
 112:d:/software/ovi_2503a_s3trc/ovi_2503a_s3trc/Tools/MinGW/include/c++/3.3.1/bits/stl_list.h ****   
 113:d:/software/ovi_2503a_s3trc/ovi_2503a_s3trc/Tools/MinGW/include/c++/3.3.1/bits/stl_list.h ****     /// Walk the %list forward.
 114:d:/software/ovi_2503a_s3trc/ovi_2503a_s3trc/Tools/MinGW/include/c++/3.3.1/bits/stl_list.h ****     void
 115:d:/software/ovi_2503a_s3trc/ovi_2503a_s3trc/Tools/MinGW/include/c++/3.3.1/bits/stl_list.h ****     _M_incr()
 116:d:/software/ovi_2503a_s3trc/ovi_2503a_s3trc/Tools/MinGW/include/c++/3.3.1/bits/stl_list.h ****     { _M_node = _M_node->_M_next; }
 117:d:/software/ovi_2503a_s3trc/ovi_2503a_s3trc/Tools/MinGW/include/c++/3.3.1/bits/stl_list.h ****   
 118:d:/software/ovi_2503a_s3trc/ovi_2503a_s3trc/Tools/MinGW/include/c++/3.3.1/bits/stl_list.h ****     /// Walk the %list backward.
 119:d:/software/ovi_2503a_s3trc/ovi_2503a_s3trc/Tools/MinGW/include/c++/3.3.1/bits/stl_list.h ****     void
 120:d:/software/ovi_2503a_s3trc/ovi_2503a_s3trc/Tools/MinGW/include/c++/3.3.1/bits/stl_list.h ****     _M_decr()
 121:d:/software/ovi_2503a_s3trc/ovi_2503a_s3trc/Tools/MinGW/include/c++/3.3.1/bits/stl_list.h ****     { _M_node = _M_node->_M_prev; }
 122:d:/software/ovi_2503a_s3trc/ovi_2503a_s3trc/Tools/MinGW/include/c++/3.3.1/bits/stl_list.h ****   
 123:d:/software/ovi_2503a_s3trc/ovi_2503a_s3trc/Tools/MinGW/include/c++/3.3.1/bits/stl_list.h ****     bool
 124:d:/software/ovi_2503a_s3trc/ovi_2503a_s3trc/Tools/MinGW/include/c++/3.3.1/bits/stl_list.h ****     operator==(const _List_iterator_base& __x) const
 125:d:/software/ovi_2503a_s3trc/ovi_2503a_s3trc/Tools/MinGW/include/c++/3.3.1/bits/stl_list.h ****     { return _M_node == __x._M_node; }
 126:d:/software/ovi_2503a_s3trc/ovi_2503a_s3trc/Tools/MinGW/include/c++/3.3.1/bits/stl_list.h ****   
 127:d:/software/ovi_2503a_s3trc/ovi_2503a_s3trc/Tools/MinGW/include/c++/3.3.1/bits/stl_list.h ****     bool
 128:d:/software/ovi_2503a_s3trc/ovi_2503a_s3trc/Tools/MinGW/include/c++/3.3.1/bits/stl_list.h ****     operator!=(const _List_iterator_base& __x) const
 129:d:/software/ovi_2503a_s3trc/ovi_2503a_s3trc/Tools/MinGW/include/c++/3.3.1/bits/stl_list.h ****     { return _M_node != __x._M_node; }
GAS LISTING d:/software/ovi_2503a_s3trc/ovi_2503a_s3trc/plutommi/Customer/ResGenerator/gcctmp/cci0baaa.s 			page 12


 130:d:/software/ovi_2503a_s3trc/ovi_2503a_s3trc/Tools/MinGW/include/c++/3.3.1/bits/stl_list.h ****   };
 131:d:/software/ovi_2503a_s3trc/ovi_2503a_s3trc/Tools/MinGW/include/c++/3.3.1/bits/stl_list.h ****   
 132:d:/software/ovi_2503a_s3trc/ovi_2503a_s3trc/Tools/MinGW/include/c++/3.3.1/bits/stl_list.h ****   /**
 133:d:/software/ovi_2503a_s3trc/ovi_2503a_s3trc/Tools/MinGW/include/c++/3.3.1/bits/stl_list.h ****    *  @brief A list::iterator.
 134:d:/software/ovi_2503a_s3trc/ovi_2503a_s3trc/Tools/MinGW/include/c++/3.3.1/bits/stl_list.h ****    *
 135:d:/software/ovi_2503a_s3trc/ovi_2503a_s3trc/Tools/MinGW/include/c++/3.3.1/bits/stl_list.h ****    *  In addition to being used externally, a list holds one of these
 136:d:/software/ovi_2503a_s3trc/ovi_2503a_s3trc/Tools/MinGW/include/c++/3.3.1/bits/stl_list.h ****    *  internally, pointing to the sequence of data.
 137:d:/software/ovi_2503a_s3trc/ovi_2503a_s3trc/Tools/MinGW/include/c++/3.3.1/bits/stl_list.h ****    *
 138:d:/software/ovi_2503a_s3trc/ovi_2503a_s3trc/Tools/MinGW/include/c++/3.3.1/bits/stl_list.h ****    *  @if maint
 139:d:/software/ovi_2503a_s3trc/ovi_2503a_s3trc/Tools/MinGW/include/c++/3.3.1/bits/stl_list.h ****    *  All the functions are op overloads.
 140:d:/software/ovi_2503a_s3trc/ovi_2503a_s3trc/Tools/MinGW/include/c++/3.3.1/bits/stl_list.h ****    *  @endif
 141:d:/software/ovi_2503a_s3trc/ovi_2503a_s3trc/Tools/MinGW/include/c++/3.3.1/bits/stl_list.h ****   */
 142:d:/software/ovi_2503a_s3trc/ovi_2503a_s3trc/Tools/MinGW/include/c++/3.3.1/bits/stl_list.h ****   template<typename _Tp, typename _Ref, typename _Ptr>
 143:d:/software/ovi_2503a_s3trc/ovi_2503a_s3trc/Tools/MinGW/include/c++/3.3.1/bits/stl_list.h ****     struct _List_iterator : public _List_iterator_base
 144:d:/software/ovi_2503a_s3trc/ovi_2503a_s3trc/Tools/MinGW/include/c++/3.3.1/bits/stl_list.h ****   {
 145:d:/software/ovi_2503a_s3trc/ovi_2503a_s3trc/Tools/MinGW/include/c++/3.3.1/bits/stl_list.h ****     typedef _List_iterator<_Tp,_Tp&,_Tp*>             iterator;
 146:d:/software/ovi_2503a_s3trc/ovi_2503a_s3trc/Tools/MinGW/include/c++/3.3.1/bits/stl_list.h ****     typedef _List_iterator<_Tp,const _Tp&,const _Tp*> const_iterator;
 147:d:/software/ovi_2503a_s3trc/ovi_2503a_s3trc/Tools/MinGW/include/c++/3.3.1/bits/stl_list.h ****     typedef _List_iterator<_Tp,_Ref,_Ptr>             _Self;
 148:d:/software/ovi_2503a_s3trc/ovi_2503a_s3trc/Tools/MinGW/include/c++/3.3.1/bits/stl_list.h ****   
 149:d:/software/ovi_2503a_s3trc/ovi_2503a_s3trc/Tools/MinGW/include/c++/3.3.1/bits/stl_list.h ****     typedef _Tp                                       value_type;
 150:d:/software/ovi_2503a_s3trc/ovi_2503a_s3trc/Tools/MinGW/include/c++/3.3.1/bits/stl_list.h ****     typedef _Ptr                                      pointer;
 151:d:/software/ovi_2503a_s3trc/ovi_2503a_s3trc/Tools/MinGW/include/c++/3.3.1/bits/stl_list.h ****     typedef _Ref                                      reference;
 152:d:/software/ovi_2503a_s3trc/ovi_2503a_s3trc/Tools/MinGW/include/c++/3.3.1/bits/stl_list.h ****     typedef _List_node<_Tp>                           _Node;
 153:d:/software/ovi_2503a_s3trc/ovi_2503a_s3trc/Tools/MinGW/include/c++/3.3.1/bits/stl_list.h ****   
 154:d:/software/ovi_2503a_s3trc/ovi_2503a_s3trc/Tools/MinGW/include/c++/3.3.1/bits/stl_list.h ****     _List_iterator(_Node* __x)
 155:d:/software/ovi_2503a_s3trc/ovi_2503a_s3trc/Tools/MinGW/include/c++/3.3.1/bits/stl_list.h ****     : _List_iterator_base(__x)
 156:d:/software/ovi_2503a_s3trc/ovi_2503a_s3trc/Tools/MinGW/include/c++/3.3.1/bits/stl_list.h ****     { }
 157:d:/software/ovi_2503a_s3trc/ovi_2503a_s3trc/Tools/MinGW/include/c++/3.3.1/bits/stl_list.h ****   
 158:d:/software/ovi_2503a_s3trc/ovi_2503a_s3trc/Tools/MinGW/include/c++/3.3.1/bits/stl_list.h ****     _List_iterator()
 159:d:/software/ovi_2503a_s3trc/ovi_2503a_s3trc/Tools/MinGW/include/c++/3.3.1/bits/stl_list.h ****     { }
 160:d:/software/ovi_2503a_s3trc/ovi_2503a_s3trc/Tools/MinGW/include/c++/3.3.1/bits/stl_list.h ****   
 161:d:/software/ovi_2503a_s3trc/ovi_2503a_s3trc/Tools/MinGW/include/c++/3.3.1/bits/stl_list.h ****     _List_iterator(const iterator& __x)
 162:d:/software/ovi_2503a_s3trc/ovi_2503a_s3trc/Tools/MinGW/include/c++/3.3.1/bits/stl_list.h ****     : _List_iterator_base(__x._M_node)
 163:d:/software/ovi_2503a_s3trc/ovi_2503a_s3trc/Tools/MinGW/include/c++/3.3.1/bits/stl_list.h ****     { }
 164:d:/software/ovi_2503a_s3trc/ovi_2503a_s3trc/Tools/MinGW/include/c++/3.3.1/bits/stl_list.h ****   
 165:d:/software/ovi_2503a_s3trc/ovi_2503a_s3trc/Tools/MinGW/include/c++/3.3.1/bits/stl_list.h ****     reference
 166:d:/software/ovi_2503a_s3trc/ovi_2503a_s3trc/Tools/MinGW/include/c++/3.3.1/bits/stl_list.h ****     operator*() const
 167:d:/software/ovi_2503a_s3trc/ovi_2503a_s3trc/Tools/MinGW/include/c++/3.3.1/bits/stl_list.h ****     { return static_cast<_Node*>(_M_node)->_M_data; }
 168:d:/software/ovi_2503a_s3trc/ovi_2503a_s3trc/Tools/MinGW/include/c++/3.3.1/bits/stl_list.h ****     // Must downcast from List_node_base to _List_node to get to _M_data.
 169:d:/software/ovi_2503a_s3trc/ovi_2503a_s3trc/Tools/MinGW/include/c++/3.3.1/bits/stl_list.h ****   
 170:d:/software/ovi_2503a_s3trc/ovi_2503a_s3trc/Tools/MinGW/include/c++/3.3.1/bits/stl_list.h ****     pointer
 171:d:/software/ovi_2503a_s3trc/ovi_2503a_s3trc/Tools/MinGW/include/c++/3.3.1/bits/stl_list.h ****     operator->() const
 172:d:/software/ovi_2503a_s3trc/ovi_2503a_s3trc/Tools/MinGW/include/c++/3.3.1/bits/stl_list.h ****     { return &(operator*()); }
 173:d:/software/ovi_2503a_s3trc/ovi_2503a_s3trc/Tools/MinGW/include/c++/3.3.1/bits/stl_list.h ****   
 174:d:/software/ovi_2503a_s3trc/ovi_2503a_s3trc/Tools/MinGW/include/c++/3.3.1/bits/stl_list.h ****     _Self&
 175:d:/software/ovi_2503a_s3trc/ovi_2503a_s3trc/Tools/MinGW/include/c++/3.3.1/bits/stl_list.h ****     operator++()
 176:d:/software/ovi_2503a_s3trc/ovi_2503a_s3trc/Tools/MinGW/include/c++/3.3.1/bits/stl_list.h ****     {
 177:d:/software/ovi_2503a_s3trc/ovi_2503a_s3trc/Tools/MinGW/include/c++/3.3.1/bits/stl_list.h ****       this->_M_incr();
 178:d:/software/ovi_2503a_s3trc/ovi_2503a_s3trc/Tools/MinGW/include/c++/3.3.1/bits/stl_list.h ****       return *this;
 179:d:/software/ovi_2503a_s3trc/ovi_2503a_s3trc/Tools/MinGW/include/c++/3.3.1/bits/stl_list.h ****     }
 180:d:/software/ovi_2503a_s3trc/ovi_2503a_s3trc/Tools/MinGW/include/c++/3.3.1/bits/stl_list.h ****   
 181:d:/software/ovi_2503a_s3trc/ovi_2503a_s3trc/Tools/MinGW/include/c++/3.3.1/bits/stl_list.h ****     _Self
 182:d:/software/ovi_2503a_s3trc/ovi_2503a_s3trc/Tools/MinGW/include/c++/3.3.1/bits/stl_list.h ****     operator++(int)
 183:d:/software/ovi_2503a_s3trc/ovi_2503a_s3trc/Tools/MinGW/include/c++/3.3.1/bits/stl_list.h ****     {
 184:d:/software/ovi_2503a_s3trc/ovi_2503a_s3trc/Tools/MinGW/include/c++/3.3.1/bits/stl_list.h ****       _Self __tmp = *this;
 185:d:/software/ovi_2503a_s3trc/ovi_2503a_s3trc/Tools/MinGW/include/c++/3.3.1/bits/stl_list.h ****       this->_M_incr();
 186:d:/software/ovi_2503a_s3trc/ovi_2503a_s3trc/Tools/MinGW/include/c++/3.3.1/bits/stl_list.h ****       return __tmp;
GAS LISTING d:/software/ovi_2503a_s3trc/ovi_2503a_s3trc/plutommi/Customer/ResGenerator/gcctmp/cci0baaa.s 			page 13


 187:d:/software/ovi_2503a_s3trc/ovi_2503a_s3trc/Tools/MinGW/include/c++/3.3.1/bits/stl_list.h ****     }
 188:d:/software/ovi_2503a_s3trc/ovi_2503a_s3trc/Tools/MinGW/include/c++/3.3.1/bits/stl_list.h ****   
 189:d:/software/ovi_2503a_s3trc/ovi_2503a_s3trc/Tools/MinGW/include/c++/3.3.1/bits/stl_list.h ****     _Self&
 190:d:/software/ovi_2503a_s3trc/ovi_2503a_s3trc/Tools/MinGW/include/c++/3.3.1/bits/stl_list.h ****     operator--()
 191:d:/software/ovi_2503a_s3trc/ovi_2503a_s3trc/Tools/MinGW/include/c++/3.3.1/bits/stl_list.h ****     {
 192:d:/software/ovi_2503a_s3trc/ovi_2503a_s3trc/Tools/MinGW/include/c++/3.3.1/bits/stl_list.h ****       this->_M_decr();
 193:d:/software/ovi_2503a_s3trc/ovi_2503a_s3trc/Tools/MinGW/include/c++/3.3.1/bits/stl_list.h ****       return *this;
 194:d:/software/ovi_2503a_s3trc/ovi_2503a_s3trc/Tools/MinGW/include/c++/3.3.1/bits/stl_list.h ****     }
 195:d:/software/ovi_2503a_s3trc/ovi_2503a_s3trc/Tools/MinGW/include/c++/3.3.1/bits/stl_list.h ****   
 196:d:/software/ovi_2503a_s3trc/ovi_2503a_s3trc/Tools/MinGW/include/c++/3.3.1/bits/stl_list.h ****     _Self
 197:d:/software/ovi_2503a_s3trc/ovi_2503a_s3trc/Tools/MinGW/include/c++/3.3.1/bits/stl_list.h ****     operator--(int)
 198:d:/software/ovi_2503a_s3trc/ovi_2503a_s3trc/Tools/MinGW/include/c++/3.3.1/bits/stl_list.h ****     {
 199:d:/software/ovi_2503a_s3trc/ovi_2503a_s3trc/Tools/MinGW/include/c++/3.3.1/bits/stl_list.h ****       _Self __tmp = *this;
 200:d:/software/ovi_2503a_s3trc/ovi_2503a_s3trc/Tools/MinGW/include/c++/3.3.1/bits/stl_list.h ****       this->_M_decr();
 201:d:/software/ovi_2503a_s3trc/ovi_2503a_s3trc/Tools/MinGW/include/c++/3.3.1/bits/stl_list.h ****       return __tmp;
 202:d:/software/ovi_2503a_s3trc/ovi_2503a_s3trc/Tools/MinGW/include/c++/3.3.1/bits/stl_list.h ****     }
 203:d:/software/ovi_2503a_s3trc/ovi_2503a_s3trc/Tools/MinGW/include/c++/3.3.1/bits/stl_list.h ****   };
 204:d:/software/ovi_2503a_s3trc/ovi_2503a_s3trc/Tools/MinGW/include/c++/3.3.1/bits/stl_list.h ****   
 205:d:/software/ovi_2503a_s3trc/ovi_2503a_s3trc/Tools/MinGW/include/c++/3.3.1/bits/stl_list.h ****   
 206:d:/software/ovi_2503a_s3trc/ovi_2503a_s3trc/Tools/MinGW/include/c++/3.3.1/bits/stl_list.h ****   /// @if maint Primary default version.  @endif
 207:d:/software/ovi_2503a_s3trc/ovi_2503a_s3trc/Tools/MinGW/include/c++/3.3.1/bits/stl_list.h ****   /**
 208:d:/software/ovi_2503a_s3trc/ovi_2503a_s3trc/Tools/MinGW/include/c++/3.3.1/bits/stl_list.h ****    *  @if maint
 209:d:/software/ovi_2503a_s3trc/ovi_2503a_s3trc/Tools/MinGW/include/c++/3.3.1/bits/stl_list.h ****    *  See bits/stl_deque.h's _Deque_alloc_base for an explanation.
 210:d:/software/ovi_2503a_s3trc/ovi_2503a_s3trc/Tools/MinGW/include/c++/3.3.1/bits/stl_list.h ****    *  @endif
 211:d:/software/ovi_2503a_s3trc/ovi_2503a_s3trc/Tools/MinGW/include/c++/3.3.1/bits/stl_list.h ****   */
 212:d:/software/ovi_2503a_s3trc/ovi_2503a_s3trc/Tools/MinGW/include/c++/3.3.1/bits/stl_list.h ****   template<typename _Tp, typename _Allocator, bool _IsStatic>
 213:d:/software/ovi_2503a_s3trc/ovi_2503a_s3trc/Tools/MinGW/include/c++/3.3.1/bits/stl_list.h ****     class _List_alloc_base
 214:d:/software/ovi_2503a_s3trc/ovi_2503a_s3trc/Tools/MinGW/include/c++/3.3.1/bits/stl_list.h ****   {
 215:d:/software/ovi_2503a_s3trc/ovi_2503a_s3trc/Tools/MinGW/include/c++/3.3.1/bits/stl_list.h ****   public:
 216:d:/software/ovi_2503a_s3trc/ovi_2503a_s3trc/Tools/MinGW/include/c++/3.3.1/bits/stl_list.h ****     typedef typename _Alloc_traits<_Tp, _Allocator>::allocator_type
 217:d:/software/ovi_2503a_s3trc/ovi_2503a_s3trc/Tools/MinGW/include/c++/3.3.1/bits/stl_list.h ****             allocator_type;
 218:d:/software/ovi_2503a_s3trc/ovi_2503a_s3trc/Tools/MinGW/include/c++/3.3.1/bits/stl_list.h ****   
 219:d:/software/ovi_2503a_s3trc/ovi_2503a_s3trc/Tools/MinGW/include/c++/3.3.1/bits/stl_list.h ****     allocator_type
 220:d:/software/ovi_2503a_s3trc/ovi_2503a_s3trc/Tools/MinGW/include/c++/3.3.1/bits/stl_list.h ****     get_allocator() const { return _M_node_allocator; }
 221:d:/software/ovi_2503a_s3trc/ovi_2503a_s3trc/Tools/MinGW/include/c++/3.3.1/bits/stl_list.h ****   
 222:d:/software/ovi_2503a_s3trc/ovi_2503a_s3trc/Tools/MinGW/include/c++/3.3.1/bits/stl_list.h ****     _List_alloc_base(const allocator_type& __a)
 223:d:/software/ovi_2503a_s3trc/ovi_2503a_s3trc/Tools/MinGW/include/c++/3.3.1/bits/stl_list.h ****     : _M_node_allocator(__a)
 224:d:/software/ovi_2503a_s3trc/ovi_2503a_s3trc/Tools/MinGW/include/c++/3.3.1/bits/stl_list.h ****     { }
 225:d:/software/ovi_2503a_s3trc/ovi_2503a_s3trc/Tools/MinGW/include/c++/3.3.1/bits/stl_list.h ****   
 226:d:/software/ovi_2503a_s3trc/ovi_2503a_s3trc/Tools/MinGW/include/c++/3.3.1/bits/stl_list.h ****   protected:
 227:d:/software/ovi_2503a_s3trc/ovi_2503a_s3trc/Tools/MinGW/include/c++/3.3.1/bits/stl_list.h ****     _List_node<_Tp>*
 228:d:/software/ovi_2503a_s3trc/ovi_2503a_s3trc/Tools/MinGW/include/c++/3.3.1/bits/stl_list.h ****     _M_get_node()
 229:d:/software/ovi_2503a_s3trc/ovi_2503a_s3trc/Tools/MinGW/include/c++/3.3.1/bits/stl_list.h ****     { return _M_node_allocator.allocate(1); }
 230:d:/software/ovi_2503a_s3trc/ovi_2503a_s3trc/Tools/MinGW/include/c++/3.3.1/bits/stl_list.h ****   
 231:d:/software/ovi_2503a_s3trc/ovi_2503a_s3trc/Tools/MinGW/include/c++/3.3.1/bits/stl_list.h ****     void
 232:d:/software/ovi_2503a_s3trc/ovi_2503a_s3trc/Tools/MinGW/include/c++/3.3.1/bits/stl_list.h ****     _M_put_node(_List_node<_Tp>* __p)
 233:d:/software/ovi_2503a_s3trc/ovi_2503a_s3trc/Tools/MinGW/include/c++/3.3.1/bits/stl_list.h ****     { _M_node_allocator.deallocate(__p, 1); }
 234:d:/software/ovi_2503a_s3trc/ovi_2503a_s3trc/Tools/MinGW/include/c++/3.3.1/bits/stl_list.h ****   
 235:d:/software/ovi_2503a_s3trc/ovi_2503a_s3trc/Tools/MinGW/include/c++/3.3.1/bits/stl_list.h ****     // NOTA BENE
 236:d:/software/ovi_2503a_s3trc/ovi_2503a_s3trc/Tools/MinGW/include/c++/3.3.1/bits/stl_list.h ****     // The stored instance is not actually of "allocator_type"'s type.  Instead
 237:d:/software/ovi_2503a_s3trc/ovi_2503a_s3trc/Tools/MinGW/include/c++/3.3.1/bits/stl_list.h ****     // we rebind the type to Allocator<List_node<Tp>>, which according to
 238:d:/software/ovi_2503a_s3trc/ovi_2503a_s3trc/Tools/MinGW/include/c++/3.3.1/bits/stl_list.h ****     // [20.1.5]/4 should probably be the same.  List_node<Tp> is not the same
 239:d:/software/ovi_2503a_s3trc/ovi_2503a_s3trc/Tools/MinGW/include/c++/3.3.1/bits/stl_list.h ****     // size as Tp (it's two pointers larger), and specializations on Tp may go
 240:d:/software/ovi_2503a_s3trc/ovi_2503a_s3trc/Tools/MinGW/include/c++/3.3.1/bits/stl_list.h ****     // unused because List_node<Tp> is being bound instead.
 241:d:/software/ovi_2503a_s3trc/ovi_2503a_s3trc/Tools/MinGW/include/c++/3.3.1/bits/stl_list.h ****     //
 242:d:/software/ovi_2503a_s3trc/ovi_2503a_s3trc/Tools/MinGW/include/c++/3.3.1/bits/stl_list.h ****     // We put this to the test in get_allocator above; if the two types are
 243:d:/software/ovi_2503a_s3trc/ovi_2503a_s3trc/Tools/MinGW/include/c++/3.3.1/bits/stl_list.h ****     // actually different, there had better be a conversion between them.
GAS LISTING d:/software/ovi_2503a_s3trc/ovi_2503a_s3trc/plutommi/Customer/ResGenerator/gcctmp/cci0baaa.s 			page 14


 244:d:/software/ovi_2503a_s3trc/ovi_2503a_s3trc/Tools/MinGW/include/c++/3.3.1/bits/stl_list.h ****     //
 245:d:/software/ovi_2503a_s3trc/ovi_2503a_s3trc/Tools/MinGW/include/c++/3.3.1/bits/stl_list.h ****     // None of the predefined allocators shipped with the library (as of 3.1)
 246:d:/software/ovi_2503a_s3trc/ovi_2503a_s3trc/Tools/MinGW/include/c++/3.3.1/bits/stl_list.h ****     // use this instantiation anyhow; they're all instanceless.
 247:d:/software/ovi_2503a_s3trc/ovi_2503a_s3trc/Tools/MinGW/include/c++/3.3.1/bits/stl_list.h ****     typename _Alloc_traits<_List_node<_Tp>, _Allocator>::allocator_type
 248:d:/software/ovi_2503a_s3trc/ovi_2503a_s3trc/Tools/MinGW/include/c++/3.3.1/bits/stl_list.h ****              _M_node_allocator;
 249:d:/software/ovi_2503a_s3trc/ovi_2503a_s3trc/Tools/MinGW/include/c++/3.3.1/bits/stl_list.h ****   
 250:d:/software/ovi_2503a_s3trc/ovi_2503a_s3trc/Tools/MinGW/include/c++/3.3.1/bits/stl_list.h ****     _List_node<_Tp>* _M_node;
 251:d:/software/ovi_2503a_s3trc/ovi_2503a_s3trc/Tools/MinGW/include/c++/3.3.1/bits/stl_list.h ****   };
 252:d:/software/ovi_2503a_s3trc/ovi_2503a_s3trc/Tools/MinGW/include/c++/3.3.1/bits/stl_list.h ****   
 253:d:/software/ovi_2503a_s3trc/ovi_2503a_s3trc/Tools/MinGW/include/c++/3.3.1/bits/stl_list.h ****   /// @if maint Specialization for instanceless allocators.  @endif
 254:d:/software/ovi_2503a_s3trc/ovi_2503a_s3trc/Tools/MinGW/include/c++/3.3.1/bits/stl_list.h ****   template<typename _Tp, typename _Allocator>
 255:d:/software/ovi_2503a_s3trc/ovi_2503a_s3trc/Tools/MinGW/include/c++/3.3.1/bits/stl_list.h ****     class _List_alloc_base<_Tp, _Allocator, true>
 256:d:/software/ovi_2503a_s3trc/ovi_2503a_s3trc/Tools/MinGW/include/c++/3.3.1/bits/stl_list.h ****   {
 257:d:/software/ovi_2503a_s3trc/ovi_2503a_s3trc/Tools/MinGW/include/c++/3.3.1/bits/stl_list.h ****   public:
 258:d:/software/ovi_2503a_s3trc/ovi_2503a_s3trc/Tools/MinGW/include/c++/3.3.1/bits/stl_list.h ****     typedef typename _Alloc_traits<_Tp, _Allocator>::allocator_type
 259:d:/software/ovi_2503a_s3trc/ovi_2503a_s3trc/Tools/MinGW/include/c++/3.3.1/bits/stl_list.h ****             allocator_type;
 260:d:/software/ovi_2503a_s3trc/ovi_2503a_s3trc/Tools/MinGW/include/c++/3.3.1/bits/stl_list.h ****   
 261:d:/software/ovi_2503a_s3trc/ovi_2503a_s3trc/Tools/MinGW/include/c++/3.3.1/bits/stl_list.h ****     allocator_type
 262:d:/software/ovi_2503a_s3trc/ovi_2503a_s3trc/Tools/MinGW/include/c++/3.3.1/bits/stl_list.h ****     get_allocator() const { return allocator_type(); }
 263:d:/software/ovi_2503a_s3trc/ovi_2503a_s3trc/Tools/MinGW/include/c++/3.3.1/bits/stl_list.h ****   
 264:d:/software/ovi_2503a_s3trc/ovi_2503a_s3trc/Tools/MinGW/include/c++/3.3.1/bits/stl_list.h ****     _List_alloc_base(const allocator_type&)
 265:d:/software/ovi_2503a_s3trc/ovi_2503a_s3trc/Tools/MinGW/include/c++/3.3.1/bits/stl_list.h ****     { }
 266:d:/software/ovi_2503a_s3trc/ovi_2503a_s3trc/Tools/MinGW/include/c++/3.3.1/bits/stl_list.h ****   
 267:d:/software/ovi_2503a_s3trc/ovi_2503a_s3trc/Tools/MinGW/include/c++/3.3.1/bits/stl_list.h ****   protected:
 268:d:/software/ovi_2503a_s3trc/ovi_2503a_s3trc/Tools/MinGW/include/c++/3.3.1/bits/stl_list.h ****     // See comment in primary template class about why this is safe for the
 269:d:/software/ovi_2503a_s3trc/ovi_2503a_s3trc/Tools/MinGW/include/c++/3.3.1/bits/stl_list.h ****     // standard predefined classes.
 270:d:/software/ovi_2503a_s3trc/ovi_2503a_s3trc/Tools/MinGW/include/c++/3.3.1/bits/stl_list.h ****     typedef typename _Alloc_traits<_List_node<_Tp>, _Allocator>::_Alloc_type
 271:d:/software/ovi_2503a_s3trc/ovi_2503a_s3trc/Tools/MinGW/include/c++/3.3.1/bits/stl_list.h ****             _Alloc_type;
 272:d:/software/ovi_2503a_s3trc/ovi_2503a_s3trc/Tools/MinGW/include/c++/3.3.1/bits/stl_list.h ****   
 273:d:/software/ovi_2503a_s3trc/ovi_2503a_s3trc/Tools/MinGW/include/c++/3.3.1/bits/stl_list.h ****     _List_node<_Tp>*
 274:d:/software/ovi_2503a_s3trc/ovi_2503a_s3trc/Tools/MinGW/include/c++/3.3.1/bits/stl_list.h ****     _M_get_node()
 275:d:/software/ovi_2503a_s3trc/ovi_2503a_s3trc/Tools/MinGW/include/c++/3.3.1/bits/stl_list.h ****     { return _Alloc_type::allocate(1); }
 276:d:/software/ovi_2503a_s3trc/ovi_2503a_s3trc/Tools/MinGW/include/c++/3.3.1/bits/stl_list.h ****   
 277:d:/software/ovi_2503a_s3trc/ovi_2503a_s3trc/Tools/MinGW/include/c++/3.3.1/bits/stl_list.h ****     void
 278:d:/software/ovi_2503a_s3trc/ovi_2503a_s3trc/Tools/MinGW/include/c++/3.3.1/bits/stl_list.h ****     _M_put_node(_List_node<_Tp>* __p)
 279:d:/software/ovi_2503a_s3trc/ovi_2503a_s3trc/Tools/MinGW/include/c++/3.3.1/bits/stl_list.h ****     { _Alloc_type::deallocate(__p, 1); }
 280:d:/software/ovi_2503a_s3trc/ovi_2503a_s3trc/Tools/MinGW/include/c++/3.3.1/bits/stl_list.h ****   
 281:d:/software/ovi_2503a_s3trc/ovi_2503a_s3trc/Tools/MinGW/include/c++/3.3.1/bits/stl_list.h ****     _List_node<_Tp>* _M_node;
 282:d:/software/ovi_2503a_s3trc/ovi_2503a_s3trc/Tools/MinGW/include/c++/3.3.1/bits/stl_list.h ****   };
 283:d:/software/ovi_2503a_s3trc/ovi_2503a_s3trc/Tools/MinGW/include/c++/3.3.1/bits/stl_list.h ****   
 284:d:/software/ovi_2503a_s3trc/ovi_2503a_s3trc/Tools/MinGW/include/c++/3.3.1/bits/stl_list.h ****   
 285:d:/software/ovi_2503a_s3trc/ovi_2503a_s3trc/Tools/MinGW/include/c++/3.3.1/bits/stl_list.h ****   /**
 286:d:/software/ovi_2503a_s3trc/ovi_2503a_s3trc/Tools/MinGW/include/c++/3.3.1/bits/stl_list.h ****    *  @if maint
 287:d:/software/ovi_2503a_s3trc/ovi_2503a_s3trc/Tools/MinGW/include/c++/3.3.1/bits/stl_list.h ****    *  See bits/stl_deque.h's _Deque_base for an explanation.
 288:d:/software/ovi_2503a_s3trc/ovi_2503a_s3trc/Tools/MinGW/include/c++/3.3.1/bits/stl_list.h ****    *  @endif
 289:d:/software/ovi_2503a_s3trc/ovi_2503a_s3trc/Tools/MinGW/include/c++/3.3.1/bits/stl_list.h ****   */
 290:d:/software/ovi_2503a_s3trc/ovi_2503a_s3trc/Tools/MinGW/include/c++/3.3.1/bits/stl_list.h ****   template <typename _Tp, typename _Alloc>
 291:d:/software/ovi_2503a_s3trc/ovi_2503a_s3trc/Tools/MinGW/include/c++/3.3.1/bits/stl_list.h ****     class _List_base
 292:d:/software/ovi_2503a_s3trc/ovi_2503a_s3trc/Tools/MinGW/include/c++/3.3.1/bits/stl_list.h ****     : public _List_alloc_base<_Tp, _Alloc,
 293:d:/software/ovi_2503a_s3trc/ovi_2503a_s3trc/Tools/MinGW/include/c++/3.3.1/bits/stl_list.h ****                               _Alloc_traits<_Tp, _Alloc>::_S_instanceless>
 294:d:/software/ovi_2503a_s3trc/ovi_2503a_s3trc/Tools/MinGW/include/c++/3.3.1/bits/stl_list.h ****   {
 295:d:/software/ovi_2503a_s3trc/ovi_2503a_s3trc/Tools/MinGW/include/c++/3.3.1/bits/stl_list.h ****   public:
 296:d:/software/ovi_2503a_s3trc/ovi_2503a_s3trc/Tools/MinGW/include/c++/3.3.1/bits/stl_list.h ****     typedef _List_alloc_base<_Tp, _Alloc,
 297:d:/software/ovi_2503a_s3trc/ovi_2503a_s3trc/Tools/MinGW/include/c++/3.3.1/bits/stl_list.h ****                              _Alloc_traits<_Tp, _Alloc>::_S_instanceless>
 298:d:/software/ovi_2503a_s3trc/ovi_2503a_s3trc/Tools/MinGW/include/c++/3.3.1/bits/stl_list.h ****             _Base;
 299:d:/software/ovi_2503a_s3trc/ovi_2503a_s3trc/Tools/MinGW/include/c++/3.3.1/bits/stl_list.h ****     typedef typename _Base::allocator_type allocator_type;
 300:d:/software/ovi_2503a_s3trc/ovi_2503a_s3trc/Tools/MinGW/include/c++/3.3.1/bits/stl_list.h ****   
GAS LISTING d:/software/ovi_2503a_s3trc/ovi_2503a_s3trc/plutommi/Customer/ResGenerator/gcctmp/cci0baaa.s 			page 15


 301:d:/software/ovi_2503a_s3trc/ovi_2503a_s3trc/Tools/MinGW/include/c++/3.3.1/bits/stl_list.h ****     _List_base(const allocator_type& __a)
 302:d:/software/ovi_2503a_s3trc/ovi_2503a_s3trc/Tools/MinGW/include/c++/3.3.1/bits/stl_list.h ****     : _Base(__a)
 303:d:/software/ovi_2503a_s3trc/ovi_2503a_s3trc/Tools/MinGW/include/c++/3.3.1/bits/stl_list.h ****     {
 304:d:/software/ovi_2503a_s3trc/ovi_2503a_s3trc/Tools/MinGW/include/c++/3.3.1/bits/stl_list.h ****       _M_node = _M_get_node();
 305:d:/software/ovi_2503a_s3trc/ovi_2503a_s3trc/Tools/MinGW/include/c++/3.3.1/bits/stl_list.h ****       _M_node->_M_next = _M_node;
 306:d:/software/ovi_2503a_s3trc/ovi_2503a_s3trc/Tools/MinGW/include/c++/3.3.1/bits/stl_list.h ****       _M_node->_M_prev = _M_node;
 307:d:/software/ovi_2503a_s3trc/ovi_2503a_s3trc/Tools/MinGW/include/c++/3.3.1/bits/stl_list.h ****     }
 308:d:/software/ovi_2503a_s3trc/ovi_2503a_s3trc/Tools/MinGW/include/c++/3.3.1/bits/stl_list.h ****   
 309:d:/software/ovi_2503a_s3trc/ovi_2503a_s3trc/Tools/MinGW/include/c++/3.3.1/bits/stl_list.h ****     // This is what actually destroys the list.
 310:d:/software/ovi_2503a_s3trc/ovi_2503a_s3trc/Tools/MinGW/include/c++/3.3.1/bits/stl_list.h ****     ~_List_base()
 311:d:/software/ovi_2503a_s3trc/ovi_2503a_s3trc/Tools/MinGW/include/c++/3.3.1/bits/stl_list.h ****     {
 312:d:/software/ovi_2503a_s3trc/ovi_2503a_s3trc/Tools/MinGW/include/c++/3.3.1/bits/stl_list.h ****       __clear();
 313:d:/software/ovi_2503a_s3trc/ovi_2503a_s3trc/Tools/MinGW/include/c++/3.3.1/bits/stl_list.h ****       _M_put_node(_M_node);
 314:d:/software/ovi_2503a_s3trc/ovi_2503a_s3trc/Tools/MinGW/include/c++/3.3.1/bits/stl_list.h ****     }
 315:d:/software/ovi_2503a_s3trc/ovi_2503a_s3trc/Tools/MinGW/include/c++/3.3.1/bits/stl_list.h ****   
 316:d:/software/ovi_2503a_s3trc/ovi_2503a_s3trc/Tools/MinGW/include/c++/3.3.1/bits/stl_list.h ****     void
 317:d:/software/ovi_2503a_s3trc/ovi_2503a_s3trc/Tools/MinGW/include/c++/3.3.1/bits/stl_list.h ****     __clear();
 318:d:/software/ovi_2503a_s3trc/ovi_2503a_s3trc/Tools/MinGW/include/c++/3.3.1/bits/stl_list.h ****   };
 319:d:/software/ovi_2503a_s3trc/ovi_2503a_s3trc/Tools/MinGW/include/c++/3.3.1/bits/stl_list.h ****   
 320:d:/software/ovi_2503a_s3trc/ovi_2503a_s3trc/Tools/MinGW/include/c++/3.3.1/bits/stl_list.h ****   
 321:d:/software/ovi_2503a_s3trc/ovi_2503a_s3trc/Tools/MinGW/include/c++/3.3.1/bits/stl_list.h ****   /**
 322:d:/software/ovi_2503a_s3trc/ovi_2503a_s3trc/Tools/MinGW/include/c++/3.3.1/bits/stl_list.h ****    *  @brief  A standard container with linear time access to elements, and
 323:d:/software/ovi_2503a_s3trc/ovi_2503a_s3trc/Tools/MinGW/include/c++/3.3.1/bits/stl_list.h ****    *  fixed time insertion/deletion at any point in the sequence.
 324:d:/software/ovi_2503a_s3trc/ovi_2503a_s3trc/Tools/MinGW/include/c++/3.3.1/bits/stl_list.h ****    *
 325:d:/software/ovi_2503a_s3trc/ovi_2503a_s3trc/Tools/MinGW/include/c++/3.3.1/bits/stl_list.h ****    *  @ingroup Containers
 326:d:/software/ovi_2503a_s3trc/ovi_2503a_s3trc/Tools/MinGW/include/c++/3.3.1/bits/stl_list.h ****    *  @ingroup Sequences
 327:d:/software/ovi_2503a_s3trc/ovi_2503a_s3trc/Tools/MinGW/include/c++/3.3.1/bits/stl_list.h ****    *
 328:d:/software/ovi_2503a_s3trc/ovi_2503a_s3trc/Tools/MinGW/include/c++/3.3.1/bits/stl_list.h ****    *  Meets the requirements of a <a href="tables.html#65">container</a>, a
 329:d:/software/ovi_2503a_s3trc/ovi_2503a_s3trc/Tools/MinGW/include/c++/3.3.1/bits/stl_list.h ****    *  <a href="tables.html#66">reversible container</a>, and a
 330:d:/software/ovi_2503a_s3trc/ovi_2503a_s3trc/Tools/MinGW/include/c++/3.3.1/bits/stl_list.h ****    *  <a href="tables.html#67">sequence</a>, including the
 331:d:/software/ovi_2503a_s3trc/ovi_2503a_s3trc/Tools/MinGW/include/c++/3.3.1/bits/stl_list.h ****    *  <a href="tables.html#68">optional sequence requirements</a> with the
 332:d:/software/ovi_2503a_s3trc/ovi_2503a_s3trc/Tools/MinGW/include/c++/3.3.1/bits/stl_list.h ****    *  %exception of @c at and @c operator[].
 333:d:/software/ovi_2503a_s3trc/ovi_2503a_s3trc/Tools/MinGW/include/c++/3.3.1/bits/stl_list.h ****    *
 334:d:/software/ovi_2503a_s3trc/ovi_2503a_s3trc/Tools/MinGW/include/c++/3.3.1/bits/stl_list.h ****    *  This is a @e doubly @e linked %list.  Traversal up and down the %list
 335:d:/software/ovi_2503a_s3trc/ovi_2503a_s3trc/Tools/MinGW/include/c++/3.3.1/bits/stl_list.h ****    *  requires linear time, but adding and removing elements (or @e nodes) is
 336:d:/software/ovi_2503a_s3trc/ovi_2503a_s3trc/Tools/MinGW/include/c++/3.3.1/bits/stl_list.h ****    *  done in constant time, regardless of where the change takes place.
 337:d:/software/ovi_2503a_s3trc/ovi_2503a_s3trc/Tools/MinGW/include/c++/3.3.1/bits/stl_list.h ****    *  Unlike std::vector and std::deque, random-access iterators are not
 338:d:/software/ovi_2503a_s3trc/ovi_2503a_s3trc/Tools/MinGW/include/c++/3.3.1/bits/stl_list.h ****    *  provided, so subscripting ( @c [] ) access is not allowed.  For algorithms
 339:d:/software/ovi_2503a_s3trc/ovi_2503a_s3trc/Tools/MinGW/include/c++/3.3.1/bits/stl_list.h ****    *  which only need sequential access, this lack makes no difference.
 340:d:/software/ovi_2503a_s3trc/ovi_2503a_s3trc/Tools/MinGW/include/c++/3.3.1/bits/stl_list.h ****    *
 341:d:/software/ovi_2503a_s3trc/ovi_2503a_s3trc/Tools/MinGW/include/c++/3.3.1/bits/stl_list.h ****    *  Also unlike the other standard containers, std::list provides specialized 
 342:d:/software/ovi_2503a_s3trc/ovi_2503a_s3trc/Tools/MinGW/include/c++/3.3.1/bits/stl_list.h ****    *  algorithms %unique to linked lists, such as splicing, sorting, and
 343:d:/software/ovi_2503a_s3trc/ovi_2503a_s3trc/Tools/MinGW/include/c++/3.3.1/bits/stl_list.h ****    *  in-place reversal.
 344:d:/software/ovi_2503a_s3trc/ovi_2503a_s3trc/Tools/MinGW/include/c++/3.3.1/bits/stl_list.h ****    *
 345:d:/software/ovi_2503a_s3trc/ovi_2503a_s3trc/Tools/MinGW/include/c++/3.3.1/bits/stl_list.h ****    *  @if maint
 346:d:/software/ovi_2503a_s3trc/ovi_2503a_s3trc/Tools/MinGW/include/c++/3.3.1/bits/stl_list.h ****    *  A couple points on memory allocation for list<Tp>:
 347:d:/software/ovi_2503a_s3trc/ovi_2503a_s3trc/Tools/MinGW/include/c++/3.3.1/bits/stl_list.h ****    *
 348:d:/software/ovi_2503a_s3trc/ovi_2503a_s3trc/Tools/MinGW/include/c++/3.3.1/bits/stl_list.h ****    *  First, we never actually allocate a Tp, we allocate List_node<Tp>'s
 349:d:/software/ovi_2503a_s3trc/ovi_2503a_s3trc/Tools/MinGW/include/c++/3.3.1/bits/stl_list.h ****    *  and trust [20.1.5]/4 to DTRT.  This is to ensure that after elements from
 350:d:/software/ovi_2503a_s3trc/ovi_2503a_s3trc/Tools/MinGW/include/c++/3.3.1/bits/stl_list.h ****    *  %list<X,Alloc1> are spliced into %list<X,Alloc2>, destroying the memory of
 351:d:/software/ovi_2503a_s3trc/ovi_2503a_s3trc/Tools/MinGW/include/c++/3.3.1/bits/stl_list.h ****    *  the second %list is a valid operation, i.e., Alloc1 giveth and Alloc2
 352:d:/software/ovi_2503a_s3trc/ovi_2503a_s3trc/Tools/MinGW/include/c++/3.3.1/bits/stl_list.h ****    *  taketh away.
 353:d:/software/ovi_2503a_s3trc/ovi_2503a_s3trc/Tools/MinGW/include/c++/3.3.1/bits/stl_list.h ****    *
 354:d:/software/ovi_2503a_s3trc/ovi_2503a_s3trc/Tools/MinGW/include/c++/3.3.1/bits/stl_list.h ****    *  Second, a %list conceptually represented as
 355:d:/software/ovi_2503a_s3trc/ovi_2503a_s3trc/Tools/MinGW/include/c++/3.3.1/bits/stl_list.h ****    *  @code
 356:d:/software/ovi_2503a_s3trc/ovi_2503a_s3trc/Tools/MinGW/include/c++/3.3.1/bits/stl_list.h ****    *    A <---> B <---> C <---> D
 357:d:/software/ovi_2503a_s3trc/ovi_2503a_s3trc/Tools/MinGW/include/c++/3.3.1/bits/stl_list.h ****    *  @endcode
GAS LISTING d:/software/ovi_2503a_s3trc/ovi_2503a_s3trc/plutommi/Customer/ResGenerator/gcctmp/cci0baaa.s 			page 16


 358:d:/software/ovi_2503a_s3trc/ovi_2503a_s3trc/Tools/MinGW/include/c++/3.3.1/bits/stl_list.h ****    *  is actually circular; a link exists between A and D.  The %list class
 359:d:/software/ovi_2503a_s3trc/ovi_2503a_s3trc/Tools/MinGW/include/c++/3.3.1/bits/stl_list.h ****    *  holds (as its only data member) a private list::iterator pointing to
 360:d:/software/ovi_2503a_s3trc/ovi_2503a_s3trc/Tools/MinGW/include/c++/3.3.1/bits/stl_list.h ****    *  @e D, not to @e A!  To get to the head of the %list, we start at the tail
 361:d:/software/ovi_2503a_s3trc/ovi_2503a_s3trc/Tools/MinGW/include/c++/3.3.1/bits/stl_list.h ****    *  and move forward by one.  When this member iterator's next/previous
 362:d:/software/ovi_2503a_s3trc/ovi_2503a_s3trc/Tools/MinGW/include/c++/3.3.1/bits/stl_list.h ****    *  pointers refer to itself, the %list is %empty.
 363:d:/software/ovi_2503a_s3trc/ovi_2503a_s3trc/Tools/MinGW/include/c++/3.3.1/bits/stl_list.h ****    *  @endif
 364:d:/software/ovi_2503a_s3trc/ovi_2503a_s3trc/Tools/MinGW/include/c++/3.3.1/bits/stl_list.h ****   */
 365:d:/software/ovi_2503a_s3trc/ovi_2503a_s3trc/Tools/MinGW/include/c++/3.3.1/bits/stl_list.h ****   template<typename _Tp, typename _Alloc = allocator<_Tp> >
 366:d:/software/ovi_2503a_s3trc/ovi_2503a_s3trc/Tools/MinGW/include/c++/3.3.1/bits/stl_list.h ****     class list : protected _List_base<_Tp, _Alloc>
 367:d:/software/ovi_2503a_s3trc/ovi_2503a_s3trc/Tools/MinGW/include/c++/3.3.1/bits/stl_list.h ****   {
 368:d:/software/ovi_2503a_s3trc/ovi_2503a_s3trc/Tools/MinGW/include/c++/3.3.1/bits/stl_list.h ****     // concept requirements
 369:d:/software/ovi_2503a_s3trc/ovi_2503a_s3trc/Tools/MinGW/include/c++/3.3.1/bits/stl_list.h ****     __glibcpp_class_requires(_Tp, _SGIAssignableConcept)
 370:d:/software/ovi_2503a_s3trc/ovi_2503a_s3trc/Tools/MinGW/include/c++/3.3.1/bits/stl_list.h ****   
 371:d:/software/ovi_2503a_s3trc/ovi_2503a_s3trc/Tools/MinGW/include/c++/3.3.1/bits/stl_list.h ****     typedef _List_base<_Tp, _Alloc>                       _Base;
 372:d:/software/ovi_2503a_s3trc/ovi_2503a_s3trc/Tools/MinGW/include/c++/3.3.1/bits/stl_list.h ****   
 373:d:/software/ovi_2503a_s3trc/ovi_2503a_s3trc/Tools/MinGW/include/c++/3.3.1/bits/stl_list.h ****   public:
 374:d:/software/ovi_2503a_s3trc/ovi_2503a_s3trc/Tools/MinGW/include/c++/3.3.1/bits/stl_list.h ****     typedef _Tp                                           value_type;
 375:d:/software/ovi_2503a_s3trc/ovi_2503a_s3trc/Tools/MinGW/include/c++/3.3.1/bits/stl_list.h ****     typedef value_type*                                   pointer;
 376:d:/software/ovi_2503a_s3trc/ovi_2503a_s3trc/Tools/MinGW/include/c++/3.3.1/bits/stl_list.h ****     typedef const value_type*                             const_pointer;
 377:d:/software/ovi_2503a_s3trc/ovi_2503a_s3trc/Tools/MinGW/include/c++/3.3.1/bits/stl_list.h ****     typedef _List_iterator<_Tp,_Tp&,_Tp*>                 iterator;
 378:d:/software/ovi_2503a_s3trc/ovi_2503a_s3trc/Tools/MinGW/include/c++/3.3.1/bits/stl_list.h ****     typedef _List_iterator<_Tp,const _Tp&,const _Tp*>     const_iterator;
 379:d:/software/ovi_2503a_s3trc/ovi_2503a_s3trc/Tools/MinGW/include/c++/3.3.1/bits/stl_list.h ****     typedef std::reverse_iterator<const_iterator>     const_reverse_iterator;
 380:d:/software/ovi_2503a_s3trc/ovi_2503a_s3trc/Tools/MinGW/include/c++/3.3.1/bits/stl_list.h ****     typedef std::reverse_iterator<iterator>                 reverse_iterator;
 381:d:/software/ovi_2503a_s3trc/ovi_2503a_s3trc/Tools/MinGW/include/c++/3.3.1/bits/stl_list.h ****     typedef value_type&                                   reference;
 382:d:/software/ovi_2503a_s3trc/ovi_2503a_s3trc/Tools/MinGW/include/c++/3.3.1/bits/stl_list.h ****     typedef const value_type&                             const_reference;
 383:d:/software/ovi_2503a_s3trc/ovi_2503a_s3trc/Tools/MinGW/include/c++/3.3.1/bits/stl_list.h ****     typedef size_t                                        size_type;
 384:d:/software/ovi_2503a_s3trc/ovi_2503a_s3trc/Tools/MinGW/include/c++/3.3.1/bits/stl_list.h ****     typedef ptrdiff_t                                     difference_type;
 385:d:/software/ovi_2503a_s3trc/ovi_2503a_s3trc/Tools/MinGW/include/c++/3.3.1/bits/stl_list.h ****     typedef typename _Base::allocator_type                allocator_type;
 386:d:/software/ovi_2503a_s3trc/ovi_2503a_s3trc/Tools/MinGW/include/c++/3.3.1/bits/stl_list.h ****   
 387:d:/software/ovi_2503a_s3trc/ovi_2503a_s3trc/Tools/MinGW/include/c++/3.3.1/bits/stl_list.h ****   protected:
 388:d:/software/ovi_2503a_s3trc/ovi_2503a_s3trc/Tools/MinGW/include/c++/3.3.1/bits/stl_list.h ****     // Note that pointers-to-_Node's can be ctor-converted to iterator types.
 389:d:/software/ovi_2503a_s3trc/ovi_2503a_s3trc/Tools/MinGW/include/c++/3.3.1/bits/stl_list.h ****     typedef _List_node<_Tp>                               _Node;
 390:d:/software/ovi_2503a_s3trc/ovi_2503a_s3trc/Tools/MinGW/include/c++/3.3.1/bits/stl_list.h ****   
 391:d:/software/ovi_2503a_s3trc/ovi_2503a_s3trc/Tools/MinGW/include/c++/3.3.1/bits/stl_list.h ****     /** @if maint
 392:d:/software/ovi_2503a_s3trc/ovi_2503a_s3trc/Tools/MinGW/include/c++/3.3.1/bits/stl_list.h ****      *  One data member plus two memory-handling functions.  If the _Alloc
 393:d:/software/ovi_2503a_s3trc/ovi_2503a_s3trc/Tools/MinGW/include/c++/3.3.1/bits/stl_list.h ****      *  type requires separate instances, then one of those will also be
 394:d:/software/ovi_2503a_s3trc/ovi_2503a_s3trc/Tools/MinGW/include/c++/3.3.1/bits/stl_list.h ****      *  included, accumulated from the topmost parent.
 395:d:/software/ovi_2503a_s3trc/ovi_2503a_s3trc/Tools/MinGW/include/c++/3.3.1/bits/stl_list.h ****      *  @endif
 396:d:/software/ovi_2503a_s3trc/ovi_2503a_s3trc/Tools/MinGW/include/c++/3.3.1/bits/stl_list.h ****     */
 397:d:/software/ovi_2503a_s3trc/ovi_2503a_s3trc/Tools/MinGW/include/c++/3.3.1/bits/stl_list.h ****     using _Base::_M_node;
 398:d:/software/ovi_2503a_s3trc/ovi_2503a_s3trc/Tools/MinGW/include/c++/3.3.1/bits/stl_list.h ****     using _Base::_M_put_node;
 399:d:/software/ovi_2503a_s3trc/ovi_2503a_s3trc/Tools/MinGW/include/c++/3.3.1/bits/stl_list.h ****     using _Base::_M_get_node;
 400:d:/software/ovi_2503a_s3trc/ovi_2503a_s3trc/Tools/MinGW/include/c++/3.3.1/bits/stl_list.h ****   
 401:d:/software/ovi_2503a_s3trc/ovi_2503a_s3trc/Tools/MinGW/include/c++/3.3.1/bits/stl_list.h ****     /**
 402:d:/software/ovi_2503a_s3trc/ovi_2503a_s3trc/Tools/MinGW/include/c++/3.3.1/bits/stl_list.h ****      *  @if maint
 403:d:/software/ovi_2503a_s3trc/ovi_2503a_s3trc/Tools/MinGW/include/c++/3.3.1/bits/stl_list.h ****      *  @param  x  An instance of user data.
 404:d:/software/ovi_2503a_s3trc/ovi_2503a_s3trc/Tools/MinGW/include/c++/3.3.1/bits/stl_list.h ****      *
 405:d:/software/ovi_2503a_s3trc/ovi_2503a_s3trc/Tools/MinGW/include/c++/3.3.1/bits/stl_list.h ****      *  Allocates space for a new node and constructs a copy of @a x in it.
 406:d:/software/ovi_2503a_s3trc/ovi_2503a_s3trc/Tools/MinGW/include/c++/3.3.1/bits/stl_list.h ****      *  @endif
 407:d:/software/ovi_2503a_s3trc/ovi_2503a_s3trc/Tools/MinGW/include/c++/3.3.1/bits/stl_list.h ****     */
 408:d:/software/ovi_2503a_s3trc/ovi_2503a_s3trc/Tools/MinGW/include/c++/3.3.1/bits/stl_list.h ****     _Node*
 409:d:/software/ovi_2503a_s3trc/ovi_2503a_s3trc/Tools/MinGW/include/c++/3.3.1/bits/stl_list.h ****     _M_create_node(const value_type& __x)
 410:d:/software/ovi_2503a_s3trc/ovi_2503a_s3trc/Tools/MinGW/include/c++/3.3.1/bits/stl_list.h ****     {
 411:d:/software/ovi_2503a_s3trc/ovi_2503a_s3trc/Tools/MinGW/include/c++/3.3.1/bits/stl_list.h ****       _Node* __p = _M_get_node();
 412:d:/software/ovi_2503a_s3trc/ovi_2503a_s3trc/Tools/MinGW/include/c++/3.3.1/bits/stl_list.h ****       try {
 413:d:/software/ovi_2503a_s3trc/ovi_2503a_s3trc/Tools/MinGW/include/c++/3.3.1/bits/stl_list.h ****         _Construct(&__p->_M_data, __x);
 414:d:/software/ovi_2503a_s3trc/ovi_2503a_s3trc/Tools/MinGW/include/c++/3.3.1/bits/stl_list.h ****       }
GAS LISTING d:/software/ovi_2503a_s3trc/ovi_2503a_s3trc/plutommi/Customer/ResGenerator/gcctmp/cci0baaa.s 			page 17


 415:d:/software/ovi_2503a_s3trc/ovi_2503a_s3trc/Tools/MinGW/include/c++/3.3.1/bits/stl_list.h ****       catch(...)
 416:d:/software/ovi_2503a_s3trc/ovi_2503a_s3trc/Tools/MinGW/include/c++/3.3.1/bits/stl_list.h ****       {
 417:d:/software/ovi_2503a_s3trc/ovi_2503a_s3trc/Tools/MinGW/include/c++/3.3.1/bits/stl_list.h ****         _M_put_node(__p);
 418:d:/software/ovi_2503a_s3trc/ovi_2503a_s3trc/Tools/MinGW/include/c++/3.3.1/bits/stl_list.h ****         __throw_exception_again;
 419:d:/software/ovi_2503a_s3trc/ovi_2503a_s3trc/Tools/MinGW/include/c++/3.3.1/bits/stl_list.h ****       }
 420:d:/software/ovi_2503a_s3trc/ovi_2503a_s3trc/Tools/MinGW/include/c++/3.3.1/bits/stl_list.h ****       return __p;
 421:d:/software/ovi_2503a_s3trc/ovi_2503a_s3trc/Tools/MinGW/include/c++/3.3.1/bits/stl_list.h ****     }
 422:d:/software/ovi_2503a_s3trc/ovi_2503a_s3trc/Tools/MinGW/include/c++/3.3.1/bits/stl_list.h ****   
 423:d:/software/ovi_2503a_s3trc/ovi_2503a_s3trc/Tools/MinGW/include/c++/3.3.1/bits/stl_list.h ****     /**
 424:d:/software/ovi_2503a_s3trc/ovi_2503a_s3trc/Tools/MinGW/include/c++/3.3.1/bits/stl_list.h ****      *  @if maint
 425:d:/software/ovi_2503a_s3trc/ovi_2503a_s3trc/Tools/MinGW/include/c++/3.3.1/bits/stl_list.h ****      *  Allocates space for a new node and default-constructs a new instance
 426:d:/software/ovi_2503a_s3trc/ovi_2503a_s3trc/Tools/MinGW/include/c++/3.3.1/bits/stl_list.h ****      *  of @c value_type in it.
 427:d:/software/ovi_2503a_s3trc/ovi_2503a_s3trc/Tools/MinGW/include/c++/3.3.1/bits/stl_list.h ****      *  @endif
 428:d:/software/ovi_2503a_s3trc/ovi_2503a_s3trc/Tools/MinGW/include/c++/3.3.1/bits/stl_list.h ****     */
 429:d:/software/ovi_2503a_s3trc/ovi_2503a_s3trc/Tools/MinGW/include/c++/3.3.1/bits/stl_list.h ****     _Node*
 430:d:/software/ovi_2503a_s3trc/ovi_2503a_s3trc/Tools/MinGW/include/c++/3.3.1/bits/stl_list.h ****     _M_create_node()
 431:d:/software/ovi_2503a_s3trc/ovi_2503a_s3trc/Tools/MinGW/include/c++/3.3.1/bits/stl_list.h ****     {
 432:d:/software/ovi_2503a_s3trc/ovi_2503a_s3trc/Tools/MinGW/include/c++/3.3.1/bits/stl_list.h ****       _Node* __p = _M_get_node();
 433:d:/software/ovi_2503a_s3trc/ovi_2503a_s3trc/Tools/MinGW/include/c++/3.3.1/bits/stl_list.h ****       try {
 434:d:/software/ovi_2503a_s3trc/ovi_2503a_s3trc/Tools/MinGW/include/c++/3.3.1/bits/stl_list.h ****         _Construct(&__p->_M_data);
 435:d:/software/ovi_2503a_s3trc/ovi_2503a_s3trc/Tools/MinGW/include/c++/3.3.1/bits/stl_list.h ****       }
 436:d:/software/ovi_2503a_s3trc/ovi_2503a_s3trc/Tools/MinGW/include/c++/3.3.1/bits/stl_list.h ****       catch(...)
 437:d:/software/ovi_2503a_s3trc/ovi_2503a_s3trc/Tools/MinGW/include/c++/3.3.1/bits/stl_list.h ****       {
 438:d:/software/ovi_2503a_s3trc/ovi_2503a_s3trc/Tools/MinGW/include/c++/3.3.1/bits/stl_list.h ****         _M_put_node(__p);
 439:d:/software/ovi_2503a_s3trc/ovi_2503a_s3trc/Tools/MinGW/include/c++/3.3.1/bits/stl_list.h ****         __throw_exception_again;
 440:d:/software/ovi_2503a_s3trc/ovi_2503a_s3trc/Tools/MinGW/include/c++/3.3.1/bits/stl_list.h ****       }
 441:d:/software/ovi_2503a_s3trc/ovi_2503a_s3trc/Tools/MinGW/include/c++/3.3.1/bits/stl_list.h ****       return __p;
 442:d:/software/ovi_2503a_s3trc/ovi_2503a_s3trc/Tools/MinGW/include/c++/3.3.1/bits/stl_list.h ****     }
 443:d:/software/ovi_2503a_s3trc/ovi_2503a_s3trc/Tools/MinGW/include/c++/3.3.1/bits/stl_list.h ****   
 444:d:/software/ovi_2503a_s3trc/ovi_2503a_s3trc/Tools/MinGW/include/c++/3.3.1/bits/stl_list.h ****   public:
 445:d:/software/ovi_2503a_s3trc/ovi_2503a_s3trc/Tools/MinGW/include/c++/3.3.1/bits/stl_list.h ****     // [23.2.2.1] construct/copy/destroy
 446:d:/software/ovi_2503a_s3trc/ovi_2503a_s3trc/Tools/MinGW/include/c++/3.3.1/bits/stl_list.h ****     // (assign() and get_allocator() are also listed in this section)
 447:d:/software/ovi_2503a_s3trc/ovi_2503a_s3trc/Tools/MinGW/include/c++/3.3.1/bits/stl_list.h ****     /**
 448:d:/software/ovi_2503a_s3trc/ovi_2503a_s3trc/Tools/MinGW/include/c++/3.3.1/bits/stl_list.h ****      *  @brief  Default constructor creates no elements.
 449:d:/software/ovi_2503a_s3trc/ovi_2503a_s3trc/Tools/MinGW/include/c++/3.3.1/bits/stl_list.h ****     */
 450:d:/software/ovi_2503a_s3trc/ovi_2503a_s3trc/Tools/MinGW/include/c++/3.3.1/bits/stl_list.h ****     explicit
 451:d:/software/ovi_2503a_s3trc/ovi_2503a_s3trc/Tools/MinGW/include/c++/3.3.1/bits/stl_list.h ****     list(const allocator_type& __a = allocator_type())
 452:d:/software/ovi_2503a_s3trc/ovi_2503a_s3trc/Tools/MinGW/include/c++/3.3.1/bits/stl_list.h ****     : _Base(__a) { }
 453:d:/software/ovi_2503a_s3trc/ovi_2503a_s3trc/Tools/MinGW/include/c++/3.3.1/bits/stl_list.h ****   
 454:d:/software/ovi_2503a_s3trc/ovi_2503a_s3trc/Tools/MinGW/include/c++/3.3.1/bits/stl_list.h ****     /**
 455:d:/software/ovi_2503a_s3trc/ovi_2503a_s3trc/Tools/MinGW/include/c++/3.3.1/bits/stl_list.h ****      *  @brief  Create a %list with copies of an exemplar element.
 456:d:/software/ovi_2503a_s3trc/ovi_2503a_s3trc/Tools/MinGW/include/c++/3.3.1/bits/stl_list.h ****      *  @param  n  The number of elements to initially create.
 457:d:/software/ovi_2503a_s3trc/ovi_2503a_s3trc/Tools/MinGW/include/c++/3.3.1/bits/stl_list.h ****      *  @param  value  An element to copy.
 458:d:/software/ovi_2503a_s3trc/ovi_2503a_s3trc/Tools/MinGW/include/c++/3.3.1/bits/stl_list.h ****      * 
 459:d:/software/ovi_2503a_s3trc/ovi_2503a_s3trc/Tools/MinGW/include/c++/3.3.1/bits/stl_list.h ****      *  This constructor fills the %list with @a n copies of @a value.
 460:d:/software/ovi_2503a_s3trc/ovi_2503a_s3trc/Tools/MinGW/include/c++/3.3.1/bits/stl_list.h ****     */
 461:d:/software/ovi_2503a_s3trc/ovi_2503a_s3trc/Tools/MinGW/include/c++/3.3.1/bits/stl_list.h ****     list(size_type __n, const value_type& __value,
 462:d:/software/ovi_2503a_s3trc/ovi_2503a_s3trc/Tools/MinGW/include/c++/3.3.1/bits/stl_list.h ****          const allocator_type& __a = allocator_type())
 463:d:/software/ovi_2503a_s3trc/ovi_2503a_s3trc/Tools/MinGW/include/c++/3.3.1/bits/stl_list.h ****       : _Base(__a)
 464:d:/software/ovi_2503a_s3trc/ovi_2503a_s3trc/Tools/MinGW/include/c++/3.3.1/bits/stl_list.h ****       { this->insert(begin(), __n, __value); }
 465:d:/software/ovi_2503a_s3trc/ovi_2503a_s3trc/Tools/MinGW/include/c++/3.3.1/bits/stl_list.h ****   
 466:d:/software/ovi_2503a_s3trc/ovi_2503a_s3trc/Tools/MinGW/include/c++/3.3.1/bits/stl_list.h ****     /**
 467:d:/software/ovi_2503a_s3trc/ovi_2503a_s3trc/Tools/MinGW/include/c++/3.3.1/bits/stl_list.h ****      *  @brief  Create a %list with default elements.
 468:d:/software/ovi_2503a_s3trc/ovi_2503a_s3trc/Tools/MinGW/include/c++/3.3.1/bits/stl_list.h ****      *  @param  n  The number of elements to initially create.
 469:d:/software/ovi_2503a_s3trc/ovi_2503a_s3trc/Tools/MinGW/include/c++/3.3.1/bits/stl_list.h ****      * 
 470:d:/software/ovi_2503a_s3trc/ovi_2503a_s3trc/Tools/MinGW/include/c++/3.3.1/bits/stl_list.h ****      *  This constructor fills the %list with @a n copies of a
 471:d:/software/ovi_2503a_s3trc/ovi_2503a_s3trc/Tools/MinGW/include/c++/3.3.1/bits/stl_list.h ****      *  default-constructed element.
GAS LISTING d:/software/ovi_2503a_s3trc/ovi_2503a_s3trc/plutommi/Customer/ResGenerator/gcctmp/cci0baaa.s 			page 18


 472:d:/software/ovi_2503a_s3trc/ovi_2503a_s3trc/Tools/MinGW/include/c++/3.3.1/bits/stl_list.h ****     */
 473:d:/software/ovi_2503a_s3trc/ovi_2503a_s3trc/Tools/MinGW/include/c++/3.3.1/bits/stl_list.h ****     explicit
 474:d:/software/ovi_2503a_s3trc/ovi_2503a_s3trc/Tools/MinGW/include/c++/3.3.1/bits/stl_list.h ****     list(size_type __n)
 475:d:/software/ovi_2503a_s3trc/ovi_2503a_s3trc/Tools/MinGW/include/c++/3.3.1/bits/stl_list.h ****       : _Base(allocator_type())
 476:d:/software/ovi_2503a_s3trc/ovi_2503a_s3trc/Tools/MinGW/include/c++/3.3.1/bits/stl_list.h ****       { this->insert(begin(), __n, value_type()); }
 477:d:/software/ovi_2503a_s3trc/ovi_2503a_s3trc/Tools/MinGW/include/c++/3.3.1/bits/stl_list.h ****   
 478:d:/software/ovi_2503a_s3trc/ovi_2503a_s3trc/Tools/MinGW/include/c++/3.3.1/bits/stl_list.h ****     /**
 479:d:/software/ovi_2503a_s3trc/ovi_2503a_s3trc/Tools/MinGW/include/c++/3.3.1/bits/stl_list.h ****      *  @brief  %List copy constructor.
 480:d:/software/ovi_2503a_s3trc/ovi_2503a_s3trc/Tools/MinGW/include/c++/3.3.1/bits/stl_list.h ****      *  @param  x  A %list of identical element and allocator types.
 481:d:/software/ovi_2503a_s3trc/ovi_2503a_s3trc/Tools/MinGW/include/c++/3.3.1/bits/stl_list.h ****      * 
 482:d:/software/ovi_2503a_s3trc/ovi_2503a_s3trc/Tools/MinGW/include/c++/3.3.1/bits/stl_list.h ****      *  The newly-created %list uses a copy of the allocation object used
 483:d:/software/ovi_2503a_s3trc/ovi_2503a_s3trc/Tools/MinGW/include/c++/3.3.1/bits/stl_list.h ****      *  by @a x.
 484:d:/software/ovi_2503a_s3trc/ovi_2503a_s3trc/Tools/MinGW/include/c++/3.3.1/bits/stl_list.h ****     */
 485:d:/software/ovi_2503a_s3trc/ovi_2503a_s3trc/Tools/MinGW/include/c++/3.3.1/bits/stl_list.h ****     list(const list& __x)
 486:d:/software/ovi_2503a_s3trc/ovi_2503a_s3trc/Tools/MinGW/include/c++/3.3.1/bits/stl_list.h ****       : _Base(__x.get_allocator())
 487:d:/software/ovi_2503a_s3trc/ovi_2503a_s3trc/Tools/MinGW/include/c++/3.3.1/bits/stl_list.h ****       { this->insert(begin(), __x.begin(), __x.end()); }
 488:d:/software/ovi_2503a_s3trc/ovi_2503a_s3trc/Tools/MinGW/include/c++/3.3.1/bits/stl_list.h ****   
 489:d:/software/ovi_2503a_s3trc/ovi_2503a_s3trc/Tools/MinGW/include/c++/3.3.1/bits/stl_list.h ****     /**
 490:d:/software/ovi_2503a_s3trc/ovi_2503a_s3trc/Tools/MinGW/include/c++/3.3.1/bits/stl_list.h ****      *  @brief  Builds a %list from a range.
 491:d:/software/ovi_2503a_s3trc/ovi_2503a_s3trc/Tools/MinGW/include/c++/3.3.1/bits/stl_list.h ****      *  @param  first  An input iterator.
 492:d:/software/ovi_2503a_s3trc/ovi_2503a_s3trc/Tools/MinGW/include/c++/3.3.1/bits/stl_list.h ****      *  @param  last  An input iterator.
 493:d:/software/ovi_2503a_s3trc/ovi_2503a_s3trc/Tools/MinGW/include/c++/3.3.1/bits/stl_list.h ****      * 
 494:d:/software/ovi_2503a_s3trc/ovi_2503a_s3trc/Tools/MinGW/include/c++/3.3.1/bits/stl_list.h ****      *  Create a %list consisting of copies of the elements from [first,last).
 495:d:/software/ovi_2503a_s3trc/ovi_2503a_s3trc/Tools/MinGW/include/c++/3.3.1/bits/stl_list.h ****      *  This is linear in N (where N is distance(first,last)).
 496:d:/software/ovi_2503a_s3trc/ovi_2503a_s3trc/Tools/MinGW/include/c++/3.3.1/bits/stl_list.h ****      *
 497:d:/software/ovi_2503a_s3trc/ovi_2503a_s3trc/Tools/MinGW/include/c++/3.3.1/bits/stl_list.h ****      *  @if maint
 498:d:/software/ovi_2503a_s3trc/ovi_2503a_s3trc/Tools/MinGW/include/c++/3.3.1/bits/stl_list.h ****      *  We don't need any dispatching tricks here, because insert does all of
 499:d:/software/ovi_2503a_s3trc/ovi_2503a_s3trc/Tools/MinGW/include/c++/3.3.1/bits/stl_list.h ****      *  that anyway.
 500:d:/software/ovi_2503a_s3trc/ovi_2503a_s3trc/Tools/MinGW/include/c++/3.3.1/bits/stl_list.h ****      *  @endif
 501:d:/software/ovi_2503a_s3trc/ovi_2503a_s3trc/Tools/MinGW/include/c++/3.3.1/bits/stl_list.h ****     */
 502:d:/software/ovi_2503a_s3trc/ovi_2503a_s3trc/Tools/MinGW/include/c++/3.3.1/bits/stl_list.h ****     template<typename _InputIterator>
 503:d:/software/ovi_2503a_s3trc/ovi_2503a_s3trc/Tools/MinGW/include/c++/3.3.1/bits/stl_list.h ****       list(_InputIterator __first, _InputIterator __last,
 504:d:/software/ovi_2503a_s3trc/ovi_2503a_s3trc/Tools/MinGW/include/c++/3.3.1/bits/stl_list.h ****            const allocator_type& __a = allocator_type())
 505:d:/software/ovi_2503a_s3trc/ovi_2503a_s3trc/Tools/MinGW/include/c++/3.3.1/bits/stl_list.h ****       : _Base(__a)
 506:d:/software/ovi_2503a_s3trc/ovi_2503a_s3trc/Tools/MinGW/include/c++/3.3.1/bits/stl_list.h ****       { this->insert(begin(), __first, __last); }
 507:d:/software/ovi_2503a_s3trc/ovi_2503a_s3trc/Tools/MinGW/include/c++/3.3.1/bits/stl_list.h ****   
 508:d:/software/ovi_2503a_s3trc/ovi_2503a_s3trc/Tools/MinGW/include/c++/3.3.1/bits/stl_list.h ****     /**
 509:d:/software/ovi_2503a_s3trc/ovi_2503a_s3trc/Tools/MinGW/include/c++/3.3.1/bits/stl_list.h ****      *  The dtor only erases the elements, and note that if the elements
 510:d:/software/ovi_2503a_s3trc/ovi_2503a_s3trc/Tools/MinGW/include/c++/3.3.1/bits/stl_list.h ****      *  themselves are pointers, the pointed-to memory is not touched in any
 511:d:/software/ovi_2503a_s3trc/ovi_2503a_s3trc/Tools/MinGW/include/c++/3.3.1/bits/stl_list.h ****      *  way.  Managing the pointer is the user's responsibilty.
 512:d:/software/ovi_2503a_s3trc/ovi_2503a_s3trc/Tools/MinGW/include/c++/3.3.1/bits/stl_list.h ****     */
 513:d:/software/ovi_2503a_s3trc/ovi_2503a_s3trc/Tools/MinGW/include/c++/3.3.1/bits/stl_list.h ****     ~list() { }
 3258              	LM19:
 3259              	L45:
 3260 0000 55       		pushl	%ebp
 3261 0001 89E5     		movl	%esp, %ebp
 3262 0003 83EC08   		subl	$8, %esp
 3264              	LM20:
 3265              	LBB4:
 3266 0006 8B4508   		movl	8(%ebp), %eax
 3267 0009 890424   		movl	%eax, (%esp)
 3268 000c E8000000 		call	__ZNSt10_List_baseIN10ThreadPool7JobDataESaIS1_EED2Ev
 3268      00
 3269 0011 C9       		leave
 3270 0012 C3       		ret
 3271              	L43:
 3272              	LBE4:
GAS LISTING d:/software/ovi_2503a_s3trc/ovi_2503a_s3trc/plutommi/Customer/ResGenerator/gcctmp/cci0baaa.s 			page 19


 3273              	Lscope2:
 3275 0013 90       		.text
 3276              		.align 2
 3279              	.globl __ZN10ThreadPoolD2Ev
 3281              	__ZN10ThreadPoolD2Ev:
 3283              	Ltext2:
  27:../../MMI/Resource/ThreadPool.cpp **** 
  28:../../MMI/Resource/ThreadPool.cpp **** ThreadPool::~ThreadPool()
  29:../../MMI/Resource/ThreadPool.cpp **** {
 3285              	LM21:
 3286 0470 55       		pushl	%ebp
 3287 0471 89E5     		movl	%esp, %ebp
 3288 0473 57       		pushl	%edi
 3289 0474 56       		pushl	%esi
 3290 0475 53       		pushl	%ebx
 3291 0476 83EC4C   		subl	$76, %esp
 3292 0479 C745E000 		movl	$___gxx_personality_sj0, -32(%ebp)
 3292      000000
 3293 0480 C745E414 		movl	$LLSDA666, -28(%ebp)
 3293      000000
 3294 0487 8D45E8   		leal	-24(%ebp), %eax
 3295 048a 8D55F4   		leal	-12(%ebp), %edx
 3296 048d 8910     		movl	%edx, (%eax)
 3297 048f BAD30400 		movl	$L60, %edx
 3297      00
 3298 0494 895004   		movl	%edx, 4(%eax)
 3299 0497 896008   		movl	%esp, 8(%eax)
 3300 049a 8D45C8   		leal	-56(%ebp), %eax
 3301 049d 890424   		movl	%eax, (%esp)
 3302 04a0 E8000000 		call	__Unwind_SjLj_Register
 3302      00
 3304              	LM22:
 3305              	LBB5:
 3306 04a5 8B4508   		movl	8(%ebp), %eax
 3307 04a8 C7000800 		movl	$__ZTV10ThreadPool+8, (%eax)
 3307      0000
  30:../../MMI/Resource/ThreadPool.cpp ****     Destroy();
 3309              	LM23:
 3310 04ae 8B4508   		movl	8(%ebp), %eax
 3311 04b1 890424   		movl	%eax, (%esp)
 3312 04b4 C745CC01 		movl	$1, -52(%ebp)
 3312      000000
 3313 04bb E88C0600 		call	__ZN10ThreadPool7DestroyEv
 3313      00
  31:../../MMI/Resource/ThreadPool.cpp ****     DeleteCriticalSection(&m_cs);
 3315              	LM24:
 3316 04c0 8B4508   		movl	8(%ebp), %eax
 3317 04c3 83C01C   		addl	$28, %eax
 3318 04c6 890424   		movl	%eax, (%esp)
 3319 04c9 E8000000 		call	_DeleteCriticalSection@4
 3319      00
 3320 04ce 83EC04   		subl	$4, %esp
 3321 04d1 EB34     		jmp	L51
 3322              	L60:
 3323 04d3 8D6D0C   		leal	12(%ebp), %ebp
 3324 04d6 8B45CC   		movl	-52(%ebp), %eax
 3325 04d9 8B55D0   		movl	-48(%ebp), %edx
GAS LISTING d:/software/ovi_2503a_s3trc/ovi_2503a_s3trc/plutommi/Customer/ResGenerator/gcctmp/cci0baaa.s 			page 20


 3326 04dc 8955C0   		movl	%edx, -64(%ebp)
 3327 04df 83F801   		cmpl	$1, %eax
 3328 04e2 743A     		je	L54
 3329              	L50:
 3330 04e4 8B45C0   		movl	-64(%ebp), %eax
 3331 04e7 8945C4   		movl	%eax, -60(%ebp)
 3332 04ea 8B4508   		movl	8(%ebp), %eax
 3333 04ed 83C008   		addl	$8, %eax
 3334 04f0 890424   		movl	%eax, (%esp)
 3335 04f3 C745CC00 		movl	$0, -52(%ebp)
 3335      000000
 3336 04fa E8000000 		call	__ZNSt6vectorIN10ThreadPool10ThreadDataESaIS1_EED1Ev
 3336      00
 3337 04ff 8B55C4   		movl	-60(%ebp), %edx
 3338 0502 8955C0   		movl	%edx, -64(%ebp)
 3339              	L52:
 3340 0505 EB17     		jmp	L54
 3341              	L51:
 3342 0507 8B4508   		movl	8(%ebp), %eax
 3343 050a 83C008   		addl	$8, %eax
 3344 050d 890424   		movl	%eax, (%esp)
 3345 0510 C745CC02 		movl	$2, -52(%ebp)
 3345      000000
 3346 0517 E8000000 		call	__ZNSt6vectorIN10ThreadPool10ThreadDataESaIS1_EED1Ev
 3346      00
 3347 051c EB33     		jmp	L55
 3348              	L54:
 3349 051e 8B45C0   		movl	-64(%ebp), %eax
 3350 0521 8945BC   		movl	%eax, -68(%ebp)
 3351 0524 8B4508   		movl	8(%ebp), %eax
 3352 0527 83C004   		addl	$4, %eax
 3353 052a 890424   		movl	%eax, (%esp)
 3354 052d C745CC00 		movl	$0, -52(%ebp)
 3354      000000
 3355 0534 E8000000 		call	__ZNSt4listIN10ThreadPool7JobDataESaIS1_EED1Ev
 3355      00
 3356 0539 8B55BC   		movl	-68(%ebp), %edx
 3357 053c 8955C0   		movl	%edx, -64(%ebp)
 3358              	L56:
 3359 053f 8B45C0   		movl	-64(%ebp), %eax
 3360 0542 890424   		movl	%eax, (%esp)
 3361 0545 C745CCFF 		movl	$-1, -52(%ebp)
 3361      FFFFFF
 3362 054c E8000000 		call	__Unwind_SjLj_Resume
 3362      00
 3363              	L55:
 3364 0551 8B4508   		movl	8(%ebp), %eax
 3365 0554 83C004   		addl	$4, %eax
 3366 0557 890424   		movl	%eax, (%esp)
 3367 055a C745CCFF 		movl	$-1, -52(%ebp)
 3367      FFFFFF
 3368 0561 E8000000 		call	__ZNSt4listIN10ThreadPool7JobDataESaIS1_EED1Ev
 3368      00
  32:../../MMI/Resource/ThreadPool.cpp **** }
 3370              	LM25:
 3371              	LBE5:
 3372 0566 B8010000 		movl	$1, %eax
GAS LISTING d:/software/ovi_2503a_s3trc/ovi_2503a_s3trc/plutommi/Customer/ResGenerator/gcctmp/cci0baaa.s 			page 21


 3372      00
 3373 056b 83E000   		andl	$0, %eax
 3374 056e 84C0     		testb	%al, %al
 3375 0570 740B     		je	L48
 3376 0572 8B4508   		movl	8(%ebp), %eax
 3377 0575 890424   		movl	%eax, (%esp)
 3378 0578 E8000000 		call	__ZdlPv
 3378      00
 3379              	L48:
 3380 057d 8D45C8   		leal	-56(%ebp), %eax
 3381 0580 890424   		movl	%eax, (%esp)
 3382 0583 E8000000 		call	__Unwind_SjLj_Unregister
 3382      00
 3383 0588 8D65F4   		leal	-12(%ebp), %esp
 3384 058b 5B       		popl	%ebx
 3385 058c 5E       		popl	%esi
 3386 058d 5F       		popl	%edi
 3387 058e 5D       		popl	%ebp
 3388 058f C3       		ret
 3389              		.section	.gcc_except_table,""
 3390              	LLSDA666:
 3391 0014 FF       		.byte	0xff
 3392 0015 FF       		.byte	0xff
 3393 0016 01       		.byte	0x1
 3394 0017 04       		.uleb128 LLSDACSE666-LLSDACSB666
 3395              	LLSDACSB666:
 3396 0018 00       		.uleb128 0x0
 3397 0019 00       		.uleb128 0x0
 3398 001a 01       		.uleb128 0x1
 3399 001b 00       		.uleb128 0x0
 3400              	LLSDACSE666:
 3401              		.text
 3402              	Lscope3:
 3404              		.align 2
 3407              	.globl __ZN10ThreadPoolD1Ev
 3409              	__ZN10ThreadPoolD1Ev:
 3411              	LM26:
 3412 0590 55       		pushl	%ebp
 3413 0591 89E5     		movl	%esp, %ebp
 3414 0593 57       		pushl	%edi
 3415 0594 56       		pushl	%esi
 3416 0595 53       		pushl	%ebx
 3417 0596 83EC4C   		subl	$76, %esp
 3418 0599 C745E000 		movl	$___gxx_personality_sj0, -32(%ebp)
 3418      000000
 3419 05a0 C745E41C 		movl	$LLSDA668, -28(%ebp)
 3419      000000
 3420 05a7 8D45E8   		leal	-24(%ebp), %eax
 3421 05aa 8D55F4   		leal	-12(%ebp), %edx
 3422 05ad 8910     		movl	%edx, (%eax)
 3423 05af BAF30500 		movl	$L73, %edx
 3423      00
 3424 05b4 895004   		movl	%edx, 4(%eax)
 3425 05b7 896008   		movl	%esp, 8(%eax)
 3426 05ba 8D45C8   		leal	-56(%ebp), %eax
 3427 05bd 890424   		movl	%eax, (%esp)
 3428 05c0 E8000000 		call	__Unwind_SjLj_Register
GAS LISTING d:/software/ovi_2503a_s3trc/ovi_2503a_s3trc/plutommi/Customer/ResGenerator/gcctmp/cci0baaa.s 			page 22


 3428      00
 3430              	LM27:
 3431              	LBB6:
 3432 05c5 8B4508   		movl	8(%ebp), %eax
 3433 05c8 C7000800 		movl	$__ZTV10ThreadPool+8, (%eax)
 3433      0000
 3435              	LM28:
 3436 05ce 8B4508   		movl	8(%ebp), %eax
 3437 05d1 890424   		movl	%eax, (%esp)
 3438 05d4 C745CC01 		movl	$1, -52(%ebp)
 3438      000000
 3439 05db E86C0500 		call	__ZN10ThreadPool7DestroyEv
 3439      00
 3441              	LM29:
 3442 05e0 8B4508   		movl	8(%ebp), %eax
 3443 05e3 83C01C   		addl	$28, %eax
 3444 05e6 890424   		movl	%eax, (%esp)
 3445 05e9 E8000000 		call	_DeleteCriticalSection@4
 3445      00
 3446 05ee 83EC04   		subl	$4, %esp
 3447 05f1 EB34     		jmp	L64
 3448              	L73:
 3449 05f3 8D6D0C   		leal	12(%ebp), %ebp
 3450 05f6 8B45CC   		movl	-52(%ebp), %eax
 3451 05f9 8B55D0   		movl	-48(%ebp), %edx
 3452 05fc 8955C0   		movl	%edx, -64(%ebp)
 3453 05ff 83F801   		cmpl	$1, %eax
 3454 0602 743A     		je	L67
 3455              	L63:
 3456 0604 8B45C0   		movl	-64(%ebp), %eax
 3457 0607 8945C4   		movl	%eax, -60(%ebp)
 3458 060a 8B4508   		movl	8(%ebp), %eax
 3459 060d 83C008   		addl	$8, %eax
 3460 0610 890424   		movl	%eax, (%esp)
 3461 0613 C745CC00 		movl	$0, -52(%ebp)
 3461      000000
 3462 061a E8000000 		call	__ZNSt6vectorIN10ThreadPool10ThreadDataESaIS1_EED1Ev
 3462      00
 3463 061f 8B55C4   		movl	-60(%ebp), %edx
 3464 0622 8955C0   		movl	%edx, -64(%ebp)
 3465              	L65:
 3466 0625 EB17     		jmp	L67
 3467              	L64:
 3468 0627 8B4508   		movl	8(%ebp), %eax
 3469 062a 83C008   		addl	$8, %eax
 3470 062d 890424   		movl	%eax, (%esp)
 3471 0630 C745CC02 		movl	$2, -52(%ebp)
 3471      000000
 3472 0637 E8000000 		call	__ZNSt6vectorIN10ThreadPool10ThreadDataESaIS1_EED1Ev
 3472      00
 3473 063c EB33     		jmp	L68
 3474              	L67:
 3475 063e 8B45C0   		movl	-64(%ebp), %eax
 3476 0641 8945BC   		movl	%eax, -68(%ebp)
 3477 0644 8B4508   		movl	8(%ebp), %eax
 3478 0647 83C004   		addl	$4, %eax
 3479 064a 890424   		movl	%eax, (%esp)
GAS LISTING d:/software/ovi_2503a_s3trc/ovi_2503a_s3trc/plutommi/Customer/ResGenerator/gcctmp/cci0baaa.s 			page 23


 3480 064d C745CC00 		movl	$0, -52(%ebp)
 3480      000000
 3481 0654 E8000000 		call	__ZNSt4listIN10ThreadPool7JobDataESaIS1_EED1Ev
 3481      00
 3482 0659 8B55BC   		movl	-68(%ebp), %edx
 3483 065c 8955C0   		movl	%edx, -64(%ebp)
 3484              	L69:
 3485 065f 8B45C0   		movl	-64(%ebp), %eax
 3486 0662 890424   		movl	%eax, (%esp)
 3487 0665 C745CCFF 		movl	$-1, -52(%ebp)
 3487      FFFFFF
 3488 066c E8000000 		call	__Unwind_SjLj_Resume
 3488      00
 3489              	L68:
 3490 0671 8B4508   		movl	8(%ebp), %eax
 3491 0674 83C004   		addl	$4, %eax
 3492 0677 890424   		movl	%eax, (%esp)
 3493 067a C745CCFF 		movl	$-1, -52(%ebp)
 3493      FFFFFF
 3494 0681 E8000000 		call	__ZNSt4listIN10ThreadPool7JobDataESaIS1_EED1Ev
 3494      00
 3496              	LM30:
 3497              	LBE6:
 3498 0686 B8010000 		movl	$1, %eax
 3498      00
 3499 068b 83E002   		andl	$2, %eax
 3500 068e 84C0     		testb	%al, %al
 3501 0690 740B     		je	L61
 3502 0692 8B4508   		movl	8(%ebp), %eax
 3503 0695 890424   		movl	%eax, (%esp)
 3504 0698 E8000000 		call	__ZdlPv
 3504      00
 3505              	L61:
 3506 069d 8D45C8   		leal	-56(%ebp), %eax
 3507 06a0 890424   		movl	%eax, (%esp)
 3508 06a3 E8000000 		call	__Unwind_SjLj_Unregister
 3508      00
 3509 06a8 8D65F4   		leal	-12(%ebp), %esp
 3510 06ab 5B       		popl	%ebx
 3511 06ac 5E       		popl	%esi
 3512 06ad 5F       		popl	%edi
 3513 06ae 5D       		popl	%ebp
 3514 06af C3       		ret
 3515              		.section	.gcc_except_table,""
 3516              	LLSDA668:
 3517 001c FF       		.byte	0xff
 3518 001d FF       		.byte	0xff
 3519 001e 01       		.byte	0x1
 3520 001f 04       		.uleb128 LLSDACSE668-LLSDACSB668
 3521              	LLSDACSB668:
 3522 0020 00       		.uleb128 0x0
 3523 0021 00       		.uleb128 0x0
 3524 0022 01       		.uleb128 0x1
 3525 0023 00       		.uleb128 0x0
 3526              	LLSDACSE668:
 3527              		.text
 3528              	Lscope4:
GAS LISTING d:/software/ovi_2503a_s3trc/ovi_2503a_s3trc/plutommi/Customer/ResGenerator/gcctmp/cci0baaa.s 			page 24


 3530              		.align 2
 3533              	.globl __ZN10ThreadPoolD0Ev
 3535              	__ZN10ThreadPoolD0Ev:
 3537              	LM31:
 3538 06b0 55       		pushl	%ebp
 3539 06b1 89E5     		movl	%esp, %ebp
 3540 06b3 57       		pushl	%edi
 3541 06b4 56       		pushl	%esi
 3542 06b5 53       		pushl	%ebx
 3543 06b6 83EC4C   		subl	$76, %esp
 3544 06b9 C745E000 		movl	$___gxx_personality_sj0, -32(%ebp)
 3544      000000
 3545 06c0 C745E424 		movl	$LLSDA670, -28(%ebp)
 3545      000000
 3546 06c7 8D45E8   		leal	-24(%ebp), %eax
 3547 06ca 8D55F4   		leal	-12(%ebp), %edx
 3548 06cd 8910     		movl	%edx, (%eax)
 3549 06cf BA130700 		movl	$L86, %edx
 3549      00
 3550 06d4 895004   		movl	%edx, 4(%eax)
 3551 06d7 896008   		movl	%esp, 8(%eax)
 3552 06da 8D45C8   		leal	-56(%ebp), %eax
 3553 06dd 890424   		movl	%eax, (%esp)
 3554 06e0 E8000000 		call	__Unwind_SjLj_Register
 3554      00
 3556              	LM32:
 3557              	LBB7:
 3558 06e5 8B4508   		movl	8(%ebp), %eax
 3559 06e8 C7000800 		movl	$__ZTV10ThreadPool+8, (%eax)
 3559      0000
 3561              	LM33:
 3562 06ee 8B4508   		movl	8(%ebp), %eax
 3563 06f1 890424   		movl	%eax, (%esp)
 3564 06f4 C745CC01 		movl	$1, -52(%ebp)
 3564      000000
 3565 06fb E84C0400 		call	__ZN10ThreadPool7DestroyEv
 3565      00
 3567              	LM34:
 3568 0700 8B4508   		movl	8(%ebp), %eax
 3569 0703 83C01C   		addl	$28, %eax
 3570 0706 890424   		movl	%eax, (%esp)
 3571 0709 E8000000 		call	_DeleteCriticalSection@4
 3571      00
 3572 070e 83EC04   		subl	$4, %esp
 3573 0711 EB34     		jmp	L77
 3574              	L86:
 3575 0713 8D6D0C   		leal	12(%ebp), %ebp
 3576 0716 8B45CC   		movl	-52(%ebp), %eax
 3577 0719 8B55D0   		movl	-48(%ebp), %edx
 3578 071c 8955C0   		movl	%edx, -64(%ebp)
 3579 071f 83F801   		cmpl	$1, %eax
 3580 0722 743A     		je	L80
 3581              	L76:
 3582 0724 8B45C0   		movl	-64(%ebp), %eax
 3583 0727 8945C4   		movl	%eax, -60(%ebp)
 3584 072a 8B4508   		movl	8(%ebp), %eax
 3585 072d 83C008   		addl	$8, %eax
GAS LISTING d:/software/ovi_2503a_s3trc/ovi_2503a_s3trc/plutommi/Customer/ResGenerator/gcctmp/cci0baaa.s 			page 25


 3586 0730 890424   		movl	%eax, (%esp)
 3587 0733 C745CC00 		movl	$0, -52(%ebp)
 3587      000000
 3588 073a E8000000 		call	__ZNSt6vectorIN10ThreadPool10ThreadDataESaIS1_EED1Ev
 3588      00
 3589 073f 8B55C4   		movl	-60(%ebp), %edx
 3590 0742 8955C0   		movl	%edx, -64(%ebp)
 3591              	L78:
 3592 0745 EB17     		jmp	L80
 3593              	L77:
 3594 0747 8B4508   		movl	8(%ebp), %eax
 3595 074a 83C008   		addl	$8, %eax
 3596 074d 890424   		movl	%eax, (%esp)
 3597 0750 C745CC02 		movl	$2, -52(%ebp)
 3597      000000
 3598 0757 E8000000 		call	__ZNSt6vectorIN10ThreadPool10ThreadDataESaIS1_EED1Ev
 3598      00
 3599 075c EB33     		jmp	L81
 3600              	L80:
 3601 075e 8B45C0   		movl	-64(%ebp), %eax
 3602 0761 8945BC   		movl	%eax, -68(%ebp)
 3603 0764 8B4508   		movl	8(%ebp), %eax
 3604 0767 83C004   		addl	$4, %eax
 3605 076a 890424   		movl	%eax, (%esp)
 3606 076d C745CC00 		movl	$0, -52(%ebp)
 3606      000000
 3607 0774 E8000000 		call	__ZNSt4listIN10ThreadPool7JobDataESaIS1_EED1Ev
 3607      00
 3608 0779 8B55BC   		movl	-68(%ebp), %edx
 3609 077c 8955C0   		movl	%edx, -64(%ebp)
 3610              	L82:
 3611 077f 8B45C0   		movl	-64(%ebp), %eax
 3612 0782 890424   		movl	%eax, (%esp)
 3613 0785 C745CCFF 		movl	$-1, -52(%ebp)
 3613      FFFFFF
 3614 078c E8000000 		call	__Unwind_SjLj_Resume
 3614      00
 3615              	L81:
 3616 0791 8B4508   		movl	8(%ebp), %eax
 3617 0794 83C004   		addl	$4, %eax
 3618 0797 890424   		movl	%eax, (%esp)
 3619 079a C745CCFF 		movl	$-1, -52(%ebp)
 3619      FFFFFF
 3620 07a1 E8000000 		call	__ZNSt4listIN10ThreadPool7JobDataESaIS1_EED1Ev
 3620      00
 3622              	LM35:
 3623              	LBE7:
 3624 07a6 B8010000 		movl	$1, %eax
 3624      00
 3625 07ab 83E003   		andl	$3, %eax
 3626 07ae 84C0     		testb	%al, %al
 3627 07b0 740B     		je	L74
 3628 07b2 8B4508   		movl	8(%ebp), %eax
 3629 07b5 890424   		movl	%eax, (%esp)
 3630 07b8 E8000000 		call	__ZdlPv
 3630      00
 3631              	L74:
GAS LISTING d:/software/ovi_2503a_s3trc/ovi_2503a_s3trc/plutommi/Customer/ResGenerator/gcctmp/cci0baaa.s 			page 26


 3632 07bd 8D45C8   		leal	-56(%ebp), %eax
 3633 07c0 890424   		movl	%eax, (%esp)
 3634 07c3 E8000000 		call	__Unwind_SjLj_Unregister
 3634      00
 3635 07c8 8D65F4   		leal	-12(%ebp), %esp
 3636 07cb 5B       		popl	%ebx
 3637 07cc 5E       		popl	%esi
 3638 07cd 5F       		popl	%edi
 3639 07ce 5D       		popl	%ebp
 3640 07cf C3       		ret
 3641              		.section	.gcc_except_table,""
 3642              	LLSDA670:
 3643 0024 FF       		.byte	0xff
 3644 0025 FF       		.byte	0xff
 3645 0026 01       		.byte	0x1
 3646 0027 04       		.uleb128 LLSDACSE670-LLSDACSB670
 3647              	LLSDACSB670:
 3648 0028 00       		.uleb128 0x0
 3649 0029 00       		.uleb128 0x0
 3650 002a 01       		.uleb128 0x1
 3651 002b 00       		.uleb128 0x0
 3652              	LLSDACSE670:
 3653              		.text
 3654              	Lscope5:
 3656 07d0 90909090 		.align 32
 3656      90909090 
 3656      90909090 
 3656      90909090 
 3657              	LC3:
 3658 07e0 2E2E2F2E 		.ascii "../../MMI/Resource/ThreadPool.cpp\0"
 3658      2E2F4D4D 
 3658      492F5265 
 3658      736F7572 
 3658      63652F54 
 3659              	LC4:
 3660 0802 6D5F684E 		.ascii "m_hNotifyShutdown != NULL\0"
 3660      6F746966 
 3660      79536875 
 3660      74646F77 
 3660      6E20213D 
 3661 081c 8D742600 		.align 32
 3662              	LC5:
 3663 0820 494E5641 		.ascii "INVALID_HANDLE_VALUE != hThread\0"
 3663      4C49445F 
 3663      48414E44 
 3663      4C455F56 
 3663      414C5545 
 3664              		.align 32
 3665              	LC6:
 3666 0840 54687265 		.ascii "Thread %d creation failed in ThreadPool::Create()\0"
 3666      61642025 
 3666      64206372 
 3666      65617469 
 3666      6F6E2066 
 3667              	LC7:
 3668 0872 43726561 		.ascii "Create Thread, ID = %d\0"
 3668      74652054 
GAS LISTING d:/software/ovi_2503a_s3trc/ovi_2503a_s3trc/plutommi/Customer/ResGenerator/gcctmp/cci0baaa.s 			page 27


 3668      68726561 
 3668      642C2049 
 3668      44203D20 
 3669 0889 90       		.align 2
 3673              	.globl __ZN10ThreadPool6CreateEi
 3675              	__ZN10ThreadPool6CreateEi:
  33:../../MMI/Resource/ThreadPool.cpp **** 
  34:../../MMI/Resource/ThreadPool.cpp **** bool ThreadPool::Create(int poolSize)
  35:../../MMI/Resource/ThreadPool.cpp **** {
 3677              	LM36:
 3678 088a 55       		pushl	%ebp
 3679 088b 89E5     		movl	%esp, %ebp
 3680 088d 53       		pushl	%ebx
 3681 088e 83EC54   		subl	$84, %esp
  36:../../MMI/Resource/ThreadPool.cpp ****     Destroy();
 3683              	LM37:
 3684              	LBB8:
 3685 0891 8B4508   		movl	8(%ebp), %eax
 3686 0894 890424   		movl	%eax, (%esp)
 3687 0897 E8B00200 		call	__ZN10ThreadPool7DestroyEv
 3687      00
  37:../../MMI/Resource/ThreadPool.cpp ****     if (poolSize == 0)
 3689              	LM38:
 3690 089c 837D0C00 		cmpl	$0, 12(%ebp)
 3691 08a0 750C     		jne	L88
  38:../../MMI/Resource/ThreadPool.cpp ****         return true;
 3693              	LM39:
 3694 08a2 C745D401 		movl	$1, -44(%ebp)
 3694      000000
 3695 08a9 E99A0100 		jmp	L87
 3695      00
 3696              	L88:
  39:../../MMI/Resource/ThreadPool.cpp **** 
  40:../../MMI/Resource/ThreadPool.cpp ****     // create the event which will signal the threads to stop
  41:../../MMI/Resource/ThreadPool.cpp ****     m_hNotifyShutdown = CreateEvent(NULL, TRUE, FALSE, NULL);
 3698              	LM40:
 3699 08ae 8B5D08   		movl	8(%ebp), %ebx
 3700 08b1 C744240C 		movl	$0, 12(%esp)
 3700      00000000 
 3701 08b9 C7442408 		movl	$0, 8(%esp)
 3701      00000000 
 3702 08c1 C7442404 		movl	$1, 4(%esp)
 3702      01000000 
 3703 08c9 C7042400 		movl	$0, (%esp)
 3703      000000
 3704 08d0 E8000000 		call	_CreateEventA@16
 3704      00
 3705 08d5 83EC10   		subl	$16, %esp
 3706 08d8 894318   		movl	%eax, 24(%ebx)
  42:../../MMI/Resource/ThreadPool.cpp ****     assert(m_hNotifyShutdown != NULL);
 3708              	LM41:
 3709 08db 8B4508   		movl	8(%ebp), %eax
 3710 08de 83781800 		cmpl	$0, 24(%eax)
 3711 08e2 751C     		jne	L90
 3712 08e4 C7442408 		movl	$42, 8(%esp)
 3712      2A000000 
 3713 08ec C7442404 		movl	$LC3, 4(%esp)
GAS LISTING d:/software/ovi_2503a_s3trc/ovi_2503a_s3trc/plutommi/Customer/ResGenerator/gcctmp/cci0baaa.s 			page 28


 3713      E0070000 
 3714 08f4 C7042402 		movl	$LC4, (%esp)
 3714      080000
 3715 08fb E8000000 		call	__assert
 3715      00
 3716              	L90:
  43:../../MMI/Resource/ThreadPool.cpp ****     if (m_hNotifyShutdown == NULL)
 3718              	LM42:
 3719 0900 8B4508   		movl	8(%ebp), %eax
 3720 0903 83781800 		cmpl	$0, 24(%eax)
 3721 0907 750C     		jne	L91
  44:../../MMI/Resource/ThreadPool.cpp ****         return false;
 3723              	LM43:
 3724 0909 C745D400 		movl	$0, -44(%ebp)
 3724      000000
 3725 0910 E9330100 		jmp	L87
 3725      00
 3726              	L91:
  45:../../MMI/Resource/ThreadPool.cpp **** 
  46:../../MMI/Resource/ThreadPool.cpp ****     // create the threads
  47:../../MMI/Resource/ThreadPool.cpp ****     for (int nIndex = 0; nIndex < poolSize; ++nIndex)
 3728              	LM44:
 3729              	LBB9:
 3730 0915 C745F400 		movl	$0, -12(%ebp)
 3730      000000
 3731              	L92:
 3732 091c 8B45F4   		movl	-12(%ebp), %eax
 3733 091f 3B450C   		cmpl	12(%ebp), %eax
 3734 0922 7C05     		jl	L95
 3735 0924 E9180100 		jmp	L93
 3735      00
 3736              	L95:
  48:../../MMI/Resource/ThreadPool.cpp ****     {
  49:../../MMI/Resource/ThreadPool.cpp ****         UINT uThreadId;
 3738              	LM45:
  50:../../MMI/Resource/ThreadPool.cpp ****         HANDLE hThread = (HANDLE)_beginthreadex(
 3740              	LM46:
 3741              	LBB10:
 3742              	LBB11:
 3743 0929 8D45F0   		leal	-16(%ebp), %eax
 3744 092c 89442414 		movl	%eax, 20(%esp)
 3745 0930 C7442410 		movl	$4, 16(%esp)
 3745      04000000 
 3746 0938 8B4508   		movl	8(%ebp), %eax
 3747 093b 8944240C 		movl	%eax, 12(%esp)
 3748 093f C7442408 		movl	$__ZN10ThreadPool10ThreadProcEPv@4, 8(%esp)
 3748      C0100000 
 3749 0947 C7442404 		movl	$0, 4(%esp)
 3749      00000000 
 3750 094f C7042400 		movl	$0, (%esp)
 3750      000000
 3751 0956 E8000000 		call	__beginthreadex
 3751      00
 3752 095b 8945EC   		movl	%eax, -20(%ebp)
  51:../../MMI/Resource/ThreadPool.cpp ****             NULL, 0, ThreadPool::ThreadProc, this,
  52:../../MMI/Resource/ThreadPool.cpp ****             CREATE_SUSPENDED, (UINT*)&uThreadId);
  53:../../MMI/Resource/ThreadPool.cpp ****         DWORD dwThreadId = uThreadId;
GAS LISTING d:/software/ovi_2503a_s3trc/ovi_2503a_s3trc/plutommi/Customer/ResGenerator/gcctmp/cci0baaa.s 			page 29


 3754              	LM47:
 3755 095e 8B45F0   		movl	-16(%ebp), %eax
 3756 0961 8945E8   		movl	%eax, -24(%ebp)
  54:../../MMI/Resource/ThreadPool.cpp ****         assert(INVALID_HANDLE_VALUE != hThread);
 3758              	LM48:
 3759 0964 837DECFF 		cmpl	$-1, -20(%ebp)
 3760 0968 751C     		jne	L97
 3761 096a C7442408 		movl	$54, 8(%esp)
 3761      36000000 
 3762 0972 C7442404 		movl	$LC3, 4(%esp)
 3762      E0070000 
 3763 097a C7042420 		movl	$LC5, (%esp)
 3763      080000
 3764 0981 E8000000 		call	__assert
 3764      00
 3765              	L97:
  55:../../MMI/Resource/ThreadPool.cpp **** 
  56:../../MMI/Resource/ThreadPool.cpp ****         if (hThread == INVALID_HANDLE_VALUE){
 3767              	LM49:
 3768 0986 837DECFF 		cmpl	$-1, -20(%ebp)
 3769 098a 752F     		jne	L98
  57:../../MMI/Resource/ThreadPool.cpp ****             THREADP_LOG_E("Thread %d creation failed in ThreadPool::Create()", nIndex);
 3771              	LM50:
 3772 098c 8B45F4   		movl	-12(%ebp), %eax
 3773 098f 8944240C 		movl	%eax, 12(%esp)
 3774 0993 C7442408 		movl	$LC6, 8(%esp)
 3774      40080000 
 3775 099b C7442404 		movl	$LC1, 4(%esp)
 3775      34000000 
 3776 09a3 C7042403 		movl	$3, (%esp)
 3776      000000
 3777 09aa E8000000 		call	_reslog_adaptor_log
 3777      00
  58:../../MMI/Resource/ThreadPool.cpp ****             return false;
 3779              	LM51:
 3780 09af C745D400 		movl	$0, -44(%ebp)
 3780      000000
 3781 09b6 E98D0000 		jmp	L87
 3781      00
 3782              	L98:
  59:../../MMI/Resource/ThreadPool.cpp ****         }
  60:../../MMI/Resource/ThreadPool.cpp **** 
  61:../../MMI/Resource/ThreadPool.cpp ****         // add the entry to the thread list
  62:../../MMI/Resource/ThreadPool.cpp ****         ThreadData td;
  63:../../MMI/Resource/ThreadPool.cpp ****         td.hWait = CreateEvent(NULL, TRUE, FALSE, NULL);
 3784              	LM52:
 3785 09bb C744240C 		movl	$0, 12(%esp)
 3785      00000000 
 3786 09c3 C7442408 		movl	$0, 8(%esp)
 3786      00000000 
 3787 09cb C7442404 		movl	$1, 4(%esp)
 3787      01000000 
 3788 09d3 C7042400 		movl	$0, (%esp)
 3788      000000
 3789 09da E8000000 		call	_CreateEventA@16
 3789      00
 3790 09df 83EC10   		subl	$16, %esp
GAS LISTING d:/software/ovi_2503a_s3trc/ovi_2503a_s3trc/plutommi/Customer/ResGenerator/gcctmp/cci0baaa.s 			page 30


 3791 09e2 8945D8   		movl	%eax, -40(%ebp)
  64:../../MMI/Resource/ThreadPool.cpp ****         td.hThread = hThread;
 3793              	LM53:
 3794 09e5 8B45EC   		movl	-20(%ebp), %eax
 3795 09e8 8945DC   		movl	%eax, -36(%ebp)
  65:../../MMI/Resource/ThreadPool.cpp ****         td.dwThreadId = dwThreadId;
 3797              	LM54:
 3798 09eb 8B45E8   		movl	-24(%ebp), %eax
 3799 09ee 8945E0   		movl	%eax, -32(%ebp)
  66:../../MMI/Resource/ThreadPool.cpp ****         THREADP_LOG_V("Create Thread, ID = %d", td.dwThreadId);
 3801              	LM55:
 3802 09f1 8B45E0   		movl	-32(%ebp), %eax
 3803 09f4 8944240C 		movl	%eax, 12(%esp)
 3804 09f8 C7442408 		movl	$LC7, 8(%esp)
 3804      72080000 
 3805 0a00 C7442404 		movl	$LC1, 4(%esp)
 3805      34000000 
 3806 0a08 C7042401 		movl	$1, (%esp)
 3806      000000
 3807 0a0f E8000000 		call	_reslog_adaptor_log
 3807      00
  67:../../MMI/Resource/ThreadPool.cpp ****         m_threads.push_back(td);
 3809              	LM56:
 3810 0a14 8D45D8   		leal	-40(%ebp), %eax
 3811 0a17 89442404 		movl	%eax, 4(%esp)
 3812 0a1b 8B4508   		movl	8(%ebp), %eax
 3813 0a1e 83C008   		addl	$8, %eax
 3814 0a21 890424   		movl	%eax, (%esp)
 3815 0a24 E8000000 		call	__ZNSt6vectorIN10ThreadPool10ThreadDataESaIS1_EE9push_backERKS1_
 3815      00
  68:../../MMI/Resource/ThreadPool.cpp ****         ResumeThread(hThread);
 3817              	LM57:
 3818 0a29 8B45EC   		movl	-20(%ebp), %eax
 3819 0a2c 890424   		movl	%eax, (%esp)
 3820 0a2f E8000000 		call	_ResumeThread@4
 3820      00
 3821 0a34 83EC04   		subl	$4, %esp
 3823              	LM58:
 3824 0a37 8D45F4   		leal	-12(%ebp), %eax
 3825              	LBE11:
 3826              	LBE10:
 3827 0a3a FF00     		incl	(%eax)
 3828 0a3c E9DBFEFF 		jmp	L92
 3828      FF
 3829              	L93:
  69:../../MMI/Resource/ThreadPool.cpp ****     }
  70:../../MMI/Resource/ThreadPool.cpp ****     return true;
 3831              	LM59:
 3832              	LBE9:
 3833 0a41 C745D401 		movl	$1, -44(%ebp)
 3833      000000
  71:../../MMI/Resource/ThreadPool.cpp **** }
 3835              	LM60:
 3836              	L87:
 3837              	LBE8:
 3838 0a48 8B45D4   		movl	-44(%ebp), %eax
 3839 0a4b 8B5DFC   		movl	-4(%ebp), %ebx
GAS LISTING d:/software/ovi_2503a_s3trc/ovi_2503a_s3trc/plutommi/Customer/ResGenerator/gcctmp/cci0baaa.s 			page 31


 3840 0a4e C9       		leave
 3841 0a4f C3       		ret
 3851              	Lscope6:
 3857 0a50 90909090 		.align 32
 3857      90909090 
 3857      90909090 
 3857      90909090 
 3858              	LC8:
 3859 0a60 436C6F73 		.ascii "Close hWait handle: 0x%x, thread ID = %d\0"
 3859      65206857 
 3859      61697420 
 3859      68616E64 
 3859      6C653A20 
 3860 0a89 90909090 		.align 32
 3860      90909090 
 3860      90909090 
 3860      90909090 
 3860      90909090 
 3861              	LC9:
 3862 0aa0 43616E6E 		.ascii "Cannnot close hWait handle, error = 0x%x\0"
 3862      6E6F7420 
 3862      636C6F73 
 3862      65206857 
 3862      61697420 
 3863 0ac9 90909090 		.align 32
 3863      90909090 
 3863      90909090 
 3863      90909090 
 3863      90909090 
 3864              	LC10:
 3865 0ae0 436C6F73 		.ascii "Close hThread handle: 0x%x, thread ID = %d\0"
 3865      65206854 
 3865      68726561 
 3865      64206861 
 3865      6E646C65 
 3866 0b0b 90909090 		.align 32
 3866      90909090 
 3866      90909090 
 3866      90909090 
 3866      90909090 
 3867              	LC11:
 3868 0b20 43616E6E 		.ascii "Cannnot close hThread handle, error = 0x%x\0"
 3868      6E6F7420 
 3868      636C6F73 
 3868      65206854 
 3868      68726561 
 3869 0b4b 90       		.align 2
 3872              	.globl __ZN10ThreadPool7DestroyEv
 3874              	__ZN10ThreadPool7DestroyEv:
  72:../../MMI/Resource/ThreadPool.cpp **** 
  73:../../MMI/Resource/ThreadPool.cpp **** void ThreadPool::Destroy()
  74:../../MMI/Resource/ThreadPool.cpp **** {
 3876              	LM61:
 3877 0b4c 55       		pushl	%ebp
 3878 0b4d 89E5     		movl	%esp, %ebp
 3879 0b4f 53       		pushl	%ebx
 3880 0b50 83EC74   		subl	$116, %esp
GAS LISTING d:/software/ovi_2503a_s3trc/ovi_2503a_s3trc/plutommi/Customer/ResGenerator/gcctmp/cci0baaa.s 			page 32


  75:../../MMI/Resource/ThreadPool.cpp ****     // Never created?
  76:../../MMI/Resource/ThreadPool.cpp ****     if (!m_hNotifyShutdown)
 3882              	LM62:
 3883              	LBB12:
 3884 0b53 8B4508   		movl	8(%ebp), %eax
 3885 0b56 83781800 		cmpl	$0, 24(%eax)
 3886 0b5a 7505     		jne	L100
  77:../../MMI/Resource/ThreadPool.cpp ****         return;
 3888              	LM63:
 3889 0b5c E99B0200 		jmp	L99
 3889      00
 3890              	L100:
  78:../../MMI/Resource/ThreadPool.cpp **** 
  79:../../MMI/Resource/ThreadPool.cpp ****     // tell all threads to shutdown.
  80:../../MMI/Resource/ThreadPool.cpp ****     SetEvent(m_hNotifyShutdown);
 3892              	LM64:
 3893 0b61 8B4508   		movl	8(%ebp), %eax
 3894 0b64 8B4018   		movl	24(%eax), %eax
 3895 0b67 890424   		movl	%eax, (%esp)
 3896 0b6a E8000000 		call	_SetEvent@4
 3896      00
 3897 0b6f 83EC04   		subl	$4, %esp
  81:../../MMI/Resource/ThreadPool.cpp ****     int timElapsed = 0;
 3899              	LM65:
 3900 0b72 C745F400 		movl	$0, -12(%ebp)
 3900      000000
  82:../../MMI/Resource/ThreadPool.cpp ****     while (GetWorkingThreadCount() > 0 && timElapsed < m_nWaitForThreadsToDieMS)
 3902              	LM66:
 3903              	L101:
 3904 0b79 8B4508   		movl	8(%ebp), %eax
 3905 0b7c 890424   		movl	%eax, (%esp)
 3906 0b7f E87E0200 		call	__ZN10ThreadPool21GetWorkingThreadCountEv
 3906      00
 3907 0b84 85C0     		testl	%eax, %eax
 3908 0b86 7E24     		jle	L102
 3909 0b88 8B5508   		movl	8(%ebp), %edx
 3910 0b8b 8B45F4   		movl	-12(%ebp), %eax
 3911 0b8e 3B4214   		cmpl	20(%edx), %eax
 3912 0b91 7C02     		jl	L103
 3913 0b93 EB17     		jmp	L102
 3914              	L103:
  83:../../MMI/Resource/ThreadPool.cpp ****     {
  84:../../MMI/Resource/ThreadPool.cpp ****         Sleep(100); // give the threads a chance to complete
 3916              	LM67:
 3917 0b95 C7042464 		movl	$100, (%esp)
 3917      000000
 3918 0b9c E8000000 		call	_Sleep@4
 3918      00
 3919 0ba1 83EC04   		subl	$4, %esp
  85:../../MMI/Resource/ThreadPool.cpp ****         timElapsed += 100;
 3921              	LM68:
 3922 0ba4 8D45F4   		leal	-12(%ebp), %eax
 3923 0ba7 830064   		addl	$100, (%eax)
 3924 0baa EBCD     		jmp	L101
 3925              	L102:
  86:../../MMI/Resource/ThreadPool.cpp ****     }
  87:../../MMI/Resource/ThreadPool.cpp **** 
GAS LISTING d:/software/ovi_2503a_s3trc/ovi_2503a_s3trc/plutommi/Customer/ResGenerator/gcctmp/cci0baaa.s 			page 33


  88:../../MMI/Resource/ThreadPool.cpp ****     // walk through the events and threads and close them all
  89:../../MMI/Resource/ThreadPool.cpp ****     for (ThreadList::iterator iter = m_threads.begin(); iter != m_threads.end(); ++iter)
 3927              	LM69:
 3928 0bac 8B4508   		movl	8(%ebp), %eax
 3929              	LBB13:
 3930 0baf 83C008   		addl	$8, %eax
 3931 0bb2 890424   		movl	%eax, (%esp)
 3932 0bb5 E8000000 		call	__ZNSt6vectorIN10ThreadPool10ThreadDataESaIS1_EE5beginEv
 3932      00
 3933 0bba 8945F0   		movl	%eax, -16(%ebp)
 3934              	L105:
 3935 0bbd 8B4508   		movl	8(%ebp), %eax
 3936 0bc0 83C008   		addl	$8, %eax
 3937 0bc3 890424   		movl	%eax, (%esp)
 3938 0bc6 E8000000 		call	__ZNSt6vectorIN10ThreadPool10ThreadDataESaIS1_EE3endEv
 3938      00
 3939 0bcb 8945EC   		movl	%eax, -20(%ebp)
 3940 0bce 8D45EC   		leal	-20(%ebp), %eax
 3941 0bd1 89442404 		movl	%eax, 4(%esp)
 3942 0bd5 8D45F0   		leal	-16(%ebp), %eax
 3943 0bd8 890424   		movl	%eax, (%esp)
 3944 0bdb E8000000 		call	__ZN9__gnu_cxxneIPN10ThreadPool10ThreadDataESt6vectorIS2_SaIS2_EEEEbRKNS_17__normal_iteratorI
 3944      00
 3945 0be0 84C0     		testb	%al, %al
 3946 0be2 7505     		jne	L108
 3947 0be4 E91A0100 		jmp	L106
 3947      00
 3948              	L108:
  90:../../MMI/Resource/ThreadPool.cpp ****     {
  91:../../MMI/Resource/ThreadPool.cpp ****         THREADP_LOG_V("Close hWait handle: 0x%x, thread ID = %d", iter->hWait, iter->dwThreadId);
 3950              	LM70:
 3951 0be9 8D45F0   		leal	-16(%ebp), %eax
 3952 0bec 890424   		movl	%eax, (%esp)
 3953 0bef E8000000 		call	__ZNK9__gnu_cxx17__normal_iteratorIPN10ThreadPool10ThreadDataESt6vectorIS2_SaIS2_EEEptEv
 3953      00
 3954 0bf4 89C3     		movl	%eax, %ebx
 3955 0bf6 8D45F0   		leal	-16(%ebp), %eax
 3956 0bf9 890424   		movl	%eax, (%esp)
 3957 0bfc E8000000 		call	__ZNK9__gnu_cxx17__normal_iteratorIPN10ThreadPool10ThreadDataESt6vectorIS2_SaIS2_EEEptEv
 3957      00
 3958 0c01 89C2     		movl	%eax, %edx
 3959 0c03 8B4308   		movl	8(%ebx), %eax
 3960 0c06 89442410 		movl	%eax, 16(%esp)
 3961 0c0a 8B02     		movl	(%edx), %eax
 3962 0c0c 8944240C 		movl	%eax, 12(%esp)
 3963 0c10 C7442408 		movl	$LC8, 8(%esp)
 3963      600A0000 
 3964 0c18 C7442404 		movl	$LC1, 4(%esp)
 3964      34000000 
 3965 0c20 C7042401 		movl	$1, (%esp)
 3965      000000
 3966 0c27 E8000000 		call	_reslog_adaptor_log
 3966      00
  92:../../MMI/Resource/ThreadPool.cpp ****         if(CloseHandle(iter->hWait)== 0){
 3968              	LM71:
 3969 0c2c 8D45F0   		leal	-16(%ebp), %eax
 3970 0c2f 890424   		movl	%eax, (%esp)
GAS LISTING d:/software/ovi_2503a_s3trc/ovi_2503a_s3trc/plutommi/Customer/ResGenerator/gcctmp/cci0baaa.s 			page 34


 3971 0c32 E8000000 		call	__ZNK9__gnu_cxx17__normal_iteratorIPN10ThreadPool10ThreadDataESt6vectorIS2_SaIS2_EEEptEv
 3971      00
 3972 0c37 8B00     		movl	(%eax), %eax
 3973 0c39 890424   		movl	%eax, (%esp)
 3974 0c3c E8000000 		call	_CloseHandle@4
 3974      00
 3975 0c41 83EC04   		subl	$4, %esp
 3976 0c44 85C0     		testl	%eax, %eax
 3977 0c46 7525     		jne	L109
  93:../../MMI/Resource/ThreadPool.cpp ****             THREADP_LOG_E("Cannnot close hWait handle, error = 0x%x", GetLastError());
 3979              	LM72:
 3980 0c48 E8000000 		call	_GetLastError@0
 3980      00
 3981 0c4d 8944240C 		movl	%eax, 12(%esp)
 3982 0c51 C7442408 		movl	$LC9, 8(%esp)
 3982      A00A0000 
 3983 0c59 C7442404 		movl	$LC1, 4(%esp)
 3983      34000000 
 3984 0c61 C7042403 		movl	$3, (%esp)
 3984      000000
 3985 0c68 E8000000 		call	_reslog_adaptor_log
 3985      00
 3986              	L109:
  94:../../MMI/Resource/ThreadPool.cpp ****         }
  95:../../MMI/Resource/ThreadPool.cpp **** 
  96:../../MMI/Resource/ThreadPool.cpp ****         THREADP_LOG_V("Close hThread handle: 0x%x, thread ID = %d", iter->hThread, iter->dwThreadId
 3988              	LM73:
 3989 0c6d 8D45F0   		leal	-16(%ebp), %eax
 3990 0c70 890424   		movl	%eax, (%esp)
 3991 0c73 E8000000 		call	__ZNK9__gnu_cxx17__normal_iteratorIPN10ThreadPool10ThreadDataESt6vectorIS2_SaIS2_EEEptEv
 3991      00
 3992 0c78 89C3     		movl	%eax, %ebx
 3993 0c7a 8D45F0   		leal	-16(%ebp), %eax
 3994 0c7d 890424   		movl	%eax, (%esp)
 3995 0c80 E8000000 		call	__ZNK9__gnu_cxx17__normal_iteratorIPN10ThreadPool10ThreadDataESt6vectorIS2_SaIS2_EEEptEv
 3995      00
 3996 0c85 89C2     		movl	%eax, %edx
 3997 0c87 8B4308   		movl	8(%ebx), %eax
 3998 0c8a 89442410 		movl	%eax, 16(%esp)
 3999 0c8e 8B4204   		movl	4(%edx), %eax
 4000 0c91 8944240C 		movl	%eax, 12(%esp)
 4001 0c95 C7442408 		movl	$LC10, 8(%esp)
 4001      E00A0000 
 4002 0c9d C7442404 		movl	$LC1, 4(%esp)
 4002      34000000 
 4003 0ca5 C7042401 		movl	$1, (%esp)
 4003      000000
 4004 0cac E8000000 		call	_reslog_adaptor_log
 4004      00
  97:../../MMI/Resource/ThreadPool.cpp ****         if(CloseHandle(iter->hThread)==0){
 4006              	LM74:
 4007 0cb1 8D45F0   		leal	-16(%ebp), %eax
 4008 0cb4 890424   		movl	%eax, (%esp)
 4009 0cb7 E8000000 		call	__ZNK9__gnu_cxx17__normal_iteratorIPN10ThreadPool10ThreadDataESt6vectorIS2_SaIS2_EEEptEv
 4009      00
 4010 0cbc 8B4004   		movl	4(%eax), %eax
 4011 0cbf 890424   		movl	%eax, (%esp)
GAS LISTING d:/software/ovi_2503a_s3trc/ovi_2503a_s3trc/plutommi/Customer/ResGenerator/gcctmp/cci0baaa.s 			page 35


 4012 0cc2 E8000000 		call	_CloseHandle@4
 4012      00
 4013 0cc7 83EC04   		subl	$4, %esp
 4014 0cca 85C0     		testl	%eax, %eax
 4015 0ccc 7525     		jne	L107
  98:../../MMI/Resource/ThreadPool.cpp ****             THREADP_LOG_E("Cannnot close hThread handle, error = 0x%x", GetLastError());
 4017              	LM75:
 4018 0cce E8000000 		call	_GetLastError@0
 4018      00
 4019 0cd3 8944240C 		movl	%eax, 12(%esp)
 4020 0cd7 C7442408 		movl	$LC11, 8(%esp)
 4020      200B0000 
 4021 0cdf C7442404 		movl	$LC1, 4(%esp)
 4021      34000000 
 4022 0ce7 C7042403 		movl	$3, (%esp)
 4022      000000
 4023 0cee E8000000 		call	_reslog_adaptor_log
 4023      00
 4025              	LM76:
 4026              	L107:
 4027 0cf3 8D45F0   		leal	-16(%ebp), %eax
 4028 0cf6 890424   		movl	%eax, (%esp)
 4029 0cf9 E8000000 		call	__ZN9__gnu_cxx17__normal_iteratorIPN10ThreadPool10ThreadDataESt6vectorIS2_SaIS2_EEEppEv
 4029      00
 4030 0cfe E9BAFEFF 		jmp	L105
 4030      FF
 4031              	L106:
  99:../../MMI/Resource/ThreadPool.cpp ****         }
 100:../../MMI/Resource/ThreadPool.cpp ****     }
 101:../../MMI/Resource/ThreadPool.cpp **** 
 102:../../MMI/Resource/ThreadPool.cpp ****     // close the shutdown event
 103:../../MMI/Resource/ThreadPool.cpp ****     CloseHandle(m_hNotifyShutdown);
 4033              	LM77:
 4034              	LBE13:
 4035 0d03 8B4508   		movl	8(%ebp), %eax
 4036 0d06 8B4018   		movl	24(%eax), %eax
 4037 0d09 890424   		movl	%eax, (%esp)
 4038 0d0c E8000000 		call	_CloseHandle@4
 4038      00
 4039 0d11 83EC04   		subl	$4, %esp
 104:../../MMI/Resource/ThreadPool.cpp ****     m_hNotifyShutdown = NULL;
 4041              	LM78:
 4042 0d14 8B4508   		movl	8(%ebp), %eax
 4043 0d17 C7401800 		movl	$0, 24(%eax)
 4043      000000
 105:../../MMI/Resource/ThreadPool.cpp **** 
 106:../../MMI/Resource/ThreadPool.cpp ****     // free any jobs not released
 107:../../MMI/Resource/ThreadPool.cpp ****     for (JobList::iterator funcIter = m_jobList.begin();
 4045              	LM79:
 4046              	LBB14:
 4047 0d1e 8D55D8   		leal	-40(%ebp), %edx
 4048 0d21 8B4508   		movl	8(%ebp), %eax
 4049 0d24 83C004   		addl	$4, %eax
 4050 0d27 89442404 		movl	%eax, 4(%esp)
 4051 0d2b 891424   		movl	%edx, (%esp)
 4052 0d2e E8000000 		call	__ZNSt4listIN10ThreadPool7JobDataESaIS1_EE5beginEv
 4052      00
GAS LISTING d:/software/ovi_2503a_s3trc/ovi_2503a_s3trc/plutommi/Customer/ResGenerator/gcctmp/cci0baaa.s 			page 36


 4053 0d33 83EC04   		subl	$4, %esp
 4054              	L111:
 4055 0d36 8D55C8   		leal	-56(%ebp), %edx
 4056 0d39 8B4508   		movl	8(%ebp), %eax
 4057 0d3c 83C004   		addl	$4, %eax
 4058 0d3f 89442404 		movl	%eax, 4(%esp)
 4059 0d43 891424   		movl	%edx, (%esp)
 4060 0d46 E8000000 		call	__ZNSt4listIN10ThreadPool7JobDataESaIS1_EE3endEv
 4060      00
 4061 0d4b 83EC04   		subl	$4, %esp
 4062 0d4e 8D45C8   		leal	-56(%ebp), %eax
 4063 0d51 89442404 		movl	%eax, 4(%esp)
 4064 0d55 8D45D8   		leal	-40(%ebp), %eax
 4065 0d58 890424   		movl	%eax, (%esp)
 4066 0d5b E8000000 		call	__ZNKSt19_List_iterator_baseneERKS_
 4066      00
 4067 0d60 84C0     		testb	%al, %al
 4068 0d62 7502     		jne	L114
 4069 0d64 EB7A     		jmp	L112
 4070              	L114:
 108:../../MMI/Resource/ThreadPool.cpp ****         funcIter != m_jobList.end(); funcIter++)
 109:../../MMI/Resource/ThreadPool.cpp ****         if (funcIter->runObject && funcIter->runObject->AutoDelete())
 4072              	LM80:
 4073 0d66 8D45D8   		leal	-40(%ebp), %eax
 4074 0d69 890424   		movl	%eax, (%esp)
 4075 0d6c E8000000 		call	__ZNKSt14_List_iteratorIN10ThreadPool7JobDataERS1_PS1_EptEv
 4075      00
 4076 0d71 83780800 		cmpl	$0, 8(%eax)
 4077 0d75 7447     		je	L113
 4078 0d77 8D45D8   		leal	-40(%ebp), %eax
 4079 0d7a 890424   		movl	%eax, (%esp)
 4080 0d7d E8000000 		call	__ZNKSt14_List_iteratorIN10ThreadPool7JobDataERS1_PS1_EptEv
 4080      00
 4081 0d82 8B4008   		movl	8(%eax), %eax
 4082 0d85 8B10     		movl	(%eax), %edx
 4083 0d87 83C20C   		addl	$12, %edx
 4084 0d8a 890424   		movl	%eax, (%esp)
 4085 0d8d 8B02     		movl	(%edx), %eax
 4086 0d8f FFD0     		call	*%eax
 4087 0d91 84C0     		testb	%al, %al
 4088 0d93 7429     		je	L113
 110:../../MMI/Resource/ThreadPool.cpp ****             delete funcIter->runObject;
 4090              	LM81:
 4091 0d95 8D45D8   		leal	-40(%ebp), %eax
 4092 0d98 890424   		movl	%eax, (%esp)
 4093 0d9b E8000000 		call	__ZNKSt14_List_iteratorIN10ThreadPool7JobDataERS1_PS1_EptEv
 4093      00
 4094 0da0 8B4008   		movl	8(%eax), %eax
 4095 0da3 8945B4   		movl	%eax, -76(%ebp)
 4096 0da6 837DB400 		cmpl	$0, -76(%ebp)
 4097 0daa 7412     		je	L113
 4098 0dac 8B55B4   		movl	-76(%ebp), %edx
 4099 0daf 8B02     		movl	(%edx), %eax
 4100 0db1 83C004   		addl	$4, %eax
 4101 0db4 8B55B4   		movl	-76(%ebp), %edx
 4102 0db7 891424   		movl	%edx, (%esp)
 4103 0dba 8B00     		movl	(%eax), %eax
GAS LISTING d:/software/ovi_2503a_s3trc/ovi_2503a_s3trc/plutommi/Customer/ResGenerator/gcctmp/cci0baaa.s 			page 37


 4104 0dbc FFD0     		call	*%eax
 4106              	LM82:
 4107              	L113:
 4108 0dbe 8D55B8   		leal	-72(%ebp), %edx
 4109 0dc1 C7442408 		movl	$0, 8(%esp)
 4109      00000000 
 4110 0dc9 8D45D8   		leal	-40(%ebp), %eax
 4111 0dcc 89442404 		movl	%eax, 4(%esp)
 4112 0dd0 891424   		movl	%edx, (%esp)
 4113 0dd3 E8000000 		call	__ZNSt14_List_iteratorIN10ThreadPool7JobDataERS1_PS1_EppEi
 4113      00
 4114 0dd8 83EC04   		subl	$4, %esp
 4115 0ddb E956FFFF 		jmp	L111
 4115      FF
 4116              	L112:
 111:../../MMI/Resource/ThreadPool.cpp **** 
 112:../../MMI/Resource/ThreadPool.cpp ****     // empty all collections
 113:../../MMI/Resource/ThreadPool.cpp ****     m_jobList.clear();
 4118              	LM83:
 4119 0de0 8B4508   		movl	8(%ebp), %eax
 4120              	LBE14:
 4121 0de3 83C004   		addl	$4, %eax
 4122 0de6 890424   		movl	%eax, (%esp)
 4123 0de9 E8000000 		call	__ZNSt4listIN10ThreadPool7JobDataESaIS1_EE5clearEv
 4123      00
 114:../../MMI/Resource/ThreadPool.cpp ****     m_threads.clear();
 4125              	LM84:
 4126 0dee 8B4508   		movl	8(%ebp), %eax
 4127 0df1 83C008   		addl	$8, %eax
 4128 0df4 890424   		movl	%eax, (%esp)
 4129 0df7 E8000000 		call	__ZNSt6vectorIN10ThreadPool10ThreadDataESaIS1_EE5clearEv
 4129      00
 115:../../MMI/Resource/ThreadPool.cpp **** }
 4131              	LM85:
 4132              	L99:
 4133 0dfc 8B5DFC   		movl	-4(%ebp), %ebx
 4134 0dff C9       		leave
 4135 0e00 C3       		ret
 4136              	LBE12:
 4146              	Lscope7:
 4148 0e01 90       		.align 2
 4151              	.globl __ZN10ThreadPool21GetWorkingThreadCountEv
 4153              	__ZN10ThreadPool21GetWorkingThreadCountEv:
 116:../../MMI/Resource/ThreadPool.cpp **** 
 117:../../MMI/Resource/ThreadPool.cpp **** int ThreadPool::GetWorkingThreadCount()
 118:../../MMI/Resource/ThreadPool.cpp **** {
 4155              	LM86:
 4156 0e02 55       		pushl	%ebp
 4157 0e03 89E5     		movl	%esp, %ebp
 4158 0e05 83EC18   		subl	$24, %esp
 119:../../MMI/Resource/ThreadPool.cpp ****     int nCount = 0;
 4160              	LM87:
 4161              	LBB15:
 4162 0e08 C745FC00 		movl	$0, -4(%ebp)
 4162      000000
 120:../../MMI/Resource/ThreadPool.cpp ****     EnterCriticalSection(&m_cs);
 4164              	LM88:
GAS LISTING d:/software/ovi_2503a_s3trc/ovi_2503a_s3trc/plutommi/Customer/ResGenerator/gcctmp/cci0baaa.s 			page 38


 4165 0e0f 8B4508   		movl	8(%ebp), %eax
 4166 0e12 83C01C   		addl	$28, %eax
 4167 0e15 890424   		movl	%eax, (%esp)
 4168 0e18 E8000000 		call	_EnterCriticalSection@4
 4168      00
 4169 0e1d 83EC04   		subl	$4, %esp
 121:../../MMI/Resource/ThreadPool.cpp ****     for (ThreadList::iterator iter = m_threads.begin(); iter != m_threads.end(); ++iter)
 4171              	LM89:
 4172 0e20 8B4508   		movl	8(%ebp), %eax
 4173              	LBB16:
 4174 0e23 83C008   		addl	$8, %eax
 4175 0e26 890424   		movl	%eax, (%esp)
 4176 0e29 E8000000 		call	__ZNSt6vectorIN10ThreadPool10ThreadDataESaIS1_EE5beginEv
 4176      00
 4177 0e2e 8945F8   		movl	%eax, -8(%ebp)
 4178              	L119:
 4179 0e31 8B4508   		movl	8(%ebp), %eax
 4180 0e34 83C008   		addl	$8, %eax
 4181 0e37 890424   		movl	%eax, (%esp)
 4182 0e3a E8000000 		call	__ZNSt6vectorIN10ThreadPool10ThreadDataESaIS1_EE3endEv
 4182      00
 4183 0e3f 8945F4   		movl	%eax, -12(%ebp)
 4184 0e42 8D45F4   		leal	-12(%ebp), %eax
 4185 0e45 89442404 		movl	%eax, 4(%esp)
 4186 0e49 8D45F8   		leal	-8(%ebp), %eax
 4187 0e4c 890424   		movl	%eax, (%esp)
 4188 0e4f E8000000 		call	__ZN9__gnu_cxxneIPN10ThreadPool10ThreadDataESt6vectorIS2_SaIS2_EEEEbRKNS_17__normal_iteratorI
 4188      00
 4189 0e54 84C0     		testb	%al, %al
 4190 0e56 7502     		jne	L122
 4191 0e58 EB36     		jmp	L120
 4192              	L122:
 122:../../MMI/Resource/ThreadPool.cpp ****         if (WaitForSingleObject(iter->hWait, 0) == WAIT_OBJECT_0)
 4194              	LM90:
 4195 0e5a 8D45F8   		leal	-8(%ebp), %eax
 4196 0e5d 890424   		movl	%eax, (%esp)
 4197 0e60 E8000000 		call	__ZNK9__gnu_cxx17__normal_iteratorIPN10ThreadPool10ThreadDataESt6vectorIS2_SaIS2_EEEptEv
 4197      00
 4198 0e65 C7442404 		movl	$0, 4(%esp)
 4198      00000000 
 4199 0e6d 8B00     		movl	(%eax), %eax
 4200 0e6f 890424   		movl	%eax, (%esp)
 4201 0e72 E8000000 		call	_WaitForSingleObject@8
 4201      00
 4202 0e77 83EC08   		subl	$8, %esp
 4203 0e7a 85C0     		testl	%eax, %eax
 4204 0e7c 7505     		jne	L121
 123:../../MMI/Resource/ThreadPool.cpp ****             ++nCount;
 4206              	LM91:
 4207 0e7e 8D45FC   		leal	-4(%ebp), %eax
 4208 0e81 FF00     		incl	(%eax)
 4210              	LM92:
 4211              	L121:
 4212 0e83 8D45F8   		leal	-8(%ebp), %eax
 4213 0e86 890424   		movl	%eax, (%esp)
 4214 0e89 E8000000 		call	__ZN9__gnu_cxx17__normal_iteratorIPN10ThreadPool10ThreadDataESt6vectorIS2_SaIS2_EEEppEv
 4214      00
GAS LISTING d:/software/ovi_2503a_s3trc/ovi_2503a_s3trc/plutommi/Customer/ResGenerator/gcctmp/cci0baaa.s 			page 39


 4215 0e8e EBA1     		jmp	L119
 4216              	L120:
 124:../../MMI/Resource/ThreadPool.cpp ****     LeaveCriticalSection(&m_cs);
 4218              	LM93:
 4219 0e90 8B4508   		movl	8(%ebp), %eax
 4220              	LBE16:
 4221 0e93 83C01C   		addl	$28, %eax
 4222 0e96 890424   		movl	%eax, (%esp)
 4223 0e99 E8000000 		call	_LeaveCriticalSection@4
 4223      00
 4224 0e9e 83EC04   		subl	$4, %esp
 125:../../MMI/Resource/ThreadPool.cpp ****     return nCount;
 4226              	LM94:
 4227 0ea1 8B45FC   		movl	-4(%ebp), %eax
 126:../../MMI/Resource/ThreadPool.cpp **** }
 4229              	LM95:
 4230 0ea4 C9       		leave
 4231 0ea5 C3       		ret
 4232              	LBE15:
 4239              	Lscope8:
 4241 0ea6 90909090 		.align 32
 4241      90909090 
 4241      90909090 
 4241      90909090 
 4241      90909090 
 4242              	LC12:
 4243 0ec0 7046756E 		.ascii "pFunc != NULL || runObject != NULL\0"
 4243      6320213D 
 4243      204E554C 
 4243      4C207C7C 
 4243      2072756E 
 4244 0ee3 90       		.align 2
 4251              	.globl __ZN10ThreadPool13AddJobToQueueEPFmPvES0_PNS_10IRunObjectENS_14ThreadPriorityE
 4253              	__ZN10ThreadPool13AddJobToQueueEPFmPvES0_PNS_10IRunObjectENS_14ThreadPriorityE:
 127:../../MMI/Resource/ThreadPool.cpp **** 
 128:../../MMI/Resource/ThreadPool.cpp **** void ThreadPool::AddJobToQueue(
 129:../../MMI/Resource/ThreadPool.cpp ****     LPTHREAD_START_ROUTINE pFunc, LPVOID pData,
 130:../../MMI/Resource/ThreadPool.cpp ****     IRunObject* runObject, ThreadPriority priority)
 131:../../MMI/Resource/ThreadPool.cpp **** {
 4255              	LM96:
 4256 0ee4 55       		pushl	%ebp
 4257 0ee5 89E5     		movl	%esp, %ebp
 4258 0ee7 83EC38   		subl	$56, %esp
 132:../../MMI/Resource/ThreadPool.cpp ****     assert(pFunc != NULL || runObject != NULL);
 4260              	LM97:
 4261              	LBB17:
 4262 0eea 837D0C00 		cmpl	$0, 12(%ebp)
 4263 0eee 7522     		jne	L126
 4264 0ef0 837D1400 		cmpl	$0, 20(%ebp)
 4265 0ef4 751C     		jne	L126
 4266 0ef6 C7442408 		movl	$132, 8(%esp)
 4266      84000000 
 4267 0efe C7442404 		movl	$LC3, 4(%esp)
 4267      E0070000 
 4268 0f06 C70424C0 		movl	$LC12, (%esp)
 4268      0E0000
 4269 0f0d E8000000 		call	__assert
GAS LISTING d:/software/ovi_2503a_s3trc/ovi_2503a_s3trc/plutommi/Customer/ResGenerator/gcctmp/cci0baaa.s 			page 40


 4269      00
 4270              	L126:
 133:../../MMI/Resource/ThreadPool.cpp ****     JobData jobData;
 134:../../MMI/Resource/ThreadPool.cpp ****     jobData.lpStartAddress = pFunc;
 4272              	LM98:
 4273 0f12 8B450C   		movl	12(%ebp), %eax
 4274 0f15 8945E8   		movl	%eax, -24(%ebp)
 135:../../MMI/Resource/ThreadPool.cpp ****     jobData.pData = pData;
 4276              	LM99:
 4277 0f18 8B4510   		movl	16(%ebp), %eax
 4278 0f1b 8945EC   		movl	%eax, -20(%ebp)
 136:../../MMI/Resource/ThreadPool.cpp ****     jobData.runObject = runObject;
 4280              	LM100:
 4281 0f1e 8B4514   		movl	20(%ebp), %eax
 4282 0f21 8945F0   		movl	%eax, -16(%ebp)
 137:../../MMI/Resource/ThreadPool.cpp **** 
 138:../../MMI/Resource/ThreadPool.cpp ****     // add it to the list
 139:../../MMI/Resource/ThreadPool.cpp ****     EnterCriticalSection(&m_cs);
 4284              	LM101:
 4285 0f24 8B4508   		movl	8(%ebp), %eax
 4286 0f27 83C01C   		addl	$28, %eax
 4287 0f2a 890424   		movl	%eax, (%esp)
 4288 0f2d E8000000 		call	_EnterCriticalSection@4
 4288      00
 4289 0f32 83EC04   		subl	$4, %esp
 140:../../MMI/Resource/ThreadPool.cpp ****     {
 141:../../MMI/Resource/ThreadPool.cpp ****         if (priority == Low)
 4291              	LM102:
 4292              	LBB18:
 4293 0f35 837D1801 		cmpl	$1, 24(%ebp)
 4294 0f39 7517     		jne	L127
 142:../../MMI/Resource/ThreadPool.cpp ****             m_jobList.push_back(jobData);
 4296              	LM103:
 4297 0f3b 8D45E8   		leal	-24(%ebp), %eax
 4298 0f3e 89442404 		movl	%eax, 4(%esp)
 4299 0f42 8B4508   		movl	8(%ebp), %eax
 4300 0f45 83C004   		addl	$4, %eax
 4301 0f48 890424   		movl	%eax, (%esp)
 4302 0f4b E8000000 		call	__ZNSt4listIN10ThreadPool7JobDataESaIS1_EE9push_backERKS1_
 4302      00
 4303 0f50 EB15     		jmp	L128
 4304              	L127:
 143:../../MMI/Resource/ThreadPool.cpp ****         else
 144:../../MMI/Resource/ThreadPool.cpp ****             m_jobList.push_front(jobData);
 4306              	LM104:
 4307 0f52 8D45E8   		leal	-24(%ebp), %eax
 4308 0f55 89442404 		movl	%eax, 4(%esp)
 4309 0f59 8B4508   		movl	8(%ebp), %eax
 4310 0f5c 83C004   		addl	$4, %eax
 4311 0f5f 890424   		movl	%eax, (%esp)
 4312 0f62 E8000000 		call	__ZNSt4listIN10ThreadPool7JobDataESaIS1_EE10push_frontERKS1_
 4312      00
 4313              	L128:
 145:../../MMI/Resource/ThreadPool.cpp **** 
 146:../../MMI/Resource/ThreadPool.cpp ****         // See if any threads are free
 147:../../MMI/Resource/ThreadPool.cpp ****         for (ThreadList::iterator iter = m_threads.begin(); iter != m_threads.end(); ++iter)
 4315              	LM105:
GAS LISTING d:/software/ovi_2503a_s3trc/ovi_2503a_s3trc/plutommi/Customer/ResGenerator/gcctmp/cci0baaa.s 			page 41


 4316 0f67 8B4508   		movl	8(%ebp), %eax
 4317              	LBB19:
 4318 0f6a 83C008   		addl	$8, %eax
 4319 0f6d 890424   		movl	%eax, (%esp)
 4320 0f70 E8000000 		call	__ZNSt6vectorIN10ThreadPool10ThreadDataESaIS1_EE5beginEv
 4320      00
 4321 0f75 8945E4   		movl	%eax, -28(%ebp)
 4322              	L129:
 4323 0f78 8B4508   		movl	8(%ebp), %eax
 4324 0f7b 83C008   		addl	$8, %eax
 4325 0f7e 890424   		movl	%eax, (%esp)
 4326 0f81 E8000000 		call	__ZNSt6vectorIN10ThreadPool10ThreadDataESaIS1_EE3endEv
 4326      00
 4327 0f86 8945E0   		movl	%eax, -32(%ebp)
 4328 0f89 8D45E0   		leal	-32(%ebp), %eax
 4329 0f8c 89442404 		movl	%eax, 4(%esp)
 4330 0f90 8D45E4   		leal	-28(%ebp), %eax
 4331 0f93 890424   		movl	%eax, (%esp)
 4332 0f96 E8000000 		call	__ZN9__gnu_cxxneIPN10ThreadPool10ThreadDataESt6vectorIS2_SaIS2_EEEEbRKNS_17__normal_iteratorI
 4332      00
 4333 0f9b 84C0     		testb	%al, %al
 4334 0f9d 7502     		jne	L132
 4335 0f9f EB4E     		jmp	L130
 4336              	L132:
 148:../../MMI/Resource/ThreadPool.cpp ****         {
 149:../../MMI/Resource/ThreadPool.cpp ****             if (WaitForSingleObject(iter->hWait, 0) == WAIT_TIMEOUT)
 4338              	LM106:
 4339 0fa1 8D45E4   		leal	-28(%ebp), %eax
 4340 0fa4 890424   		movl	%eax, (%esp)
 4341 0fa7 E8000000 		call	__ZNK9__gnu_cxx17__normal_iteratorIPN10ThreadPool10ThreadDataESt6vectorIS2_SaIS2_EEEptEv
 4341      00
 4342 0fac C7442404 		movl	$0, 4(%esp)
 4342      00000000 
 4343 0fb4 8B00     		movl	(%eax), %eax
 4344 0fb6 890424   		movl	%eax, (%esp)
 4345 0fb9 E8000000 		call	_WaitForSingleObject@8
 4345      00
 4346 0fbe 83EC08   		subl	$8, %esp
 4347 0fc1 3D020100 		cmpl	$258, %eax
 4347      00
 4348 0fc6 751A     		jne	L131
 150:../../MMI/Resource/ThreadPool.cpp ****             {
 151:../../MMI/Resource/ThreadPool.cpp ****                 // here is a free thread, wake it up
 152:../../MMI/Resource/ThreadPool.cpp ****                 SetEvent(iter->hWait);
 4350              	LM107:
 4351 0fc8 8D45E4   		leal	-28(%ebp), %eax
 4352 0fcb 890424   		movl	%eax, (%esp)
 4353 0fce E8000000 		call	__ZNK9__gnu_cxx17__normal_iteratorIPN10ThreadPool10ThreadDataESt6vectorIS2_SaIS2_EEEptEv
 4353      00
 4354 0fd3 8B00     		movl	(%eax), %eax
 4355 0fd5 890424   		movl	%eax, (%esp)
 4356 0fd8 E8000000 		call	_SetEvent@4
 4356      00
 4357 0fdd 83EC04   		subl	$4, %esp
 153:../../MMI/Resource/ThreadPool.cpp ****                 break;
 4359              	LM108:
 4360 0fe0 EB0D     		jmp	L130
GAS LISTING d:/software/ovi_2503a_s3trc/ovi_2503a_s3trc/plutommi/Customer/ResGenerator/gcctmp/cci0baaa.s 			page 42


 4362              	LM109:
 4363              	L131:
 4364 0fe2 8D45E4   		leal	-28(%ebp), %eax
 4365 0fe5 890424   		movl	%eax, (%esp)
 4366 0fe8 E8000000 		call	__ZN9__gnu_cxx17__normal_iteratorIPN10ThreadPool10ThreadDataESt6vectorIS2_SaIS2_EEEppEv
 4366      00
 4367 0fed EB89     		jmp	L129
 4368              	L130:
 154:../../MMI/Resource/ThreadPool.cpp ****             }
 155:../../MMI/Resource/ThreadPool.cpp ****         }
 156:../../MMI/Resource/ThreadPool.cpp ****     }
 157:../../MMI/Resource/ThreadPool.cpp ****     LeaveCriticalSection(&m_cs);
 4370              	LM110:
 4371 0fef 8B4508   		movl	8(%ebp), %eax
 4372              	LBE19:
 4373              	LBE18:
 4374 0ff2 83C01C   		addl	$28, %eax
 4375 0ff5 890424   		movl	%eax, (%esp)
 4376 0ff8 E8000000 		call	_LeaveCriticalSection@4
 4376      00
 4377 0ffd 83EC04   		subl	$4, %esp
 158:../../MMI/Resource/ThreadPool.cpp **** }
 4379              	LM111:
 4380 1000 C9       		leave
 4381 1001 C3       		ret
 4382              	LBE17:
 4389              	Lscope9:
 4391              		.align 2
 4395              	.globl __ZN10ThreadPool13GetWaitHandleEm
 4397              	__ZN10ThreadPool13GetWaitHandleEm:
 159:../../MMI/Resource/ThreadPool.cpp **** 
 160:../../MMI/Resource/ThreadPool.cpp **** // Called by the worker thread to get its wake-up event handle
 161:../../MMI/Resource/ThreadPool.cpp **** HANDLE ThreadPool::GetWaitHandle(DWORD dwThreadId)
 162:../../MMI/Resource/ThreadPool.cpp **** {
 4399              	LM112:
 4400 1002 55       		pushl	%ebp
 4401 1003 89E5     		movl	%esp, %ebp
 4402 1005 83EC18   		subl	$24, %esp
 163:../../MMI/Resource/ThreadPool.cpp ****     HANDLE hWait = NULL;
 4404              	LM113:
 4405              	LBB20:
 4406 1008 C745FC00 		movl	$0, -4(%ebp)
 4406      000000
 164:../../MMI/Resource/ThreadPool.cpp ****     EnterCriticalSection(&m_cs);
 4408              	LM114:
 4409 100f 8B4508   		movl	8(%ebp), %eax
 4410 1012 83C01C   		addl	$28, %eax
 4411 1015 890424   		movl	%eax, (%esp)
 4412 1018 E8000000 		call	_EnterCriticalSection@4
 4412      00
 4413 101d 83EC04   		subl	$4, %esp
 165:../../MMI/Resource/ThreadPool.cpp ****     for (ThreadList::iterator iter = m_threads.begin(); !hWait && iter != m_threads.end(); ++iter)
 4415              	LM115:
 4416 1020 8B4508   		movl	8(%ebp), %eax
 4417              	LBB21:
 4418 1023 83C008   		addl	$8, %eax
 4419 1026 890424   		movl	%eax, (%esp)
GAS LISTING d:/software/ovi_2503a_s3trc/ovi_2503a_s3trc/plutommi/Customer/ResGenerator/gcctmp/cci0baaa.s 			page 43


 4420 1029 E8000000 		call	__ZNSt6vectorIN10ThreadPool10ThreadDataESaIS1_EE5beginEv
 4420      00
 4421 102e 8945F8   		movl	%eax, -8(%ebp)
 4422              	L135:
 4423 1031 837DFC00 		cmpl	$0, -4(%ebp)
 4424 1035 7559     		jne	L136
 4425 1037 8B4508   		movl	8(%ebp), %eax
 4426 103a 83C008   		addl	$8, %eax
 4427 103d 890424   		movl	%eax, (%esp)
 4428 1040 E8000000 		call	__ZNSt6vectorIN10ThreadPool10ThreadDataESaIS1_EE3endEv
 4428      00
 4429 1045 8945F4   		movl	%eax, -12(%ebp)
 4430 1048 8D45F4   		leal	-12(%ebp), %eax
 4431 104b 89442404 		movl	%eax, 4(%esp)
 4432 104f 8D45F8   		leal	-8(%ebp), %eax
 4433 1052 890424   		movl	%eax, (%esp)
 4434 1055 E8000000 		call	__ZN9__gnu_cxxneIPN10ThreadPool10ThreadDataESt6vectorIS2_SaIS2_EEEEbRKNS_17__normal_iteratorI
 4434      00
 4435 105a 84C0     		testb	%al, %al
 4436 105c 7502     		jne	L138
 4437 105e EB30     		jmp	L136
 4438              	L138:
 166:../../MMI/Resource/ThreadPool.cpp ****         if (iter->dwThreadId == dwThreadId)
 4440              	LM116:
 4441 1060 8D45F8   		leal	-8(%ebp), %eax
 4442 1063 890424   		movl	%eax, (%esp)
 4443 1066 E8000000 		call	__ZNK9__gnu_cxx17__normal_iteratorIPN10ThreadPool10ThreadDataESt6vectorIS2_SaIS2_EEEptEv
 4443      00
 4444 106b 8B4008   		movl	8(%eax), %eax
 4445 106e 3B450C   		cmpl	12(%ebp), %eax
 4446 1071 7510     		jne	L137
 167:../../MMI/Resource/ThreadPool.cpp ****             hWait = iter->hWait;
 4448              	LM117:
 4449 1073 8D45F8   		leal	-8(%ebp), %eax
 4450 1076 890424   		movl	%eax, (%esp)
 4451 1079 E8000000 		call	__ZNK9__gnu_cxx17__normal_iteratorIPN10ThreadPool10ThreadDataESt6vectorIS2_SaIS2_EEEptEv
 4451      00
 4452 107e 8B00     		movl	(%eax), %eax
 4453 1080 8945FC   		movl	%eax, -4(%ebp)
 4455              	LM118:
 4456              	L137:
 4457 1083 8D45F8   		leal	-8(%ebp), %eax
 4458 1086 890424   		movl	%eax, (%esp)
 4459 1089 E8000000 		call	__ZN9__gnu_cxx17__normal_iteratorIPN10ThreadPool10ThreadDataESt6vectorIS2_SaIS2_EEEppEv
 4459      00
 4460 108e EBA1     		jmp	L135
 4461              	L136:
 168:../../MMI/Resource/ThreadPool.cpp ****     LeaveCriticalSection(&m_cs);
 4463              	LM119:
 4464 1090 8B4508   		movl	8(%ebp), %eax
 4465              	LBE21:
 4466 1093 83C01C   		addl	$28, %eax
 4467 1096 890424   		movl	%eax, (%esp)
 4468 1099 E8000000 		call	_LeaveCriticalSection@4
 4468      00
 4469 109e 83EC04   		subl	$4, %esp
 169:../../MMI/Resource/ThreadPool.cpp ****     return hWait;
GAS LISTING d:/software/ovi_2503a_s3trc/ovi_2503a_s3trc/plutommi/Customer/ResGenerator/gcctmp/cci0baaa.s 			page 44


 4471              	LM120:
 4472 10a1 8B45FC   		movl	-4(%ebp), %eax
 170:../../MMI/Resource/ThreadPool.cpp **** }
 4474              	LM121:
 4475 10a4 C9       		leave
 4476 10a5 C3       		ret
 4477              	LBE20:
 4484              	Lscope10:
 4486              	LC13:
 4487 10a6 4E554C4C 		.ascii "NULL != pool\0"
 4487      20213D20 
 4487      706F6F6C 
 4487      00
 4488              	LC14:
 4489 10b3 57616974 		.ascii "Wait failed\0"
 4489      20666169 
 4489      6C656400 
 4490 10bf 90       		.align 2
 4493              	.globl __ZN10ThreadPool10ThreadProcEPv@4
 4495              	__ZN10ThreadPool10ThreadProcEPv@4:
 171:../../MMI/Resource/ThreadPool.cpp **** 
 172:../../MMI/Resource/ThreadPool.cpp **** // static method:
 173:../../MMI/Resource/ThreadPool.cpp **** // This is the worker thread function which will run
 174:../../MMI/Resource/ThreadPool.cpp **** // continuously till the Thread Pool is deleted.
 175:../../MMI/Resource/ThreadPool.cpp **** UINT __stdcall ThreadPool::ThreadProc(LPVOID pParam)
 176:../../MMI/Resource/ThreadPool.cpp **** {
 4497              	LM122:
 4498 10c0 55       		pushl	%ebp
 4499 10c1 89E5     		movl	%esp, %ebp
 4500 10c3 56       		pushl	%esi
 4501 10c4 53       		pushl	%ebx
 4502 10c5 83EC70   		subl	$112, %esp
 177:../../MMI/Resource/ThreadPool.cpp ****     ThreadPool* pool = static_cast<ThreadPool*>(pParam);
 4504              	LM123:
 4505              	LBB22:
 4506 10c8 8B4508   		movl	8(%ebp), %eax
 4507 10cb 8945F4   		movl	%eax, -12(%ebp)
 178:../../MMI/Resource/ThreadPool.cpp ****     assert(NULL != pool);
 4509              	LM124:
 4510 10ce 837DF400 		cmpl	$0, -12(%ebp)
 4511 10d2 751C     		jne	L143
 4512 10d4 C7442408 		movl	$178, 8(%esp)
 4512      B2000000 
 4513 10dc C7442404 		movl	$LC3, 4(%esp)
 4513      E0070000 
 4514 10e4 C70424A6 		movl	$LC13, (%esp)
 4514      100000
 4515 10eb E8000000 		call	__assert
 4515      00
 4516              	L143:
 179:../../MMI/Resource/ThreadPool.cpp ****     if (pool == NULL)
 4518              	LM125:
 4519 10f0 837DF400 		cmpl	$0, -12(%ebp)
 4520 10f4 750C     		jne	L144
 180:../../MMI/Resource/ThreadPool.cpp ****         return 1;
 4522              	LM126:
 4523 10f6 C745A401 		movl	$1, -92(%ebp)
GAS LISTING d:/software/ovi_2503a_s3trc/ovi_2503a_s3trc/plutommi/Customer/ResGenerator/gcctmp/cci0baaa.s 			page 45


 4523      000000
 4524 10fd E9080200 		jmp	L141
 4524      00
 4525              	L144:
 181:../../MMI/Resource/ThreadPool.cpp **** 
 182:../../MMI/Resource/ThreadPool.cpp ****     DWORD dwThreadId = GetCurrentThreadId();
 4527              	LM127:
 4528 1102 E8000000 		call	_GetCurrentThreadId@0
 4528      00
 4529 1107 8945F0   		movl	%eax, -16(%ebp)
 183:../../MMI/Resource/ThreadPool.cpp ****     HANDLE hWaits[2] = { pool->GetWaitHandle(dwThreadId), pool->m_hNotifyShutdown };
 4531              	LM128:
 4532 110a 8B45F0   		movl	-16(%ebp), %eax
 4533 110d 89442404 		movl	%eax, 4(%esp)
 4534 1111 8B45F4   		movl	-12(%ebp), %eax
 4535 1114 890424   		movl	%eax, (%esp)
 4536 1117 E8E6FEFF 		call	__ZN10ThreadPool13GetWaitHandleEm
 4536      FF
 4537 111c 89C3     		movl	%eax, %ebx
 4538 111e 8B45F4   		movl	-12(%ebp), %eax
 4539 1121 8B7018   		movl	24(%eax), %esi
 4540 1124 895DE8   		movl	%ebx, -24(%ebp)
 4541 1127 8975EC   		movl	%esi, -20(%ebp)
 184:../../MMI/Resource/ThreadPool.cpp ****     bool bContinue = true;
 4543              	LM129:
 4544 112a C645E701 		movb	$1, -25(%ebp)
 185:../../MMI/Resource/ThreadPool.cpp ****     while (bContinue)
 4546              	LM130:
 4547              	L145:
 4548 112e 807DE700 		cmpb	$0, -25(%ebp)
 4549 1132 7505     		jne	L147
 4550 1134 E9BC0100 		jmp	L146
 4550      00
 4551              	L147:
 186:../../MMI/Resource/ThreadPool.cpp ****     {
 187:../../MMI/Resource/ThreadPool.cpp ****         DWORD waitResult = WaitForMultipleObjects(2, hWaits, FALSE, INFINITE);
 4553              	LM131:
 4554              	LBB23:
 4555              	LBB24:
 4556 1139 C744240C 		movl	$-1, 12(%esp)
 4556      FFFFFFFF 
 4557 1141 C7442408 		movl	$0, 8(%esp)
 4557      00000000 
 4558 1149 8D45E8   		leal	-24(%ebp), %eax
 4559 114c 89442404 		movl	%eax, 4(%esp)
 4560 1150 C7042402 		movl	$2, (%esp)
 4560      000000
 4561 1157 E8000000 		call	_WaitForMultipleObjects@16
 4561      00
 4562 115c 83EC10   		subl	$16, %esp
 4563 115f 8945E0   		movl	%eax, -32(%ebp)
 188:../../MMI/Resource/ThreadPool.cpp ****         if (waitResult == WAIT_FAILED)
 4565              	LM132:
 4566 1162 837DE0FF 		cmpl	$-1, -32(%ebp)
 4567 1166 752A     		jne	L148
 189:../../MMI/Resource/ThreadPool.cpp ****             throw "Wait failed";
 4569              	LM133:
GAS LISTING d:/software/ovi_2503a_s3trc/ovi_2503a_s3trc/plutommi/Customer/ResGenerator/gcctmp/cci0baaa.s 			page 46


 4570 1168 C7042404 		movl	$4, (%esp)
 4570      000000
 4571 116f E8000000 		call	___cxa_allocate_exception
 4571      00
 4572 1174 C700B310 		movl	$LC14, (%eax)
 4572      0000
 4573              	L149:
 4574 117a C7442408 		movl	$0, 8(%esp)
 4574      00000000 
 4575 1182 C7442404 		movl	$__ZTIPKc, 4(%esp)
 4575      00000000 
 4576 118a 890424   		movl	%eax, (%esp)
 4577 118d E8000000 		call	___cxa_throw
 4577      00
 4578              	L148:
 190:../../MMI/Resource/ThreadPool.cpp ****         if (waitResult == WAIT_OBJECT_0 || waitResult == WAIT_OBJECT_0 + 1)
 4580              	LM134:
 4581              	LBB25:
 4582 1192 837DE000 		cmpl	$0, -32(%ebp)
 4583 1196 7408     		je	L152
 4584 1198 837DE001 		cmpl	$1, -32(%ebp)
 4585 119c 7402     		je	L152
 4586 119e EB8E     		jmp	L145
 4587              	L152:
 191:../../MMI/Resource/ThreadPool.cpp ****         {
 192:../../MMI/Resource/ThreadPool.cpp ****             // Shutting down?
 193:../../MMI/Resource/ThreadPool.cpp ****             if (pool->CheckThreadStop())
 4589              	LM135:
 4590              	LBB26:
 4591 11a0 8B45F4   		movl	-12(%ebp), %eax
 4592 11a3 890424   		movl	%eax, (%esp)
 4593 11a6 E8000000 		call	__ZN10ThreadPool15CheckThreadStopEv
 4593      00
 4594 11ab 84C0     		testb	%al, %al
 4595 11ad 7405     		je	L153
 194:../../MMI/Resource/ThreadPool.cpp ****                 break;
 4597              	LM136:
 4598 11af E9410100 		jmp	L146
 4598      00
 4599              	L153:
 195:../../MMI/Resource/ThreadPool.cpp **** 
 196:../../MMI/Resource/ThreadPool.cpp ****             // We have been woken up.  Get the next available job
 197:../../MMI/Resource/ThreadPool.cpp ****             EnterCriticalSection(&pool->m_cs);
 4601              	LM137:
 4602 11b4 8B45F4   		movl	-12(%ebp), %eax
 4603 11b7 83C01C   		addl	$28, %eax
 4604 11ba 890424   		movl	%eax, (%esp)
 4605 11bd E8000000 		call	_EnterCriticalSection@4
 4605      00
 4606 11c2 83EC04   		subl	$4, %esp
 198:../../MMI/Resource/ThreadPool.cpp ****             JobList::iterator iter = pool->m_jobList.begin();
 4608              	LM138:
 4609 11c5 8D55C8   		leal	-56(%ebp), %edx
 4610 11c8 8B45F4   		movl	-12(%ebp), %eax
 4611 11cb 83C004   		addl	$4, %eax
 4612 11ce 89442404 		movl	%eax, 4(%esp)
 4613 11d2 891424   		movl	%edx, (%esp)
GAS LISTING d:/software/ovi_2503a_s3trc/ovi_2503a_s3trc/plutommi/Customer/ResGenerator/gcctmp/cci0baaa.s 			page 47


 4614 11d5 E8000000 		call	__ZNSt4listIN10ThreadPool7JobDataESaIS1_EE5beginEv
 4614      00
 4615 11da 83EC04   		subl	$4, %esp
 199:../../MMI/Resource/ThreadPool.cpp ****             if (iter == pool->m_jobList.end())
 4617              	LM139:
 4618              	LBB27:
 4619 11dd 8D55B8   		leal	-72(%ebp), %edx
 4620 11e0 8B45F4   		movl	-12(%ebp), %eax
 4621 11e3 83C004   		addl	$4, %eax
 4622 11e6 89442404 		movl	%eax, 4(%esp)
 4623 11ea 891424   		movl	%edx, (%esp)
 4624 11ed E8000000 		call	__ZNSt4listIN10ThreadPool7JobDataESaIS1_EE3endEv
 4624      00
 4625 11f2 83EC04   		subl	$4, %esp
 4626 11f5 8D45B8   		leal	-72(%ebp), %eax
 4627 11f8 89442404 		movl	%eax, 4(%esp)
 4628 11fc 8D45C8   		leal	-56(%ebp), %eax
 4629 11ff 890424   		movl	%eax, (%esp)
 4630 1202 E8000000 		call	__ZNKSt19_List_iterator_baseeqERKS_
 4630      00
 4631 1207 84C0     		testb	%al, %al
 4632 1209 7424     		je	L154
 200:../../MMI/Resource/ThreadPool.cpp ****             {
 201:../../MMI/Resource/ThreadPool.cpp ****                 // No job available, go back to sleep
 202:../../MMI/Resource/ThreadPool.cpp ****                 ResetEvent(hWaits[0]);
 4634              	LM140:
 4635 120b 8B45E8   		movl	-24(%ebp), %eax
 4636 120e 890424   		movl	%eax, (%esp)
 4637 1211 E8000000 		call	_ResetEvent@4
 4637      00
 4638 1216 83EC04   		subl	$4, %esp
 203:../../MMI/Resource/ThreadPool.cpp ****                 LeaveCriticalSection(&pool->m_cs);
 4640              	LM141:
 4641 1219 8B45F4   		movl	-12(%ebp), %eax
 4642 121c 83C01C   		addl	$28, %eax
 4643 121f 890424   		movl	%eax, (%esp)
 4644 1222 E8000000 		call	_LeaveCriticalSection@4
 4644      00
 4645 1227 83EC04   		subl	$4, %esp
 204:../../MMI/Resource/ThreadPool.cpp ****                 continue;
 4647              	LM142:
 4648 122a E9FFFEFF 		jmp	L145
 4648      FF
 4649              	L154:
 205:../../MMI/Resource/ThreadPool.cpp ****             }
 206:../../MMI/Resource/ThreadPool.cpp ****             else
 207:../../MMI/Resource/ThreadPool.cpp ****             {
 208:../../MMI/Resource/ThreadPool.cpp ****                 // Get the job and remove it from the queue
 209:../../MMI/Resource/ThreadPool.cpp ****                 LPTHREAD_START_ROUTINE proc = iter->lpStartAddress;
 4651              	LM143:
 4652              	LBB28:
 4653 122f 8D45C8   		leal	-56(%ebp), %eax
 4654 1232 890424   		movl	%eax, (%esp)
 4655 1235 E8000000 		call	__ZNKSt14_List_iteratorIN10ThreadPool7JobDataERS1_PS1_EptEv
 4655      00
 4656 123a 8B00     		movl	(%eax), %eax
 4657 123c 8945B4   		movl	%eax, -76(%ebp)
GAS LISTING d:/software/ovi_2503a_s3trc/ovi_2503a_s3trc/plutommi/Customer/ResGenerator/gcctmp/cci0baaa.s 			page 48


 210:../../MMI/Resource/ThreadPool.cpp ****                 LPVOID data = iter->pData;
 4659              	LM144:
 4660 123f 8D45C8   		leal	-56(%ebp), %eax
 4661 1242 890424   		movl	%eax, (%esp)
 4662 1245 E8000000 		call	__ZNKSt14_List_iteratorIN10ThreadPool7JobDataERS1_PS1_EptEv
 4662      00
 4663 124a 8B4004   		movl	4(%eax), %eax
 4664 124d 8945B0   		movl	%eax, -80(%ebp)
 211:../../MMI/Resource/ThreadPool.cpp ****                 IRunObject* runObject = iter->runObject;
 4666              	LM145:
 4667 1250 8D45C8   		leal	-56(%ebp), %eax
 4668 1253 890424   		movl	%eax, (%esp)
 4669 1256 E8000000 		call	__ZNKSt14_List_iteratorIN10ThreadPool7JobDataERS1_PS1_EptEv
 4669      00
 4670 125b 8B4008   		movl	8(%eax), %eax
 4671 125e 8945AC   		movl	%eax, -84(%ebp)
 212:../../MMI/Resource/ThreadPool.cpp ****                 pool->m_jobList.pop_front();
 4673              	LM146:
 4674 1261 8B45F4   		movl	-12(%ebp), %eax
 4675 1264 83C004   		addl	$4, %eax
 4676 1267 890424   		movl	%eax, (%esp)
 4677 126a E8000000 		call	__ZNSt4listIN10ThreadPool7JobDataESaIS1_EE9pop_frontEv
 4677      00
 213:../../MMI/Resource/ThreadPool.cpp ****                 LeaveCriticalSection(&pool->m_cs);
 4679              	LM147:
 4680 126f 8B45F4   		movl	-12(%ebp), %eax
 4681 1272 83C01C   		addl	$28, %eax
 4682 1275 890424   		movl	%eax, (%esp)
 4683 1278 E8000000 		call	_LeaveCriticalSection@4
 4683      00
 4684 127d 83EC04   		subl	$4, %esp
 214:../../MMI/Resource/ThreadPool.cpp **** 
 215:../../MMI/Resource/ThreadPool.cpp ****                 // Run the job
 216:../../MMI/Resource/ThreadPool.cpp ****                 if (proc)
 4686              	LM148:
 4687              	LBB29:
 4688 1280 837DB400 		cmpl	$0, -76(%ebp)
 4689 1284 7413     		je	L156
 217:../../MMI/Resource/ThreadPool.cpp ****                     proc(data);
 4691              	LM149:
 4692 1286 8B45B0   		movl	-80(%ebp), %eax
 4693 1289 890424   		movl	%eax, (%esp)
 4694 128c 8B45B4   		movl	-76(%ebp), %eax
 4695 128f FFD0     		call	*%eax
 4696 1291 83EC04   		subl	$4, %esp
 4697 1294 E995FEFF 		jmp	L145
 4697      FF
 4698              	L156:
 218:../../MMI/Resource/ThreadPool.cpp ****                 else if (runObject)
 4700              	LM150:
 4701              	LBB30:
 4702              	LBB31:
 4703 1299 837DAC00 		cmpl	$0, -84(%ebp)
 4704 129d 0F848BFE 		je	L145
 4704      FFFF
 219:../../MMI/Resource/ThreadPool.cpp ****                 {
 220:../../MMI/Resource/ThreadPool.cpp ****                     bool autoDelete = runObject->AutoDelete();
GAS LISTING d:/software/ovi_2503a_s3trc/ovi_2503a_s3trc/plutommi/Customer/ResGenerator/gcctmp/cci0baaa.s 			page 49


 4706              	LM151:
 4707              	LBB32:
 4708 12a3 8B45AC   		movl	-84(%ebp), %eax
 4709 12a6 8B10     		movl	(%eax), %edx
 4710 12a8 83C20C   		addl	$12, %edx
 4711 12ab 8B45AC   		movl	-84(%ebp), %eax
 4712 12ae 890424   		movl	%eax, (%esp)
 4713 12b1 8B02     		movl	(%edx), %eax
 4714 12b3 FFD0     		call	*%eax
 4715 12b5 8845AB   		movb	%al, -85(%ebp)
 221:../../MMI/Resource/ThreadPool.cpp ****                     runObject->Run(); // may execute "delete this"
 4717              	LM152:
 4718 12b8 8B45AC   		movl	-84(%ebp), %eax
 4719 12bb 8B10     		movl	(%eax), %edx
 4720 12bd 83C208   		addl	$8, %edx
 4721 12c0 8B45AC   		movl	-84(%ebp), %eax
 4722 12c3 890424   		movl	%eax, (%esp)
 4723 12c6 8B02     		movl	(%edx), %eax
 4724 12c8 FFD0     		call	*%eax
 222:../../MMI/Resource/ThreadPool.cpp ****                     if (autoDelete)
 4726              	LM153:
 4727 12ca 807DAB00 		cmpb	$0, -85(%ebp)
 4728 12ce 0F845AFE 		je	L145
 4728      FFFF
 223:../../MMI/Resource/ThreadPool.cpp ****                         delete runObject;
 4730              	LM154:
 4731 12d4 837DAC00 		cmpl	$0, -84(%ebp)
 4732 12d8 0F8450FE 		je	L145
 4732      FFFF
 4733 12de 8B45AC   		movl	-84(%ebp), %eax
 4734 12e1 8B10     		movl	(%eax), %edx
 4735 12e3 83C204   		addl	$4, %edx
 4736 12e6 8B45AC   		movl	-84(%ebp), %eax
 4737 12e9 890424   		movl	%eax, (%esp)
 4738 12ec 8B02     		movl	(%edx), %eax
 4739 12ee FFD0     		call	*%eax
 4740 12f0 E939FEFF 		jmp	L145
 4740      FF
 4741              	L146:
 224:../../MMI/Resource/ThreadPool.cpp ****                 }
 225:../../MMI/Resource/ThreadPool.cpp ****             }
 226:../../MMI/Resource/ThreadPool.cpp ****         }
 227:../../MMI/Resource/ThreadPool.cpp ****     }
 228:../../MMI/Resource/ThreadPool.cpp ****     // Thread is shutting down
 229:../../MMI/Resource/ThreadPool.cpp ****     ResetEvent(hWaits[0]);
 4743              	LM155:
 4744              	LBE32:
 4745              	LBE31:
 4746              	LBE30:
 4747              	LBE29:
 4748              	LBE28:
 4749              	LBE27:
 4750              	LBE26:
 4751              	LBE25:
 4752              	LBE24:
 4753              	LBE23:
 4754 12f5 8B45E8   		movl	-24(%ebp), %eax
GAS LISTING d:/software/ovi_2503a_s3trc/ovi_2503a_s3trc/plutommi/Customer/ResGenerator/gcctmp/cci0baaa.s 			page 50


 4755 12f8 890424   		movl	%eax, (%esp)
 4756 12fb E8000000 		call	_ResetEvent@4
 4756      00
 4757 1300 83EC04   		subl	$4, %esp
 230:../../MMI/Resource/ThreadPool.cpp ****     return 0;
 4759              	LM156:
 4760 1303 C745A400 		movl	$0, -92(%ebp)
 4760      000000
 231:../../MMI/Resource/ThreadPool.cpp **** }
 4762              	LM157:
 4763              	L141:
 4764              	LBE22:
 4765 130a 8B45A4   		movl	-92(%ebp), %eax
 4766 130d 8D65F8   		leal	-8(%ebp), %esp
 4767 1310 5B       		popl	%ebx
 4768 1311 5E       		popl	%esi
 4769 1312 5D       		popl	%ebp
 4770 1313 C20400   		ret	$4
 4791              	Lscope11:
 4793              		.section	.text$_ZNSaIN10ThreadPool7JobDataEEC1Ev,"x"
 4794              		.linkonce discard
 4795              		.align 2
 4798              	.globl __ZNSaIN10ThreadPool7JobDataEEC1Ev
 4800              	__ZNSaIN10ThreadPool7JobDataEEC1Ev:
 4802              	Ltext3:
   1:d:/software/ovi_2503a_s3trc/ovi_2503a_s3trc/Tools/MinGW/include/c++/3.3.1/bits/stl_alloc.h **** // Allocators -*- C++ -*-
   2:d:/software/ovi_2503a_s3trc/ovi_2503a_s3trc/Tools/MinGW/include/c++/3.3.1/bits/stl_alloc.h **** 
   3:d:/software/ovi_2503a_s3trc/ovi_2503a_s3trc/Tools/MinGW/include/c++/3.3.1/bits/stl_alloc.h **** // Copyright (C) 2001, 2002, 2003 Free Software Foundation, Inc.
   4:d:/software/ovi_2503a_s3trc/ovi_2503a_s3trc/Tools/MinGW/include/c++/3.3.1/bits/stl_alloc.h **** //
   5:d:/software/ovi_2503a_s3trc/ovi_2503a_s3trc/Tools/MinGW/include/c++/3.3.1/bits/stl_alloc.h **** // This file is part of the GNU ISO C++ Library.  This library is free
   6:d:/software/ovi_2503a_s3trc/ovi_2503a_s3trc/Tools/MinGW/include/c++/3.3.1/bits/stl_alloc.h **** // software; you can redistribute it and/or modify it under the
   7:d:/software/ovi_2503a_s3trc/ovi_2503a_s3trc/Tools/MinGW/include/c++/3.3.1/bits/stl_alloc.h **** // terms of the GNU General Public License as published by the
   8:d:/software/ovi_2503a_s3trc/ovi_2503a_s3trc/Tools/MinGW/include/c++/3.3.1/bits/stl_alloc.h **** // Free Software Foundation; either version 2, or (at your option)
   9:d:/software/ovi_2503a_s3trc/ovi_2503a_s3trc/Tools/MinGW/include/c++/3.3.1/bits/stl_alloc.h **** // any later version.
  10:d:/software/ovi_2503a_s3trc/ovi_2503a_s3trc/Tools/MinGW/include/c++/3.3.1/bits/stl_alloc.h **** 
  11:d:/software/ovi_2503a_s3trc/ovi_2503a_s3trc/Tools/MinGW/include/c++/3.3.1/bits/stl_alloc.h **** // This library is distributed in the hope that it will be useful,
  12:d:/software/ovi_2503a_s3trc/ovi_2503a_s3trc/Tools/MinGW/include/c++/3.3.1/bits/stl_alloc.h **** // but WITHOUT ANY WARRANTY; without even the implied warranty of
  13:d:/software/ovi_2503a_s3trc/ovi_2503a_s3trc/Tools/MinGW/include/c++/3.3.1/bits/stl_alloc.h **** // MERCHANTABILITY or FITNESS FOR A PARTICULAR PURPOSE.  See the
  14:d:/software/ovi_2503a_s3trc/ovi_2503a_s3trc/Tools/MinGW/include/c++/3.3.1/bits/stl_alloc.h **** // GNU General Public License for more details.
  15:d:/software/ovi_2503a_s3trc/ovi_2503a_s3trc/Tools/MinGW/include/c++/3.3.1/bits/stl_alloc.h **** 
  16:d:/software/ovi_2503a_s3trc/ovi_2503a_s3trc/Tools/MinGW/include/c++/3.3.1/bits/stl_alloc.h **** // You should have received a copy of the GNU General Public License along
  17:d:/software/ovi_2503a_s3trc/ovi_2503a_s3trc/Tools/MinGW/include/c++/3.3.1/bits/stl_alloc.h **** // with this library; see the file COPYING.  If not, write to the Free
  18:d:/software/ovi_2503a_s3trc/ovi_2503a_s3trc/Tools/MinGW/include/c++/3.3.1/bits/stl_alloc.h **** // Software Foundation, 59 Temple Place - Suite 330, Boston, MA 02111-1307,
  19:d:/software/ovi_2503a_s3trc/ovi_2503a_s3trc/Tools/MinGW/include/c++/3.3.1/bits/stl_alloc.h **** // USA.
  20:d:/software/ovi_2503a_s3trc/ovi_2503a_s3trc/Tools/MinGW/include/c++/3.3.1/bits/stl_alloc.h **** 
  21:d:/software/ovi_2503a_s3trc/ovi_2503a_s3trc/Tools/MinGW/include/c++/3.3.1/bits/stl_alloc.h **** // As a special exception, you may use this file as part of a free software
  22:d:/software/ovi_2503a_s3trc/ovi_2503a_s3trc/Tools/MinGW/include/c++/3.3.1/bits/stl_alloc.h **** // library without restriction.  Specifically, if other files instantiate
  23:d:/software/ovi_2503a_s3trc/ovi_2503a_s3trc/Tools/MinGW/include/c++/3.3.1/bits/stl_alloc.h **** // templates or use macros or inline functions from this file, or you compile
  24:d:/software/ovi_2503a_s3trc/ovi_2503a_s3trc/Tools/MinGW/include/c++/3.3.1/bits/stl_alloc.h **** // this file and link it with other files to produce an executable, this
  25:d:/software/ovi_2503a_s3trc/ovi_2503a_s3trc/Tools/MinGW/include/c++/3.3.1/bits/stl_alloc.h **** // file does not by itself cause the resulting executable to be covered by
  26:d:/software/ovi_2503a_s3trc/ovi_2503a_s3trc/Tools/MinGW/include/c++/3.3.1/bits/stl_alloc.h **** // the GNU General Public License.  This exception does not however
  27:d:/software/ovi_2503a_s3trc/ovi_2503a_s3trc/Tools/MinGW/include/c++/3.3.1/bits/stl_alloc.h **** // invalidate any other reasons why the executable file might be covered by
  28:d:/software/ovi_2503a_s3trc/ovi_2503a_s3trc/Tools/MinGW/include/c++/3.3.1/bits/stl_alloc.h **** // the GNU General Public License.
  29:d:/software/ovi_2503a_s3trc/ovi_2503a_s3trc/Tools/MinGW/include/c++/3.3.1/bits/stl_alloc.h **** 
  30:d:/software/ovi_2503a_s3trc/ovi_2503a_s3trc/Tools/MinGW/include/c++/3.3.1/bits/stl_alloc.h **** /*
  31:d:/software/ovi_2503a_s3trc/ovi_2503a_s3trc/Tools/MinGW/include/c++/3.3.1/bits/stl_alloc.h ****  * Copyright (c) 1996-1997
  32:d:/software/ovi_2503a_s3trc/ovi_2503a_s3trc/Tools/MinGW/include/c++/3.3.1/bits/stl_alloc.h ****  * Silicon Graphics Computer Systems, Inc.
GAS LISTING d:/software/ovi_2503a_s3trc/ovi_2503a_s3trc/plutommi/Customer/ResGenerator/gcctmp/cci0baaa.s 			page 51


  33:d:/software/ovi_2503a_s3trc/ovi_2503a_s3trc/Tools/MinGW/include/c++/3.3.1/bits/stl_alloc.h ****  *
  34:d:/software/ovi_2503a_s3trc/ovi_2503a_s3trc/Tools/MinGW/include/c++/3.3.1/bits/stl_alloc.h ****  * Permission to use, copy, modify, distribute and sell this software
  35:d:/software/ovi_2503a_s3trc/ovi_2503a_s3trc/Tools/MinGW/include/c++/3.3.1/bits/stl_alloc.h ****  * and its documentation for any purpose is hereby granted without fee,
  36:d:/software/ovi_2503a_s3trc/ovi_2503a_s3trc/Tools/MinGW/include/c++/3.3.1/bits/stl_alloc.h ****  * provided that the above copyright notice appear in all copies and
  37:d:/software/ovi_2503a_s3trc/ovi_2503a_s3trc/Tools/MinGW/include/c++/3.3.1/bits/stl_alloc.h ****  * that both that copyright notice and this permission notice appear
  38:d:/software/ovi_2503a_s3trc/ovi_2503a_s3trc/Tools/MinGW/include/c++/3.3.1/bits/stl_alloc.h ****  * in supporting documentation.  Silicon Graphics makes no
  39:d:/software/ovi_2503a_s3trc/ovi_2503a_s3trc/Tools/MinGW/include/c++/3.3.1/bits/stl_alloc.h ****  * representations about the suitability of this software for any
  40:d:/software/ovi_2503a_s3trc/ovi_2503a_s3trc/Tools/MinGW/include/c++/3.3.1/bits/stl_alloc.h ****  * purpose.  It is provided "as is" without express or implied warranty.
  41:d:/software/ovi_2503a_s3trc/ovi_2503a_s3trc/Tools/MinGW/include/c++/3.3.1/bits/stl_alloc.h ****  */
  42:d:/software/ovi_2503a_s3trc/ovi_2503a_s3trc/Tools/MinGW/include/c++/3.3.1/bits/stl_alloc.h **** 
  43:d:/software/ovi_2503a_s3trc/ovi_2503a_s3trc/Tools/MinGW/include/c++/3.3.1/bits/stl_alloc.h **** /** @file stl_alloc.h
  44:d:/software/ovi_2503a_s3trc/ovi_2503a_s3trc/Tools/MinGW/include/c++/3.3.1/bits/stl_alloc.h ****  *  This is an internal header file, included by other library headers.
  45:d:/software/ovi_2503a_s3trc/ovi_2503a_s3trc/Tools/MinGW/include/c++/3.3.1/bits/stl_alloc.h ****  *  You should not attempt to use it directly.
  46:d:/software/ovi_2503a_s3trc/ovi_2503a_s3trc/Tools/MinGW/include/c++/3.3.1/bits/stl_alloc.h ****  */
  47:d:/software/ovi_2503a_s3trc/ovi_2503a_s3trc/Tools/MinGW/include/c++/3.3.1/bits/stl_alloc.h **** 
  48:d:/software/ovi_2503a_s3trc/ovi_2503a_s3trc/Tools/MinGW/include/c++/3.3.1/bits/stl_alloc.h **** #ifndef __GLIBCPP_INTERNAL_ALLOC_H
  49:d:/software/ovi_2503a_s3trc/ovi_2503a_s3trc/Tools/MinGW/include/c++/3.3.1/bits/stl_alloc.h **** #define __GLIBCPP_INTERNAL_ALLOC_H
  50:d:/software/ovi_2503a_s3trc/ovi_2503a_s3trc/Tools/MinGW/include/c++/3.3.1/bits/stl_alloc.h **** 
  51:d:/software/ovi_2503a_s3trc/ovi_2503a_s3trc/Tools/MinGW/include/c++/3.3.1/bits/stl_alloc.h **** /**
  52:d:/software/ovi_2503a_s3trc/ovi_2503a_s3trc/Tools/MinGW/include/c++/3.3.1/bits/stl_alloc.h ****  *  @defgroup Allocators Memory Allocators
  53:d:/software/ovi_2503a_s3trc/ovi_2503a_s3trc/Tools/MinGW/include/c++/3.3.1/bits/stl_alloc.h ****  *  @if maint
  54:d:/software/ovi_2503a_s3trc/ovi_2503a_s3trc/Tools/MinGW/include/c++/3.3.1/bits/stl_alloc.h ****  *  stl_alloc.h implements some node allocators.  These are NOT the same as
  55:d:/software/ovi_2503a_s3trc/ovi_2503a_s3trc/Tools/MinGW/include/c++/3.3.1/bits/stl_alloc.h ****  *  allocators in the C++ standard, nor in the original H-P STL.  They do not
  56:d:/software/ovi_2503a_s3trc/ovi_2503a_s3trc/Tools/MinGW/include/c++/3.3.1/bits/stl_alloc.h ****  *  encapsulate different pointer types; we assume that there is only one
  57:d:/software/ovi_2503a_s3trc/ovi_2503a_s3trc/Tools/MinGW/include/c++/3.3.1/bits/stl_alloc.h ****  *  pointer type.  The C++ standard allocators are intended to allocate
  58:d:/software/ovi_2503a_s3trc/ovi_2503a_s3trc/Tools/MinGW/include/c++/3.3.1/bits/stl_alloc.h ****  *  individual objects, not pools or arenas.
  59:d:/software/ovi_2503a_s3trc/ovi_2503a_s3trc/Tools/MinGW/include/c++/3.3.1/bits/stl_alloc.h ****  *
  60:d:/software/ovi_2503a_s3trc/ovi_2503a_s3trc/Tools/MinGW/include/c++/3.3.1/bits/stl_alloc.h ****  *  In this file allocators are of two different styles:  "standard" and
  61:d:/software/ovi_2503a_s3trc/ovi_2503a_s3trc/Tools/MinGW/include/c++/3.3.1/bits/stl_alloc.h ****  *  "SGI" (quotes included).  "Standard" allocators conform to 20.4.  "SGI"
  62:d:/software/ovi_2503a_s3trc/ovi_2503a_s3trc/Tools/MinGW/include/c++/3.3.1/bits/stl_alloc.h ****  *  allocators differ in AT LEAST the following ways (add to this list as you
  63:d:/software/ovi_2503a_s3trc/ovi_2503a_s3trc/Tools/MinGW/include/c++/3.3.1/bits/stl_alloc.h ****  *  discover them):
  64:d:/software/ovi_2503a_s3trc/ovi_2503a_s3trc/Tools/MinGW/include/c++/3.3.1/bits/stl_alloc.h ****  *
  65:d:/software/ovi_2503a_s3trc/ovi_2503a_s3trc/Tools/MinGW/include/c++/3.3.1/bits/stl_alloc.h ****  *   - "Standard" allocate() takes two parameters (n_count,hint=0) but "SGI"
  66:d:/software/ovi_2503a_s3trc/ovi_2503a_s3trc/Tools/MinGW/include/c++/3.3.1/bits/stl_alloc.h ****  *     allocate() takes one paramter (n_size).
  67:d:/software/ovi_2503a_s3trc/ovi_2503a_s3trc/Tools/MinGW/include/c++/3.3.1/bits/stl_alloc.h ****  *   - Likewise, "standard" deallocate()'s argument is a count, but in "SGI"
  68:d:/software/ovi_2503a_s3trc/ovi_2503a_s3trc/Tools/MinGW/include/c++/3.3.1/bits/stl_alloc.h ****  *     is a byte size.
  69:d:/software/ovi_2503a_s3trc/ovi_2503a_s3trc/Tools/MinGW/include/c++/3.3.1/bits/stl_alloc.h ****  *   - max_size(), construct(), and destroy() are missing in "SGI" allocators.
  70:d:/software/ovi_2503a_s3trc/ovi_2503a_s3trc/Tools/MinGW/include/c++/3.3.1/bits/stl_alloc.h ****  *   - reallocate(p,oldsz,newsz) is added in "SGI", and behaves as
  71:d:/software/ovi_2503a_s3trc/ovi_2503a_s3trc/Tools/MinGW/include/c++/3.3.1/bits/stl_alloc.h ****  *     if p=realloc(p,newsz).
  72:d:/software/ovi_2503a_s3trc/ovi_2503a_s3trc/Tools/MinGW/include/c++/3.3.1/bits/stl_alloc.h ****  *
  73:d:/software/ovi_2503a_s3trc/ovi_2503a_s3trc/Tools/MinGW/include/c++/3.3.1/bits/stl_alloc.h ****  *  "SGI" allocators may be wrapped in __allocator to convert the interface
  74:d:/software/ovi_2503a_s3trc/ovi_2503a_s3trc/Tools/MinGW/include/c++/3.3.1/bits/stl_alloc.h ****  *  into a "standard" one.
  75:d:/software/ovi_2503a_s3trc/ovi_2503a_s3trc/Tools/MinGW/include/c++/3.3.1/bits/stl_alloc.h ****  *  @endif
  76:d:/software/ovi_2503a_s3trc/ovi_2503a_s3trc/Tools/MinGW/include/c++/3.3.1/bits/stl_alloc.h ****  *
  77:d:/software/ovi_2503a_s3trc/ovi_2503a_s3trc/Tools/MinGW/include/c++/3.3.1/bits/stl_alloc.h ****  *  @note The @c reallocate member functions have been deprecated for 3.2
  78:d:/software/ovi_2503a_s3trc/ovi_2503a_s3trc/Tools/MinGW/include/c++/3.3.1/bits/stl_alloc.h ****  *        and will be removed in 3.4.  You must define @c _GLIBCPP_DEPRECATED
  79:d:/software/ovi_2503a_s3trc/ovi_2503a_s3trc/Tools/MinGW/include/c++/3.3.1/bits/stl_alloc.h ****  *        to make this visible in 3.2; see c++config.h.
  80:d:/software/ovi_2503a_s3trc/ovi_2503a_s3trc/Tools/MinGW/include/c++/3.3.1/bits/stl_alloc.h ****  *
  81:d:/software/ovi_2503a_s3trc/ovi_2503a_s3trc/Tools/MinGW/include/c++/3.3.1/bits/stl_alloc.h ****  *  The canonical description of these classes is in docs/html/ext/howto.html
  82:d:/software/ovi_2503a_s3trc/ovi_2503a_s3trc/Tools/MinGW/include/c++/3.3.1/bits/stl_alloc.h ****  *  or online at http://gcc.gnu.org/onlinedocs/libstdc++/ext/howto.html#3
  83:d:/software/ovi_2503a_s3trc/ovi_2503a_s3trc/Tools/MinGW/include/c++/3.3.1/bits/stl_alloc.h **** */
  84:d:/software/ovi_2503a_s3trc/ovi_2503a_s3trc/Tools/MinGW/include/c++/3.3.1/bits/stl_alloc.h **** 
  85:d:/software/ovi_2503a_s3trc/ovi_2503a_s3trc/Tools/MinGW/include/c++/3.3.1/bits/stl_alloc.h **** #include <cstddef>
  86:d:/software/ovi_2503a_s3trc/ovi_2503a_s3trc/Tools/MinGW/include/c++/3.3.1/bits/stl_alloc.h **** #include <cstdlib>
  87:d:/software/ovi_2503a_s3trc/ovi_2503a_s3trc/Tools/MinGW/include/c++/3.3.1/bits/stl_alloc.h **** #include <cstring>
  88:d:/software/ovi_2503a_s3trc/ovi_2503a_s3trc/Tools/MinGW/include/c++/3.3.1/bits/stl_alloc.h **** #include <bits/functexcept.h>   // For __throw_bad_alloc
  89:d:/software/ovi_2503a_s3trc/ovi_2503a_s3trc/Tools/MinGW/include/c++/3.3.1/bits/stl_alloc.h **** #include <bits/stl_threads.h>
GAS LISTING d:/software/ovi_2503a_s3trc/ovi_2503a_s3trc/plutommi/Customer/ResGenerator/gcctmp/cci0baaa.s 			page 52


  90:d:/software/ovi_2503a_s3trc/ovi_2503a_s3trc/Tools/MinGW/include/c++/3.3.1/bits/stl_alloc.h **** 
  91:d:/software/ovi_2503a_s3trc/ovi_2503a_s3trc/Tools/MinGW/include/c++/3.3.1/bits/stl_alloc.h **** #include <bits/atomicity.h>
  92:d:/software/ovi_2503a_s3trc/ovi_2503a_s3trc/Tools/MinGW/include/c++/3.3.1/bits/stl_alloc.h **** 
  93:d:/software/ovi_2503a_s3trc/ovi_2503a_s3trc/Tools/MinGW/include/c++/3.3.1/bits/stl_alloc.h **** namespace std
  94:d:/software/ovi_2503a_s3trc/ovi_2503a_s3trc/Tools/MinGW/include/c++/3.3.1/bits/stl_alloc.h **** {
  95:d:/software/ovi_2503a_s3trc/ovi_2503a_s3trc/Tools/MinGW/include/c++/3.3.1/bits/stl_alloc.h ****   /**
  96:d:/software/ovi_2503a_s3trc/ovi_2503a_s3trc/Tools/MinGW/include/c++/3.3.1/bits/stl_alloc.h ****    *  @if maint
  97:d:/software/ovi_2503a_s3trc/ovi_2503a_s3trc/Tools/MinGW/include/c++/3.3.1/bits/stl_alloc.h ****    *  A new-based allocator, as required by the standard.  Allocation and
  98:d:/software/ovi_2503a_s3trc/ovi_2503a_s3trc/Tools/MinGW/include/c++/3.3.1/bits/stl_alloc.h ****    *  deallocation forward to global new and delete.  "SGI" style, minus
  99:d:/software/ovi_2503a_s3trc/ovi_2503a_s3trc/Tools/MinGW/include/c++/3.3.1/bits/stl_alloc.h ****    *  reallocate().
 100:d:/software/ovi_2503a_s3trc/ovi_2503a_s3trc/Tools/MinGW/include/c++/3.3.1/bits/stl_alloc.h ****    *  @endif
 101:d:/software/ovi_2503a_s3trc/ovi_2503a_s3trc/Tools/MinGW/include/c++/3.3.1/bits/stl_alloc.h ****    *  (See @link Allocators allocators info @endlink for more.)
 102:d:/software/ovi_2503a_s3trc/ovi_2503a_s3trc/Tools/MinGW/include/c++/3.3.1/bits/stl_alloc.h ****    */
 103:d:/software/ovi_2503a_s3trc/ovi_2503a_s3trc/Tools/MinGW/include/c++/3.3.1/bits/stl_alloc.h ****   class __new_alloc
 104:d:/software/ovi_2503a_s3trc/ovi_2503a_s3trc/Tools/MinGW/include/c++/3.3.1/bits/stl_alloc.h ****   {
 105:d:/software/ovi_2503a_s3trc/ovi_2503a_s3trc/Tools/MinGW/include/c++/3.3.1/bits/stl_alloc.h ****   public:
 106:d:/software/ovi_2503a_s3trc/ovi_2503a_s3trc/Tools/MinGW/include/c++/3.3.1/bits/stl_alloc.h ****     static void*
 107:d:/software/ovi_2503a_s3trc/ovi_2503a_s3trc/Tools/MinGW/include/c++/3.3.1/bits/stl_alloc.h ****     allocate(size_t __n)
 108:d:/software/ovi_2503a_s3trc/ovi_2503a_s3trc/Tools/MinGW/include/c++/3.3.1/bits/stl_alloc.h ****     { return ::operator new(__n); }
 109:d:/software/ovi_2503a_s3trc/ovi_2503a_s3trc/Tools/MinGW/include/c++/3.3.1/bits/stl_alloc.h **** 
 110:d:/software/ovi_2503a_s3trc/ovi_2503a_s3trc/Tools/MinGW/include/c++/3.3.1/bits/stl_alloc.h ****     static void
 111:d:/software/ovi_2503a_s3trc/ovi_2503a_s3trc/Tools/MinGW/include/c++/3.3.1/bits/stl_alloc.h ****     deallocate(void* __p, size_t)
 112:d:/software/ovi_2503a_s3trc/ovi_2503a_s3trc/Tools/MinGW/include/c++/3.3.1/bits/stl_alloc.h ****     { ::operator delete(__p); }
 113:d:/software/ovi_2503a_s3trc/ovi_2503a_s3trc/Tools/MinGW/include/c++/3.3.1/bits/stl_alloc.h ****   };
 114:d:/software/ovi_2503a_s3trc/ovi_2503a_s3trc/Tools/MinGW/include/c++/3.3.1/bits/stl_alloc.h **** 
 115:d:/software/ovi_2503a_s3trc/ovi_2503a_s3trc/Tools/MinGW/include/c++/3.3.1/bits/stl_alloc.h **** 
 116:d:/software/ovi_2503a_s3trc/ovi_2503a_s3trc/Tools/MinGW/include/c++/3.3.1/bits/stl_alloc.h ****   /**
 117:d:/software/ovi_2503a_s3trc/ovi_2503a_s3trc/Tools/MinGW/include/c++/3.3.1/bits/stl_alloc.h ****    *  @if maint
 118:d:/software/ovi_2503a_s3trc/ovi_2503a_s3trc/Tools/MinGW/include/c++/3.3.1/bits/stl_alloc.h ****    *  A malloc-based allocator.  Typically slower than the
 119:d:/software/ovi_2503a_s3trc/ovi_2503a_s3trc/Tools/MinGW/include/c++/3.3.1/bits/stl_alloc.h ****    *  __default_alloc_template (below).  Typically thread-safe and more
 120:d:/software/ovi_2503a_s3trc/ovi_2503a_s3trc/Tools/MinGW/include/c++/3.3.1/bits/stl_alloc.h ****    *  storage efficient.  The template argument is unused and is only present
 121:d:/software/ovi_2503a_s3trc/ovi_2503a_s3trc/Tools/MinGW/include/c++/3.3.1/bits/stl_alloc.h ****    *  to permit multiple instantiations (but see __default_alloc_template
 122:d:/software/ovi_2503a_s3trc/ovi_2503a_s3trc/Tools/MinGW/include/c++/3.3.1/bits/stl_alloc.h ****    *  for caveats).  "SGI" style, plus __set_malloc_handler for OOM conditions.
 123:d:/software/ovi_2503a_s3trc/ovi_2503a_s3trc/Tools/MinGW/include/c++/3.3.1/bits/stl_alloc.h ****    *  @endif
 124:d:/software/ovi_2503a_s3trc/ovi_2503a_s3trc/Tools/MinGW/include/c++/3.3.1/bits/stl_alloc.h ****    *  (See @link Allocators allocators info @endlink for more.)
 125:d:/software/ovi_2503a_s3trc/ovi_2503a_s3trc/Tools/MinGW/include/c++/3.3.1/bits/stl_alloc.h ****    */
 126:d:/software/ovi_2503a_s3trc/ovi_2503a_s3trc/Tools/MinGW/include/c++/3.3.1/bits/stl_alloc.h ****   template<int __inst>
 127:d:/software/ovi_2503a_s3trc/ovi_2503a_s3trc/Tools/MinGW/include/c++/3.3.1/bits/stl_alloc.h ****     class __malloc_alloc_template
 128:d:/software/ovi_2503a_s3trc/ovi_2503a_s3trc/Tools/MinGW/include/c++/3.3.1/bits/stl_alloc.h ****     {
 129:d:/software/ovi_2503a_s3trc/ovi_2503a_s3trc/Tools/MinGW/include/c++/3.3.1/bits/stl_alloc.h ****     private:
 130:d:/software/ovi_2503a_s3trc/ovi_2503a_s3trc/Tools/MinGW/include/c++/3.3.1/bits/stl_alloc.h ****       static void* _S_oom_malloc(size_t);
 131:d:/software/ovi_2503a_s3trc/ovi_2503a_s3trc/Tools/MinGW/include/c++/3.3.1/bits/stl_alloc.h ****       static void* _S_oom_realloc(void*, size_t);
 132:d:/software/ovi_2503a_s3trc/ovi_2503a_s3trc/Tools/MinGW/include/c++/3.3.1/bits/stl_alloc.h ****       static void (* __malloc_alloc_oom_handler)();
 133:d:/software/ovi_2503a_s3trc/ovi_2503a_s3trc/Tools/MinGW/include/c++/3.3.1/bits/stl_alloc.h **** 
 134:d:/software/ovi_2503a_s3trc/ovi_2503a_s3trc/Tools/MinGW/include/c++/3.3.1/bits/stl_alloc.h ****     public:
 135:d:/software/ovi_2503a_s3trc/ovi_2503a_s3trc/Tools/MinGW/include/c++/3.3.1/bits/stl_alloc.h ****       static void*
 136:d:/software/ovi_2503a_s3trc/ovi_2503a_s3trc/Tools/MinGW/include/c++/3.3.1/bits/stl_alloc.h ****       allocate(size_t __n)
 137:d:/software/ovi_2503a_s3trc/ovi_2503a_s3trc/Tools/MinGW/include/c++/3.3.1/bits/stl_alloc.h ****       {
 138:d:/software/ovi_2503a_s3trc/ovi_2503a_s3trc/Tools/MinGW/include/c++/3.3.1/bits/stl_alloc.h ****         void* __result = malloc(__n);
 139:d:/software/ovi_2503a_s3trc/ovi_2503a_s3trc/Tools/MinGW/include/c++/3.3.1/bits/stl_alloc.h ****         if (__builtin_expect(__result == 0, 0))
 140:d:/software/ovi_2503a_s3trc/ovi_2503a_s3trc/Tools/MinGW/include/c++/3.3.1/bits/stl_alloc.h **** 	  __result = _S_oom_malloc(__n);
 141:d:/software/ovi_2503a_s3trc/ovi_2503a_s3trc/Tools/MinGW/include/c++/3.3.1/bits/stl_alloc.h ****         return __result;
 142:d:/software/ovi_2503a_s3trc/ovi_2503a_s3trc/Tools/MinGW/include/c++/3.3.1/bits/stl_alloc.h ****       }
 143:d:/software/ovi_2503a_s3trc/ovi_2503a_s3trc/Tools/MinGW/include/c++/3.3.1/bits/stl_alloc.h **** 
 144:d:/software/ovi_2503a_s3trc/ovi_2503a_s3trc/Tools/MinGW/include/c++/3.3.1/bits/stl_alloc.h ****       static void
 145:d:/software/ovi_2503a_s3trc/ovi_2503a_s3trc/Tools/MinGW/include/c++/3.3.1/bits/stl_alloc.h ****       deallocate(void* __p, size_t /* __n */)
 146:d:/software/ovi_2503a_s3trc/ovi_2503a_s3trc/Tools/MinGW/include/c++/3.3.1/bits/stl_alloc.h ****       { free(__p); }
GAS LISTING d:/software/ovi_2503a_s3trc/ovi_2503a_s3trc/plutommi/Customer/ResGenerator/gcctmp/cci0baaa.s 			page 53


 147:d:/software/ovi_2503a_s3trc/ovi_2503a_s3trc/Tools/MinGW/include/c++/3.3.1/bits/stl_alloc.h **** 
 148:d:/software/ovi_2503a_s3trc/ovi_2503a_s3trc/Tools/MinGW/include/c++/3.3.1/bits/stl_alloc.h ****       static void*
 149:d:/software/ovi_2503a_s3trc/ovi_2503a_s3trc/Tools/MinGW/include/c++/3.3.1/bits/stl_alloc.h ****       reallocate(void* __p, size_t /* old_sz */, size_t __new_sz)
 150:d:/software/ovi_2503a_s3trc/ovi_2503a_s3trc/Tools/MinGW/include/c++/3.3.1/bits/stl_alloc.h ****       {
 151:d:/software/ovi_2503a_s3trc/ovi_2503a_s3trc/Tools/MinGW/include/c++/3.3.1/bits/stl_alloc.h ****         void* __result = realloc(__p, __new_sz);
 152:d:/software/ovi_2503a_s3trc/ovi_2503a_s3trc/Tools/MinGW/include/c++/3.3.1/bits/stl_alloc.h ****         if (__builtin_expect(__result == 0, 0))
 153:d:/software/ovi_2503a_s3trc/ovi_2503a_s3trc/Tools/MinGW/include/c++/3.3.1/bits/stl_alloc.h ****           __result = _S_oom_realloc(__p, __new_sz);
 154:d:/software/ovi_2503a_s3trc/ovi_2503a_s3trc/Tools/MinGW/include/c++/3.3.1/bits/stl_alloc.h ****         return __result;
 155:d:/software/ovi_2503a_s3trc/ovi_2503a_s3trc/Tools/MinGW/include/c++/3.3.1/bits/stl_alloc.h ****       }
 156:d:/software/ovi_2503a_s3trc/ovi_2503a_s3trc/Tools/MinGW/include/c++/3.3.1/bits/stl_alloc.h **** 
 157:d:/software/ovi_2503a_s3trc/ovi_2503a_s3trc/Tools/MinGW/include/c++/3.3.1/bits/stl_alloc.h ****       static void (* __set_malloc_handler(void (*__f)()))()
 158:d:/software/ovi_2503a_s3trc/ovi_2503a_s3trc/Tools/MinGW/include/c++/3.3.1/bits/stl_alloc.h ****       {
 159:d:/software/ovi_2503a_s3trc/ovi_2503a_s3trc/Tools/MinGW/include/c++/3.3.1/bits/stl_alloc.h ****         void (* __old)() = __malloc_alloc_oom_handler;
 160:d:/software/ovi_2503a_s3trc/ovi_2503a_s3trc/Tools/MinGW/include/c++/3.3.1/bits/stl_alloc.h ****         __malloc_alloc_oom_handler = __f;
 161:d:/software/ovi_2503a_s3trc/ovi_2503a_s3trc/Tools/MinGW/include/c++/3.3.1/bits/stl_alloc.h ****         return __old;
 162:d:/software/ovi_2503a_s3trc/ovi_2503a_s3trc/Tools/MinGW/include/c++/3.3.1/bits/stl_alloc.h ****       }
 163:d:/software/ovi_2503a_s3trc/ovi_2503a_s3trc/Tools/MinGW/include/c++/3.3.1/bits/stl_alloc.h ****     };
 164:d:/software/ovi_2503a_s3trc/ovi_2503a_s3trc/Tools/MinGW/include/c++/3.3.1/bits/stl_alloc.h **** 
 165:d:/software/ovi_2503a_s3trc/ovi_2503a_s3trc/Tools/MinGW/include/c++/3.3.1/bits/stl_alloc.h ****   // malloc_alloc out-of-memory handling
 166:d:/software/ovi_2503a_s3trc/ovi_2503a_s3trc/Tools/MinGW/include/c++/3.3.1/bits/stl_alloc.h ****   template<int __inst>
 167:d:/software/ovi_2503a_s3trc/ovi_2503a_s3trc/Tools/MinGW/include/c++/3.3.1/bits/stl_alloc.h ****     void (* __malloc_alloc_template<__inst>::__malloc_alloc_oom_handler)() = 0;
 168:d:/software/ovi_2503a_s3trc/ovi_2503a_s3trc/Tools/MinGW/include/c++/3.3.1/bits/stl_alloc.h **** 
 169:d:/software/ovi_2503a_s3trc/ovi_2503a_s3trc/Tools/MinGW/include/c++/3.3.1/bits/stl_alloc.h ****   template<int __inst>
 170:d:/software/ovi_2503a_s3trc/ovi_2503a_s3trc/Tools/MinGW/include/c++/3.3.1/bits/stl_alloc.h ****     void*
 171:d:/software/ovi_2503a_s3trc/ovi_2503a_s3trc/Tools/MinGW/include/c++/3.3.1/bits/stl_alloc.h ****     __malloc_alloc_template<__inst>::
 172:d:/software/ovi_2503a_s3trc/ovi_2503a_s3trc/Tools/MinGW/include/c++/3.3.1/bits/stl_alloc.h ****     _S_oom_malloc(size_t __n)
 173:d:/software/ovi_2503a_s3trc/ovi_2503a_s3trc/Tools/MinGW/include/c++/3.3.1/bits/stl_alloc.h ****     {
 174:d:/software/ovi_2503a_s3trc/ovi_2503a_s3trc/Tools/MinGW/include/c++/3.3.1/bits/stl_alloc.h ****       void (* __my_malloc_handler)();
 175:d:/software/ovi_2503a_s3trc/ovi_2503a_s3trc/Tools/MinGW/include/c++/3.3.1/bits/stl_alloc.h ****       void* __result;
 176:d:/software/ovi_2503a_s3trc/ovi_2503a_s3trc/Tools/MinGW/include/c++/3.3.1/bits/stl_alloc.h **** 
 177:d:/software/ovi_2503a_s3trc/ovi_2503a_s3trc/Tools/MinGW/include/c++/3.3.1/bits/stl_alloc.h ****       for (;;)
 178:d:/software/ovi_2503a_s3trc/ovi_2503a_s3trc/Tools/MinGW/include/c++/3.3.1/bits/stl_alloc.h ****         {
 179:d:/software/ovi_2503a_s3trc/ovi_2503a_s3trc/Tools/MinGW/include/c++/3.3.1/bits/stl_alloc.h ****           __my_malloc_handler = __malloc_alloc_oom_handler;
 180:d:/software/ovi_2503a_s3trc/ovi_2503a_s3trc/Tools/MinGW/include/c++/3.3.1/bits/stl_alloc.h ****           if (__builtin_expect(__my_malloc_handler == 0, 0))
 181:d:/software/ovi_2503a_s3trc/ovi_2503a_s3trc/Tools/MinGW/include/c++/3.3.1/bits/stl_alloc.h ****             __throw_bad_alloc();
 182:d:/software/ovi_2503a_s3trc/ovi_2503a_s3trc/Tools/MinGW/include/c++/3.3.1/bits/stl_alloc.h ****           (*__my_malloc_handler)();
 183:d:/software/ovi_2503a_s3trc/ovi_2503a_s3trc/Tools/MinGW/include/c++/3.3.1/bits/stl_alloc.h ****           __result = malloc(__n);
 184:d:/software/ovi_2503a_s3trc/ovi_2503a_s3trc/Tools/MinGW/include/c++/3.3.1/bits/stl_alloc.h ****           if (__result)
 185:d:/software/ovi_2503a_s3trc/ovi_2503a_s3trc/Tools/MinGW/include/c++/3.3.1/bits/stl_alloc.h ****             return __result;
 186:d:/software/ovi_2503a_s3trc/ovi_2503a_s3trc/Tools/MinGW/include/c++/3.3.1/bits/stl_alloc.h ****         }
 187:d:/software/ovi_2503a_s3trc/ovi_2503a_s3trc/Tools/MinGW/include/c++/3.3.1/bits/stl_alloc.h ****     }
 188:d:/software/ovi_2503a_s3trc/ovi_2503a_s3trc/Tools/MinGW/include/c++/3.3.1/bits/stl_alloc.h **** 
 189:d:/software/ovi_2503a_s3trc/ovi_2503a_s3trc/Tools/MinGW/include/c++/3.3.1/bits/stl_alloc.h ****   template<int __inst>
 190:d:/software/ovi_2503a_s3trc/ovi_2503a_s3trc/Tools/MinGW/include/c++/3.3.1/bits/stl_alloc.h ****     void*
 191:d:/software/ovi_2503a_s3trc/ovi_2503a_s3trc/Tools/MinGW/include/c++/3.3.1/bits/stl_alloc.h ****     __malloc_alloc_template<__inst>::
 192:d:/software/ovi_2503a_s3trc/ovi_2503a_s3trc/Tools/MinGW/include/c++/3.3.1/bits/stl_alloc.h ****     _S_oom_realloc(void* __p, size_t __n)
 193:d:/software/ovi_2503a_s3trc/ovi_2503a_s3trc/Tools/MinGW/include/c++/3.3.1/bits/stl_alloc.h ****     {
 194:d:/software/ovi_2503a_s3trc/ovi_2503a_s3trc/Tools/MinGW/include/c++/3.3.1/bits/stl_alloc.h ****       void (* __my_malloc_handler)();
 195:d:/software/ovi_2503a_s3trc/ovi_2503a_s3trc/Tools/MinGW/include/c++/3.3.1/bits/stl_alloc.h ****       void* __result;
 196:d:/software/ovi_2503a_s3trc/ovi_2503a_s3trc/Tools/MinGW/include/c++/3.3.1/bits/stl_alloc.h **** 
 197:d:/software/ovi_2503a_s3trc/ovi_2503a_s3trc/Tools/MinGW/include/c++/3.3.1/bits/stl_alloc.h ****       for (;;)
 198:d:/software/ovi_2503a_s3trc/ovi_2503a_s3trc/Tools/MinGW/include/c++/3.3.1/bits/stl_alloc.h ****         {
 199:d:/software/ovi_2503a_s3trc/ovi_2503a_s3trc/Tools/MinGW/include/c++/3.3.1/bits/stl_alloc.h ****           __my_malloc_handler = __malloc_alloc_oom_handler;
 200:d:/software/ovi_2503a_s3trc/ovi_2503a_s3trc/Tools/MinGW/include/c++/3.3.1/bits/stl_alloc.h ****           if (__builtin_expect(__my_malloc_handler == 0, 0))
 201:d:/software/ovi_2503a_s3trc/ovi_2503a_s3trc/Tools/MinGW/include/c++/3.3.1/bits/stl_alloc.h ****             __throw_bad_alloc();
 202:d:/software/ovi_2503a_s3trc/ovi_2503a_s3trc/Tools/MinGW/include/c++/3.3.1/bits/stl_alloc.h ****           (*__my_malloc_handler)();
 203:d:/software/ovi_2503a_s3trc/ovi_2503a_s3trc/Tools/MinGW/include/c++/3.3.1/bits/stl_alloc.h ****           __result = realloc(__p, __n);
GAS LISTING d:/software/ovi_2503a_s3trc/ovi_2503a_s3trc/plutommi/Customer/ResGenerator/gcctmp/cci0baaa.s 			page 54


 204:d:/software/ovi_2503a_s3trc/ovi_2503a_s3trc/Tools/MinGW/include/c++/3.3.1/bits/stl_alloc.h ****           if (__result)
 205:d:/software/ovi_2503a_s3trc/ovi_2503a_s3trc/Tools/MinGW/include/c++/3.3.1/bits/stl_alloc.h ****             return __result;
 206:d:/software/ovi_2503a_s3trc/ovi_2503a_s3trc/Tools/MinGW/include/c++/3.3.1/bits/stl_alloc.h ****         }
 207:d:/software/ovi_2503a_s3trc/ovi_2503a_s3trc/Tools/MinGW/include/c++/3.3.1/bits/stl_alloc.h ****     }
 208:d:/software/ovi_2503a_s3trc/ovi_2503a_s3trc/Tools/MinGW/include/c++/3.3.1/bits/stl_alloc.h **** 
 209:d:/software/ovi_2503a_s3trc/ovi_2503a_s3trc/Tools/MinGW/include/c++/3.3.1/bits/stl_alloc.h ****   // Should not be referenced within the library anymore.
 210:d:/software/ovi_2503a_s3trc/ovi_2503a_s3trc/Tools/MinGW/include/c++/3.3.1/bits/stl_alloc.h ****   typedef __new_alloc                 __mem_interface;
 211:d:/software/ovi_2503a_s3trc/ovi_2503a_s3trc/Tools/MinGW/include/c++/3.3.1/bits/stl_alloc.h **** 
 212:d:/software/ovi_2503a_s3trc/ovi_2503a_s3trc/Tools/MinGW/include/c++/3.3.1/bits/stl_alloc.h ****   /**
 213:d:/software/ovi_2503a_s3trc/ovi_2503a_s3trc/Tools/MinGW/include/c++/3.3.1/bits/stl_alloc.h ****    *  @if maint
 214:d:/software/ovi_2503a_s3trc/ovi_2503a_s3trc/Tools/MinGW/include/c++/3.3.1/bits/stl_alloc.h ****    *  This is used primarily (only?) in _Alloc_traits and other places to
 215:d:/software/ovi_2503a_s3trc/ovi_2503a_s3trc/Tools/MinGW/include/c++/3.3.1/bits/stl_alloc.h ****    *  help provide the _Alloc_type typedef.  All it does is forward the
 216:d:/software/ovi_2503a_s3trc/ovi_2503a_s3trc/Tools/MinGW/include/c++/3.3.1/bits/stl_alloc.h ****    *  requests after some minimal checking.
 217:d:/software/ovi_2503a_s3trc/ovi_2503a_s3trc/Tools/MinGW/include/c++/3.3.1/bits/stl_alloc.h ****    *
 218:d:/software/ovi_2503a_s3trc/ovi_2503a_s3trc/Tools/MinGW/include/c++/3.3.1/bits/stl_alloc.h ****    *  This is neither "standard"-conforming nor "SGI".  The _Alloc parameter
 219:d:/software/ovi_2503a_s3trc/ovi_2503a_s3trc/Tools/MinGW/include/c++/3.3.1/bits/stl_alloc.h ****    *  must be "SGI" style.
 220:d:/software/ovi_2503a_s3trc/ovi_2503a_s3trc/Tools/MinGW/include/c++/3.3.1/bits/stl_alloc.h ****    *  @endif
 221:d:/software/ovi_2503a_s3trc/ovi_2503a_s3trc/Tools/MinGW/include/c++/3.3.1/bits/stl_alloc.h ****    *  (See @link Allocators allocators info @endlink for more.)
 222:d:/software/ovi_2503a_s3trc/ovi_2503a_s3trc/Tools/MinGW/include/c++/3.3.1/bits/stl_alloc.h ****    */
 223:d:/software/ovi_2503a_s3trc/ovi_2503a_s3trc/Tools/MinGW/include/c++/3.3.1/bits/stl_alloc.h ****   template<typename _Tp, typename _Alloc>
 224:d:/software/ovi_2503a_s3trc/ovi_2503a_s3trc/Tools/MinGW/include/c++/3.3.1/bits/stl_alloc.h ****     class __simple_alloc
 225:d:/software/ovi_2503a_s3trc/ovi_2503a_s3trc/Tools/MinGW/include/c++/3.3.1/bits/stl_alloc.h ****     {
 226:d:/software/ovi_2503a_s3trc/ovi_2503a_s3trc/Tools/MinGW/include/c++/3.3.1/bits/stl_alloc.h ****     public:
 227:d:/software/ovi_2503a_s3trc/ovi_2503a_s3trc/Tools/MinGW/include/c++/3.3.1/bits/stl_alloc.h ****       static _Tp*
 228:d:/software/ovi_2503a_s3trc/ovi_2503a_s3trc/Tools/MinGW/include/c++/3.3.1/bits/stl_alloc.h ****       allocate(size_t __n)
 229:d:/software/ovi_2503a_s3trc/ovi_2503a_s3trc/Tools/MinGW/include/c++/3.3.1/bits/stl_alloc.h ****       {
 230:d:/software/ovi_2503a_s3trc/ovi_2503a_s3trc/Tools/MinGW/include/c++/3.3.1/bits/stl_alloc.h **** 	_Tp* __ret = 0;
 231:d:/software/ovi_2503a_s3trc/ovi_2503a_s3trc/Tools/MinGW/include/c++/3.3.1/bits/stl_alloc.h **** 	if (__n)
 232:d:/software/ovi_2503a_s3trc/ovi_2503a_s3trc/Tools/MinGW/include/c++/3.3.1/bits/stl_alloc.h **** 	  __ret = static_cast<_Tp*>(_Alloc::allocate(__n * sizeof(_Tp)));
 233:d:/software/ovi_2503a_s3trc/ovi_2503a_s3trc/Tools/MinGW/include/c++/3.3.1/bits/stl_alloc.h **** 	return __ret;
 234:d:/software/ovi_2503a_s3trc/ovi_2503a_s3trc/Tools/MinGW/include/c++/3.3.1/bits/stl_alloc.h ****       }
 235:d:/software/ovi_2503a_s3trc/ovi_2503a_s3trc/Tools/MinGW/include/c++/3.3.1/bits/stl_alloc.h ****   
 236:d:/software/ovi_2503a_s3trc/ovi_2503a_s3trc/Tools/MinGW/include/c++/3.3.1/bits/stl_alloc.h ****       static _Tp*
 237:d:/software/ovi_2503a_s3trc/ovi_2503a_s3trc/Tools/MinGW/include/c++/3.3.1/bits/stl_alloc.h ****       allocate()
 238:d:/software/ovi_2503a_s3trc/ovi_2503a_s3trc/Tools/MinGW/include/c++/3.3.1/bits/stl_alloc.h ****       { return (_Tp*) _Alloc::allocate(sizeof (_Tp)); }
 239:d:/software/ovi_2503a_s3trc/ovi_2503a_s3trc/Tools/MinGW/include/c++/3.3.1/bits/stl_alloc.h ****   
 240:d:/software/ovi_2503a_s3trc/ovi_2503a_s3trc/Tools/MinGW/include/c++/3.3.1/bits/stl_alloc.h ****       static void
 241:d:/software/ovi_2503a_s3trc/ovi_2503a_s3trc/Tools/MinGW/include/c++/3.3.1/bits/stl_alloc.h ****       deallocate(_Tp* __p, size_t __n)
 242:d:/software/ovi_2503a_s3trc/ovi_2503a_s3trc/Tools/MinGW/include/c++/3.3.1/bits/stl_alloc.h ****       { if (0 != __n) _Alloc::deallocate(__p, __n * sizeof (_Tp)); }
 243:d:/software/ovi_2503a_s3trc/ovi_2503a_s3trc/Tools/MinGW/include/c++/3.3.1/bits/stl_alloc.h ****   
 244:d:/software/ovi_2503a_s3trc/ovi_2503a_s3trc/Tools/MinGW/include/c++/3.3.1/bits/stl_alloc.h ****       static void
 245:d:/software/ovi_2503a_s3trc/ovi_2503a_s3trc/Tools/MinGW/include/c++/3.3.1/bits/stl_alloc.h ****       deallocate(_Tp* __p)
 246:d:/software/ovi_2503a_s3trc/ovi_2503a_s3trc/Tools/MinGW/include/c++/3.3.1/bits/stl_alloc.h ****       { _Alloc::deallocate(__p, sizeof (_Tp)); }
 247:d:/software/ovi_2503a_s3trc/ovi_2503a_s3trc/Tools/MinGW/include/c++/3.3.1/bits/stl_alloc.h ****     };
 248:d:/software/ovi_2503a_s3trc/ovi_2503a_s3trc/Tools/MinGW/include/c++/3.3.1/bits/stl_alloc.h **** 
 249:d:/software/ovi_2503a_s3trc/ovi_2503a_s3trc/Tools/MinGW/include/c++/3.3.1/bits/stl_alloc.h **** 
 250:d:/software/ovi_2503a_s3trc/ovi_2503a_s3trc/Tools/MinGW/include/c++/3.3.1/bits/stl_alloc.h ****   /**
 251:d:/software/ovi_2503a_s3trc/ovi_2503a_s3trc/Tools/MinGW/include/c++/3.3.1/bits/stl_alloc.h ****    *  @if maint
 252:d:/software/ovi_2503a_s3trc/ovi_2503a_s3trc/Tools/MinGW/include/c++/3.3.1/bits/stl_alloc.h ****    *  An adaptor for an underlying allocator (_Alloc) to check the size
 253:d:/software/ovi_2503a_s3trc/ovi_2503a_s3trc/Tools/MinGW/include/c++/3.3.1/bits/stl_alloc.h ****    *  arguments for debugging.
 254:d:/software/ovi_2503a_s3trc/ovi_2503a_s3trc/Tools/MinGW/include/c++/3.3.1/bits/stl_alloc.h ****    *
 255:d:/software/ovi_2503a_s3trc/ovi_2503a_s3trc/Tools/MinGW/include/c++/3.3.1/bits/stl_alloc.h ****    *  "There is some evidence that this can confuse Purify." - SGI comment
 256:d:/software/ovi_2503a_s3trc/ovi_2503a_s3trc/Tools/MinGW/include/c++/3.3.1/bits/stl_alloc.h ****    *
 257:d:/software/ovi_2503a_s3trc/ovi_2503a_s3trc/Tools/MinGW/include/c++/3.3.1/bits/stl_alloc.h ****    *  This adaptor is "SGI" style.  The _Alloc parameter must also be "SGI".
 258:d:/software/ovi_2503a_s3trc/ovi_2503a_s3trc/Tools/MinGW/include/c++/3.3.1/bits/stl_alloc.h ****    *  @endif
 259:d:/software/ovi_2503a_s3trc/ovi_2503a_s3trc/Tools/MinGW/include/c++/3.3.1/bits/stl_alloc.h ****    *  (See @link Allocators allocators info @endlink for more.)
 260:d:/software/ovi_2503a_s3trc/ovi_2503a_s3trc/Tools/MinGW/include/c++/3.3.1/bits/stl_alloc.h ****    */
GAS LISTING d:/software/ovi_2503a_s3trc/ovi_2503a_s3trc/plutommi/Customer/ResGenerator/gcctmp/cci0baaa.s 			page 55


 261:d:/software/ovi_2503a_s3trc/ovi_2503a_s3trc/Tools/MinGW/include/c++/3.3.1/bits/stl_alloc.h ****   template<typename _Alloc>
 262:d:/software/ovi_2503a_s3trc/ovi_2503a_s3trc/Tools/MinGW/include/c++/3.3.1/bits/stl_alloc.h ****     class __debug_alloc
 263:d:/software/ovi_2503a_s3trc/ovi_2503a_s3trc/Tools/MinGW/include/c++/3.3.1/bits/stl_alloc.h ****     {
 264:d:/software/ovi_2503a_s3trc/ovi_2503a_s3trc/Tools/MinGW/include/c++/3.3.1/bits/stl_alloc.h ****     private:
 265:d:/software/ovi_2503a_s3trc/ovi_2503a_s3trc/Tools/MinGW/include/c++/3.3.1/bits/stl_alloc.h ****       // Size of space used to store size.  Note that this must be
 266:d:/software/ovi_2503a_s3trc/ovi_2503a_s3trc/Tools/MinGW/include/c++/3.3.1/bits/stl_alloc.h ****       // large enough to preserve alignment.
 267:d:/software/ovi_2503a_s3trc/ovi_2503a_s3trc/Tools/MinGW/include/c++/3.3.1/bits/stl_alloc.h ****       enum {_S_extra = 8};
 268:d:/software/ovi_2503a_s3trc/ovi_2503a_s3trc/Tools/MinGW/include/c++/3.3.1/bits/stl_alloc.h **** 
 269:d:/software/ovi_2503a_s3trc/ovi_2503a_s3trc/Tools/MinGW/include/c++/3.3.1/bits/stl_alloc.h ****     public:
 270:d:/software/ovi_2503a_s3trc/ovi_2503a_s3trc/Tools/MinGW/include/c++/3.3.1/bits/stl_alloc.h ****       static void*
 271:d:/software/ovi_2503a_s3trc/ovi_2503a_s3trc/Tools/MinGW/include/c++/3.3.1/bits/stl_alloc.h ****       allocate(size_t __n)
 272:d:/software/ovi_2503a_s3trc/ovi_2503a_s3trc/Tools/MinGW/include/c++/3.3.1/bits/stl_alloc.h ****       {
 273:d:/software/ovi_2503a_s3trc/ovi_2503a_s3trc/Tools/MinGW/include/c++/3.3.1/bits/stl_alloc.h ****         char* __result = (char*)_Alloc::allocate(__n + (int) _S_extra);
 274:d:/software/ovi_2503a_s3trc/ovi_2503a_s3trc/Tools/MinGW/include/c++/3.3.1/bits/stl_alloc.h ****         *(size_t*)__result = __n;
 275:d:/software/ovi_2503a_s3trc/ovi_2503a_s3trc/Tools/MinGW/include/c++/3.3.1/bits/stl_alloc.h ****         return __result + (int) _S_extra;
 276:d:/software/ovi_2503a_s3trc/ovi_2503a_s3trc/Tools/MinGW/include/c++/3.3.1/bits/stl_alloc.h ****       }
 277:d:/software/ovi_2503a_s3trc/ovi_2503a_s3trc/Tools/MinGW/include/c++/3.3.1/bits/stl_alloc.h **** 
 278:d:/software/ovi_2503a_s3trc/ovi_2503a_s3trc/Tools/MinGW/include/c++/3.3.1/bits/stl_alloc.h ****       static void
 279:d:/software/ovi_2503a_s3trc/ovi_2503a_s3trc/Tools/MinGW/include/c++/3.3.1/bits/stl_alloc.h ****       deallocate(void* __p, size_t __n)
 280:d:/software/ovi_2503a_s3trc/ovi_2503a_s3trc/Tools/MinGW/include/c++/3.3.1/bits/stl_alloc.h ****       {
 281:d:/software/ovi_2503a_s3trc/ovi_2503a_s3trc/Tools/MinGW/include/c++/3.3.1/bits/stl_alloc.h ****         char* __real_p = (char*)__p - (int) _S_extra;
 282:d:/software/ovi_2503a_s3trc/ovi_2503a_s3trc/Tools/MinGW/include/c++/3.3.1/bits/stl_alloc.h ****         if (*(size_t*)__real_p != __n)
 283:d:/software/ovi_2503a_s3trc/ovi_2503a_s3trc/Tools/MinGW/include/c++/3.3.1/bits/stl_alloc.h **** 	  abort();
 284:d:/software/ovi_2503a_s3trc/ovi_2503a_s3trc/Tools/MinGW/include/c++/3.3.1/bits/stl_alloc.h ****         _Alloc::deallocate(__real_p, __n + (int) _S_extra);
 285:d:/software/ovi_2503a_s3trc/ovi_2503a_s3trc/Tools/MinGW/include/c++/3.3.1/bits/stl_alloc.h ****       }
 286:d:/software/ovi_2503a_s3trc/ovi_2503a_s3trc/Tools/MinGW/include/c++/3.3.1/bits/stl_alloc.h **** 
 287:d:/software/ovi_2503a_s3trc/ovi_2503a_s3trc/Tools/MinGW/include/c++/3.3.1/bits/stl_alloc.h ****       static void*
 288:d:/software/ovi_2503a_s3trc/ovi_2503a_s3trc/Tools/MinGW/include/c++/3.3.1/bits/stl_alloc.h ****       reallocate(void* __p, size_t __old_sz, size_t __new_sz)
 289:d:/software/ovi_2503a_s3trc/ovi_2503a_s3trc/Tools/MinGW/include/c++/3.3.1/bits/stl_alloc.h ****       {
 290:d:/software/ovi_2503a_s3trc/ovi_2503a_s3trc/Tools/MinGW/include/c++/3.3.1/bits/stl_alloc.h ****         char* __real_p = (char*)__p - (int) _S_extra;
 291:d:/software/ovi_2503a_s3trc/ovi_2503a_s3trc/Tools/MinGW/include/c++/3.3.1/bits/stl_alloc.h ****         if (*(size_t*)__real_p != __old_sz)
 292:d:/software/ovi_2503a_s3trc/ovi_2503a_s3trc/Tools/MinGW/include/c++/3.3.1/bits/stl_alloc.h **** 	  abort();
 293:d:/software/ovi_2503a_s3trc/ovi_2503a_s3trc/Tools/MinGW/include/c++/3.3.1/bits/stl_alloc.h ****         char* __result = (char*) _Alloc::reallocate(__real_p, 
 294:d:/software/ovi_2503a_s3trc/ovi_2503a_s3trc/Tools/MinGW/include/c++/3.3.1/bits/stl_alloc.h **** 						    __old_sz + (int) _S_extra,
 295:d:/software/ovi_2503a_s3trc/ovi_2503a_s3trc/Tools/MinGW/include/c++/3.3.1/bits/stl_alloc.h **** 						    __new_sz + (int) _S_extra);
 296:d:/software/ovi_2503a_s3trc/ovi_2503a_s3trc/Tools/MinGW/include/c++/3.3.1/bits/stl_alloc.h ****         *(size_t*)__result = __new_sz;
 297:d:/software/ovi_2503a_s3trc/ovi_2503a_s3trc/Tools/MinGW/include/c++/3.3.1/bits/stl_alloc.h ****         return __result + (int) _S_extra;
 298:d:/software/ovi_2503a_s3trc/ovi_2503a_s3trc/Tools/MinGW/include/c++/3.3.1/bits/stl_alloc.h ****       }
 299:d:/software/ovi_2503a_s3trc/ovi_2503a_s3trc/Tools/MinGW/include/c++/3.3.1/bits/stl_alloc.h ****     };
 300:d:/software/ovi_2503a_s3trc/ovi_2503a_s3trc/Tools/MinGW/include/c++/3.3.1/bits/stl_alloc.h **** 
 301:d:/software/ovi_2503a_s3trc/ovi_2503a_s3trc/Tools/MinGW/include/c++/3.3.1/bits/stl_alloc.h **** 
 302:d:/software/ovi_2503a_s3trc/ovi_2503a_s3trc/Tools/MinGW/include/c++/3.3.1/bits/stl_alloc.h ****   /**
 303:d:/software/ovi_2503a_s3trc/ovi_2503a_s3trc/Tools/MinGW/include/c++/3.3.1/bits/stl_alloc.h ****    *  @if maint
 304:d:/software/ovi_2503a_s3trc/ovi_2503a_s3trc/Tools/MinGW/include/c++/3.3.1/bits/stl_alloc.h ****    *  Default node allocator.  "SGI" style.  Uses various allocators to
 305:d:/software/ovi_2503a_s3trc/ovi_2503a_s3trc/Tools/MinGW/include/c++/3.3.1/bits/stl_alloc.h ****    *  fulfill underlying requests (and makes as few requests as possible
 306:d:/software/ovi_2503a_s3trc/ovi_2503a_s3trc/Tools/MinGW/include/c++/3.3.1/bits/stl_alloc.h ****    *  when in default high-speed pool mode).
 307:d:/software/ovi_2503a_s3trc/ovi_2503a_s3trc/Tools/MinGW/include/c++/3.3.1/bits/stl_alloc.h ****    *
 308:d:/software/ovi_2503a_s3trc/ovi_2503a_s3trc/Tools/MinGW/include/c++/3.3.1/bits/stl_alloc.h ****    *  Important implementation properties:
 309:d:/software/ovi_2503a_s3trc/ovi_2503a_s3trc/Tools/MinGW/include/c++/3.3.1/bits/stl_alloc.h ****    *  0. If globally mandated, then allocate objects from __new_alloc
 310:d:/software/ovi_2503a_s3trc/ovi_2503a_s3trc/Tools/MinGW/include/c++/3.3.1/bits/stl_alloc.h ****    *  1. If the clients request an object of size > _MAX_BYTES, the resulting
 311:d:/software/ovi_2503a_s3trc/ovi_2503a_s3trc/Tools/MinGW/include/c++/3.3.1/bits/stl_alloc.h ****    *     object will be obtained directly from __new_alloc
 312:d:/software/ovi_2503a_s3trc/ovi_2503a_s3trc/Tools/MinGW/include/c++/3.3.1/bits/stl_alloc.h ****    *  2. In all other cases, we allocate an object of size exactly
 313:d:/software/ovi_2503a_s3trc/ovi_2503a_s3trc/Tools/MinGW/include/c++/3.3.1/bits/stl_alloc.h ****    *     _S_round_up(requested_size).  Thus the client has enough size
 314:d:/software/ovi_2503a_s3trc/ovi_2503a_s3trc/Tools/MinGW/include/c++/3.3.1/bits/stl_alloc.h ****    *     information that we can return the object to the proper free list
 315:d:/software/ovi_2503a_s3trc/ovi_2503a_s3trc/Tools/MinGW/include/c++/3.3.1/bits/stl_alloc.h ****    *     without permanently losing part of the object.
 316:d:/software/ovi_2503a_s3trc/ovi_2503a_s3trc/Tools/MinGW/include/c++/3.3.1/bits/stl_alloc.h ****    *
 317:d:/software/ovi_2503a_s3trc/ovi_2503a_s3trc/Tools/MinGW/include/c++/3.3.1/bits/stl_alloc.h ****    *  The first template parameter specifies whether more than one thread may
GAS LISTING d:/software/ovi_2503a_s3trc/ovi_2503a_s3trc/plutommi/Customer/ResGenerator/gcctmp/cci0baaa.s 			page 56


 318:d:/software/ovi_2503a_s3trc/ovi_2503a_s3trc/Tools/MinGW/include/c++/3.3.1/bits/stl_alloc.h ****    *  use this allocator.  It is safe to allocate an object from one instance
 319:d:/software/ovi_2503a_s3trc/ovi_2503a_s3trc/Tools/MinGW/include/c++/3.3.1/bits/stl_alloc.h ****    *  of a default_alloc and deallocate it with another one.  This effectively
 320:d:/software/ovi_2503a_s3trc/ovi_2503a_s3trc/Tools/MinGW/include/c++/3.3.1/bits/stl_alloc.h ****    *  transfers its ownership to the second one.  This may have undesirable
 321:d:/software/ovi_2503a_s3trc/ovi_2503a_s3trc/Tools/MinGW/include/c++/3.3.1/bits/stl_alloc.h ****    *  effects on reference locality.
 322:d:/software/ovi_2503a_s3trc/ovi_2503a_s3trc/Tools/MinGW/include/c++/3.3.1/bits/stl_alloc.h ****    *
 323:d:/software/ovi_2503a_s3trc/ovi_2503a_s3trc/Tools/MinGW/include/c++/3.3.1/bits/stl_alloc.h ****    *  The second parameter is unused and serves only to allow the creation of
 324:d:/software/ovi_2503a_s3trc/ovi_2503a_s3trc/Tools/MinGW/include/c++/3.3.1/bits/stl_alloc.h ****    *  multiple default_alloc instances.  Note that containers built on different
 325:d:/software/ovi_2503a_s3trc/ovi_2503a_s3trc/Tools/MinGW/include/c++/3.3.1/bits/stl_alloc.h ****    *  allocator instances have different types, limiting the utility of this
 326:d:/software/ovi_2503a_s3trc/ovi_2503a_s3trc/Tools/MinGW/include/c++/3.3.1/bits/stl_alloc.h ****    *  approach.  If you do not wish to share the free lists with the main
 327:d:/software/ovi_2503a_s3trc/ovi_2503a_s3trc/Tools/MinGW/include/c++/3.3.1/bits/stl_alloc.h ****    *  default_alloc instance, instantiate this with a non-zero __inst.
 328:d:/software/ovi_2503a_s3trc/ovi_2503a_s3trc/Tools/MinGW/include/c++/3.3.1/bits/stl_alloc.h ****    *
 329:d:/software/ovi_2503a_s3trc/ovi_2503a_s3trc/Tools/MinGW/include/c++/3.3.1/bits/stl_alloc.h ****    *  @endif
 330:d:/software/ovi_2503a_s3trc/ovi_2503a_s3trc/Tools/MinGW/include/c++/3.3.1/bits/stl_alloc.h ****    *  (See @link Allocators allocators info @endlink for more.)
 331:d:/software/ovi_2503a_s3trc/ovi_2503a_s3trc/Tools/MinGW/include/c++/3.3.1/bits/stl_alloc.h ****    */
 332:d:/software/ovi_2503a_s3trc/ovi_2503a_s3trc/Tools/MinGW/include/c++/3.3.1/bits/stl_alloc.h ****   template<bool __threads, int __inst>
 333:d:/software/ovi_2503a_s3trc/ovi_2503a_s3trc/Tools/MinGW/include/c++/3.3.1/bits/stl_alloc.h ****     class __default_alloc_template
 334:d:/software/ovi_2503a_s3trc/ovi_2503a_s3trc/Tools/MinGW/include/c++/3.3.1/bits/stl_alloc.h ****     {
 335:d:/software/ovi_2503a_s3trc/ovi_2503a_s3trc/Tools/MinGW/include/c++/3.3.1/bits/stl_alloc.h ****     private:
 336:d:/software/ovi_2503a_s3trc/ovi_2503a_s3trc/Tools/MinGW/include/c++/3.3.1/bits/stl_alloc.h ****       enum {_ALIGN = 8};
 337:d:/software/ovi_2503a_s3trc/ovi_2503a_s3trc/Tools/MinGW/include/c++/3.3.1/bits/stl_alloc.h ****       enum {_MAX_BYTES = 128};
 338:d:/software/ovi_2503a_s3trc/ovi_2503a_s3trc/Tools/MinGW/include/c++/3.3.1/bits/stl_alloc.h ****       enum {_NFREELISTS = _MAX_BYTES / _ALIGN};
 339:d:/software/ovi_2503a_s3trc/ovi_2503a_s3trc/Tools/MinGW/include/c++/3.3.1/bits/stl_alloc.h **** 
 340:d:/software/ovi_2503a_s3trc/ovi_2503a_s3trc/Tools/MinGW/include/c++/3.3.1/bits/stl_alloc.h ****       union _Obj
 341:d:/software/ovi_2503a_s3trc/ovi_2503a_s3trc/Tools/MinGW/include/c++/3.3.1/bits/stl_alloc.h ****       {
 342:d:/software/ovi_2503a_s3trc/ovi_2503a_s3trc/Tools/MinGW/include/c++/3.3.1/bits/stl_alloc.h ****         union _Obj* _M_free_list_link;
 343:d:/software/ovi_2503a_s3trc/ovi_2503a_s3trc/Tools/MinGW/include/c++/3.3.1/bits/stl_alloc.h ****         char        _M_client_data[1];    // The client sees this.
 344:d:/software/ovi_2503a_s3trc/ovi_2503a_s3trc/Tools/MinGW/include/c++/3.3.1/bits/stl_alloc.h ****       };
 345:d:/software/ovi_2503a_s3trc/ovi_2503a_s3trc/Tools/MinGW/include/c++/3.3.1/bits/stl_alloc.h **** 
 346:d:/software/ovi_2503a_s3trc/ovi_2503a_s3trc/Tools/MinGW/include/c++/3.3.1/bits/stl_alloc.h ****       static _Obj* volatile         _S_free_list[_NFREELISTS];
 347:d:/software/ovi_2503a_s3trc/ovi_2503a_s3trc/Tools/MinGW/include/c++/3.3.1/bits/stl_alloc.h **** 
 348:d:/software/ovi_2503a_s3trc/ovi_2503a_s3trc/Tools/MinGW/include/c++/3.3.1/bits/stl_alloc.h ****       // Chunk allocation state.
 349:d:/software/ovi_2503a_s3trc/ovi_2503a_s3trc/Tools/MinGW/include/c++/3.3.1/bits/stl_alloc.h ****       static char*                  _S_start_free;
 350:d:/software/ovi_2503a_s3trc/ovi_2503a_s3trc/Tools/MinGW/include/c++/3.3.1/bits/stl_alloc.h ****       static char*                  _S_end_free;
 351:d:/software/ovi_2503a_s3trc/ovi_2503a_s3trc/Tools/MinGW/include/c++/3.3.1/bits/stl_alloc.h ****       static size_t                 _S_heap_size;
 352:d:/software/ovi_2503a_s3trc/ovi_2503a_s3trc/Tools/MinGW/include/c++/3.3.1/bits/stl_alloc.h **** 
 353:d:/software/ovi_2503a_s3trc/ovi_2503a_s3trc/Tools/MinGW/include/c++/3.3.1/bits/stl_alloc.h ****       static _STL_mutex_lock        _S_node_allocator_lock;
 354:d:/software/ovi_2503a_s3trc/ovi_2503a_s3trc/Tools/MinGW/include/c++/3.3.1/bits/stl_alloc.h **** 
 355:d:/software/ovi_2503a_s3trc/ovi_2503a_s3trc/Tools/MinGW/include/c++/3.3.1/bits/stl_alloc.h ****       static size_t
 356:d:/software/ovi_2503a_s3trc/ovi_2503a_s3trc/Tools/MinGW/include/c++/3.3.1/bits/stl_alloc.h ****       _S_round_up(size_t __bytes)
 357:d:/software/ovi_2503a_s3trc/ovi_2503a_s3trc/Tools/MinGW/include/c++/3.3.1/bits/stl_alloc.h ****       { return (((__bytes) + (size_t) _ALIGN-1) & ~((size_t) _ALIGN - 1)); }
 358:d:/software/ovi_2503a_s3trc/ovi_2503a_s3trc/Tools/MinGW/include/c++/3.3.1/bits/stl_alloc.h **** 
 359:d:/software/ovi_2503a_s3trc/ovi_2503a_s3trc/Tools/MinGW/include/c++/3.3.1/bits/stl_alloc.h ****       static size_t
 360:d:/software/ovi_2503a_s3trc/ovi_2503a_s3trc/Tools/MinGW/include/c++/3.3.1/bits/stl_alloc.h ****       _S_freelist_index(size_t __bytes)
 361:d:/software/ovi_2503a_s3trc/ovi_2503a_s3trc/Tools/MinGW/include/c++/3.3.1/bits/stl_alloc.h ****       { return (((__bytes) + (size_t)_ALIGN - 1)/(size_t)_ALIGN - 1); }
 362:d:/software/ovi_2503a_s3trc/ovi_2503a_s3trc/Tools/MinGW/include/c++/3.3.1/bits/stl_alloc.h **** 
 363:d:/software/ovi_2503a_s3trc/ovi_2503a_s3trc/Tools/MinGW/include/c++/3.3.1/bits/stl_alloc.h ****       // Returns an object of size __n, and optionally adds to size __n
 364:d:/software/ovi_2503a_s3trc/ovi_2503a_s3trc/Tools/MinGW/include/c++/3.3.1/bits/stl_alloc.h ****       // free list.
 365:d:/software/ovi_2503a_s3trc/ovi_2503a_s3trc/Tools/MinGW/include/c++/3.3.1/bits/stl_alloc.h ****       static void*
 366:d:/software/ovi_2503a_s3trc/ovi_2503a_s3trc/Tools/MinGW/include/c++/3.3.1/bits/stl_alloc.h ****       _S_refill(size_t __n);
 367:d:/software/ovi_2503a_s3trc/ovi_2503a_s3trc/Tools/MinGW/include/c++/3.3.1/bits/stl_alloc.h **** 
 368:d:/software/ovi_2503a_s3trc/ovi_2503a_s3trc/Tools/MinGW/include/c++/3.3.1/bits/stl_alloc.h ****       // Allocates a chunk for nobjs of size size.  nobjs may be reduced
 369:d:/software/ovi_2503a_s3trc/ovi_2503a_s3trc/Tools/MinGW/include/c++/3.3.1/bits/stl_alloc.h ****       // if it is inconvenient to allocate the requested number.
 370:d:/software/ovi_2503a_s3trc/ovi_2503a_s3trc/Tools/MinGW/include/c++/3.3.1/bits/stl_alloc.h ****       static char*
 371:d:/software/ovi_2503a_s3trc/ovi_2503a_s3trc/Tools/MinGW/include/c++/3.3.1/bits/stl_alloc.h ****       _S_chunk_alloc(size_t __size, int& __nobjs);
 372:d:/software/ovi_2503a_s3trc/ovi_2503a_s3trc/Tools/MinGW/include/c++/3.3.1/bits/stl_alloc.h **** 
 373:d:/software/ovi_2503a_s3trc/ovi_2503a_s3trc/Tools/MinGW/include/c++/3.3.1/bits/stl_alloc.h ****       // It would be nice to use _STL_auto_lock here.  But we need a
 374:d:/software/ovi_2503a_s3trc/ovi_2503a_s3trc/Tools/MinGW/include/c++/3.3.1/bits/stl_alloc.h ****       // test whether threads are in use.
GAS LISTING d:/software/ovi_2503a_s3trc/ovi_2503a_s3trc/plutommi/Customer/ResGenerator/gcctmp/cci0baaa.s 			page 57


 375:d:/software/ovi_2503a_s3trc/ovi_2503a_s3trc/Tools/MinGW/include/c++/3.3.1/bits/stl_alloc.h ****       struct _Lock
 376:d:/software/ovi_2503a_s3trc/ovi_2503a_s3trc/Tools/MinGW/include/c++/3.3.1/bits/stl_alloc.h ****       {
 377:d:/software/ovi_2503a_s3trc/ovi_2503a_s3trc/Tools/MinGW/include/c++/3.3.1/bits/stl_alloc.h ****         _Lock() { if (__threads) _S_node_allocator_lock._M_acquire_lock(); }
 378:d:/software/ovi_2503a_s3trc/ovi_2503a_s3trc/Tools/MinGW/include/c++/3.3.1/bits/stl_alloc.h ****         ~_Lock() { if (__threads) _S_node_allocator_lock._M_release_lock(); }
 379:d:/software/ovi_2503a_s3trc/ovi_2503a_s3trc/Tools/MinGW/include/c++/3.3.1/bits/stl_alloc.h ****       } __attribute__ ((__unused__));
 380:d:/software/ovi_2503a_s3trc/ovi_2503a_s3trc/Tools/MinGW/include/c++/3.3.1/bits/stl_alloc.h ****       friend struct _Lock;
 381:d:/software/ovi_2503a_s3trc/ovi_2503a_s3trc/Tools/MinGW/include/c++/3.3.1/bits/stl_alloc.h **** 
 382:d:/software/ovi_2503a_s3trc/ovi_2503a_s3trc/Tools/MinGW/include/c++/3.3.1/bits/stl_alloc.h ****       static _Atomic_word _S_force_new;
 383:d:/software/ovi_2503a_s3trc/ovi_2503a_s3trc/Tools/MinGW/include/c++/3.3.1/bits/stl_alloc.h **** 
 384:d:/software/ovi_2503a_s3trc/ovi_2503a_s3trc/Tools/MinGW/include/c++/3.3.1/bits/stl_alloc.h ****     public:
 385:d:/software/ovi_2503a_s3trc/ovi_2503a_s3trc/Tools/MinGW/include/c++/3.3.1/bits/stl_alloc.h ****       // __n must be > 0
 386:d:/software/ovi_2503a_s3trc/ovi_2503a_s3trc/Tools/MinGW/include/c++/3.3.1/bits/stl_alloc.h ****       static void*
 387:d:/software/ovi_2503a_s3trc/ovi_2503a_s3trc/Tools/MinGW/include/c++/3.3.1/bits/stl_alloc.h ****       allocate(size_t __n)
 388:d:/software/ovi_2503a_s3trc/ovi_2503a_s3trc/Tools/MinGW/include/c++/3.3.1/bits/stl_alloc.h ****       {
 389:d:/software/ovi_2503a_s3trc/ovi_2503a_s3trc/Tools/MinGW/include/c++/3.3.1/bits/stl_alloc.h **** 	void* __ret = 0;
 390:d:/software/ovi_2503a_s3trc/ovi_2503a_s3trc/Tools/MinGW/include/c++/3.3.1/bits/stl_alloc.h **** 
 391:d:/software/ovi_2503a_s3trc/ovi_2503a_s3trc/Tools/MinGW/include/c++/3.3.1/bits/stl_alloc.h **** 	// If there is a race through here, assume answer from getenv
 392:d:/software/ovi_2503a_s3trc/ovi_2503a_s3trc/Tools/MinGW/include/c++/3.3.1/bits/stl_alloc.h **** 	// will resolve in same direction.  Inspired by techniques
 393:d:/software/ovi_2503a_s3trc/ovi_2503a_s3trc/Tools/MinGW/include/c++/3.3.1/bits/stl_alloc.h **** 	// to efficiently support threading found in basic_string.h.
 394:d:/software/ovi_2503a_s3trc/ovi_2503a_s3trc/Tools/MinGW/include/c++/3.3.1/bits/stl_alloc.h **** 	if (_S_force_new == 0)
 395:d:/software/ovi_2503a_s3trc/ovi_2503a_s3trc/Tools/MinGW/include/c++/3.3.1/bits/stl_alloc.h **** 	  {
 396:d:/software/ovi_2503a_s3trc/ovi_2503a_s3trc/Tools/MinGW/include/c++/3.3.1/bits/stl_alloc.h **** 	    if (getenv("GLIBCPP_FORCE_NEW"))
 397:d:/software/ovi_2503a_s3trc/ovi_2503a_s3trc/Tools/MinGW/include/c++/3.3.1/bits/stl_alloc.h **** 	      __atomic_add(&_S_force_new, 1);
 398:d:/software/ovi_2503a_s3trc/ovi_2503a_s3trc/Tools/MinGW/include/c++/3.3.1/bits/stl_alloc.h **** 	    else
 399:d:/software/ovi_2503a_s3trc/ovi_2503a_s3trc/Tools/MinGW/include/c++/3.3.1/bits/stl_alloc.h **** 	      __atomic_add(&_S_force_new, -1);
 400:d:/software/ovi_2503a_s3trc/ovi_2503a_s3trc/Tools/MinGW/include/c++/3.3.1/bits/stl_alloc.h **** 	  }
 401:d:/software/ovi_2503a_s3trc/ovi_2503a_s3trc/Tools/MinGW/include/c++/3.3.1/bits/stl_alloc.h **** 
 402:d:/software/ovi_2503a_s3trc/ovi_2503a_s3trc/Tools/MinGW/include/c++/3.3.1/bits/stl_alloc.h **** 	if ((__n > (size_t) _MAX_BYTES) || (_S_force_new > 0))
 403:d:/software/ovi_2503a_s3trc/ovi_2503a_s3trc/Tools/MinGW/include/c++/3.3.1/bits/stl_alloc.h **** 	  __ret = __new_alloc::allocate(__n);
 404:d:/software/ovi_2503a_s3trc/ovi_2503a_s3trc/Tools/MinGW/include/c++/3.3.1/bits/stl_alloc.h **** 	else
 405:d:/software/ovi_2503a_s3trc/ovi_2503a_s3trc/Tools/MinGW/include/c++/3.3.1/bits/stl_alloc.h **** 	  {
 406:d:/software/ovi_2503a_s3trc/ovi_2503a_s3trc/Tools/MinGW/include/c++/3.3.1/bits/stl_alloc.h **** 	    _Obj* volatile* __my_free_list = _S_free_list
 407:d:/software/ovi_2503a_s3trc/ovi_2503a_s3trc/Tools/MinGW/include/c++/3.3.1/bits/stl_alloc.h **** 	      + _S_freelist_index(__n);
 408:d:/software/ovi_2503a_s3trc/ovi_2503a_s3trc/Tools/MinGW/include/c++/3.3.1/bits/stl_alloc.h **** 	    // Acquire the lock here with a constructor call.  This
 409:d:/software/ovi_2503a_s3trc/ovi_2503a_s3trc/Tools/MinGW/include/c++/3.3.1/bits/stl_alloc.h **** 	    // ensures that it is released in exit or during stack
 410:d:/software/ovi_2503a_s3trc/ovi_2503a_s3trc/Tools/MinGW/include/c++/3.3.1/bits/stl_alloc.h **** 	    // unwinding.
 411:d:/software/ovi_2503a_s3trc/ovi_2503a_s3trc/Tools/MinGW/include/c++/3.3.1/bits/stl_alloc.h **** 	    _Lock __lock_instance;
 412:d:/software/ovi_2503a_s3trc/ovi_2503a_s3trc/Tools/MinGW/include/c++/3.3.1/bits/stl_alloc.h **** 	    _Obj* __restrict__ __result = *__my_free_list;
 413:d:/software/ovi_2503a_s3trc/ovi_2503a_s3trc/Tools/MinGW/include/c++/3.3.1/bits/stl_alloc.h **** 	    if (__builtin_expect(__result == 0, 0))
 414:d:/software/ovi_2503a_s3trc/ovi_2503a_s3trc/Tools/MinGW/include/c++/3.3.1/bits/stl_alloc.h **** 	      __ret = _S_refill(_S_round_up(__n));
 415:d:/software/ovi_2503a_s3trc/ovi_2503a_s3trc/Tools/MinGW/include/c++/3.3.1/bits/stl_alloc.h **** 	    else
 416:d:/software/ovi_2503a_s3trc/ovi_2503a_s3trc/Tools/MinGW/include/c++/3.3.1/bits/stl_alloc.h **** 	      {
 417:d:/software/ovi_2503a_s3trc/ovi_2503a_s3trc/Tools/MinGW/include/c++/3.3.1/bits/stl_alloc.h **** 		*__my_free_list = __result -> _M_free_list_link;
 418:d:/software/ovi_2503a_s3trc/ovi_2503a_s3trc/Tools/MinGW/include/c++/3.3.1/bits/stl_alloc.h **** 		__ret = __result;
 419:d:/software/ovi_2503a_s3trc/ovi_2503a_s3trc/Tools/MinGW/include/c++/3.3.1/bits/stl_alloc.h **** 	      }	    
 420:d:/software/ovi_2503a_s3trc/ovi_2503a_s3trc/Tools/MinGW/include/c++/3.3.1/bits/stl_alloc.h **** 	    if (__builtin_expect(__ret == 0, 0))
 421:d:/software/ovi_2503a_s3trc/ovi_2503a_s3trc/Tools/MinGW/include/c++/3.3.1/bits/stl_alloc.h **** 	      __throw_bad_alloc();
 422:d:/software/ovi_2503a_s3trc/ovi_2503a_s3trc/Tools/MinGW/include/c++/3.3.1/bits/stl_alloc.h **** 	  }
 423:d:/software/ovi_2503a_s3trc/ovi_2503a_s3trc/Tools/MinGW/include/c++/3.3.1/bits/stl_alloc.h **** 	return __ret;
 424:d:/software/ovi_2503a_s3trc/ovi_2503a_s3trc/Tools/MinGW/include/c++/3.3.1/bits/stl_alloc.h ****       }
 425:d:/software/ovi_2503a_s3trc/ovi_2503a_s3trc/Tools/MinGW/include/c++/3.3.1/bits/stl_alloc.h **** 
 426:d:/software/ovi_2503a_s3trc/ovi_2503a_s3trc/Tools/MinGW/include/c++/3.3.1/bits/stl_alloc.h ****       // __p may not be 0
 427:d:/software/ovi_2503a_s3trc/ovi_2503a_s3trc/Tools/MinGW/include/c++/3.3.1/bits/stl_alloc.h ****       static void
 428:d:/software/ovi_2503a_s3trc/ovi_2503a_s3trc/Tools/MinGW/include/c++/3.3.1/bits/stl_alloc.h ****       deallocate(void* __p, size_t __n)
 429:d:/software/ovi_2503a_s3trc/ovi_2503a_s3trc/Tools/MinGW/include/c++/3.3.1/bits/stl_alloc.h ****       {
 430:d:/software/ovi_2503a_s3trc/ovi_2503a_s3trc/Tools/MinGW/include/c++/3.3.1/bits/stl_alloc.h **** 	if ((__n > (size_t) _MAX_BYTES) || (_S_force_new > 0))
 431:d:/software/ovi_2503a_s3trc/ovi_2503a_s3trc/Tools/MinGW/include/c++/3.3.1/bits/stl_alloc.h **** 	  __new_alloc::deallocate(__p, __n);
GAS LISTING d:/software/ovi_2503a_s3trc/ovi_2503a_s3trc/plutommi/Customer/ResGenerator/gcctmp/cci0baaa.s 			page 58


 432:d:/software/ovi_2503a_s3trc/ovi_2503a_s3trc/Tools/MinGW/include/c++/3.3.1/bits/stl_alloc.h **** 	else
 433:d:/software/ovi_2503a_s3trc/ovi_2503a_s3trc/Tools/MinGW/include/c++/3.3.1/bits/stl_alloc.h **** 	  {
 434:d:/software/ovi_2503a_s3trc/ovi_2503a_s3trc/Tools/MinGW/include/c++/3.3.1/bits/stl_alloc.h **** 	    _Obj* volatile*  __my_free_list = _S_free_list
 435:d:/software/ovi_2503a_s3trc/ovi_2503a_s3trc/Tools/MinGW/include/c++/3.3.1/bits/stl_alloc.h **** 	      + _S_freelist_index(__n);
 436:d:/software/ovi_2503a_s3trc/ovi_2503a_s3trc/Tools/MinGW/include/c++/3.3.1/bits/stl_alloc.h **** 	    _Obj* __q = (_Obj*)__p;
 437:d:/software/ovi_2503a_s3trc/ovi_2503a_s3trc/Tools/MinGW/include/c++/3.3.1/bits/stl_alloc.h **** 
 438:d:/software/ovi_2503a_s3trc/ovi_2503a_s3trc/Tools/MinGW/include/c++/3.3.1/bits/stl_alloc.h **** 	    // Acquire the lock here with a constructor call.  This
 439:d:/software/ovi_2503a_s3trc/ovi_2503a_s3trc/Tools/MinGW/include/c++/3.3.1/bits/stl_alloc.h **** 	    // ensures that it is released in exit or during stack
 440:d:/software/ovi_2503a_s3trc/ovi_2503a_s3trc/Tools/MinGW/include/c++/3.3.1/bits/stl_alloc.h **** 	    // unwinding.
 441:d:/software/ovi_2503a_s3trc/ovi_2503a_s3trc/Tools/MinGW/include/c++/3.3.1/bits/stl_alloc.h **** 	    _Lock __lock_instance;
 442:d:/software/ovi_2503a_s3trc/ovi_2503a_s3trc/Tools/MinGW/include/c++/3.3.1/bits/stl_alloc.h **** 	    __q -> _M_free_list_link = *__my_free_list;
 443:d:/software/ovi_2503a_s3trc/ovi_2503a_s3trc/Tools/MinGW/include/c++/3.3.1/bits/stl_alloc.h **** 	    *__my_free_list = __q;
 444:d:/software/ovi_2503a_s3trc/ovi_2503a_s3trc/Tools/MinGW/include/c++/3.3.1/bits/stl_alloc.h **** 	  }
 445:d:/software/ovi_2503a_s3trc/ovi_2503a_s3trc/Tools/MinGW/include/c++/3.3.1/bits/stl_alloc.h ****       }
 446:d:/software/ovi_2503a_s3trc/ovi_2503a_s3trc/Tools/MinGW/include/c++/3.3.1/bits/stl_alloc.h **** 
 447:d:/software/ovi_2503a_s3trc/ovi_2503a_s3trc/Tools/MinGW/include/c++/3.3.1/bits/stl_alloc.h ****       static void*
 448:d:/software/ovi_2503a_s3trc/ovi_2503a_s3trc/Tools/MinGW/include/c++/3.3.1/bits/stl_alloc.h ****       reallocate(void* __p, size_t __old_sz, size_t __new_sz);
 449:d:/software/ovi_2503a_s3trc/ovi_2503a_s3trc/Tools/MinGW/include/c++/3.3.1/bits/stl_alloc.h ****     };
 450:d:/software/ovi_2503a_s3trc/ovi_2503a_s3trc/Tools/MinGW/include/c++/3.3.1/bits/stl_alloc.h **** 
 451:d:/software/ovi_2503a_s3trc/ovi_2503a_s3trc/Tools/MinGW/include/c++/3.3.1/bits/stl_alloc.h ****   template<bool __threads, int __inst> _Atomic_word
 452:d:/software/ovi_2503a_s3trc/ovi_2503a_s3trc/Tools/MinGW/include/c++/3.3.1/bits/stl_alloc.h ****   __default_alloc_template<__threads, __inst>::_S_force_new = 0;
 453:d:/software/ovi_2503a_s3trc/ovi_2503a_s3trc/Tools/MinGW/include/c++/3.3.1/bits/stl_alloc.h **** 
 454:d:/software/ovi_2503a_s3trc/ovi_2503a_s3trc/Tools/MinGW/include/c++/3.3.1/bits/stl_alloc.h ****   template<bool __threads, int __inst>
 455:d:/software/ovi_2503a_s3trc/ovi_2503a_s3trc/Tools/MinGW/include/c++/3.3.1/bits/stl_alloc.h ****     inline bool
 456:d:/software/ovi_2503a_s3trc/ovi_2503a_s3trc/Tools/MinGW/include/c++/3.3.1/bits/stl_alloc.h ****     operator==(const __default_alloc_template<__threads,__inst>&,
 457:d:/software/ovi_2503a_s3trc/ovi_2503a_s3trc/Tools/MinGW/include/c++/3.3.1/bits/stl_alloc.h ****                const __default_alloc_template<__threads,__inst>&)
 458:d:/software/ovi_2503a_s3trc/ovi_2503a_s3trc/Tools/MinGW/include/c++/3.3.1/bits/stl_alloc.h ****     { return true; }
 459:d:/software/ovi_2503a_s3trc/ovi_2503a_s3trc/Tools/MinGW/include/c++/3.3.1/bits/stl_alloc.h **** 
 460:d:/software/ovi_2503a_s3trc/ovi_2503a_s3trc/Tools/MinGW/include/c++/3.3.1/bits/stl_alloc.h ****   template<bool __threads, int __inst>
 461:d:/software/ovi_2503a_s3trc/ovi_2503a_s3trc/Tools/MinGW/include/c++/3.3.1/bits/stl_alloc.h ****     inline bool
 462:d:/software/ovi_2503a_s3trc/ovi_2503a_s3trc/Tools/MinGW/include/c++/3.3.1/bits/stl_alloc.h ****     operator!=(const __default_alloc_template<__threads,__inst>&,
 463:d:/software/ovi_2503a_s3trc/ovi_2503a_s3trc/Tools/MinGW/include/c++/3.3.1/bits/stl_alloc.h ****                const __default_alloc_template<__threads,__inst>&)
 464:d:/software/ovi_2503a_s3trc/ovi_2503a_s3trc/Tools/MinGW/include/c++/3.3.1/bits/stl_alloc.h ****     { return false; }
 465:d:/software/ovi_2503a_s3trc/ovi_2503a_s3trc/Tools/MinGW/include/c++/3.3.1/bits/stl_alloc.h **** 
 466:d:/software/ovi_2503a_s3trc/ovi_2503a_s3trc/Tools/MinGW/include/c++/3.3.1/bits/stl_alloc.h **** 
 467:d:/software/ovi_2503a_s3trc/ovi_2503a_s3trc/Tools/MinGW/include/c++/3.3.1/bits/stl_alloc.h ****   // We allocate memory in large chunks in order to avoid fragmenting the
 468:d:/software/ovi_2503a_s3trc/ovi_2503a_s3trc/Tools/MinGW/include/c++/3.3.1/bits/stl_alloc.h ****   // heap too much.  We assume that __size is properly aligned.  We hold
 469:d:/software/ovi_2503a_s3trc/ovi_2503a_s3trc/Tools/MinGW/include/c++/3.3.1/bits/stl_alloc.h ****   // the allocation lock.
 470:d:/software/ovi_2503a_s3trc/ovi_2503a_s3trc/Tools/MinGW/include/c++/3.3.1/bits/stl_alloc.h ****   template<bool __threads, int __inst>
 471:d:/software/ovi_2503a_s3trc/ovi_2503a_s3trc/Tools/MinGW/include/c++/3.3.1/bits/stl_alloc.h ****     char*
 472:d:/software/ovi_2503a_s3trc/ovi_2503a_s3trc/Tools/MinGW/include/c++/3.3.1/bits/stl_alloc.h ****     __default_alloc_template<__threads, __inst>::
 473:d:/software/ovi_2503a_s3trc/ovi_2503a_s3trc/Tools/MinGW/include/c++/3.3.1/bits/stl_alloc.h ****     _S_chunk_alloc(size_t __size, int& __nobjs)
 474:d:/software/ovi_2503a_s3trc/ovi_2503a_s3trc/Tools/MinGW/include/c++/3.3.1/bits/stl_alloc.h ****     {
 475:d:/software/ovi_2503a_s3trc/ovi_2503a_s3trc/Tools/MinGW/include/c++/3.3.1/bits/stl_alloc.h ****       char* __result;
 476:d:/software/ovi_2503a_s3trc/ovi_2503a_s3trc/Tools/MinGW/include/c++/3.3.1/bits/stl_alloc.h ****       size_t __total_bytes = __size * __nobjs;
 477:d:/software/ovi_2503a_s3trc/ovi_2503a_s3trc/Tools/MinGW/include/c++/3.3.1/bits/stl_alloc.h ****       size_t __bytes_left = _S_end_free - _S_start_free;
 478:d:/software/ovi_2503a_s3trc/ovi_2503a_s3trc/Tools/MinGW/include/c++/3.3.1/bits/stl_alloc.h **** 
 479:d:/software/ovi_2503a_s3trc/ovi_2503a_s3trc/Tools/MinGW/include/c++/3.3.1/bits/stl_alloc.h ****       if (__bytes_left >= __total_bytes)
 480:d:/software/ovi_2503a_s3trc/ovi_2503a_s3trc/Tools/MinGW/include/c++/3.3.1/bits/stl_alloc.h ****         {
 481:d:/software/ovi_2503a_s3trc/ovi_2503a_s3trc/Tools/MinGW/include/c++/3.3.1/bits/stl_alloc.h ****           __result = _S_start_free;
 482:d:/software/ovi_2503a_s3trc/ovi_2503a_s3trc/Tools/MinGW/include/c++/3.3.1/bits/stl_alloc.h ****           _S_start_free += __total_bytes;
 483:d:/software/ovi_2503a_s3trc/ovi_2503a_s3trc/Tools/MinGW/include/c++/3.3.1/bits/stl_alloc.h ****           return __result ;
 484:d:/software/ovi_2503a_s3trc/ovi_2503a_s3trc/Tools/MinGW/include/c++/3.3.1/bits/stl_alloc.h ****         }
 485:d:/software/ovi_2503a_s3trc/ovi_2503a_s3trc/Tools/MinGW/include/c++/3.3.1/bits/stl_alloc.h ****       else if (__bytes_left >= __size)
 486:d:/software/ovi_2503a_s3trc/ovi_2503a_s3trc/Tools/MinGW/include/c++/3.3.1/bits/stl_alloc.h ****         {
 487:d:/software/ovi_2503a_s3trc/ovi_2503a_s3trc/Tools/MinGW/include/c++/3.3.1/bits/stl_alloc.h ****           __nobjs = (int)(__bytes_left/__size);
 488:d:/software/ovi_2503a_s3trc/ovi_2503a_s3trc/Tools/MinGW/include/c++/3.3.1/bits/stl_alloc.h ****           __total_bytes = __size * __nobjs;
GAS LISTING d:/software/ovi_2503a_s3trc/ovi_2503a_s3trc/plutommi/Customer/ResGenerator/gcctmp/cci0baaa.s 			page 59


 489:d:/software/ovi_2503a_s3trc/ovi_2503a_s3trc/Tools/MinGW/include/c++/3.3.1/bits/stl_alloc.h ****           __result = _S_start_free;
 490:d:/software/ovi_2503a_s3trc/ovi_2503a_s3trc/Tools/MinGW/include/c++/3.3.1/bits/stl_alloc.h ****           _S_start_free += __total_bytes;
 491:d:/software/ovi_2503a_s3trc/ovi_2503a_s3trc/Tools/MinGW/include/c++/3.3.1/bits/stl_alloc.h ****           return __result;
 492:d:/software/ovi_2503a_s3trc/ovi_2503a_s3trc/Tools/MinGW/include/c++/3.3.1/bits/stl_alloc.h ****         }
 493:d:/software/ovi_2503a_s3trc/ovi_2503a_s3trc/Tools/MinGW/include/c++/3.3.1/bits/stl_alloc.h ****       else
 494:d:/software/ovi_2503a_s3trc/ovi_2503a_s3trc/Tools/MinGW/include/c++/3.3.1/bits/stl_alloc.h ****         {
 495:d:/software/ovi_2503a_s3trc/ovi_2503a_s3trc/Tools/MinGW/include/c++/3.3.1/bits/stl_alloc.h ****           size_t __bytes_to_get =
 496:d:/software/ovi_2503a_s3trc/ovi_2503a_s3trc/Tools/MinGW/include/c++/3.3.1/bits/stl_alloc.h ****             2 * __total_bytes + _S_round_up(_S_heap_size >> 4);
 497:d:/software/ovi_2503a_s3trc/ovi_2503a_s3trc/Tools/MinGW/include/c++/3.3.1/bits/stl_alloc.h ****           // Try to make use of the left-over piece.
 498:d:/software/ovi_2503a_s3trc/ovi_2503a_s3trc/Tools/MinGW/include/c++/3.3.1/bits/stl_alloc.h ****           if (__bytes_left > 0)
 499:d:/software/ovi_2503a_s3trc/ovi_2503a_s3trc/Tools/MinGW/include/c++/3.3.1/bits/stl_alloc.h ****             {
 500:d:/software/ovi_2503a_s3trc/ovi_2503a_s3trc/Tools/MinGW/include/c++/3.3.1/bits/stl_alloc.h ****               _Obj* volatile* __my_free_list =
 501:d:/software/ovi_2503a_s3trc/ovi_2503a_s3trc/Tools/MinGW/include/c++/3.3.1/bits/stl_alloc.h ****                 _S_free_list + _S_freelist_index(__bytes_left);
 502:d:/software/ovi_2503a_s3trc/ovi_2503a_s3trc/Tools/MinGW/include/c++/3.3.1/bits/stl_alloc.h **** 
 503:d:/software/ovi_2503a_s3trc/ovi_2503a_s3trc/Tools/MinGW/include/c++/3.3.1/bits/stl_alloc.h ****               ((_Obj*)(void*)_S_start_free) -> _M_free_list_link = *__my_free_list;
 504:d:/software/ovi_2503a_s3trc/ovi_2503a_s3trc/Tools/MinGW/include/c++/3.3.1/bits/stl_alloc.h ****               *__my_free_list = (_Obj*)(void*)_S_start_free;
 505:d:/software/ovi_2503a_s3trc/ovi_2503a_s3trc/Tools/MinGW/include/c++/3.3.1/bits/stl_alloc.h ****             }
 506:d:/software/ovi_2503a_s3trc/ovi_2503a_s3trc/Tools/MinGW/include/c++/3.3.1/bits/stl_alloc.h ****           _S_start_free = (char*) __new_alloc::allocate(__bytes_to_get);
 507:d:/software/ovi_2503a_s3trc/ovi_2503a_s3trc/Tools/MinGW/include/c++/3.3.1/bits/stl_alloc.h ****           if (_S_start_free == 0)
 508:d:/software/ovi_2503a_s3trc/ovi_2503a_s3trc/Tools/MinGW/include/c++/3.3.1/bits/stl_alloc.h ****             {
 509:d:/software/ovi_2503a_s3trc/ovi_2503a_s3trc/Tools/MinGW/include/c++/3.3.1/bits/stl_alloc.h ****               size_t __i;
 510:d:/software/ovi_2503a_s3trc/ovi_2503a_s3trc/Tools/MinGW/include/c++/3.3.1/bits/stl_alloc.h ****               _Obj* volatile* __my_free_list;
 511:d:/software/ovi_2503a_s3trc/ovi_2503a_s3trc/Tools/MinGW/include/c++/3.3.1/bits/stl_alloc.h ****               _Obj* __p;
 512:d:/software/ovi_2503a_s3trc/ovi_2503a_s3trc/Tools/MinGW/include/c++/3.3.1/bits/stl_alloc.h ****               // Try to make do with what we have.  That can't hurt.  We
 513:d:/software/ovi_2503a_s3trc/ovi_2503a_s3trc/Tools/MinGW/include/c++/3.3.1/bits/stl_alloc.h ****               // do not try smaller requests, since that tends to result
 514:d:/software/ovi_2503a_s3trc/ovi_2503a_s3trc/Tools/MinGW/include/c++/3.3.1/bits/stl_alloc.h ****               // in disaster on multi-process machines.
 515:d:/software/ovi_2503a_s3trc/ovi_2503a_s3trc/Tools/MinGW/include/c++/3.3.1/bits/stl_alloc.h ****               __i = __size;
 516:d:/software/ovi_2503a_s3trc/ovi_2503a_s3trc/Tools/MinGW/include/c++/3.3.1/bits/stl_alloc.h ****               for (; __i <= (size_t) _MAX_BYTES; __i += (size_t) _ALIGN)
 517:d:/software/ovi_2503a_s3trc/ovi_2503a_s3trc/Tools/MinGW/include/c++/3.3.1/bits/stl_alloc.h ****                 {
 518:d:/software/ovi_2503a_s3trc/ovi_2503a_s3trc/Tools/MinGW/include/c++/3.3.1/bits/stl_alloc.h ****                   __my_free_list = _S_free_list + _S_freelist_index(__i);
 519:d:/software/ovi_2503a_s3trc/ovi_2503a_s3trc/Tools/MinGW/include/c++/3.3.1/bits/stl_alloc.h ****                   __p = *__my_free_list;
 520:d:/software/ovi_2503a_s3trc/ovi_2503a_s3trc/Tools/MinGW/include/c++/3.3.1/bits/stl_alloc.h ****                   if (__p != 0)
 521:d:/software/ovi_2503a_s3trc/ovi_2503a_s3trc/Tools/MinGW/include/c++/3.3.1/bits/stl_alloc.h ****                     {
 522:d:/software/ovi_2503a_s3trc/ovi_2503a_s3trc/Tools/MinGW/include/c++/3.3.1/bits/stl_alloc.h ****                       *__my_free_list = __p -> _M_free_list_link;
 523:d:/software/ovi_2503a_s3trc/ovi_2503a_s3trc/Tools/MinGW/include/c++/3.3.1/bits/stl_alloc.h ****                       _S_start_free = (char*)__p;
 524:d:/software/ovi_2503a_s3trc/ovi_2503a_s3trc/Tools/MinGW/include/c++/3.3.1/bits/stl_alloc.h ****                       _S_end_free = _S_start_free + __i;
 525:d:/software/ovi_2503a_s3trc/ovi_2503a_s3trc/Tools/MinGW/include/c++/3.3.1/bits/stl_alloc.h ****                       return _S_chunk_alloc(__size, __nobjs);
 526:d:/software/ovi_2503a_s3trc/ovi_2503a_s3trc/Tools/MinGW/include/c++/3.3.1/bits/stl_alloc.h ****                       // Any leftover piece will eventually make it to the
 527:d:/software/ovi_2503a_s3trc/ovi_2503a_s3trc/Tools/MinGW/include/c++/3.3.1/bits/stl_alloc.h ****                       // right free list.
 528:d:/software/ovi_2503a_s3trc/ovi_2503a_s3trc/Tools/MinGW/include/c++/3.3.1/bits/stl_alloc.h ****                     }
 529:d:/software/ovi_2503a_s3trc/ovi_2503a_s3trc/Tools/MinGW/include/c++/3.3.1/bits/stl_alloc.h ****                 }
 530:d:/software/ovi_2503a_s3trc/ovi_2503a_s3trc/Tools/MinGW/include/c++/3.3.1/bits/stl_alloc.h ****               _S_end_free = 0;        // In case of exception.
 531:d:/software/ovi_2503a_s3trc/ovi_2503a_s3trc/Tools/MinGW/include/c++/3.3.1/bits/stl_alloc.h ****               _S_start_free = (char*)__new_alloc::allocate(__bytes_to_get);
 532:d:/software/ovi_2503a_s3trc/ovi_2503a_s3trc/Tools/MinGW/include/c++/3.3.1/bits/stl_alloc.h ****               // This should either throw an exception or remedy the situation.
 533:d:/software/ovi_2503a_s3trc/ovi_2503a_s3trc/Tools/MinGW/include/c++/3.3.1/bits/stl_alloc.h ****               // Thus we assume it succeeded.
 534:d:/software/ovi_2503a_s3trc/ovi_2503a_s3trc/Tools/MinGW/include/c++/3.3.1/bits/stl_alloc.h ****             }
 535:d:/software/ovi_2503a_s3trc/ovi_2503a_s3trc/Tools/MinGW/include/c++/3.3.1/bits/stl_alloc.h ****           _S_heap_size += __bytes_to_get;
 536:d:/software/ovi_2503a_s3trc/ovi_2503a_s3trc/Tools/MinGW/include/c++/3.3.1/bits/stl_alloc.h ****           _S_end_free = _S_start_free + __bytes_to_get;
 537:d:/software/ovi_2503a_s3trc/ovi_2503a_s3trc/Tools/MinGW/include/c++/3.3.1/bits/stl_alloc.h ****           return _S_chunk_alloc(__size, __nobjs);
 538:d:/software/ovi_2503a_s3trc/ovi_2503a_s3trc/Tools/MinGW/include/c++/3.3.1/bits/stl_alloc.h ****         }
 539:d:/software/ovi_2503a_s3trc/ovi_2503a_s3trc/Tools/MinGW/include/c++/3.3.1/bits/stl_alloc.h ****     }
 540:d:/software/ovi_2503a_s3trc/ovi_2503a_s3trc/Tools/MinGW/include/c++/3.3.1/bits/stl_alloc.h **** 
 541:d:/software/ovi_2503a_s3trc/ovi_2503a_s3trc/Tools/MinGW/include/c++/3.3.1/bits/stl_alloc.h **** 
 542:d:/software/ovi_2503a_s3trc/ovi_2503a_s3trc/Tools/MinGW/include/c++/3.3.1/bits/stl_alloc.h ****   // Returns an object of size __n, and optionally adds to "size
 543:d:/software/ovi_2503a_s3trc/ovi_2503a_s3trc/Tools/MinGW/include/c++/3.3.1/bits/stl_alloc.h ****   // __n"'s free list.  We assume that __n is properly aligned.  We
 544:d:/software/ovi_2503a_s3trc/ovi_2503a_s3trc/Tools/MinGW/include/c++/3.3.1/bits/stl_alloc.h ****   // hold the allocation lock.
 545:d:/software/ovi_2503a_s3trc/ovi_2503a_s3trc/Tools/MinGW/include/c++/3.3.1/bits/stl_alloc.h ****   template<bool __threads, int __inst>
GAS LISTING d:/software/ovi_2503a_s3trc/ovi_2503a_s3trc/plutommi/Customer/ResGenerator/gcctmp/cci0baaa.s 			page 60


 546:d:/software/ovi_2503a_s3trc/ovi_2503a_s3trc/Tools/MinGW/include/c++/3.3.1/bits/stl_alloc.h ****     void*
 547:d:/software/ovi_2503a_s3trc/ovi_2503a_s3trc/Tools/MinGW/include/c++/3.3.1/bits/stl_alloc.h ****     __default_alloc_template<__threads, __inst>::_S_refill(size_t __n)
 548:d:/software/ovi_2503a_s3trc/ovi_2503a_s3trc/Tools/MinGW/include/c++/3.3.1/bits/stl_alloc.h ****     {
 549:d:/software/ovi_2503a_s3trc/ovi_2503a_s3trc/Tools/MinGW/include/c++/3.3.1/bits/stl_alloc.h ****       int __nobjs = 20;
 550:d:/software/ovi_2503a_s3trc/ovi_2503a_s3trc/Tools/MinGW/include/c++/3.3.1/bits/stl_alloc.h ****       char* __chunk = _S_chunk_alloc(__n, __nobjs);
 551:d:/software/ovi_2503a_s3trc/ovi_2503a_s3trc/Tools/MinGW/include/c++/3.3.1/bits/stl_alloc.h ****       _Obj* volatile* __my_free_list;
 552:d:/software/ovi_2503a_s3trc/ovi_2503a_s3trc/Tools/MinGW/include/c++/3.3.1/bits/stl_alloc.h ****       _Obj* __result;
 553:d:/software/ovi_2503a_s3trc/ovi_2503a_s3trc/Tools/MinGW/include/c++/3.3.1/bits/stl_alloc.h ****       _Obj* __current_obj;
 554:d:/software/ovi_2503a_s3trc/ovi_2503a_s3trc/Tools/MinGW/include/c++/3.3.1/bits/stl_alloc.h ****       _Obj* __next_obj;
 555:d:/software/ovi_2503a_s3trc/ovi_2503a_s3trc/Tools/MinGW/include/c++/3.3.1/bits/stl_alloc.h ****       int __i;
 556:d:/software/ovi_2503a_s3trc/ovi_2503a_s3trc/Tools/MinGW/include/c++/3.3.1/bits/stl_alloc.h **** 
 557:d:/software/ovi_2503a_s3trc/ovi_2503a_s3trc/Tools/MinGW/include/c++/3.3.1/bits/stl_alloc.h ****       if (1 == __nobjs)
 558:d:/software/ovi_2503a_s3trc/ovi_2503a_s3trc/Tools/MinGW/include/c++/3.3.1/bits/stl_alloc.h ****         return __chunk;
 559:d:/software/ovi_2503a_s3trc/ovi_2503a_s3trc/Tools/MinGW/include/c++/3.3.1/bits/stl_alloc.h ****       __my_free_list = _S_free_list + _S_freelist_index(__n);
 560:d:/software/ovi_2503a_s3trc/ovi_2503a_s3trc/Tools/MinGW/include/c++/3.3.1/bits/stl_alloc.h **** 
 561:d:/software/ovi_2503a_s3trc/ovi_2503a_s3trc/Tools/MinGW/include/c++/3.3.1/bits/stl_alloc.h ****       // Build free list in chunk.
 562:d:/software/ovi_2503a_s3trc/ovi_2503a_s3trc/Tools/MinGW/include/c++/3.3.1/bits/stl_alloc.h ****       __result = (_Obj*)(void*)__chunk;
 563:d:/software/ovi_2503a_s3trc/ovi_2503a_s3trc/Tools/MinGW/include/c++/3.3.1/bits/stl_alloc.h ****       *__my_free_list = __next_obj = (_Obj*)(void*)(__chunk + __n);
 564:d:/software/ovi_2503a_s3trc/ovi_2503a_s3trc/Tools/MinGW/include/c++/3.3.1/bits/stl_alloc.h ****       for (__i = 1; ; __i++)
 565:d:/software/ovi_2503a_s3trc/ovi_2503a_s3trc/Tools/MinGW/include/c++/3.3.1/bits/stl_alloc.h ****         {
 566:d:/software/ovi_2503a_s3trc/ovi_2503a_s3trc/Tools/MinGW/include/c++/3.3.1/bits/stl_alloc.h **** 	  __current_obj = __next_obj;
 567:d:/software/ovi_2503a_s3trc/ovi_2503a_s3trc/Tools/MinGW/include/c++/3.3.1/bits/stl_alloc.h ****           __next_obj = (_Obj*)(void*)((char*)__next_obj + __n);
 568:d:/software/ovi_2503a_s3trc/ovi_2503a_s3trc/Tools/MinGW/include/c++/3.3.1/bits/stl_alloc.h **** 	  if (__nobjs - 1 == __i)
 569:d:/software/ovi_2503a_s3trc/ovi_2503a_s3trc/Tools/MinGW/include/c++/3.3.1/bits/stl_alloc.h **** 	    {
 570:d:/software/ovi_2503a_s3trc/ovi_2503a_s3trc/Tools/MinGW/include/c++/3.3.1/bits/stl_alloc.h **** 	      __current_obj -> _M_free_list_link = 0;
 571:d:/software/ovi_2503a_s3trc/ovi_2503a_s3trc/Tools/MinGW/include/c++/3.3.1/bits/stl_alloc.h **** 	      break;
 572:d:/software/ovi_2503a_s3trc/ovi_2503a_s3trc/Tools/MinGW/include/c++/3.3.1/bits/stl_alloc.h **** 	    }
 573:d:/software/ovi_2503a_s3trc/ovi_2503a_s3trc/Tools/MinGW/include/c++/3.3.1/bits/stl_alloc.h **** 	  else
 574:d:/software/ovi_2503a_s3trc/ovi_2503a_s3trc/Tools/MinGW/include/c++/3.3.1/bits/stl_alloc.h **** 	    __current_obj -> _M_free_list_link = __next_obj;
 575:d:/software/ovi_2503a_s3trc/ovi_2503a_s3trc/Tools/MinGW/include/c++/3.3.1/bits/stl_alloc.h **** 	}
 576:d:/software/ovi_2503a_s3trc/ovi_2503a_s3trc/Tools/MinGW/include/c++/3.3.1/bits/stl_alloc.h ****       return __result;
 577:d:/software/ovi_2503a_s3trc/ovi_2503a_s3trc/Tools/MinGW/include/c++/3.3.1/bits/stl_alloc.h ****     }
 578:d:/software/ovi_2503a_s3trc/ovi_2503a_s3trc/Tools/MinGW/include/c++/3.3.1/bits/stl_alloc.h **** 
 579:d:/software/ovi_2503a_s3trc/ovi_2503a_s3trc/Tools/MinGW/include/c++/3.3.1/bits/stl_alloc.h **** 
 580:d:/software/ovi_2503a_s3trc/ovi_2503a_s3trc/Tools/MinGW/include/c++/3.3.1/bits/stl_alloc.h ****   template<bool threads, int inst>
 581:d:/software/ovi_2503a_s3trc/ovi_2503a_s3trc/Tools/MinGW/include/c++/3.3.1/bits/stl_alloc.h ****     void*
 582:d:/software/ovi_2503a_s3trc/ovi_2503a_s3trc/Tools/MinGW/include/c++/3.3.1/bits/stl_alloc.h ****     __default_alloc_template<threads, inst>::
 583:d:/software/ovi_2503a_s3trc/ovi_2503a_s3trc/Tools/MinGW/include/c++/3.3.1/bits/stl_alloc.h ****     reallocate(void* __p, size_t __old_sz, size_t __new_sz)
 584:d:/software/ovi_2503a_s3trc/ovi_2503a_s3trc/Tools/MinGW/include/c++/3.3.1/bits/stl_alloc.h ****     {
 585:d:/software/ovi_2503a_s3trc/ovi_2503a_s3trc/Tools/MinGW/include/c++/3.3.1/bits/stl_alloc.h ****       void* __result;
 586:d:/software/ovi_2503a_s3trc/ovi_2503a_s3trc/Tools/MinGW/include/c++/3.3.1/bits/stl_alloc.h ****       size_t __copy_sz;
 587:d:/software/ovi_2503a_s3trc/ovi_2503a_s3trc/Tools/MinGW/include/c++/3.3.1/bits/stl_alloc.h **** 
 588:d:/software/ovi_2503a_s3trc/ovi_2503a_s3trc/Tools/MinGW/include/c++/3.3.1/bits/stl_alloc.h ****       if (__old_sz > (size_t) _MAX_BYTES && __new_sz > (size_t) _MAX_BYTES)
 589:d:/software/ovi_2503a_s3trc/ovi_2503a_s3trc/Tools/MinGW/include/c++/3.3.1/bits/stl_alloc.h ****         return(realloc(__p, __new_sz));
 590:d:/software/ovi_2503a_s3trc/ovi_2503a_s3trc/Tools/MinGW/include/c++/3.3.1/bits/stl_alloc.h ****       if (_S_round_up(__old_sz) == _S_round_up(__new_sz))
 591:d:/software/ovi_2503a_s3trc/ovi_2503a_s3trc/Tools/MinGW/include/c++/3.3.1/bits/stl_alloc.h ****         return(__p);
 592:d:/software/ovi_2503a_s3trc/ovi_2503a_s3trc/Tools/MinGW/include/c++/3.3.1/bits/stl_alloc.h ****       __result = allocate(__new_sz);
 593:d:/software/ovi_2503a_s3trc/ovi_2503a_s3trc/Tools/MinGW/include/c++/3.3.1/bits/stl_alloc.h ****       __copy_sz = __new_sz > __old_sz? __old_sz : __new_sz;
 594:d:/software/ovi_2503a_s3trc/ovi_2503a_s3trc/Tools/MinGW/include/c++/3.3.1/bits/stl_alloc.h ****       memcpy(__result, __p, __copy_sz);
 595:d:/software/ovi_2503a_s3trc/ovi_2503a_s3trc/Tools/MinGW/include/c++/3.3.1/bits/stl_alloc.h ****       deallocate(__p, __old_sz);
 596:d:/software/ovi_2503a_s3trc/ovi_2503a_s3trc/Tools/MinGW/include/c++/3.3.1/bits/stl_alloc.h ****       return __result;
 597:d:/software/ovi_2503a_s3trc/ovi_2503a_s3trc/Tools/MinGW/include/c++/3.3.1/bits/stl_alloc.h ****     }
 598:d:/software/ovi_2503a_s3trc/ovi_2503a_s3trc/Tools/MinGW/include/c++/3.3.1/bits/stl_alloc.h **** 
 599:d:/software/ovi_2503a_s3trc/ovi_2503a_s3trc/Tools/MinGW/include/c++/3.3.1/bits/stl_alloc.h ****   template<bool __threads, int __inst>
 600:d:/software/ovi_2503a_s3trc/ovi_2503a_s3trc/Tools/MinGW/include/c++/3.3.1/bits/stl_alloc.h ****     _STL_mutex_lock
 601:d:/software/ovi_2503a_s3trc/ovi_2503a_s3trc/Tools/MinGW/include/c++/3.3.1/bits/stl_alloc.h ****     __default_alloc_template<__threads,__inst>::_S_node_allocator_lock
 602:d:/software/ovi_2503a_s3trc/ovi_2503a_s3trc/Tools/MinGW/include/c++/3.3.1/bits/stl_alloc.h ****     __STL_MUTEX_INITIALIZER;
GAS LISTING d:/software/ovi_2503a_s3trc/ovi_2503a_s3trc/plutommi/Customer/ResGenerator/gcctmp/cci0baaa.s 			page 61


 603:d:/software/ovi_2503a_s3trc/ovi_2503a_s3trc/Tools/MinGW/include/c++/3.3.1/bits/stl_alloc.h **** 
 604:d:/software/ovi_2503a_s3trc/ovi_2503a_s3trc/Tools/MinGW/include/c++/3.3.1/bits/stl_alloc.h ****   template<bool __threads, int __inst>
 605:d:/software/ovi_2503a_s3trc/ovi_2503a_s3trc/Tools/MinGW/include/c++/3.3.1/bits/stl_alloc.h ****     char* __default_alloc_template<__threads,__inst>::_S_start_free = 0;
 606:d:/software/ovi_2503a_s3trc/ovi_2503a_s3trc/Tools/MinGW/include/c++/3.3.1/bits/stl_alloc.h **** 
 607:d:/software/ovi_2503a_s3trc/ovi_2503a_s3trc/Tools/MinGW/include/c++/3.3.1/bits/stl_alloc.h ****   template<bool __threads, int __inst>
 608:d:/software/ovi_2503a_s3trc/ovi_2503a_s3trc/Tools/MinGW/include/c++/3.3.1/bits/stl_alloc.h ****     char* __default_alloc_template<__threads,__inst>::_S_end_free = 0;
 609:d:/software/ovi_2503a_s3trc/ovi_2503a_s3trc/Tools/MinGW/include/c++/3.3.1/bits/stl_alloc.h **** 
 610:d:/software/ovi_2503a_s3trc/ovi_2503a_s3trc/Tools/MinGW/include/c++/3.3.1/bits/stl_alloc.h ****   template<bool __threads, int __inst>
 611:d:/software/ovi_2503a_s3trc/ovi_2503a_s3trc/Tools/MinGW/include/c++/3.3.1/bits/stl_alloc.h ****     size_t __default_alloc_template<__threads,__inst>::_S_heap_size = 0;
 612:d:/software/ovi_2503a_s3trc/ovi_2503a_s3trc/Tools/MinGW/include/c++/3.3.1/bits/stl_alloc.h **** 
 613:d:/software/ovi_2503a_s3trc/ovi_2503a_s3trc/Tools/MinGW/include/c++/3.3.1/bits/stl_alloc.h ****   template<bool __threads, int __inst>
 614:d:/software/ovi_2503a_s3trc/ovi_2503a_s3trc/Tools/MinGW/include/c++/3.3.1/bits/stl_alloc.h ****     typename __default_alloc_template<__threads,__inst>::_Obj* volatile
 615:d:/software/ovi_2503a_s3trc/ovi_2503a_s3trc/Tools/MinGW/include/c++/3.3.1/bits/stl_alloc.h ****     __default_alloc_template<__threads,__inst>::_S_free_list[_NFREELISTS];
 616:d:/software/ovi_2503a_s3trc/ovi_2503a_s3trc/Tools/MinGW/include/c++/3.3.1/bits/stl_alloc.h **** 
 617:d:/software/ovi_2503a_s3trc/ovi_2503a_s3trc/Tools/MinGW/include/c++/3.3.1/bits/stl_alloc.h ****   typedef __default_alloc_template<true,0>    __alloc;
 618:d:/software/ovi_2503a_s3trc/ovi_2503a_s3trc/Tools/MinGW/include/c++/3.3.1/bits/stl_alloc.h ****   typedef __default_alloc_template<false,0>   __single_client_alloc;
 619:d:/software/ovi_2503a_s3trc/ovi_2503a_s3trc/Tools/MinGW/include/c++/3.3.1/bits/stl_alloc.h **** 
 620:d:/software/ovi_2503a_s3trc/ovi_2503a_s3trc/Tools/MinGW/include/c++/3.3.1/bits/stl_alloc.h **** 
 621:d:/software/ovi_2503a_s3trc/ovi_2503a_s3trc/Tools/MinGW/include/c++/3.3.1/bits/stl_alloc.h ****   /**
 622:d:/software/ovi_2503a_s3trc/ovi_2503a_s3trc/Tools/MinGW/include/c++/3.3.1/bits/stl_alloc.h ****    *  @brief  The "standard" allocator, as per [20.4].
 623:d:/software/ovi_2503a_s3trc/ovi_2503a_s3trc/Tools/MinGW/include/c++/3.3.1/bits/stl_alloc.h ****    *
 624:d:/software/ovi_2503a_s3trc/ovi_2503a_s3trc/Tools/MinGW/include/c++/3.3.1/bits/stl_alloc.h ****    *  The private _Alloc is "SGI" style.  (See comments at the top
 625:d:/software/ovi_2503a_s3trc/ovi_2503a_s3trc/Tools/MinGW/include/c++/3.3.1/bits/stl_alloc.h ****    *  of stl_alloc.h.)
 626:d:/software/ovi_2503a_s3trc/ovi_2503a_s3trc/Tools/MinGW/include/c++/3.3.1/bits/stl_alloc.h ****    *
 627:d:/software/ovi_2503a_s3trc/ovi_2503a_s3trc/Tools/MinGW/include/c++/3.3.1/bits/stl_alloc.h ****    *  The underlying allocator behaves as follows.
 628:d:/software/ovi_2503a_s3trc/ovi_2503a_s3trc/Tools/MinGW/include/c++/3.3.1/bits/stl_alloc.h ****    *    - __default_alloc_template is used via two typedefs
 629:d:/software/ovi_2503a_s3trc/ovi_2503a_s3trc/Tools/MinGW/include/c++/3.3.1/bits/stl_alloc.h ****    *    - "__single_client_alloc" typedef does no locking for threads
 630:d:/software/ovi_2503a_s3trc/ovi_2503a_s3trc/Tools/MinGW/include/c++/3.3.1/bits/stl_alloc.h ****    *    - "__alloc" typedef is threadsafe via the locks
 631:d:/software/ovi_2503a_s3trc/ovi_2503a_s3trc/Tools/MinGW/include/c++/3.3.1/bits/stl_alloc.h ****    *    - __new_alloc is used for memory requests
 632:d:/software/ovi_2503a_s3trc/ovi_2503a_s3trc/Tools/MinGW/include/c++/3.3.1/bits/stl_alloc.h ****    *
 633:d:/software/ovi_2503a_s3trc/ovi_2503a_s3trc/Tools/MinGW/include/c++/3.3.1/bits/stl_alloc.h ****    *  (See @link Allocators allocators info @endlink for more.)
 634:d:/software/ovi_2503a_s3trc/ovi_2503a_s3trc/Tools/MinGW/include/c++/3.3.1/bits/stl_alloc.h ****    */
 635:d:/software/ovi_2503a_s3trc/ovi_2503a_s3trc/Tools/MinGW/include/c++/3.3.1/bits/stl_alloc.h ****   template<typename _Tp>
 636:d:/software/ovi_2503a_s3trc/ovi_2503a_s3trc/Tools/MinGW/include/c++/3.3.1/bits/stl_alloc.h ****     class allocator
 637:d:/software/ovi_2503a_s3trc/ovi_2503a_s3trc/Tools/MinGW/include/c++/3.3.1/bits/stl_alloc.h ****     {
 638:d:/software/ovi_2503a_s3trc/ovi_2503a_s3trc/Tools/MinGW/include/c++/3.3.1/bits/stl_alloc.h ****       typedef __alloc _Alloc;          // The underlying allocator.
 639:d:/software/ovi_2503a_s3trc/ovi_2503a_s3trc/Tools/MinGW/include/c++/3.3.1/bits/stl_alloc.h ****     public:
 640:d:/software/ovi_2503a_s3trc/ovi_2503a_s3trc/Tools/MinGW/include/c++/3.3.1/bits/stl_alloc.h ****       typedef size_t     size_type;
 641:d:/software/ovi_2503a_s3trc/ovi_2503a_s3trc/Tools/MinGW/include/c++/3.3.1/bits/stl_alloc.h ****       typedef ptrdiff_t  difference_type;
 642:d:/software/ovi_2503a_s3trc/ovi_2503a_s3trc/Tools/MinGW/include/c++/3.3.1/bits/stl_alloc.h ****       typedef _Tp*       pointer;
 643:d:/software/ovi_2503a_s3trc/ovi_2503a_s3trc/Tools/MinGW/include/c++/3.3.1/bits/stl_alloc.h ****       typedef const _Tp* const_pointer;
 644:d:/software/ovi_2503a_s3trc/ovi_2503a_s3trc/Tools/MinGW/include/c++/3.3.1/bits/stl_alloc.h ****       typedef _Tp&       reference;
 645:d:/software/ovi_2503a_s3trc/ovi_2503a_s3trc/Tools/MinGW/include/c++/3.3.1/bits/stl_alloc.h ****       typedef const _Tp& const_reference;
 646:d:/software/ovi_2503a_s3trc/ovi_2503a_s3trc/Tools/MinGW/include/c++/3.3.1/bits/stl_alloc.h ****       typedef _Tp        value_type;
 647:d:/software/ovi_2503a_s3trc/ovi_2503a_s3trc/Tools/MinGW/include/c++/3.3.1/bits/stl_alloc.h **** 
 648:d:/software/ovi_2503a_s3trc/ovi_2503a_s3trc/Tools/MinGW/include/c++/3.3.1/bits/stl_alloc.h ****       template<typename _Tp1>
 649:d:/software/ovi_2503a_s3trc/ovi_2503a_s3trc/Tools/MinGW/include/c++/3.3.1/bits/stl_alloc.h ****         struct rebind
 650:d:/software/ovi_2503a_s3trc/ovi_2503a_s3trc/Tools/MinGW/include/c++/3.3.1/bits/stl_alloc.h ****         { typedef allocator<_Tp1> other; };
 651:d:/software/ovi_2503a_s3trc/ovi_2503a_s3trc/Tools/MinGW/include/c++/3.3.1/bits/stl_alloc.h **** 
 652:d:/software/ovi_2503a_s3trc/ovi_2503a_s3trc/Tools/MinGW/include/c++/3.3.1/bits/stl_alloc.h ****       allocator() throw() {}
 4804              	LM158:
 4805              	L163:
 4806              	L162:
 4807 0000 55       		pushl	%ebp
 4808 0001 89E5     		movl	%esp, %ebp
 4810              	LM159:
 4811 0003 5D       		popl	%ebp
GAS LISTING d:/software/ovi_2503a_s3trc/ovi_2503a_s3trc/plutommi/Customer/ResGenerator/gcctmp/cci0baaa.s 			page 62


 4812 0004 C3       		ret
 4813              	Lscope12:
 4815 0005 909090   		.section	.text$_ZNSaIN10ThreadPool7JobDataEED1Ev,"x"
 4816              		.linkonce discard
 4817              		.align 2
 4820              	.globl __ZNSaIN10ThreadPool7JobDataEED1Ev
 4822              	__ZNSaIN10ThreadPool7JobDataEED1Ev:
 653:d:/software/ovi_2503a_s3trc/ovi_2503a_s3trc/Tools/MinGW/include/c++/3.3.1/bits/stl_alloc.h ****       allocator(const allocator&) throw() {}
 654:d:/software/ovi_2503a_s3trc/ovi_2503a_s3trc/Tools/MinGW/include/c++/3.3.1/bits/stl_alloc.h ****       template<typename _Tp1>
 655:d:/software/ovi_2503a_s3trc/ovi_2503a_s3trc/Tools/MinGW/include/c++/3.3.1/bits/stl_alloc.h ****         allocator(const allocator<_Tp1>&) throw() {}
 656:d:/software/ovi_2503a_s3trc/ovi_2503a_s3trc/Tools/MinGW/include/c++/3.3.1/bits/stl_alloc.h ****       ~allocator() throw() {}
 4824              	LM160:
 4825 0000 55       		pushl	%ebp
 4826 0001 89E5     		movl	%esp, %ebp
 4828              	LM161:
 4829 0003 5D       		popl	%ebp
 4830 0004 C3       		ret
 4831              	L168:
 4832              	L165:
 4833              	Lscope13:
 4835 0005 909090   		.section	.text$_ZNSaIN10ThreadPool10ThreadDataEEC1Ev,"x"
 4836              		.linkonce discard
 4837              		.align 2
 4840              	.globl __ZNSaIN10ThreadPool10ThreadDataEEC1Ev
 4842              	__ZNSaIN10ThreadPool10ThreadDataEEC1Ev:
 4844              	LM162:
 4845              	L171:
 4846              	L170:
 4847 0000 55       		pushl	%ebp
 4848 0001 89E5     		movl	%esp, %ebp
 4850              	LM163:
 4851 0003 5D       		popl	%ebp
 4852 0004 C3       		ret
 4853              	Lscope14:
 4855 0005 909090   		.section	.text$_ZNSaIN10ThreadPool10ThreadDataEED1Ev,"x"
 4856              		.linkonce discard
 4857              		.align 2
 4860              	.globl __ZNSaIN10ThreadPool10ThreadDataEED1Ev
 4862              	__ZNSaIN10ThreadPool10ThreadDataEED1Ev:
 4864              	LM164:
 4865 0000 55       		pushl	%ebp
 4866 0001 89E5     		movl	%esp, %ebp
 4868              	LM165:
 4869 0003 5D       		popl	%ebp
 4870 0004 C3       		ret
 4871              	L176:
 4872              	L173:
 4873              	Lscope15:
 4876 0005 909090   		.section	.text$_ZNSt6vectorIN10ThreadPool10ThreadDataESaIS1_EEC1ERKS2_,"x"
 4877              		.linkonce discard
 4878              		.align 2
 4882              	.globl __ZNSt6vectorIN10ThreadPool10ThreadDataESaIS1_EEC1ERKS2_
 4884              	__ZNSt6vectorIN10ThreadPool10ThreadDataESaIS1_EEC1ERKS2_:
 4886              	Ltext4:
   1:d:/software/ovi_2503a_s3trc/ovi_2503a_s3trc/Tools/MinGW/include/c++/3.3.1/bits/stl_vector.h **** // Vector implementation -*- C++ -*-
   2:d:/software/ovi_2503a_s3trc/ovi_2503a_s3trc/Tools/MinGW/include/c++/3.3.1/bits/stl_vector.h **** 
   3:d:/software/ovi_2503a_s3trc/ovi_2503a_s3trc/Tools/MinGW/include/c++/3.3.1/bits/stl_vector.h **** // Copyright (C) 2001, 2002 Free Software Foundation, Inc.
GAS LISTING d:/software/ovi_2503a_s3trc/ovi_2503a_s3trc/plutommi/Customer/ResGenerator/gcctmp/cci0baaa.s 			page 63


   4:d:/software/ovi_2503a_s3trc/ovi_2503a_s3trc/Tools/MinGW/include/c++/3.3.1/bits/stl_vector.h **** //
   5:d:/software/ovi_2503a_s3trc/ovi_2503a_s3trc/Tools/MinGW/include/c++/3.3.1/bits/stl_vector.h **** // This file is part of the GNU ISO C++ Library.  This library is free
   6:d:/software/ovi_2503a_s3trc/ovi_2503a_s3trc/Tools/MinGW/include/c++/3.3.1/bits/stl_vector.h **** // software; you can redistribute it and/or modify it under the
   7:d:/software/ovi_2503a_s3trc/ovi_2503a_s3trc/Tools/MinGW/include/c++/3.3.1/bits/stl_vector.h **** // terms of the GNU General Public License as published by the
   8:d:/software/ovi_2503a_s3trc/ovi_2503a_s3trc/Tools/MinGW/include/c++/3.3.1/bits/stl_vector.h **** // Free Software Foundation; either version 2, or (at your option)
   9:d:/software/ovi_2503a_s3trc/ovi_2503a_s3trc/Tools/MinGW/include/c++/3.3.1/bits/stl_vector.h **** // any later version.
  10:d:/software/ovi_2503a_s3trc/ovi_2503a_s3trc/Tools/MinGW/include/c++/3.3.1/bits/stl_vector.h **** 
  11:d:/software/ovi_2503a_s3trc/ovi_2503a_s3trc/Tools/MinGW/include/c++/3.3.1/bits/stl_vector.h **** // This library is distributed in the hope that it will be useful,
  12:d:/software/ovi_2503a_s3trc/ovi_2503a_s3trc/Tools/MinGW/include/c++/3.3.1/bits/stl_vector.h **** // but WITHOUT ANY WARRANTY; without even the implied warranty of
  13:d:/software/ovi_2503a_s3trc/ovi_2503a_s3trc/Tools/MinGW/include/c++/3.3.1/bits/stl_vector.h **** // MERCHANTABILITY or FITNESS FOR A PARTICULAR PURPOSE.  See the
  14:d:/software/ovi_2503a_s3trc/ovi_2503a_s3trc/Tools/MinGW/include/c++/3.3.1/bits/stl_vector.h **** // GNU General Public License for more details.
  15:d:/software/ovi_2503a_s3trc/ovi_2503a_s3trc/Tools/MinGW/include/c++/3.3.1/bits/stl_vector.h **** 
  16:d:/software/ovi_2503a_s3trc/ovi_2503a_s3trc/Tools/MinGW/include/c++/3.3.1/bits/stl_vector.h **** // You should have received a copy of the GNU General Public License along
  17:d:/software/ovi_2503a_s3trc/ovi_2503a_s3trc/Tools/MinGW/include/c++/3.3.1/bits/stl_vector.h **** // with this library; see the file COPYING.  If not, write to the Free
  18:d:/software/ovi_2503a_s3trc/ovi_2503a_s3trc/Tools/MinGW/include/c++/3.3.1/bits/stl_vector.h **** // Software Foundation, 59 Temple Place - Suite 330, Boston, MA 02111-1307,
  19:d:/software/ovi_2503a_s3trc/ovi_2503a_s3trc/Tools/MinGW/include/c++/3.3.1/bits/stl_vector.h **** // USA.
  20:d:/software/ovi_2503a_s3trc/ovi_2503a_s3trc/Tools/MinGW/include/c++/3.3.1/bits/stl_vector.h **** 
  21:d:/software/ovi_2503a_s3trc/ovi_2503a_s3trc/Tools/MinGW/include/c++/3.3.1/bits/stl_vector.h **** // As a special exception, you may use this file as part of a free software
  22:d:/software/ovi_2503a_s3trc/ovi_2503a_s3trc/Tools/MinGW/include/c++/3.3.1/bits/stl_vector.h **** // library without restriction.  Specifically, if other files instantiate
  23:d:/software/ovi_2503a_s3trc/ovi_2503a_s3trc/Tools/MinGW/include/c++/3.3.1/bits/stl_vector.h **** // templates or use macros or inline functions from this file, or you compile
  24:d:/software/ovi_2503a_s3trc/ovi_2503a_s3trc/Tools/MinGW/include/c++/3.3.1/bits/stl_vector.h **** // this file and link it with other files to produce an executable, this
  25:d:/software/ovi_2503a_s3trc/ovi_2503a_s3trc/Tools/MinGW/include/c++/3.3.1/bits/stl_vector.h **** // file does not by itself cause the resulting executable to be covered by
  26:d:/software/ovi_2503a_s3trc/ovi_2503a_s3trc/Tools/MinGW/include/c++/3.3.1/bits/stl_vector.h **** // the GNU General Public License.  This exception does not however
  27:d:/software/ovi_2503a_s3trc/ovi_2503a_s3trc/Tools/MinGW/include/c++/3.3.1/bits/stl_vector.h **** // invalidate any other reasons why the executable file might be covered by
  28:d:/software/ovi_2503a_s3trc/ovi_2503a_s3trc/Tools/MinGW/include/c++/3.3.1/bits/stl_vector.h **** // the GNU General Public License.
  29:d:/software/ovi_2503a_s3trc/ovi_2503a_s3trc/Tools/MinGW/include/c++/3.3.1/bits/stl_vector.h **** 
  30:d:/software/ovi_2503a_s3trc/ovi_2503a_s3trc/Tools/MinGW/include/c++/3.3.1/bits/stl_vector.h **** /*
  31:d:/software/ovi_2503a_s3trc/ovi_2503a_s3trc/Tools/MinGW/include/c++/3.3.1/bits/stl_vector.h ****  *
  32:d:/software/ovi_2503a_s3trc/ovi_2503a_s3trc/Tools/MinGW/include/c++/3.3.1/bits/stl_vector.h ****  * Copyright (c) 1994
  33:d:/software/ovi_2503a_s3trc/ovi_2503a_s3trc/Tools/MinGW/include/c++/3.3.1/bits/stl_vector.h ****  * Hewlett-Packard Company
  34:d:/software/ovi_2503a_s3trc/ovi_2503a_s3trc/Tools/MinGW/include/c++/3.3.1/bits/stl_vector.h ****  *
  35:d:/software/ovi_2503a_s3trc/ovi_2503a_s3trc/Tools/MinGW/include/c++/3.3.1/bits/stl_vector.h ****  * Permission to use, copy, modify, distribute and sell this software
  36:d:/software/ovi_2503a_s3trc/ovi_2503a_s3trc/Tools/MinGW/include/c++/3.3.1/bits/stl_vector.h ****  * and its documentation for any purpose is hereby granted without fee,
  37:d:/software/ovi_2503a_s3trc/ovi_2503a_s3trc/Tools/MinGW/include/c++/3.3.1/bits/stl_vector.h ****  * provided that the above copyright notice appear in all copies and
  38:d:/software/ovi_2503a_s3trc/ovi_2503a_s3trc/Tools/MinGW/include/c++/3.3.1/bits/stl_vector.h ****  * that both that copyright notice and this permission notice appear
  39:d:/software/ovi_2503a_s3trc/ovi_2503a_s3trc/Tools/MinGW/include/c++/3.3.1/bits/stl_vector.h ****  * in supporting documentation.  Hewlett-Packard Company makes no
  40:d:/software/ovi_2503a_s3trc/ovi_2503a_s3trc/Tools/MinGW/include/c++/3.3.1/bits/stl_vector.h ****  * representations about the suitability of this software for any
  41:d:/software/ovi_2503a_s3trc/ovi_2503a_s3trc/Tools/MinGW/include/c++/3.3.1/bits/stl_vector.h ****  * purpose.  It is provided "as is" without express or implied warranty.
  42:d:/software/ovi_2503a_s3trc/ovi_2503a_s3trc/Tools/MinGW/include/c++/3.3.1/bits/stl_vector.h ****  *
  43:d:/software/ovi_2503a_s3trc/ovi_2503a_s3trc/Tools/MinGW/include/c++/3.3.1/bits/stl_vector.h ****  *
  44:d:/software/ovi_2503a_s3trc/ovi_2503a_s3trc/Tools/MinGW/include/c++/3.3.1/bits/stl_vector.h ****  * Copyright (c) 1996
  45:d:/software/ovi_2503a_s3trc/ovi_2503a_s3trc/Tools/MinGW/include/c++/3.3.1/bits/stl_vector.h ****  * Silicon Graphics Computer Systems, Inc.
  46:d:/software/ovi_2503a_s3trc/ovi_2503a_s3trc/Tools/MinGW/include/c++/3.3.1/bits/stl_vector.h ****  *
  47:d:/software/ovi_2503a_s3trc/ovi_2503a_s3trc/Tools/MinGW/include/c++/3.3.1/bits/stl_vector.h ****  * Permission to use, copy, modify, distribute and sell this software
  48:d:/software/ovi_2503a_s3trc/ovi_2503a_s3trc/Tools/MinGW/include/c++/3.3.1/bits/stl_vector.h ****  * and its documentation for any purpose is hereby granted without fee,
  49:d:/software/ovi_2503a_s3trc/ovi_2503a_s3trc/Tools/MinGW/include/c++/3.3.1/bits/stl_vector.h ****  * provided that the above copyright notice appear in all copies and
  50:d:/software/ovi_2503a_s3trc/ovi_2503a_s3trc/Tools/MinGW/include/c++/3.3.1/bits/stl_vector.h ****  * that both that copyright notice and this permission notice appear
  51:d:/software/ovi_2503a_s3trc/ovi_2503a_s3trc/Tools/MinGW/include/c++/3.3.1/bits/stl_vector.h ****  * in supporting documentation.  Silicon Graphics makes no
  52:d:/software/ovi_2503a_s3trc/ovi_2503a_s3trc/Tools/MinGW/include/c++/3.3.1/bits/stl_vector.h ****  * representations about the suitability of this  software for any
  53:d:/software/ovi_2503a_s3trc/ovi_2503a_s3trc/Tools/MinGW/include/c++/3.3.1/bits/stl_vector.h ****  * purpose.  It is provided "as is" without express or implied warranty.
  54:d:/software/ovi_2503a_s3trc/ovi_2503a_s3trc/Tools/MinGW/include/c++/3.3.1/bits/stl_vector.h ****  */
  55:d:/software/ovi_2503a_s3trc/ovi_2503a_s3trc/Tools/MinGW/include/c++/3.3.1/bits/stl_vector.h **** 
  56:d:/software/ovi_2503a_s3trc/ovi_2503a_s3trc/Tools/MinGW/include/c++/3.3.1/bits/stl_vector.h **** /** @file stl_vector.h
  57:d:/software/ovi_2503a_s3trc/ovi_2503a_s3trc/Tools/MinGW/include/c++/3.3.1/bits/stl_vector.h ****  *  This is an internal header file, included by other library headers.
  58:d:/software/ovi_2503a_s3trc/ovi_2503a_s3trc/Tools/MinGW/include/c++/3.3.1/bits/stl_vector.h ****  *  You should not attempt to use it directly.
  59:d:/software/ovi_2503a_s3trc/ovi_2503a_s3trc/Tools/MinGW/include/c++/3.3.1/bits/stl_vector.h ****  */
  60:d:/software/ovi_2503a_s3trc/ovi_2503a_s3trc/Tools/MinGW/include/c++/3.3.1/bits/stl_vector.h **** 
GAS LISTING d:/software/ovi_2503a_s3trc/ovi_2503a_s3trc/plutommi/Customer/ResGenerator/gcctmp/cci0baaa.s 			page 64


  61:d:/software/ovi_2503a_s3trc/ovi_2503a_s3trc/Tools/MinGW/include/c++/3.3.1/bits/stl_vector.h **** #ifndef __GLIBCPP_INTERNAL_VECTOR_H
  62:d:/software/ovi_2503a_s3trc/ovi_2503a_s3trc/Tools/MinGW/include/c++/3.3.1/bits/stl_vector.h **** #define __GLIBCPP_INTERNAL_VECTOR_H
  63:d:/software/ovi_2503a_s3trc/ovi_2503a_s3trc/Tools/MinGW/include/c++/3.3.1/bits/stl_vector.h **** 
  64:d:/software/ovi_2503a_s3trc/ovi_2503a_s3trc/Tools/MinGW/include/c++/3.3.1/bits/stl_vector.h **** #include <bits/stl_iterator_base_funcs.h>
  65:d:/software/ovi_2503a_s3trc/ovi_2503a_s3trc/Tools/MinGW/include/c++/3.3.1/bits/stl_vector.h **** #include <bits/functexcept.h>
  66:d:/software/ovi_2503a_s3trc/ovi_2503a_s3trc/Tools/MinGW/include/c++/3.3.1/bits/stl_vector.h **** #include <bits/concept_check.h>
  67:d:/software/ovi_2503a_s3trc/ovi_2503a_s3trc/Tools/MinGW/include/c++/3.3.1/bits/stl_vector.h **** 
  68:d:/software/ovi_2503a_s3trc/ovi_2503a_s3trc/Tools/MinGW/include/c++/3.3.1/bits/stl_vector.h **** namespace std
  69:d:/software/ovi_2503a_s3trc/ovi_2503a_s3trc/Tools/MinGW/include/c++/3.3.1/bits/stl_vector.h **** {
  70:d:/software/ovi_2503a_s3trc/ovi_2503a_s3trc/Tools/MinGW/include/c++/3.3.1/bits/stl_vector.h ****   /// @if maint Primary default version.  @endif
  71:d:/software/ovi_2503a_s3trc/ovi_2503a_s3trc/Tools/MinGW/include/c++/3.3.1/bits/stl_vector.h ****   /**
  72:d:/software/ovi_2503a_s3trc/ovi_2503a_s3trc/Tools/MinGW/include/c++/3.3.1/bits/stl_vector.h ****    *  @if maint
  73:d:/software/ovi_2503a_s3trc/ovi_2503a_s3trc/Tools/MinGW/include/c++/3.3.1/bits/stl_vector.h ****    *  See bits/stl_deque.h's _Deque_alloc_base for an explanation.
  74:d:/software/ovi_2503a_s3trc/ovi_2503a_s3trc/Tools/MinGW/include/c++/3.3.1/bits/stl_vector.h ****    *  @endif
  75:d:/software/ovi_2503a_s3trc/ovi_2503a_s3trc/Tools/MinGW/include/c++/3.3.1/bits/stl_vector.h ****   */
  76:d:/software/ovi_2503a_s3trc/ovi_2503a_s3trc/Tools/MinGW/include/c++/3.3.1/bits/stl_vector.h ****   template<typename _Tp, typename _Allocator, bool _IsStatic>
  77:d:/software/ovi_2503a_s3trc/ovi_2503a_s3trc/Tools/MinGW/include/c++/3.3.1/bits/stl_vector.h ****     class _Vector_alloc_base
  78:d:/software/ovi_2503a_s3trc/ovi_2503a_s3trc/Tools/MinGW/include/c++/3.3.1/bits/stl_vector.h ****     {
  79:d:/software/ovi_2503a_s3trc/ovi_2503a_s3trc/Tools/MinGW/include/c++/3.3.1/bits/stl_vector.h ****     public:
  80:d:/software/ovi_2503a_s3trc/ovi_2503a_s3trc/Tools/MinGW/include/c++/3.3.1/bits/stl_vector.h ****       typedef typename _Alloc_traits<_Tp, _Allocator>::allocator_type
  81:d:/software/ovi_2503a_s3trc/ovi_2503a_s3trc/Tools/MinGW/include/c++/3.3.1/bits/stl_vector.h ****       allocator_type;
  82:d:/software/ovi_2503a_s3trc/ovi_2503a_s3trc/Tools/MinGW/include/c++/3.3.1/bits/stl_vector.h **** 
  83:d:/software/ovi_2503a_s3trc/ovi_2503a_s3trc/Tools/MinGW/include/c++/3.3.1/bits/stl_vector.h ****       allocator_type
  84:d:/software/ovi_2503a_s3trc/ovi_2503a_s3trc/Tools/MinGW/include/c++/3.3.1/bits/stl_vector.h ****       get_allocator() const { return _M_data_allocator; }
  85:d:/software/ovi_2503a_s3trc/ovi_2503a_s3trc/Tools/MinGW/include/c++/3.3.1/bits/stl_vector.h ****   
  86:d:/software/ovi_2503a_s3trc/ovi_2503a_s3trc/Tools/MinGW/include/c++/3.3.1/bits/stl_vector.h ****       _Vector_alloc_base(const allocator_type& __a)
  87:d:/software/ovi_2503a_s3trc/ovi_2503a_s3trc/Tools/MinGW/include/c++/3.3.1/bits/stl_vector.h ****       : _M_data_allocator(__a), _M_start(0), _M_finish(0), _M_end_of_storage(0)
  88:d:/software/ovi_2503a_s3trc/ovi_2503a_s3trc/Tools/MinGW/include/c++/3.3.1/bits/stl_vector.h ****       { }
  89:d:/software/ovi_2503a_s3trc/ovi_2503a_s3trc/Tools/MinGW/include/c++/3.3.1/bits/stl_vector.h ****   
  90:d:/software/ovi_2503a_s3trc/ovi_2503a_s3trc/Tools/MinGW/include/c++/3.3.1/bits/stl_vector.h ****     protected:
  91:d:/software/ovi_2503a_s3trc/ovi_2503a_s3trc/Tools/MinGW/include/c++/3.3.1/bits/stl_vector.h ****       allocator_type _M_data_allocator;
  92:d:/software/ovi_2503a_s3trc/ovi_2503a_s3trc/Tools/MinGW/include/c++/3.3.1/bits/stl_vector.h ****       _Tp*           _M_start;
  93:d:/software/ovi_2503a_s3trc/ovi_2503a_s3trc/Tools/MinGW/include/c++/3.3.1/bits/stl_vector.h ****       _Tp*           _M_finish;
  94:d:/software/ovi_2503a_s3trc/ovi_2503a_s3trc/Tools/MinGW/include/c++/3.3.1/bits/stl_vector.h ****       _Tp*           _M_end_of_storage;
  95:d:/software/ovi_2503a_s3trc/ovi_2503a_s3trc/Tools/MinGW/include/c++/3.3.1/bits/stl_vector.h ****   
  96:d:/software/ovi_2503a_s3trc/ovi_2503a_s3trc/Tools/MinGW/include/c++/3.3.1/bits/stl_vector.h ****       _Tp*
  97:d:/software/ovi_2503a_s3trc/ovi_2503a_s3trc/Tools/MinGW/include/c++/3.3.1/bits/stl_vector.h ****       _M_allocate(size_t __n) { return _M_data_allocator.allocate(__n); }
  98:d:/software/ovi_2503a_s3trc/ovi_2503a_s3trc/Tools/MinGW/include/c++/3.3.1/bits/stl_vector.h ****   
  99:d:/software/ovi_2503a_s3trc/ovi_2503a_s3trc/Tools/MinGW/include/c++/3.3.1/bits/stl_vector.h ****       void
 100:d:/software/ovi_2503a_s3trc/ovi_2503a_s3trc/Tools/MinGW/include/c++/3.3.1/bits/stl_vector.h ****       _M_deallocate(_Tp* __p, size_t __n)
 101:d:/software/ovi_2503a_s3trc/ovi_2503a_s3trc/Tools/MinGW/include/c++/3.3.1/bits/stl_vector.h ****       { if (__p) _M_data_allocator.deallocate(__p, __n); }
 102:d:/software/ovi_2503a_s3trc/ovi_2503a_s3trc/Tools/MinGW/include/c++/3.3.1/bits/stl_vector.h ****     };
 103:d:/software/ovi_2503a_s3trc/ovi_2503a_s3trc/Tools/MinGW/include/c++/3.3.1/bits/stl_vector.h ****   
 104:d:/software/ovi_2503a_s3trc/ovi_2503a_s3trc/Tools/MinGW/include/c++/3.3.1/bits/stl_vector.h ****   /// @if maint Specialization for instanceless allocators.  @endif
 105:d:/software/ovi_2503a_s3trc/ovi_2503a_s3trc/Tools/MinGW/include/c++/3.3.1/bits/stl_vector.h ****   template<typename _Tp, typename _Allocator>
 106:d:/software/ovi_2503a_s3trc/ovi_2503a_s3trc/Tools/MinGW/include/c++/3.3.1/bits/stl_vector.h ****     class _Vector_alloc_base<_Tp, _Allocator, true>
 107:d:/software/ovi_2503a_s3trc/ovi_2503a_s3trc/Tools/MinGW/include/c++/3.3.1/bits/stl_vector.h ****     {
 108:d:/software/ovi_2503a_s3trc/ovi_2503a_s3trc/Tools/MinGW/include/c++/3.3.1/bits/stl_vector.h ****     public:
 109:d:/software/ovi_2503a_s3trc/ovi_2503a_s3trc/Tools/MinGW/include/c++/3.3.1/bits/stl_vector.h ****       typedef typename _Alloc_traits<_Tp, _Allocator>::allocator_type
 110:d:/software/ovi_2503a_s3trc/ovi_2503a_s3trc/Tools/MinGW/include/c++/3.3.1/bits/stl_vector.h ****              allocator_type;
 111:d:/software/ovi_2503a_s3trc/ovi_2503a_s3trc/Tools/MinGW/include/c++/3.3.1/bits/stl_vector.h ****   
 112:d:/software/ovi_2503a_s3trc/ovi_2503a_s3trc/Tools/MinGW/include/c++/3.3.1/bits/stl_vector.h ****       allocator_type
 113:d:/software/ovi_2503a_s3trc/ovi_2503a_s3trc/Tools/MinGW/include/c++/3.3.1/bits/stl_vector.h ****       get_allocator() const { return allocator_type(); }
 114:d:/software/ovi_2503a_s3trc/ovi_2503a_s3trc/Tools/MinGW/include/c++/3.3.1/bits/stl_vector.h ****       
 115:d:/software/ovi_2503a_s3trc/ovi_2503a_s3trc/Tools/MinGW/include/c++/3.3.1/bits/stl_vector.h ****       _Vector_alloc_base(const allocator_type&)
 116:d:/software/ovi_2503a_s3trc/ovi_2503a_s3trc/Tools/MinGW/include/c++/3.3.1/bits/stl_vector.h ****       : _M_start(0), _M_finish(0), _M_end_of_storage(0)
 117:d:/software/ovi_2503a_s3trc/ovi_2503a_s3trc/Tools/MinGW/include/c++/3.3.1/bits/stl_vector.h ****       { }
GAS LISTING d:/software/ovi_2503a_s3trc/ovi_2503a_s3trc/plutommi/Customer/ResGenerator/gcctmp/cci0baaa.s 			page 65


 118:d:/software/ovi_2503a_s3trc/ovi_2503a_s3trc/Tools/MinGW/include/c++/3.3.1/bits/stl_vector.h ****   
 119:d:/software/ovi_2503a_s3trc/ovi_2503a_s3trc/Tools/MinGW/include/c++/3.3.1/bits/stl_vector.h ****     protected:
 120:d:/software/ovi_2503a_s3trc/ovi_2503a_s3trc/Tools/MinGW/include/c++/3.3.1/bits/stl_vector.h ****       _Tp* _M_start;
 121:d:/software/ovi_2503a_s3trc/ovi_2503a_s3trc/Tools/MinGW/include/c++/3.3.1/bits/stl_vector.h ****       _Tp* _M_finish;
 122:d:/software/ovi_2503a_s3trc/ovi_2503a_s3trc/Tools/MinGW/include/c++/3.3.1/bits/stl_vector.h ****       _Tp* _M_end_of_storage;
 123:d:/software/ovi_2503a_s3trc/ovi_2503a_s3trc/Tools/MinGW/include/c++/3.3.1/bits/stl_vector.h ****   
 124:d:/software/ovi_2503a_s3trc/ovi_2503a_s3trc/Tools/MinGW/include/c++/3.3.1/bits/stl_vector.h ****       typedef typename _Alloc_traits<_Tp, _Allocator>::_Alloc_type _Alloc_type;
 125:d:/software/ovi_2503a_s3trc/ovi_2503a_s3trc/Tools/MinGW/include/c++/3.3.1/bits/stl_vector.h ****       
 126:d:/software/ovi_2503a_s3trc/ovi_2503a_s3trc/Tools/MinGW/include/c++/3.3.1/bits/stl_vector.h ****       _Tp*
 127:d:/software/ovi_2503a_s3trc/ovi_2503a_s3trc/Tools/MinGW/include/c++/3.3.1/bits/stl_vector.h ****       _M_allocate(size_t __n) { return _Alloc_type::allocate(__n); }
 128:d:/software/ovi_2503a_s3trc/ovi_2503a_s3trc/Tools/MinGW/include/c++/3.3.1/bits/stl_vector.h ****   
 129:d:/software/ovi_2503a_s3trc/ovi_2503a_s3trc/Tools/MinGW/include/c++/3.3.1/bits/stl_vector.h ****       void
 130:d:/software/ovi_2503a_s3trc/ovi_2503a_s3trc/Tools/MinGW/include/c++/3.3.1/bits/stl_vector.h ****       _M_deallocate(_Tp* __p, size_t __n) { _Alloc_type::deallocate(__p, __n);}
 131:d:/software/ovi_2503a_s3trc/ovi_2503a_s3trc/Tools/MinGW/include/c++/3.3.1/bits/stl_vector.h ****     };
 132:d:/software/ovi_2503a_s3trc/ovi_2503a_s3trc/Tools/MinGW/include/c++/3.3.1/bits/stl_vector.h ****   
 133:d:/software/ovi_2503a_s3trc/ovi_2503a_s3trc/Tools/MinGW/include/c++/3.3.1/bits/stl_vector.h ****   
 134:d:/software/ovi_2503a_s3trc/ovi_2503a_s3trc/Tools/MinGW/include/c++/3.3.1/bits/stl_vector.h ****   /**
 135:d:/software/ovi_2503a_s3trc/ovi_2503a_s3trc/Tools/MinGW/include/c++/3.3.1/bits/stl_vector.h ****    *  @if maint
 136:d:/software/ovi_2503a_s3trc/ovi_2503a_s3trc/Tools/MinGW/include/c++/3.3.1/bits/stl_vector.h ****    *  See bits/stl_deque.h's _Deque_base for an explanation.
 137:d:/software/ovi_2503a_s3trc/ovi_2503a_s3trc/Tools/MinGW/include/c++/3.3.1/bits/stl_vector.h ****    *  @endif
 138:d:/software/ovi_2503a_s3trc/ovi_2503a_s3trc/Tools/MinGW/include/c++/3.3.1/bits/stl_vector.h ****   */
 139:d:/software/ovi_2503a_s3trc/ovi_2503a_s3trc/Tools/MinGW/include/c++/3.3.1/bits/stl_vector.h ****   template<typename _Tp, typename _Alloc>
 140:d:/software/ovi_2503a_s3trc/ovi_2503a_s3trc/Tools/MinGW/include/c++/3.3.1/bits/stl_vector.h ****     struct _Vector_base
 141:d:/software/ovi_2503a_s3trc/ovi_2503a_s3trc/Tools/MinGW/include/c++/3.3.1/bits/stl_vector.h ****     : public _Vector_alloc_base<_Tp, _Alloc,
 142:d:/software/ovi_2503a_s3trc/ovi_2503a_s3trc/Tools/MinGW/include/c++/3.3.1/bits/stl_vector.h ****                                 _Alloc_traits<_Tp, _Alloc>::_S_instanceless>
 143:d:/software/ovi_2503a_s3trc/ovi_2503a_s3trc/Tools/MinGW/include/c++/3.3.1/bits/stl_vector.h ****     {
 144:d:/software/ovi_2503a_s3trc/ovi_2503a_s3trc/Tools/MinGW/include/c++/3.3.1/bits/stl_vector.h ****     public:
 145:d:/software/ovi_2503a_s3trc/ovi_2503a_s3trc/Tools/MinGW/include/c++/3.3.1/bits/stl_vector.h ****       typedef _Vector_alloc_base<_Tp, _Alloc,
 146:d:/software/ovi_2503a_s3trc/ovi_2503a_s3trc/Tools/MinGW/include/c++/3.3.1/bits/stl_vector.h **** 				 _Alloc_traits<_Tp, _Alloc>::_S_instanceless>
 147:d:/software/ovi_2503a_s3trc/ovi_2503a_s3trc/Tools/MinGW/include/c++/3.3.1/bits/stl_vector.h ****          _Base;
 148:d:/software/ovi_2503a_s3trc/ovi_2503a_s3trc/Tools/MinGW/include/c++/3.3.1/bits/stl_vector.h ****       typedef typename _Base::allocator_type allocator_type;
 149:d:/software/ovi_2503a_s3trc/ovi_2503a_s3trc/Tools/MinGW/include/c++/3.3.1/bits/stl_vector.h **** 
 150:d:/software/ovi_2503a_s3trc/ovi_2503a_s3trc/Tools/MinGW/include/c++/3.3.1/bits/stl_vector.h ****       _Vector_base(const allocator_type& __a)
 151:d:/software/ovi_2503a_s3trc/ovi_2503a_s3trc/Tools/MinGW/include/c++/3.3.1/bits/stl_vector.h ****       : _Base(__a) { }
 152:d:/software/ovi_2503a_s3trc/ovi_2503a_s3trc/Tools/MinGW/include/c++/3.3.1/bits/stl_vector.h ****       
 153:d:/software/ovi_2503a_s3trc/ovi_2503a_s3trc/Tools/MinGW/include/c++/3.3.1/bits/stl_vector.h ****       _Vector_base(size_t __n, const allocator_type& __a)
 154:d:/software/ovi_2503a_s3trc/ovi_2503a_s3trc/Tools/MinGW/include/c++/3.3.1/bits/stl_vector.h ****       : _Base(__a)
 155:d:/software/ovi_2503a_s3trc/ovi_2503a_s3trc/Tools/MinGW/include/c++/3.3.1/bits/stl_vector.h ****       {
 156:d:/software/ovi_2503a_s3trc/ovi_2503a_s3trc/Tools/MinGW/include/c++/3.3.1/bits/stl_vector.h **** 	_M_start = _M_allocate(__n);
 157:d:/software/ovi_2503a_s3trc/ovi_2503a_s3trc/Tools/MinGW/include/c++/3.3.1/bits/stl_vector.h **** 	_M_finish = _M_start;
 158:d:/software/ovi_2503a_s3trc/ovi_2503a_s3trc/Tools/MinGW/include/c++/3.3.1/bits/stl_vector.h **** 	_M_end_of_storage = _M_start + __n;
 159:d:/software/ovi_2503a_s3trc/ovi_2503a_s3trc/Tools/MinGW/include/c++/3.3.1/bits/stl_vector.h ****       }
 160:d:/software/ovi_2503a_s3trc/ovi_2503a_s3trc/Tools/MinGW/include/c++/3.3.1/bits/stl_vector.h ****       
 161:d:/software/ovi_2503a_s3trc/ovi_2503a_s3trc/Tools/MinGW/include/c++/3.3.1/bits/stl_vector.h ****       ~_Vector_base() 
 162:d:/software/ovi_2503a_s3trc/ovi_2503a_s3trc/Tools/MinGW/include/c++/3.3.1/bits/stl_vector.h ****       { _M_deallocate(_M_start, _M_end_of_storage - _M_start); }
 163:d:/software/ovi_2503a_s3trc/ovi_2503a_s3trc/Tools/MinGW/include/c++/3.3.1/bits/stl_vector.h ****     };
 164:d:/software/ovi_2503a_s3trc/ovi_2503a_s3trc/Tools/MinGW/include/c++/3.3.1/bits/stl_vector.h ****   
 165:d:/software/ovi_2503a_s3trc/ovi_2503a_s3trc/Tools/MinGW/include/c++/3.3.1/bits/stl_vector.h ****   
 166:d:/software/ovi_2503a_s3trc/ovi_2503a_s3trc/Tools/MinGW/include/c++/3.3.1/bits/stl_vector.h ****   /**
 167:d:/software/ovi_2503a_s3trc/ovi_2503a_s3trc/Tools/MinGW/include/c++/3.3.1/bits/stl_vector.h ****    *  @brief  A standard container which offers fixed time access to individual
 168:d:/software/ovi_2503a_s3trc/ovi_2503a_s3trc/Tools/MinGW/include/c++/3.3.1/bits/stl_vector.h ****    *  elements in any order.
 169:d:/software/ovi_2503a_s3trc/ovi_2503a_s3trc/Tools/MinGW/include/c++/3.3.1/bits/stl_vector.h ****    *
 170:d:/software/ovi_2503a_s3trc/ovi_2503a_s3trc/Tools/MinGW/include/c++/3.3.1/bits/stl_vector.h ****    *  @ingroup Containers
 171:d:/software/ovi_2503a_s3trc/ovi_2503a_s3trc/Tools/MinGW/include/c++/3.3.1/bits/stl_vector.h ****    *  @ingroup Sequences
 172:d:/software/ovi_2503a_s3trc/ovi_2503a_s3trc/Tools/MinGW/include/c++/3.3.1/bits/stl_vector.h ****    *
 173:d:/software/ovi_2503a_s3trc/ovi_2503a_s3trc/Tools/MinGW/include/c++/3.3.1/bits/stl_vector.h ****    *  Meets the requirements of a <a href="tables.html#65">container</a>, a
 174:d:/software/ovi_2503a_s3trc/ovi_2503a_s3trc/Tools/MinGW/include/c++/3.3.1/bits/stl_vector.h ****    *  <a href="tables.html#66">reversible container</a>, and a
GAS LISTING d:/software/ovi_2503a_s3trc/ovi_2503a_s3trc/plutommi/Customer/ResGenerator/gcctmp/cci0baaa.s 			page 66


 175:d:/software/ovi_2503a_s3trc/ovi_2503a_s3trc/Tools/MinGW/include/c++/3.3.1/bits/stl_vector.h ****    *  <a href="tables.html#67">sequence</a>, including the
 176:d:/software/ovi_2503a_s3trc/ovi_2503a_s3trc/Tools/MinGW/include/c++/3.3.1/bits/stl_vector.h ****    *  <a href="tables.html#68">optional sequence requirements</a> with the
 177:d:/software/ovi_2503a_s3trc/ovi_2503a_s3trc/Tools/MinGW/include/c++/3.3.1/bits/stl_vector.h ****    *  %exception of @c push_front and @c pop_front.
 178:d:/software/ovi_2503a_s3trc/ovi_2503a_s3trc/Tools/MinGW/include/c++/3.3.1/bits/stl_vector.h ****    *
 179:d:/software/ovi_2503a_s3trc/ovi_2503a_s3trc/Tools/MinGW/include/c++/3.3.1/bits/stl_vector.h ****    *  In some terminology a %vector can be described as a dynamic C-style array,
 180:d:/software/ovi_2503a_s3trc/ovi_2503a_s3trc/Tools/MinGW/include/c++/3.3.1/bits/stl_vector.h ****    *  it offers fast and efficient access to individual elements in any order
 181:d:/software/ovi_2503a_s3trc/ovi_2503a_s3trc/Tools/MinGW/include/c++/3.3.1/bits/stl_vector.h ****    *  and saves the user from worrying about memory and size allocation.
 182:d:/software/ovi_2503a_s3trc/ovi_2503a_s3trc/Tools/MinGW/include/c++/3.3.1/bits/stl_vector.h ****    *  Subscripting ( @c [] ) access is also provided as with C-style arrays.
 183:d:/software/ovi_2503a_s3trc/ovi_2503a_s3trc/Tools/MinGW/include/c++/3.3.1/bits/stl_vector.h ****   */
 184:d:/software/ovi_2503a_s3trc/ovi_2503a_s3trc/Tools/MinGW/include/c++/3.3.1/bits/stl_vector.h ****   template<typename _Tp, typename _Alloc = allocator<_Tp> >
 185:d:/software/ovi_2503a_s3trc/ovi_2503a_s3trc/Tools/MinGW/include/c++/3.3.1/bits/stl_vector.h ****     class vector : protected _Vector_base<_Tp, _Alloc>
 186:d:/software/ovi_2503a_s3trc/ovi_2503a_s3trc/Tools/MinGW/include/c++/3.3.1/bits/stl_vector.h ****     {
 187:d:/software/ovi_2503a_s3trc/ovi_2503a_s3trc/Tools/MinGW/include/c++/3.3.1/bits/stl_vector.h ****       // Concept requirements.
 188:d:/software/ovi_2503a_s3trc/ovi_2503a_s3trc/Tools/MinGW/include/c++/3.3.1/bits/stl_vector.h ****       __glibcpp_class_requires(_Tp, _SGIAssignableConcept)
 189:d:/software/ovi_2503a_s3trc/ovi_2503a_s3trc/Tools/MinGW/include/c++/3.3.1/bits/stl_vector.h ****   
 190:d:/software/ovi_2503a_s3trc/ovi_2503a_s3trc/Tools/MinGW/include/c++/3.3.1/bits/stl_vector.h ****       typedef _Vector_base<_Tp, _Alloc>                     _Base;
 191:d:/software/ovi_2503a_s3trc/ovi_2503a_s3trc/Tools/MinGW/include/c++/3.3.1/bits/stl_vector.h ****       typedef vector<_Tp, _Alloc>                           vector_type;
 192:d:/software/ovi_2503a_s3trc/ovi_2503a_s3trc/Tools/MinGW/include/c++/3.3.1/bits/stl_vector.h ****   
 193:d:/software/ovi_2503a_s3trc/ovi_2503a_s3trc/Tools/MinGW/include/c++/3.3.1/bits/stl_vector.h ****     public:
 194:d:/software/ovi_2503a_s3trc/ovi_2503a_s3trc/Tools/MinGW/include/c++/3.3.1/bits/stl_vector.h ****       typedef _Tp 						value_type;
 195:d:/software/ovi_2503a_s3trc/ovi_2503a_s3trc/Tools/MinGW/include/c++/3.3.1/bits/stl_vector.h ****       typedef value_type* 					pointer;
 196:d:/software/ovi_2503a_s3trc/ovi_2503a_s3trc/Tools/MinGW/include/c++/3.3.1/bits/stl_vector.h ****       typedef const value_type* 				const_pointer;
 197:d:/software/ovi_2503a_s3trc/ovi_2503a_s3trc/Tools/MinGW/include/c++/3.3.1/bits/stl_vector.h ****       typedef __gnu_cxx::__normal_iterator<pointer, vector_type> iterator;
 198:d:/software/ovi_2503a_s3trc/ovi_2503a_s3trc/Tools/MinGW/include/c++/3.3.1/bits/stl_vector.h ****       typedef __gnu_cxx::__normal_iterator<const_pointer, vector_type>
 199:d:/software/ovi_2503a_s3trc/ovi_2503a_s3trc/Tools/MinGW/include/c++/3.3.1/bits/stl_vector.h ****       const_iterator;
 200:d:/software/ovi_2503a_s3trc/ovi_2503a_s3trc/Tools/MinGW/include/c++/3.3.1/bits/stl_vector.h ****       typedef std::reverse_iterator<const_iterator>    	const_reverse_iterator;
 201:d:/software/ovi_2503a_s3trc/ovi_2503a_s3trc/Tools/MinGW/include/c++/3.3.1/bits/stl_vector.h ****       typedef std::reverse_iterator<iterator>                reverse_iterator;
 202:d:/software/ovi_2503a_s3trc/ovi_2503a_s3trc/Tools/MinGW/include/c++/3.3.1/bits/stl_vector.h ****       typedef value_type& 					reference;
 203:d:/software/ovi_2503a_s3trc/ovi_2503a_s3trc/Tools/MinGW/include/c++/3.3.1/bits/stl_vector.h ****       typedef const value_type& 				const_reference;
 204:d:/software/ovi_2503a_s3trc/ovi_2503a_s3trc/Tools/MinGW/include/c++/3.3.1/bits/stl_vector.h ****       typedef size_t 					size_type;
 205:d:/software/ovi_2503a_s3trc/ovi_2503a_s3trc/Tools/MinGW/include/c++/3.3.1/bits/stl_vector.h ****       typedef ptrdiff_t 					difference_type;
 206:d:/software/ovi_2503a_s3trc/ovi_2503a_s3trc/Tools/MinGW/include/c++/3.3.1/bits/stl_vector.h ****       typedef typename _Base::allocator_type                allocator_type;
 207:d:/software/ovi_2503a_s3trc/ovi_2503a_s3trc/Tools/MinGW/include/c++/3.3.1/bits/stl_vector.h ****       
 208:d:/software/ovi_2503a_s3trc/ovi_2503a_s3trc/Tools/MinGW/include/c++/3.3.1/bits/stl_vector.h ****     protected:
 209:d:/software/ovi_2503a_s3trc/ovi_2503a_s3trc/Tools/MinGW/include/c++/3.3.1/bits/stl_vector.h ****       /** @if maint
 210:d:/software/ovi_2503a_s3trc/ovi_2503a_s3trc/Tools/MinGW/include/c++/3.3.1/bits/stl_vector.h ****        *  These two functions and three data members are all from the
 211:d:/software/ovi_2503a_s3trc/ovi_2503a_s3trc/Tools/MinGW/include/c++/3.3.1/bits/stl_vector.h ****        *  top-most base class, which varies depending on the type of
 212:d:/software/ovi_2503a_s3trc/ovi_2503a_s3trc/Tools/MinGW/include/c++/3.3.1/bits/stl_vector.h ****        *  %allocator.  They should be pretty self-explanatory, as
 213:d:/software/ovi_2503a_s3trc/ovi_2503a_s3trc/Tools/MinGW/include/c++/3.3.1/bits/stl_vector.h ****        *  %vector uses a simple contiguous allocation scheme.  @endif
 214:d:/software/ovi_2503a_s3trc/ovi_2503a_s3trc/Tools/MinGW/include/c++/3.3.1/bits/stl_vector.h ****        */
 215:d:/software/ovi_2503a_s3trc/ovi_2503a_s3trc/Tools/MinGW/include/c++/3.3.1/bits/stl_vector.h ****       using _Base::_M_allocate;
 216:d:/software/ovi_2503a_s3trc/ovi_2503a_s3trc/Tools/MinGW/include/c++/3.3.1/bits/stl_vector.h ****       using _Base::_M_deallocate;
 217:d:/software/ovi_2503a_s3trc/ovi_2503a_s3trc/Tools/MinGW/include/c++/3.3.1/bits/stl_vector.h ****       using _Base::_M_start;
 218:d:/software/ovi_2503a_s3trc/ovi_2503a_s3trc/Tools/MinGW/include/c++/3.3.1/bits/stl_vector.h ****       using _Base::_M_finish;
 219:d:/software/ovi_2503a_s3trc/ovi_2503a_s3trc/Tools/MinGW/include/c++/3.3.1/bits/stl_vector.h ****       using _Base::_M_end_of_storage;
 220:d:/software/ovi_2503a_s3trc/ovi_2503a_s3trc/Tools/MinGW/include/c++/3.3.1/bits/stl_vector.h ****       
 221:d:/software/ovi_2503a_s3trc/ovi_2503a_s3trc/Tools/MinGW/include/c++/3.3.1/bits/stl_vector.h ****     public:
 222:d:/software/ovi_2503a_s3trc/ovi_2503a_s3trc/Tools/MinGW/include/c++/3.3.1/bits/stl_vector.h ****       // [23.2.4.1] construct/copy/destroy
 223:d:/software/ovi_2503a_s3trc/ovi_2503a_s3trc/Tools/MinGW/include/c++/3.3.1/bits/stl_vector.h ****       // (assign() and get_allocator() are also listed in this section)
 224:d:/software/ovi_2503a_s3trc/ovi_2503a_s3trc/Tools/MinGW/include/c++/3.3.1/bits/stl_vector.h ****       /**
 225:d:/software/ovi_2503a_s3trc/ovi_2503a_s3trc/Tools/MinGW/include/c++/3.3.1/bits/stl_vector.h ****        *  @brief  Default constructor creates no elements.
 226:d:/software/ovi_2503a_s3trc/ovi_2503a_s3trc/Tools/MinGW/include/c++/3.3.1/bits/stl_vector.h ****        */
 227:d:/software/ovi_2503a_s3trc/ovi_2503a_s3trc/Tools/MinGW/include/c++/3.3.1/bits/stl_vector.h ****       explicit
 228:d:/software/ovi_2503a_s3trc/ovi_2503a_s3trc/Tools/MinGW/include/c++/3.3.1/bits/stl_vector.h ****       vector(const allocator_type& __a = allocator_type())
 229:d:/software/ovi_2503a_s3trc/ovi_2503a_s3trc/Tools/MinGW/include/c++/3.3.1/bits/stl_vector.h ****       : _Base(__a) { }
 4888              	LM166:
 4889 0000 55       		pushl	%ebp
GAS LISTING d:/software/ovi_2503a_s3trc/ovi_2503a_s3trc/plutommi/Customer/ResGenerator/gcctmp/cci0baaa.s 			page 67


 4890 0001 89E5     		movl	%esp, %ebp
 4891 0003 83EC08   		subl	$8, %esp
 4893              	LM167:
 4894              	LBB33:
 4895 0006 8B450C   		movl	12(%ebp), %eax
 4896 0009 89442404 		movl	%eax, 4(%esp)
 4897 000d 8B4508   		movl	8(%ebp), %eax
 4898 0010 890424   		movl	%eax, (%esp)
 4899 0013 E8000000 		call	__ZNSt12_Vector_baseIN10ThreadPool10ThreadDataESaIS1_EEC2ERKS2_
 4899      00
 4900 0018 C9       		leave
 4901 0019 C3       		ret
 4902              	L179:
 4903              	L178:
 4904              	LBE33:
 4905              	Lscope16:
 4907 001a 9090     		.section	.text$_ZNSt6vectorIN10ThreadPool10ThreadDataESaIS1_EED1Ev,"x"
 4908              		.linkonce discard
 4909              		.align 2
 4912              	.globl __ZNSt6vectorIN10ThreadPool10ThreadDataESaIS1_EED1Ev
 4914              	__ZNSt6vectorIN10ThreadPool10ThreadDataESaIS1_EED1Ev:
 230:d:/software/ovi_2503a_s3trc/ovi_2503a_s3trc/Tools/MinGW/include/c++/3.3.1/bits/stl_vector.h ****   
 231:d:/software/ovi_2503a_s3trc/ovi_2503a_s3trc/Tools/MinGW/include/c++/3.3.1/bits/stl_vector.h ****       /**
 232:d:/software/ovi_2503a_s3trc/ovi_2503a_s3trc/Tools/MinGW/include/c++/3.3.1/bits/stl_vector.h ****        *  @brief  Create a %vector with copies of an exemplar element.
 233:d:/software/ovi_2503a_s3trc/ovi_2503a_s3trc/Tools/MinGW/include/c++/3.3.1/bits/stl_vector.h ****        *  @param  n  The number of elements to initially create.
 234:d:/software/ovi_2503a_s3trc/ovi_2503a_s3trc/Tools/MinGW/include/c++/3.3.1/bits/stl_vector.h ****        *  @param  value  An element to copy.
 235:d:/software/ovi_2503a_s3trc/ovi_2503a_s3trc/Tools/MinGW/include/c++/3.3.1/bits/stl_vector.h ****        * 
 236:d:/software/ovi_2503a_s3trc/ovi_2503a_s3trc/Tools/MinGW/include/c++/3.3.1/bits/stl_vector.h ****        *  This constructor fills the %vector with @a n copies of @a value.
 237:d:/software/ovi_2503a_s3trc/ovi_2503a_s3trc/Tools/MinGW/include/c++/3.3.1/bits/stl_vector.h ****        */
 238:d:/software/ovi_2503a_s3trc/ovi_2503a_s3trc/Tools/MinGW/include/c++/3.3.1/bits/stl_vector.h ****       vector(size_type __n, const value_type& __value,
 239:d:/software/ovi_2503a_s3trc/ovi_2503a_s3trc/Tools/MinGW/include/c++/3.3.1/bits/stl_vector.h **** 	     const allocator_type& __a = allocator_type())
 240:d:/software/ovi_2503a_s3trc/ovi_2503a_s3trc/Tools/MinGW/include/c++/3.3.1/bits/stl_vector.h ****       : _Base(__n, __a)
 241:d:/software/ovi_2503a_s3trc/ovi_2503a_s3trc/Tools/MinGW/include/c++/3.3.1/bits/stl_vector.h ****       { _M_finish = uninitialized_fill_n(_M_start, __n, __value); }
 242:d:/software/ovi_2503a_s3trc/ovi_2503a_s3trc/Tools/MinGW/include/c++/3.3.1/bits/stl_vector.h ****   
 243:d:/software/ovi_2503a_s3trc/ovi_2503a_s3trc/Tools/MinGW/include/c++/3.3.1/bits/stl_vector.h ****       /**
 244:d:/software/ovi_2503a_s3trc/ovi_2503a_s3trc/Tools/MinGW/include/c++/3.3.1/bits/stl_vector.h ****        *  @brief  Create a %vector with default elements.
 245:d:/software/ovi_2503a_s3trc/ovi_2503a_s3trc/Tools/MinGW/include/c++/3.3.1/bits/stl_vector.h ****        *  @param  n  The number of elements to initially create.
 246:d:/software/ovi_2503a_s3trc/ovi_2503a_s3trc/Tools/MinGW/include/c++/3.3.1/bits/stl_vector.h ****        * 
 247:d:/software/ovi_2503a_s3trc/ovi_2503a_s3trc/Tools/MinGW/include/c++/3.3.1/bits/stl_vector.h ****        *  This constructor fills the %vector with @a n copies of a
 248:d:/software/ovi_2503a_s3trc/ovi_2503a_s3trc/Tools/MinGW/include/c++/3.3.1/bits/stl_vector.h ****        *  default-constructed element.
 249:d:/software/ovi_2503a_s3trc/ovi_2503a_s3trc/Tools/MinGW/include/c++/3.3.1/bits/stl_vector.h ****        */
 250:d:/software/ovi_2503a_s3trc/ovi_2503a_s3trc/Tools/MinGW/include/c++/3.3.1/bits/stl_vector.h ****       explicit
 251:d:/software/ovi_2503a_s3trc/ovi_2503a_s3trc/Tools/MinGW/include/c++/3.3.1/bits/stl_vector.h ****       vector(size_type __n)
 252:d:/software/ovi_2503a_s3trc/ovi_2503a_s3trc/Tools/MinGW/include/c++/3.3.1/bits/stl_vector.h ****       : _Base(__n, allocator_type())
 253:d:/software/ovi_2503a_s3trc/ovi_2503a_s3trc/Tools/MinGW/include/c++/3.3.1/bits/stl_vector.h ****       { _M_finish = uninitialized_fill_n(_M_start, __n, value_type()); }
 254:d:/software/ovi_2503a_s3trc/ovi_2503a_s3trc/Tools/MinGW/include/c++/3.3.1/bits/stl_vector.h ****       
 255:d:/software/ovi_2503a_s3trc/ovi_2503a_s3trc/Tools/MinGW/include/c++/3.3.1/bits/stl_vector.h ****       /**
 256:d:/software/ovi_2503a_s3trc/ovi_2503a_s3trc/Tools/MinGW/include/c++/3.3.1/bits/stl_vector.h ****        *  @brief  %Vector copy constructor.
 257:d:/software/ovi_2503a_s3trc/ovi_2503a_s3trc/Tools/MinGW/include/c++/3.3.1/bits/stl_vector.h ****        *  @param  x  A %vector of identical element and allocator types.
 258:d:/software/ovi_2503a_s3trc/ovi_2503a_s3trc/Tools/MinGW/include/c++/3.3.1/bits/stl_vector.h ****        * 
 259:d:/software/ovi_2503a_s3trc/ovi_2503a_s3trc/Tools/MinGW/include/c++/3.3.1/bits/stl_vector.h ****        *  The newly-created %vector uses a copy of the allocation
 260:d:/software/ovi_2503a_s3trc/ovi_2503a_s3trc/Tools/MinGW/include/c++/3.3.1/bits/stl_vector.h ****        *  object used by @a x.  All the elements of @a x are copied,
 261:d:/software/ovi_2503a_s3trc/ovi_2503a_s3trc/Tools/MinGW/include/c++/3.3.1/bits/stl_vector.h ****        *  but any extra memory in
 262:d:/software/ovi_2503a_s3trc/ovi_2503a_s3trc/Tools/MinGW/include/c++/3.3.1/bits/stl_vector.h ****        *  @a x (for fast expansion) will not be copied.
 263:d:/software/ovi_2503a_s3trc/ovi_2503a_s3trc/Tools/MinGW/include/c++/3.3.1/bits/stl_vector.h ****        */
 264:d:/software/ovi_2503a_s3trc/ovi_2503a_s3trc/Tools/MinGW/include/c++/3.3.1/bits/stl_vector.h ****       vector(const vector& __x)
 265:d:/software/ovi_2503a_s3trc/ovi_2503a_s3trc/Tools/MinGW/include/c++/3.3.1/bits/stl_vector.h ****       : _Base(__x.size(), __x.get_allocator())
GAS LISTING d:/software/ovi_2503a_s3trc/ovi_2503a_s3trc/plutommi/Customer/ResGenerator/gcctmp/cci0baaa.s 			page 68


 266:d:/software/ovi_2503a_s3trc/ovi_2503a_s3trc/Tools/MinGW/include/c++/3.3.1/bits/stl_vector.h ****       { _M_finish = uninitialized_copy(__x.begin(), __x.end(), _M_start); }
 267:d:/software/ovi_2503a_s3trc/ovi_2503a_s3trc/Tools/MinGW/include/c++/3.3.1/bits/stl_vector.h ****   
 268:d:/software/ovi_2503a_s3trc/ovi_2503a_s3trc/Tools/MinGW/include/c++/3.3.1/bits/stl_vector.h ****       /**
 269:d:/software/ovi_2503a_s3trc/ovi_2503a_s3trc/Tools/MinGW/include/c++/3.3.1/bits/stl_vector.h ****        *  @brief  Builds a %vector from a range.
 270:d:/software/ovi_2503a_s3trc/ovi_2503a_s3trc/Tools/MinGW/include/c++/3.3.1/bits/stl_vector.h ****        *  @param  first  An input iterator.
 271:d:/software/ovi_2503a_s3trc/ovi_2503a_s3trc/Tools/MinGW/include/c++/3.3.1/bits/stl_vector.h ****        *  @param  last  An input iterator.
 272:d:/software/ovi_2503a_s3trc/ovi_2503a_s3trc/Tools/MinGW/include/c++/3.3.1/bits/stl_vector.h ****        * 
 273:d:/software/ovi_2503a_s3trc/ovi_2503a_s3trc/Tools/MinGW/include/c++/3.3.1/bits/stl_vector.h ****        *  Create a %vector consisting of copies of the elements from
 274:d:/software/ovi_2503a_s3trc/ovi_2503a_s3trc/Tools/MinGW/include/c++/3.3.1/bits/stl_vector.h ****        *  [first,last).
 275:d:/software/ovi_2503a_s3trc/ovi_2503a_s3trc/Tools/MinGW/include/c++/3.3.1/bits/stl_vector.h ****        *
 276:d:/software/ovi_2503a_s3trc/ovi_2503a_s3trc/Tools/MinGW/include/c++/3.3.1/bits/stl_vector.h ****        *  If the iterators are forward, bidirectional, or random-access, then
 277:d:/software/ovi_2503a_s3trc/ovi_2503a_s3trc/Tools/MinGW/include/c++/3.3.1/bits/stl_vector.h ****        *  this will call the elements' copy constructor N times (where N is
 278:d:/software/ovi_2503a_s3trc/ovi_2503a_s3trc/Tools/MinGW/include/c++/3.3.1/bits/stl_vector.h ****        *  distance(first,last)) and do no memory reallocation.  But if only
 279:d:/software/ovi_2503a_s3trc/ovi_2503a_s3trc/Tools/MinGW/include/c++/3.3.1/bits/stl_vector.h ****        *  input iterators are used, then this will do at most 2N calls to the
 280:d:/software/ovi_2503a_s3trc/ovi_2503a_s3trc/Tools/MinGW/include/c++/3.3.1/bits/stl_vector.h ****        *  copy constructor, and logN memory reallocations.
 281:d:/software/ovi_2503a_s3trc/ovi_2503a_s3trc/Tools/MinGW/include/c++/3.3.1/bits/stl_vector.h ****        */
 282:d:/software/ovi_2503a_s3trc/ovi_2503a_s3trc/Tools/MinGW/include/c++/3.3.1/bits/stl_vector.h ****       template<typename _InputIterator>
 283:d:/software/ovi_2503a_s3trc/ovi_2503a_s3trc/Tools/MinGW/include/c++/3.3.1/bits/stl_vector.h ****         vector(_InputIterator __first, _InputIterator __last,
 284:d:/software/ovi_2503a_s3trc/ovi_2503a_s3trc/Tools/MinGW/include/c++/3.3.1/bits/stl_vector.h **** 	       const allocator_type& __a = allocator_type())
 285:d:/software/ovi_2503a_s3trc/ovi_2503a_s3trc/Tools/MinGW/include/c++/3.3.1/bits/stl_vector.h **** 	: _Base(__a)
 286:d:/software/ovi_2503a_s3trc/ovi_2503a_s3trc/Tools/MinGW/include/c++/3.3.1/bits/stl_vector.h ****         {
 287:d:/software/ovi_2503a_s3trc/ovi_2503a_s3trc/Tools/MinGW/include/c++/3.3.1/bits/stl_vector.h **** 	  // Check whether it's an integral type.  If so, it's not an iterator.
 288:d:/software/ovi_2503a_s3trc/ovi_2503a_s3trc/Tools/MinGW/include/c++/3.3.1/bits/stl_vector.h **** 	  typedef typename _Is_integer<_InputIterator>::_Integral _Integral;
 289:d:/software/ovi_2503a_s3trc/ovi_2503a_s3trc/Tools/MinGW/include/c++/3.3.1/bits/stl_vector.h **** 	  _M_initialize_dispatch(__first, __last, _Integral());
 290:d:/software/ovi_2503a_s3trc/ovi_2503a_s3trc/Tools/MinGW/include/c++/3.3.1/bits/stl_vector.h **** 	}
 291:d:/software/ovi_2503a_s3trc/ovi_2503a_s3trc/Tools/MinGW/include/c++/3.3.1/bits/stl_vector.h ****       
 292:d:/software/ovi_2503a_s3trc/ovi_2503a_s3trc/Tools/MinGW/include/c++/3.3.1/bits/stl_vector.h ****       /**
 293:d:/software/ovi_2503a_s3trc/ovi_2503a_s3trc/Tools/MinGW/include/c++/3.3.1/bits/stl_vector.h ****        *  The dtor only erases the elements, and note that if the elements
 294:d:/software/ovi_2503a_s3trc/ovi_2503a_s3trc/Tools/MinGW/include/c++/3.3.1/bits/stl_vector.h ****        *  themselves are pointers, the pointed-to memory is not touched in any
 295:d:/software/ovi_2503a_s3trc/ovi_2503a_s3trc/Tools/MinGW/include/c++/3.3.1/bits/stl_vector.h ****        *  way.  Managing the pointer is the user's responsibilty.
 296:d:/software/ovi_2503a_s3trc/ovi_2503a_s3trc/Tools/MinGW/include/c++/3.3.1/bits/stl_vector.h ****        */
 297:d:/software/ovi_2503a_s3trc/ovi_2503a_s3trc/Tools/MinGW/include/c++/3.3.1/bits/stl_vector.h ****       ~vector() { _Destroy(_M_start, _M_finish); }
 4916              	LM168:
 4917 0000 55       		pushl	%ebp
 4918 0001 89E5     		movl	%esp, %ebp
 4919 0003 57       		pushl	%edi
 4920 0004 56       		pushl	%esi
 4921 0005 53       		pushl	%ebx
 4922 0006 83EC4C   		subl	$76, %esp
 4923 0009 C745E000 		movl	$___gxx_personality_sj0, -32(%ebp)
 4923      000000
 4924 0010 C745E42C 		movl	$LLSDA721, -28(%ebp)
 4924      000000
 4925 0017 8D45E8   		leal	-24(%ebp), %eax
 4926 001a 8D55F4   		leal	-12(%ebp), %edx
 4927 001d 8910     		movl	%edx, (%eax)
 4928 001f BA550000 		movl	$L188, %edx
 4928      00
 4929 0024 895004   		movl	%edx, 4(%eax)
 4930 0027 896008   		movl	%esp, 8(%eax)
 4931 002a 8D45C8   		leal	-56(%ebp), %eax
 4932 002d 890424   		movl	%eax, (%esp)
 4933 0030 E8000000 		call	__Unwind_SjLj_Register
 4933      00
 4935              	LM169:
 4936              	LBB34:
 4937 0035 8B4508   		movl	8(%ebp), %eax
GAS LISTING d:/software/ovi_2503a_s3trc/ovi_2503a_s3trc/plutommi/Customer/ResGenerator/gcctmp/cci0baaa.s 			page 69


 4938 0038 8B4004   		movl	4(%eax), %eax
 4939 003b 89442404 		movl	%eax, 4(%esp)
 4940 003f 8B4508   		movl	8(%ebp), %eax
 4941 0042 8B00     		movl	(%eax), %eax
 4942 0044 890424   		movl	%eax, (%esp)
 4943 0047 C745CC01 		movl	$1, -52(%ebp)
 4943      000000
 4944 004e E8000000 		call	__ZSt8_DestroyIPN10ThreadPool10ThreadDataEEvT_S3_
 4944      00
 4945 0053 EB39     		jmp	L184
 4946              	L188:
 4947 0055 8D6D0C   		leal	12(%ebp), %ebp
 4948 0058 8B45D0   		movl	-48(%ebp), %eax
 4949 005b 8945C0   		movl	%eax, -64(%ebp)
 4950              	L183:
 4951 005e 8B55C0   		movl	-64(%ebp), %edx
 4952 0061 8955C4   		movl	%edx, -60(%ebp)
 4953 0064 8B4508   		movl	8(%ebp), %eax
 4954 0067 890424   		movl	%eax, (%esp)
 4955 006a C745CC00 		movl	$0, -52(%ebp)
 4955      000000
 4956 0071 E8000000 		call	__ZNSt12_Vector_baseIN10ThreadPool10ThreadDataESaIS1_EED2Ev
 4956      00
 4957 0076 8B45C4   		movl	-60(%ebp), %eax
 4958 0079 8945C0   		movl	%eax, -64(%ebp)
 4959              	L185:
 4960 007c 8B55C0   		movl	-64(%ebp), %edx
 4961 007f 891424   		movl	%edx, (%esp)
 4962 0082 C745CCFF 		movl	$-1, -52(%ebp)
 4962      FFFFFF
 4963 0089 E8000000 		call	__Unwind_SjLj_Resume
 4963      00
 4964              	L184:
 4965 008e 8B4508   		movl	8(%ebp), %eax
 4966 0091 890424   		movl	%eax, (%esp)
 4967 0094 C745CCFF 		movl	$-1, -52(%ebp)
 4967      FFFFFF
 4968 009b E8000000 		call	__ZNSt12_Vector_baseIN10ThreadPool10ThreadDataESaIS1_EED2Ev
 4968      00
 4969              	L181:
 4970 00a0 8D45C8   		leal	-56(%ebp), %eax
 4971 00a3 890424   		movl	%eax, (%esp)
 4972 00a6 E8000000 		call	__Unwind_SjLj_Unregister
 4972      00
 4973 00ab 83C44C   		addl	$76, %esp
 4974 00ae 5B       		popl	%ebx
 4975 00af 5E       		popl	%esi
 4976 00b0 5F       		popl	%edi
 4977 00b1 5D       		popl	%ebp
 4978 00b2 C3       		ret
 4979              	LBE34:
 4980              		.section	.gcc_except_table,""
 4981              	LLSDA721:
 4982 002c FF       		.byte	0xff
 4983 002d FF       		.byte	0xff
 4984 002e 01       		.byte	0x1
 4985 002f 02       		.uleb128 LLSDACSE721-LLSDACSB721
GAS LISTING d:/software/ovi_2503a_s3trc/ovi_2503a_s3trc/plutommi/Customer/ResGenerator/gcctmp/cci0baaa.s 			page 70


 4986              	LLSDACSB721:
 4987 0030 00       		.uleb128 0x0
 4988 0031 00       		.uleb128 0x0
 4989              	LLSDACSE721:
 4990              		.section	.text$_ZNSt6vectorIN10ThreadPool10ThreadDataESaIS1_EED1Ev,"x"
 4991              		.linkonce discard
 4992              	Lscope17:
 4994 00b3 90       		.section	.text$_ZNSt6vectorIN10ThreadPool10ThreadDataESaIS1_EE3endEv,"x"
 4995              		.linkonce discard
 4996              		.align 2
 4999              	.globl __ZNSt6vectorIN10ThreadPool10ThreadDataESaIS1_EE3endEv
 5001              	__ZNSt6vectorIN10ThreadPool10ThreadDataESaIS1_EE3endEv:
 298:d:/software/ovi_2503a_s3trc/ovi_2503a_s3trc/Tools/MinGW/include/c++/3.3.1/bits/stl_vector.h ****   
 299:d:/software/ovi_2503a_s3trc/ovi_2503a_s3trc/Tools/MinGW/include/c++/3.3.1/bits/stl_vector.h ****       /**
 300:d:/software/ovi_2503a_s3trc/ovi_2503a_s3trc/Tools/MinGW/include/c++/3.3.1/bits/stl_vector.h ****        *  @brief  %Vector assignment operator.
 301:d:/software/ovi_2503a_s3trc/ovi_2503a_s3trc/Tools/MinGW/include/c++/3.3.1/bits/stl_vector.h ****        *  @param  x  A %vector of identical element and allocator types.
 302:d:/software/ovi_2503a_s3trc/ovi_2503a_s3trc/Tools/MinGW/include/c++/3.3.1/bits/stl_vector.h ****        * 
 303:d:/software/ovi_2503a_s3trc/ovi_2503a_s3trc/Tools/MinGW/include/c++/3.3.1/bits/stl_vector.h ****        *  All the elements of @a x are copied, but any extra memory in
 304:d:/software/ovi_2503a_s3trc/ovi_2503a_s3trc/Tools/MinGW/include/c++/3.3.1/bits/stl_vector.h ****        *  @a x (for fast expansion) will not be copied.  Unlike the
 305:d:/software/ovi_2503a_s3trc/ovi_2503a_s3trc/Tools/MinGW/include/c++/3.3.1/bits/stl_vector.h ****        *  copy constructor, the allocator object is not copied.
 306:d:/software/ovi_2503a_s3trc/ovi_2503a_s3trc/Tools/MinGW/include/c++/3.3.1/bits/stl_vector.h ****        */
 307:d:/software/ovi_2503a_s3trc/ovi_2503a_s3trc/Tools/MinGW/include/c++/3.3.1/bits/stl_vector.h ****       vector&
 308:d:/software/ovi_2503a_s3trc/ovi_2503a_s3trc/Tools/MinGW/include/c++/3.3.1/bits/stl_vector.h ****       operator=(const vector& __x);
 309:d:/software/ovi_2503a_s3trc/ovi_2503a_s3trc/Tools/MinGW/include/c++/3.3.1/bits/stl_vector.h ****   
 310:d:/software/ovi_2503a_s3trc/ovi_2503a_s3trc/Tools/MinGW/include/c++/3.3.1/bits/stl_vector.h ****       /**
 311:d:/software/ovi_2503a_s3trc/ovi_2503a_s3trc/Tools/MinGW/include/c++/3.3.1/bits/stl_vector.h ****        *  @brief  Assigns a given value to a %vector.
 312:d:/software/ovi_2503a_s3trc/ovi_2503a_s3trc/Tools/MinGW/include/c++/3.3.1/bits/stl_vector.h ****        *  @param  n  Number of elements to be assigned.
 313:d:/software/ovi_2503a_s3trc/ovi_2503a_s3trc/Tools/MinGW/include/c++/3.3.1/bits/stl_vector.h ****        *  @param  val  Value to be assigned.
 314:d:/software/ovi_2503a_s3trc/ovi_2503a_s3trc/Tools/MinGW/include/c++/3.3.1/bits/stl_vector.h ****        *
 315:d:/software/ovi_2503a_s3trc/ovi_2503a_s3trc/Tools/MinGW/include/c++/3.3.1/bits/stl_vector.h ****        *  This function fills a %vector with @a n copies of the given
 316:d:/software/ovi_2503a_s3trc/ovi_2503a_s3trc/Tools/MinGW/include/c++/3.3.1/bits/stl_vector.h ****        *  value.  Note that the assignment completely changes the
 317:d:/software/ovi_2503a_s3trc/ovi_2503a_s3trc/Tools/MinGW/include/c++/3.3.1/bits/stl_vector.h ****        *  %vector and that the resulting %vector's size is the same as
 318:d:/software/ovi_2503a_s3trc/ovi_2503a_s3trc/Tools/MinGW/include/c++/3.3.1/bits/stl_vector.h ****        *  the number of elements assigned.  Old data may be lost.
 319:d:/software/ovi_2503a_s3trc/ovi_2503a_s3trc/Tools/MinGW/include/c++/3.3.1/bits/stl_vector.h ****        */
 320:d:/software/ovi_2503a_s3trc/ovi_2503a_s3trc/Tools/MinGW/include/c++/3.3.1/bits/stl_vector.h ****       void
 321:d:/software/ovi_2503a_s3trc/ovi_2503a_s3trc/Tools/MinGW/include/c++/3.3.1/bits/stl_vector.h ****       assign(size_type __n, const value_type& __val) 
 322:d:/software/ovi_2503a_s3trc/ovi_2503a_s3trc/Tools/MinGW/include/c++/3.3.1/bits/stl_vector.h ****       { _M_fill_assign(__n, __val); }
 323:d:/software/ovi_2503a_s3trc/ovi_2503a_s3trc/Tools/MinGW/include/c++/3.3.1/bits/stl_vector.h ****   
 324:d:/software/ovi_2503a_s3trc/ovi_2503a_s3trc/Tools/MinGW/include/c++/3.3.1/bits/stl_vector.h ****       /**
 325:d:/software/ovi_2503a_s3trc/ovi_2503a_s3trc/Tools/MinGW/include/c++/3.3.1/bits/stl_vector.h ****        *  @brief  Assigns a range to a %vector.
 326:d:/software/ovi_2503a_s3trc/ovi_2503a_s3trc/Tools/MinGW/include/c++/3.3.1/bits/stl_vector.h ****        *  @param  first  An input iterator.
 327:d:/software/ovi_2503a_s3trc/ovi_2503a_s3trc/Tools/MinGW/include/c++/3.3.1/bits/stl_vector.h ****        *  @param  last   An input iterator.
 328:d:/software/ovi_2503a_s3trc/ovi_2503a_s3trc/Tools/MinGW/include/c++/3.3.1/bits/stl_vector.h ****        *
 329:d:/software/ovi_2503a_s3trc/ovi_2503a_s3trc/Tools/MinGW/include/c++/3.3.1/bits/stl_vector.h ****        *  This function fills a %vector with copies of the elements in the
 330:d:/software/ovi_2503a_s3trc/ovi_2503a_s3trc/Tools/MinGW/include/c++/3.3.1/bits/stl_vector.h ****        *  range [first,last).
 331:d:/software/ovi_2503a_s3trc/ovi_2503a_s3trc/Tools/MinGW/include/c++/3.3.1/bits/stl_vector.h ****        *
 332:d:/software/ovi_2503a_s3trc/ovi_2503a_s3trc/Tools/MinGW/include/c++/3.3.1/bits/stl_vector.h ****        *  Note that the assignment completely changes the %vector and
 333:d:/software/ovi_2503a_s3trc/ovi_2503a_s3trc/Tools/MinGW/include/c++/3.3.1/bits/stl_vector.h ****        *  that the resulting %vector's size is the same as the number
 334:d:/software/ovi_2503a_s3trc/ovi_2503a_s3trc/Tools/MinGW/include/c++/3.3.1/bits/stl_vector.h ****        *  of elements assigned.  Old data may be lost.
 335:d:/software/ovi_2503a_s3trc/ovi_2503a_s3trc/Tools/MinGW/include/c++/3.3.1/bits/stl_vector.h ****        */
 336:d:/software/ovi_2503a_s3trc/ovi_2503a_s3trc/Tools/MinGW/include/c++/3.3.1/bits/stl_vector.h ****       template<typename _InputIterator>
 337:d:/software/ovi_2503a_s3trc/ovi_2503a_s3trc/Tools/MinGW/include/c++/3.3.1/bits/stl_vector.h ****         void
 338:d:/software/ovi_2503a_s3trc/ovi_2503a_s3trc/Tools/MinGW/include/c++/3.3.1/bits/stl_vector.h ****         assign(_InputIterator __first, _InputIterator __last)
 339:d:/software/ovi_2503a_s3trc/ovi_2503a_s3trc/Tools/MinGW/include/c++/3.3.1/bits/stl_vector.h ****         {
 340:d:/software/ovi_2503a_s3trc/ovi_2503a_s3trc/Tools/MinGW/include/c++/3.3.1/bits/stl_vector.h **** 	  // Check whether it's an integral type.  If so, it's not an iterator.
 341:d:/software/ovi_2503a_s3trc/ovi_2503a_s3trc/Tools/MinGW/include/c++/3.3.1/bits/stl_vector.h **** 	  typedef typename _Is_integer<_InputIterator>::_Integral _Integral;
 342:d:/software/ovi_2503a_s3trc/ovi_2503a_s3trc/Tools/MinGW/include/c++/3.3.1/bits/stl_vector.h **** 	  _M_assign_dispatch(__first, __last, _Integral());
GAS LISTING d:/software/ovi_2503a_s3trc/ovi_2503a_s3trc/plutommi/Customer/ResGenerator/gcctmp/cci0baaa.s 			page 71


 343:d:/software/ovi_2503a_s3trc/ovi_2503a_s3trc/Tools/MinGW/include/c++/3.3.1/bits/stl_vector.h **** 	}
 344:d:/software/ovi_2503a_s3trc/ovi_2503a_s3trc/Tools/MinGW/include/c++/3.3.1/bits/stl_vector.h ****   
 345:d:/software/ovi_2503a_s3trc/ovi_2503a_s3trc/Tools/MinGW/include/c++/3.3.1/bits/stl_vector.h ****       /// Get a copy of the memory allocation object.
 346:d:/software/ovi_2503a_s3trc/ovi_2503a_s3trc/Tools/MinGW/include/c++/3.3.1/bits/stl_vector.h ****       allocator_type
 347:d:/software/ovi_2503a_s3trc/ovi_2503a_s3trc/Tools/MinGW/include/c++/3.3.1/bits/stl_vector.h ****       get_allocator() const { return _Base::get_allocator(); }
 348:d:/software/ovi_2503a_s3trc/ovi_2503a_s3trc/Tools/MinGW/include/c++/3.3.1/bits/stl_vector.h ****       
 349:d:/software/ovi_2503a_s3trc/ovi_2503a_s3trc/Tools/MinGW/include/c++/3.3.1/bits/stl_vector.h ****       // iterators
 350:d:/software/ovi_2503a_s3trc/ovi_2503a_s3trc/Tools/MinGW/include/c++/3.3.1/bits/stl_vector.h ****       /**
 351:d:/software/ovi_2503a_s3trc/ovi_2503a_s3trc/Tools/MinGW/include/c++/3.3.1/bits/stl_vector.h ****        *  Returns a read/write iterator that points to the first element in the
 352:d:/software/ovi_2503a_s3trc/ovi_2503a_s3trc/Tools/MinGW/include/c++/3.3.1/bits/stl_vector.h ****        *  %vector.  Iteration is done in ordinary element order.
 353:d:/software/ovi_2503a_s3trc/ovi_2503a_s3trc/Tools/MinGW/include/c++/3.3.1/bits/stl_vector.h ****        */
 354:d:/software/ovi_2503a_s3trc/ovi_2503a_s3trc/Tools/MinGW/include/c++/3.3.1/bits/stl_vector.h ****       iterator
 355:d:/software/ovi_2503a_s3trc/ovi_2503a_s3trc/Tools/MinGW/include/c++/3.3.1/bits/stl_vector.h ****       begin() { return iterator (_M_start); }
 356:d:/software/ovi_2503a_s3trc/ovi_2503a_s3trc/Tools/MinGW/include/c++/3.3.1/bits/stl_vector.h ****       
 357:d:/software/ovi_2503a_s3trc/ovi_2503a_s3trc/Tools/MinGW/include/c++/3.3.1/bits/stl_vector.h ****       /**
 358:d:/software/ovi_2503a_s3trc/ovi_2503a_s3trc/Tools/MinGW/include/c++/3.3.1/bits/stl_vector.h ****        *  Returns a read-only (constant) iterator that points to the
 359:d:/software/ovi_2503a_s3trc/ovi_2503a_s3trc/Tools/MinGW/include/c++/3.3.1/bits/stl_vector.h ****        *  first element in the %vector.  Iteration is done in ordinary
 360:d:/software/ovi_2503a_s3trc/ovi_2503a_s3trc/Tools/MinGW/include/c++/3.3.1/bits/stl_vector.h ****        *  element order.
 361:d:/software/ovi_2503a_s3trc/ovi_2503a_s3trc/Tools/MinGW/include/c++/3.3.1/bits/stl_vector.h ****        */
 362:d:/software/ovi_2503a_s3trc/ovi_2503a_s3trc/Tools/MinGW/include/c++/3.3.1/bits/stl_vector.h ****       const_iterator
 363:d:/software/ovi_2503a_s3trc/ovi_2503a_s3trc/Tools/MinGW/include/c++/3.3.1/bits/stl_vector.h ****       begin() const { return const_iterator (_M_start); }
 364:d:/software/ovi_2503a_s3trc/ovi_2503a_s3trc/Tools/MinGW/include/c++/3.3.1/bits/stl_vector.h ****       
 365:d:/software/ovi_2503a_s3trc/ovi_2503a_s3trc/Tools/MinGW/include/c++/3.3.1/bits/stl_vector.h ****       /**
 366:d:/software/ovi_2503a_s3trc/ovi_2503a_s3trc/Tools/MinGW/include/c++/3.3.1/bits/stl_vector.h ****        *  Returns a read/write iterator that points one past the last
 367:d:/software/ovi_2503a_s3trc/ovi_2503a_s3trc/Tools/MinGW/include/c++/3.3.1/bits/stl_vector.h ****        *  element in the %vector.  Iteration is done in ordinary
 368:d:/software/ovi_2503a_s3trc/ovi_2503a_s3trc/Tools/MinGW/include/c++/3.3.1/bits/stl_vector.h ****        *  element order.
 369:d:/software/ovi_2503a_s3trc/ovi_2503a_s3trc/Tools/MinGW/include/c++/3.3.1/bits/stl_vector.h ****        */
 370:d:/software/ovi_2503a_s3trc/ovi_2503a_s3trc/Tools/MinGW/include/c++/3.3.1/bits/stl_vector.h ****       iterator
 371:d:/software/ovi_2503a_s3trc/ovi_2503a_s3trc/Tools/MinGW/include/c++/3.3.1/bits/stl_vector.h ****       end() { return iterator (_M_finish); }
 5003              	LM170:
 5004 0000 55       		pushl	%ebp
 5005 0001 89E5     		movl	%esp, %ebp
 5006 0003 83EC18   		subl	$24, %esp
 5008              	LM171:
 5009 0006 8B4508   		movl	8(%ebp), %eax
 5010              	LBB35:
 5011 0009 83C004   		addl	$4, %eax
 5012 000c 89442404 		movl	%eax, 4(%esp)
 5013 0010 8D45FC   		leal	-4(%ebp), %eax
 5014 0013 890424   		movl	%eax, (%esp)
 5015 0016 E8000000 		call	__ZN9__gnu_cxx17__normal_iteratorIPN10ThreadPool10ThreadDataESt6vectorIS2_SaIS2_EEEC1ERKS3_
 5015      00
 5016 001b 8B45FC   		movl	-4(%ebp), %eax
 5017 001e C9       		leave
 5018 001f C3       		ret
 5019              	LBE35:
 5020              	Lscope18:
 5028              		.section	.text$_ZNSt6vectorIN10ThreadPool10ThreadDataESaIS1_EE9push_backERKS1_,"x"
 5029              		.linkonce discard
 5030              		.align 2
 5034              	.globl __ZNSt6vectorIN10ThreadPool10ThreadDataESaIS1_EE9push_backERKS1_
 5036              	__ZNSt6vectorIN10ThreadPool10ThreadDataESaIS1_EE9push_backERKS1_:
 372:d:/software/ovi_2503a_s3trc/ovi_2503a_s3trc/Tools/MinGW/include/c++/3.3.1/bits/stl_vector.h ****       
 373:d:/software/ovi_2503a_s3trc/ovi_2503a_s3trc/Tools/MinGW/include/c++/3.3.1/bits/stl_vector.h ****       /**
 374:d:/software/ovi_2503a_s3trc/ovi_2503a_s3trc/Tools/MinGW/include/c++/3.3.1/bits/stl_vector.h ****        *  Returns a read-only (constant) iterator that points one past the last
 375:d:/software/ovi_2503a_s3trc/ovi_2503a_s3trc/Tools/MinGW/include/c++/3.3.1/bits/stl_vector.h ****        *  element in the %vector.  Iteration is done in ordinary element order.
 376:d:/software/ovi_2503a_s3trc/ovi_2503a_s3trc/Tools/MinGW/include/c++/3.3.1/bits/stl_vector.h ****        */
GAS LISTING d:/software/ovi_2503a_s3trc/ovi_2503a_s3trc/plutommi/Customer/ResGenerator/gcctmp/cci0baaa.s 			page 72


 377:d:/software/ovi_2503a_s3trc/ovi_2503a_s3trc/Tools/MinGW/include/c++/3.3.1/bits/stl_vector.h ****       const_iterator
 378:d:/software/ovi_2503a_s3trc/ovi_2503a_s3trc/Tools/MinGW/include/c++/3.3.1/bits/stl_vector.h ****       end() const { return const_iterator (_M_finish); }
 379:d:/software/ovi_2503a_s3trc/ovi_2503a_s3trc/Tools/MinGW/include/c++/3.3.1/bits/stl_vector.h ****       
 380:d:/software/ovi_2503a_s3trc/ovi_2503a_s3trc/Tools/MinGW/include/c++/3.3.1/bits/stl_vector.h ****       /**
 381:d:/software/ovi_2503a_s3trc/ovi_2503a_s3trc/Tools/MinGW/include/c++/3.3.1/bits/stl_vector.h ****        *  Returns a read/write reverse iterator that points to the
 382:d:/software/ovi_2503a_s3trc/ovi_2503a_s3trc/Tools/MinGW/include/c++/3.3.1/bits/stl_vector.h ****        *  last element in the %vector.  Iteration is done in reverse
 383:d:/software/ovi_2503a_s3trc/ovi_2503a_s3trc/Tools/MinGW/include/c++/3.3.1/bits/stl_vector.h ****        *  element order.
 384:d:/software/ovi_2503a_s3trc/ovi_2503a_s3trc/Tools/MinGW/include/c++/3.3.1/bits/stl_vector.h ****        */
 385:d:/software/ovi_2503a_s3trc/ovi_2503a_s3trc/Tools/MinGW/include/c++/3.3.1/bits/stl_vector.h ****       reverse_iterator
 386:d:/software/ovi_2503a_s3trc/ovi_2503a_s3trc/Tools/MinGW/include/c++/3.3.1/bits/stl_vector.h ****       rbegin() { return reverse_iterator(end()); }
 387:d:/software/ovi_2503a_s3trc/ovi_2503a_s3trc/Tools/MinGW/include/c++/3.3.1/bits/stl_vector.h ****       
 388:d:/software/ovi_2503a_s3trc/ovi_2503a_s3trc/Tools/MinGW/include/c++/3.3.1/bits/stl_vector.h ****       /**
 389:d:/software/ovi_2503a_s3trc/ovi_2503a_s3trc/Tools/MinGW/include/c++/3.3.1/bits/stl_vector.h ****        *  Returns a read-only (constant) reverse iterator that points
 390:d:/software/ovi_2503a_s3trc/ovi_2503a_s3trc/Tools/MinGW/include/c++/3.3.1/bits/stl_vector.h ****        *  to the last element in the %vector.  Iteration is done in
 391:d:/software/ovi_2503a_s3trc/ovi_2503a_s3trc/Tools/MinGW/include/c++/3.3.1/bits/stl_vector.h ****        *  reverse element order.
 392:d:/software/ovi_2503a_s3trc/ovi_2503a_s3trc/Tools/MinGW/include/c++/3.3.1/bits/stl_vector.h ****        */
 393:d:/software/ovi_2503a_s3trc/ovi_2503a_s3trc/Tools/MinGW/include/c++/3.3.1/bits/stl_vector.h ****       const_reverse_iterator
 394:d:/software/ovi_2503a_s3trc/ovi_2503a_s3trc/Tools/MinGW/include/c++/3.3.1/bits/stl_vector.h ****       rbegin() const { return const_reverse_iterator(end()); }
 395:d:/software/ovi_2503a_s3trc/ovi_2503a_s3trc/Tools/MinGW/include/c++/3.3.1/bits/stl_vector.h ****       
 396:d:/software/ovi_2503a_s3trc/ovi_2503a_s3trc/Tools/MinGW/include/c++/3.3.1/bits/stl_vector.h ****       /**
 397:d:/software/ovi_2503a_s3trc/ovi_2503a_s3trc/Tools/MinGW/include/c++/3.3.1/bits/stl_vector.h ****        *  Returns a read/write reverse iterator that points to one before the
 398:d:/software/ovi_2503a_s3trc/ovi_2503a_s3trc/Tools/MinGW/include/c++/3.3.1/bits/stl_vector.h ****        *  first element in the %vector.  Iteration is done in reverse element
 399:d:/software/ovi_2503a_s3trc/ovi_2503a_s3trc/Tools/MinGW/include/c++/3.3.1/bits/stl_vector.h ****        *  order.
 400:d:/software/ovi_2503a_s3trc/ovi_2503a_s3trc/Tools/MinGW/include/c++/3.3.1/bits/stl_vector.h ****        */
 401:d:/software/ovi_2503a_s3trc/ovi_2503a_s3trc/Tools/MinGW/include/c++/3.3.1/bits/stl_vector.h ****       reverse_iterator
 402:d:/software/ovi_2503a_s3trc/ovi_2503a_s3trc/Tools/MinGW/include/c++/3.3.1/bits/stl_vector.h ****       rend() { return reverse_iterator(begin()); }
 403:d:/software/ovi_2503a_s3trc/ovi_2503a_s3trc/Tools/MinGW/include/c++/3.3.1/bits/stl_vector.h ****       
 404:d:/software/ovi_2503a_s3trc/ovi_2503a_s3trc/Tools/MinGW/include/c++/3.3.1/bits/stl_vector.h ****       /**
 405:d:/software/ovi_2503a_s3trc/ovi_2503a_s3trc/Tools/MinGW/include/c++/3.3.1/bits/stl_vector.h ****        *  Returns a read-only (constant) reverse iterator that points
 406:d:/software/ovi_2503a_s3trc/ovi_2503a_s3trc/Tools/MinGW/include/c++/3.3.1/bits/stl_vector.h ****        *  to one before the first element in the %vector.  Iteration
 407:d:/software/ovi_2503a_s3trc/ovi_2503a_s3trc/Tools/MinGW/include/c++/3.3.1/bits/stl_vector.h ****        *  is done in reverse element order.
 408:d:/software/ovi_2503a_s3trc/ovi_2503a_s3trc/Tools/MinGW/include/c++/3.3.1/bits/stl_vector.h ****        */
 409:d:/software/ovi_2503a_s3trc/ovi_2503a_s3trc/Tools/MinGW/include/c++/3.3.1/bits/stl_vector.h ****       const_reverse_iterator
 410:d:/software/ovi_2503a_s3trc/ovi_2503a_s3trc/Tools/MinGW/include/c++/3.3.1/bits/stl_vector.h ****       rend() const { return const_reverse_iterator(begin()); }
 411:d:/software/ovi_2503a_s3trc/ovi_2503a_s3trc/Tools/MinGW/include/c++/3.3.1/bits/stl_vector.h ****   
 412:d:/software/ovi_2503a_s3trc/ovi_2503a_s3trc/Tools/MinGW/include/c++/3.3.1/bits/stl_vector.h ****       // [23.2.4.2] capacity
 413:d:/software/ovi_2503a_s3trc/ovi_2503a_s3trc/Tools/MinGW/include/c++/3.3.1/bits/stl_vector.h ****       /**  Returns the number of elements in the %vector.  */
 414:d:/software/ovi_2503a_s3trc/ovi_2503a_s3trc/Tools/MinGW/include/c++/3.3.1/bits/stl_vector.h ****       size_type
 415:d:/software/ovi_2503a_s3trc/ovi_2503a_s3trc/Tools/MinGW/include/c++/3.3.1/bits/stl_vector.h ****       size() const { return size_type(end() - begin()); }
 416:d:/software/ovi_2503a_s3trc/ovi_2503a_s3trc/Tools/MinGW/include/c++/3.3.1/bits/stl_vector.h ****       
 417:d:/software/ovi_2503a_s3trc/ovi_2503a_s3trc/Tools/MinGW/include/c++/3.3.1/bits/stl_vector.h ****       /**  Returns the size() of the largest possible %vector.  */
 418:d:/software/ovi_2503a_s3trc/ovi_2503a_s3trc/Tools/MinGW/include/c++/3.3.1/bits/stl_vector.h ****       size_type
 419:d:/software/ovi_2503a_s3trc/ovi_2503a_s3trc/Tools/MinGW/include/c++/3.3.1/bits/stl_vector.h ****       max_size() const { return size_type(-1) / sizeof(value_type); }
 420:d:/software/ovi_2503a_s3trc/ovi_2503a_s3trc/Tools/MinGW/include/c++/3.3.1/bits/stl_vector.h ****       
 421:d:/software/ovi_2503a_s3trc/ovi_2503a_s3trc/Tools/MinGW/include/c++/3.3.1/bits/stl_vector.h ****       /**
 422:d:/software/ovi_2503a_s3trc/ovi_2503a_s3trc/Tools/MinGW/include/c++/3.3.1/bits/stl_vector.h ****        *  @brief  Resizes the %vector to the specified number of elements.
 423:d:/software/ovi_2503a_s3trc/ovi_2503a_s3trc/Tools/MinGW/include/c++/3.3.1/bits/stl_vector.h ****        *  @param  new_size  Number of elements the %vector should contain.
 424:d:/software/ovi_2503a_s3trc/ovi_2503a_s3trc/Tools/MinGW/include/c++/3.3.1/bits/stl_vector.h ****        *  @param  x  Data with which new elements should be populated.
 425:d:/software/ovi_2503a_s3trc/ovi_2503a_s3trc/Tools/MinGW/include/c++/3.3.1/bits/stl_vector.h ****        *
 426:d:/software/ovi_2503a_s3trc/ovi_2503a_s3trc/Tools/MinGW/include/c++/3.3.1/bits/stl_vector.h ****        *  This function will %resize the %vector to the specified
 427:d:/software/ovi_2503a_s3trc/ovi_2503a_s3trc/Tools/MinGW/include/c++/3.3.1/bits/stl_vector.h ****        *  number of elements.  If the number is smaller than the
 428:d:/software/ovi_2503a_s3trc/ovi_2503a_s3trc/Tools/MinGW/include/c++/3.3.1/bits/stl_vector.h ****        *  %vector's current size the %vector is truncated, otherwise
 429:d:/software/ovi_2503a_s3trc/ovi_2503a_s3trc/Tools/MinGW/include/c++/3.3.1/bits/stl_vector.h ****        *  the %vector is extended and new elements are populated with
 430:d:/software/ovi_2503a_s3trc/ovi_2503a_s3trc/Tools/MinGW/include/c++/3.3.1/bits/stl_vector.h ****        *  given data.
 431:d:/software/ovi_2503a_s3trc/ovi_2503a_s3trc/Tools/MinGW/include/c++/3.3.1/bits/stl_vector.h ****        */
 432:d:/software/ovi_2503a_s3trc/ovi_2503a_s3trc/Tools/MinGW/include/c++/3.3.1/bits/stl_vector.h ****       void
 433:d:/software/ovi_2503a_s3trc/ovi_2503a_s3trc/Tools/MinGW/include/c++/3.3.1/bits/stl_vector.h ****       resize(size_type __new_size, const value_type& __x)
GAS LISTING d:/software/ovi_2503a_s3trc/ovi_2503a_s3trc/plutommi/Customer/ResGenerator/gcctmp/cci0baaa.s 			page 73


 434:d:/software/ovi_2503a_s3trc/ovi_2503a_s3trc/Tools/MinGW/include/c++/3.3.1/bits/stl_vector.h ****       {
 435:d:/software/ovi_2503a_s3trc/ovi_2503a_s3trc/Tools/MinGW/include/c++/3.3.1/bits/stl_vector.h **** 	if (__new_size < size())
 436:d:/software/ovi_2503a_s3trc/ovi_2503a_s3trc/Tools/MinGW/include/c++/3.3.1/bits/stl_vector.h **** 	  erase(begin() + __new_size, end());
 437:d:/software/ovi_2503a_s3trc/ovi_2503a_s3trc/Tools/MinGW/include/c++/3.3.1/bits/stl_vector.h **** 	else
 438:d:/software/ovi_2503a_s3trc/ovi_2503a_s3trc/Tools/MinGW/include/c++/3.3.1/bits/stl_vector.h **** 	  insert(end(), __new_size - size(), __x);
 439:d:/software/ovi_2503a_s3trc/ovi_2503a_s3trc/Tools/MinGW/include/c++/3.3.1/bits/stl_vector.h ****       }
 440:d:/software/ovi_2503a_s3trc/ovi_2503a_s3trc/Tools/MinGW/include/c++/3.3.1/bits/stl_vector.h ****       
 441:d:/software/ovi_2503a_s3trc/ovi_2503a_s3trc/Tools/MinGW/include/c++/3.3.1/bits/stl_vector.h ****       /**
 442:d:/software/ovi_2503a_s3trc/ovi_2503a_s3trc/Tools/MinGW/include/c++/3.3.1/bits/stl_vector.h ****        *  @brief  Resizes the %vector to the specified number of elements.
 443:d:/software/ovi_2503a_s3trc/ovi_2503a_s3trc/Tools/MinGW/include/c++/3.3.1/bits/stl_vector.h ****        *  @param  new_size  Number of elements the %vector should contain.
 444:d:/software/ovi_2503a_s3trc/ovi_2503a_s3trc/Tools/MinGW/include/c++/3.3.1/bits/stl_vector.h ****        *
 445:d:/software/ovi_2503a_s3trc/ovi_2503a_s3trc/Tools/MinGW/include/c++/3.3.1/bits/stl_vector.h ****        *  This function will resize the %vector to the specified
 446:d:/software/ovi_2503a_s3trc/ovi_2503a_s3trc/Tools/MinGW/include/c++/3.3.1/bits/stl_vector.h ****        *  number of elements.  If the number is smaller than the
 447:d:/software/ovi_2503a_s3trc/ovi_2503a_s3trc/Tools/MinGW/include/c++/3.3.1/bits/stl_vector.h ****        *  %vector's current size the %vector is truncated, otherwise
 448:d:/software/ovi_2503a_s3trc/ovi_2503a_s3trc/Tools/MinGW/include/c++/3.3.1/bits/stl_vector.h ****        *  the %vector is extended and new elements are
 449:d:/software/ovi_2503a_s3trc/ovi_2503a_s3trc/Tools/MinGW/include/c++/3.3.1/bits/stl_vector.h ****        *  default-constructed.
 450:d:/software/ovi_2503a_s3trc/ovi_2503a_s3trc/Tools/MinGW/include/c++/3.3.1/bits/stl_vector.h ****        */
 451:d:/software/ovi_2503a_s3trc/ovi_2503a_s3trc/Tools/MinGW/include/c++/3.3.1/bits/stl_vector.h ****       void
 452:d:/software/ovi_2503a_s3trc/ovi_2503a_s3trc/Tools/MinGW/include/c++/3.3.1/bits/stl_vector.h ****       resize(size_type __new_size) { resize(__new_size, value_type()); }
 453:d:/software/ovi_2503a_s3trc/ovi_2503a_s3trc/Tools/MinGW/include/c++/3.3.1/bits/stl_vector.h ****       
 454:d:/software/ovi_2503a_s3trc/ovi_2503a_s3trc/Tools/MinGW/include/c++/3.3.1/bits/stl_vector.h ****       /**
 455:d:/software/ovi_2503a_s3trc/ovi_2503a_s3trc/Tools/MinGW/include/c++/3.3.1/bits/stl_vector.h ****        *  Returns the total number of elements that the %vector can hold before
 456:d:/software/ovi_2503a_s3trc/ovi_2503a_s3trc/Tools/MinGW/include/c++/3.3.1/bits/stl_vector.h ****        *  needing to allocate more memory.
 457:d:/software/ovi_2503a_s3trc/ovi_2503a_s3trc/Tools/MinGW/include/c++/3.3.1/bits/stl_vector.h ****        */
 458:d:/software/ovi_2503a_s3trc/ovi_2503a_s3trc/Tools/MinGW/include/c++/3.3.1/bits/stl_vector.h ****       size_type
 459:d:/software/ovi_2503a_s3trc/ovi_2503a_s3trc/Tools/MinGW/include/c++/3.3.1/bits/stl_vector.h ****       capacity() const
 460:d:/software/ovi_2503a_s3trc/ovi_2503a_s3trc/Tools/MinGW/include/c++/3.3.1/bits/stl_vector.h ****       { return size_type(const_iterator(_M_end_of_storage) - begin()); }
 461:d:/software/ovi_2503a_s3trc/ovi_2503a_s3trc/Tools/MinGW/include/c++/3.3.1/bits/stl_vector.h ****       
 462:d:/software/ovi_2503a_s3trc/ovi_2503a_s3trc/Tools/MinGW/include/c++/3.3.1/bits/stl_vector.h ****       /**
 463:d:/software/ovi_2503a_s3trc/ovi_2503a_s3trc/Tools/MinGW/include/c++/3.3.1/bits/stl_vector.h ****        *  Returns true if the %vector is empty.  (Thus begin() would
 464:d:/software/ovi_2503a_s3trc/ovi_2503a_s3trc/Tools/MinGW/include/c++/3.3.1/bits/stl_vector.h ****        *  equal end().)
 465:d:/software/ovi_2503a_s3trc/ovi_2503a_s3trc/Tools/MinGW/include/c++/3.3.1/bits/stl_vector.h ****        */
 466:d:/software/ovi_2503a_s3trc/ovi_2503a_s3trc/Tools/MinGW/include/c++/3.3.1/bits/stl_vector.h ****       bool
 467:d:/software/ovi_2503a_s3trc/ovi_2503a_s3trc/Tools/MinGW/include/c++/3.3.1/bits/stl_vector.h ****       empty() const { return begin() == end(); }
 468:d:/software/ovi_2503a_s3trc/ovi_2503a_s3trc/Tools/MinGW/include/c++/3.3.1/bits/stl_vector.h ****       
 469:d:/software/ovi_2503a_s3trc/ovi_2503a_s3trc/Tools/MinGW/include/c++/3.3.1/bits/stl_vector.h ****       /**
 470:d:/software/ovi_2503a_s3trc/ovi_2503a_s3trc/Tools/MinGW/include/c++/3.3.1/bits/stl_vector.h ****        *  @brief  Attempt to preallocate enough memory for specified number of
 471:d:/software/ovi_2503a_s3trc/ovi_2503a_s3trc/Tools/MinGW/include/c++/3.3.1/bits/stl_vector.h ****        *          elements.
 472:d:/software/ovi_2503a_s3trc/ovi_2503a_s3trc/Tools/MinGW/include/c++/3.3.1/bits/stl_vector.h ****        *  @param  n  Number of elements required.
 473:d:/software/ovi_2503a_s3trc/ovi_2503a_s3trc/Tools/MinGW/include/c++/3.3.1/bits/stl_vector.h ****        *  @throw  std::length_error  If @a n exceeds @c max_size().
 474:d:/software/ovi_2503a_s3trc/ovi_2503a_s3trc/Tools/MinGW/include/c++/3.3.1/bits/stl_vector.h ****        *
 475:d:/software/ovi_2503a_s3trc/ovi_2503a_s3trc/Tools/MinGW/include/c++/3.3.1/bits/stl_vector.h ****        *  This function attempts to reserve enough memory for the
 476:d:/software/ovi_2503a_s3trc/ovi_2503a_s3trc/Tools/MinGW/include/c++/3.3.1/bits/stl_vector.h ****        *  %vector to hold the specified number of elements.  If the
 477:d:/software/ovi_2503a_s3trc/ovi_2503a_s3trc/Tools/MinGW/include/c++/3.3.1/bits/stl_vector.h ****        *  number requested is more than max_size(), length_error is
 478:d:/software/ovi_2503a_s3trc/ovi_2503a_s3trc/Tools/MinGW/include/c++/3.3.1/bits/stl_vector.h ****        *  thrown.
 479:d:/software/ovi_2503a_s3trc/ovi_2503a_s3trc/Tools/MinGW/include/c++/3.3.1/bits/stl_vector.h ****        *
 480:d:/software/ovi_2503a_s3trc/ovi_2503a_s3trc/Tools/MinGW/include/c++/3.3.1/bits/stl_vector.h ****        *  The advantage of this function is that if optimal code is a
 481:d:/software/ovi_2503a_s3trc/ovi_2503a_s3trc/Tools/MinGW/include/c++/3.3.1/bits/stl_vector.h ****        *  necessity and the user can determine the number of elements
 482:d:/software/ovi_2503a_s3trc/ovi_2503a_s3trc/Tools/MinGW/include/c++/3.3.1/bits/stl_vector.h ****        *  that will be required, the user can reserve the memory in
 483:d:/software/ovi_2503a_s3trc/ovi_2503a_s3trc/Tools/MinGW/include/c++/3.3.1/bits/stl_vector.h ****        *  %advance, and thus prevent a possible reallocation of memory
 484:d:/software/ovi_2503a_s3trc/ovi_2503a_s3trc/Tools/MinGW/include/c++/3.3.1/bits/stl_vector.h ****        *  and copying of %vector data.
 485:d:/software/ovi_2503a_s3trc/ovi_2503a_s3trc/Tools/MinGW/include/c++/3.3.1/bits/stl_vector.h ****        */
 486:d:/software/ovi_2503a_s3trc/ovi_2503a_s3trc/Tools/MinGW/include/c++/3.3.1/bits/stl_vector.h ****       void
 487:d:/software/ovi_2503a_s3trc/ovi_2503a_s3trc/Tools/MinGW/include/c++/3.3.1/bits/stl_vector.h ****       reserve(size_type __n);
 488:d:/software/ovi_2503a_s3trc/ovi_2503a_s3trc/Tools/MinGW/include/c++/3.3.1/bits/stl_vector.h ****       
 489:d:/software/ovi_2503a_s3trc/ovi_2503a_s3trc/Tools/MinGW/include/c++/3.3.1/bits/stl_vector.h ****       // element access
 490:d:/software/ovi_2503a_s3trc/ovi_2503a_s3trc/Tools/MinGW/include/c++/3.3.1/bits/stl_vector.h ****       /**
GAS LISTING d:/software/ovi_2503a_s3trc/ovi_2503a_s3trc/plutommi/Customer/ResGenerator/gcctmp/cci0baaa.s 			page 74


 491:d:/software/ovi_2503a_s3trc/ovi_2503a_s3trc/Tools/MinGW/include/c++/3.3.1/bits/stl_vector.h ****        *  @brief  Subscript access to the data contained in the %vector.
 492:d:/software/ovi_2503a_s3trc/ovi_2503a_s3trc/Tools/MinGW/include/c++/3.3.1/bits/stl_vector.h ****        *  @param  n  The index of the element for which data should be accessed.
 493:d:/software/ovi_2503a_s3trc/ovi_2503a_s3trc/Tools/MinGW/include/c++/3.3.1/bits/stl_vector.h ****        *  @return  Read/write reference to data.
 494:d:/software/ovi_2503a_s3trc/ovi_2503a_s3trc/Tools/MinGW/include/c++/3.3.1/bits/stl_vector.h ****        *
 495:d:/software/ovi_2503a_s3trc/ovi_2503a_s3trc/Tools/MinGW/include/c++/3.3.1/bits/stl_vector.h ****        *  This operator allows for easy, array-style, data access.
 496:d:/software/ovi_2503a_s3trc/ovi_2503a_s3trc/Tools/MinGW/include/c++/3.3.1/bits/stl_vector.h ****        *  Note that data access with this operator is unchecked and
 497:d:/software/ovi_2503a_s3trc/ovi_2503a_s3trc/Tools/MinGW/include/c++/3.3.1/bits/stl_vector.h ****        *  out_of_range lookups are not defined. (For checked lookups
 498:d:/software/ovi_2503a_s3trc/ovi_2503a_s3trc/Tools/MinGW/include/c++/3.3.1/bits/stl_vector.h ****        *  see at().)
 499:d:/software/ovi_2503a_s3trc/ovi_2503a_s3trc/Tools/MinGW/include/c++/3.3.1/bits/stl_vector.h ****        */
 500:d:/software/ovi_2503a_s3trc/ovi_2503a_s3trc/Tools/MinGW/include/c++/3.3.1/bits/stl_vector.h ****       reference
 501:d:/software/ovi_2503a_s3trc/ovi_2503a_s3trc/Tools/MinGW/include/c++/3.3.1/bits/stl_vector.h ****       operator[](size_type __n) { return *(begin() + __n); }
 502:d:/software/ovi_2503a_s3trc/ovi_2503a_s3trc/Tools/MinGW/include/c++/3.3.1/bits/stl_vector.h ****       
 503:d:/software/ovi_2503a_s3trc/ovi_2503a_s3trc/Tools/MinGW/include/c++/3.3.1/bits/stl_vector.h ****       /**
 504:d:/software/ovi_2503a_s3trc/ovi_2503a_s3trc/Tools/MinGW/include/c++/3.3.1/bits/stl_vector.h ****        *  @brief  Subscript access to the data contained in the %vector.
 505:d:/software/ovi_2503a_s3trc/ovi_2503a_s3trc/Tools/MinGW/include/c++/3.3.1/bits/stl_vector.h ****        *  @param n The index of the element for which data should be
 506:d:/software/ovi_2503a_s3trc/ovi_2503a_s3trc/Tools/MinGW/include/c++/3.3.1/bits/stl_vector.h ****        *  accessed.
 507:d:/software/ovi_2503a_s3trc/ovi_2503a_s3trc/Tools/MinGW/include/c++/3.3.1/bits/stl_vector.h ****        *  @return  Read-only (constant) reference to data.
 508:d:/software/ovi_2503a_s3trc/ovi_2503a_s3trc/Tools/MinGW/include/c++/3.3.1/bits/stl_vector.h ****        *
 509:d:/software/ovi_2503a_s3trc/ovi_2503a_s3trc/Tools/MinGW/include/c++/3.3.1/bits/stl_vector.h ****        *  This operator allows for easy, array-style, data access.
 510:d:/software/ovi_2503a_s3trc/ovi_2503a_s3trc/Tools/MinGW/include/c++/3.3.1/bits/stl_vector.h ****        *  Note that data access with this operator is unchecked and
 511:d:/software/ovi_2503a_s3trc/ovi_2503a_s3trc/Tools/MinGW/include/c++/3.3.1/bits/stl_vector.h ****        *  out_of_range lookups are not defined. (For checked lookups
 512:d:/software/ovi_2503a_s3trc/ovi_2503a_s3trc/Tools/MinGW/include/c++/3.3.1/bits/stl_vector.h ****        *  see at().)
 513:d:/software/ovi_2503a_s3trc/ovi_2503a_s3trc/Tools/MinGW/include/c++/3.3.1/bits/stl_vector.h ****        */
 514:d:/software/ovi_2503a_s3trc/ovi_2503a_s3trc/Tools/MinGW/include/c++/3.3.1/bits/stl_vector.h ****       const_reference
 515:d:/software/ovi_2503a_s3trc/ovi_2503a_s3trc/Tools/MinGW/include/c++/3.3.1/bits/stl_vector.h ****       operator[](size_type __n) const { return *(begin() + __n); }
 516:d:/software/ovi_2503a_s3trc/ovi_2503a_s3trc/Tools/MinGW/include/c++/3.3.1/bits/stl_vector.h ****   
 517:d:/software/ovi_2503a_s3trc/ovi_2503a_s3trc/Tools/MinGW/include/c++/3.3.1/bits/stl_vector.h ****     protected:
 518:d:/software/ovi_2503a_s3trc/ovi_2503a_s3trc/Tools/MinGW/include/c++/3.3.1/bits/stl_vector.h ****       /// @if maint Safety check used only from at().  @endif
 519:d:/software/ovi_2503a_s3trc/ovi_2503a_s3trc/Tools/MinGW/include/c++/3.3.1/bits/stl_vector.h ****       void
 520:d:/software/ovi_2503a_s3trc/ovi_2503a_s3trc/Tools/MinGW/include/c++/3.3.1/bits/stl_vector.h ****       _M_range_check(size_type __n) const
 521:d:/software/ovi_2503a_s3trc/ovi_2503a_s3trc/Tools/MinGW/include/c++/3.3.1/bits/stl_vector.h ****       {
 522:d:/software/ovi_2503a_s3trc/ovi_2503a_s3trc/Tools/MinGW/include/c++/3.3.1/bits/stl_vector.h **** 	if (__n >= this->size())
 523:d:/software/ovi_2503a_s3trc/ovi_2503a_s3trc/Tools/MinGW/include/c++/3.3.1/bits/stl_vector.h **** 	  __throw_out_of_range("vector [] access out of range");
 524:d:/software/ovi_2503a_s3trc/ovi_2503a_s3trc/Tools/MinGW/include/c++/3.3.1/bits/stl_vector.h ****       }
 525:d:/software/ovi_2503a_s3trc/ovi_2503a_s3trc/Tools/MinGW/include/c++/3.3.1/bits/stl_vector.h ****       
 526:d:/software/ovi_2503a_s3trc/ovi_2503a_s3trc/Tools/MinGW/include/c++/3.3.1/bits/stl_vector.h ****     public:
 527:d:/software/ovi_2503a_s3trc/ovi_2503a_s3trc/Tools/MinGW/include/c++/3.3.1/bits/stl_vector.h ****       /**
 528:d:/software/ovi_2503a_s3trc/ovi_2503a_s3trc/Tools/MinGW/include/c++/3.3.1/bits/stl_vector.h ****        *  @brief  Provides access to the data contained in the %vector.
 529:d:/software/ovi_2503a_s3trc/ovi_2503a_s3trc/Tools/MinGW/include/c++/3.3.1/bits/stl_vector.h ****        *  @param n The index of the element for which data should be
 530:d:/software/ovi_2503a_s3trc/ovi_2503a_s3trc/Tools/MinGW/include/c++/3.3.1/bits/stl_vector.h ****        *  accessed.
 531:d:/software/ovi_2503a_s3trc/ovi_2503a_s3trc/Tools/MinGW/include/c++/3.3.1/bits/stl_vector.h ****        *  @return  Read/write reference to data.
 532:d:/software/ovi_2503a_s3trc/ovi_2503a_s3trc/Tools/MinGW/include/c++/3.3.1/bits/stl_vector.h ****        *  @throw  std::out_of_range  If @a n is an invalid index.
 533:d:/software/ovi_2503a_s3trc/ovi_2503a_s3trc/Tools/MinGW/include/c++/3.3.1/bits/stl_vector.h ****        *
 534:d:/software/ovi_2503a_s3trc/ovi_2503a_s3trc/Tools/MinGW/include/c++/3.3.1/bits/stl_vector.h ****        *  This function provides for safer data access.  The parameter is first
 535:d:/software/ovi_2503a_s3trc/ovi_2503a_s3trc/Tools/MinGW/include/c++/3.3.1/bits/stl_vector.h ****        *  checked that it is in the range of the vector.  The function throws
 536:d:/software/ovi_2503a_s3trc/ovi_2503a_s3trc/Tools/MinGW/include/c++/3.3.1/bits/stl_vector.h ****        *  out_of_range if the check fails.
 537:d:/software/ovi_2503a_s3trc/ovi_2503a_s3trc/Tools/MinGW/include/c++/3.3.1/bits/stl_vector.h ****        */
 538:d:/software/ovi_2503a_s3trc/ovi_2503a_s3trc/Tools/MinGW/include/c++/3.3.1/bits/stl_vector.h ****       reference
 539:d:/software/ovi_2503a_s3trc/ovi_2503a_s3trc/Tools/MinGW/include/c++/3.3.1/bits/stl_vector.h ****       at(size_type __n) { _M_range_check(__n); return (*this)[__n]; }
 540:d:/software/ovi_2503a_s3trc/ovi_2503a_s3trc/Tools/MinGW/include/c++/3.3.1/bits/stl_vector.h ****       
 541:d:/software/ovi_2503a_s3trc/ovi_2503a_s3trc/Tools/MinGW/include/c++/3.3.1/bits/stl_vector.h ****       /**
 542:d:/software/ovi_2503a_s3trc/ovi_2503a_s3trc/Tools/MinGW/include/c++/3.3.1/bits/stl_vector.h ****        *  @brief  Provides access to the data contained in the %vector.
 543:d:/software/ovi_2503a_s3trc/ovi_2503a_s3trc/Tools/MinGW/include/c++/3.3.1/bits/stl_vector.h ****        *  @param n The index of the element for which data should be
 544:d:/software/ovi_2503a_s3trc/ovi_2503a_s3trc/Tools/MinGW/include/c++/3.3.1/bits/stl_vector.h ****        *  accessed.
 545:d:/software/ovi_2503a_s3trc/ovi_2503a_s3trc/Tools/MinGW/include/c++/3.3.1/bits/stl_vector.h ****        *  @return  Read-only (constant) reference to data.
 546:d:/software/ovi_2503a_s3trc/ovi_2503a_s3trc/Tools/MinGW/include/c++/3.3.1/bits/stl_vector.h ****        *  @throw  std::out_of_range  If @a n is an invalid index.
 547:d:/software/ovi_2503a_s3trc/ovi_2503a_s3trc/Tools/MinGW/include/c++/3.3.1/bits/stl_vector.h ****        *
GAS LISTING d:/software/ovi_2503a_s3trc/ovi_2503a_s3trc/plutommi/Customer/ResGenerator/gcctmp/cci0baaa.s 			page 75


 548:d:/software/ovi_2503a_s3trc/ovi_2503a_s3trc/Tools/MinGW/include/c++/3.3.1/bits/stl_vector.h ****        *  This function provides for safer data access.  The parameter
 549:d:/software/ovi_2503a_s3trc/ovi_2503a_s3trc/Tools/MinGW/include/c++/3.3.1/bits/stl_vector.h ****        *  is first checked that it is in the range of the vector.  The
 550:d:/software/ovi_2503a_s3trc/ovi_2503a_s3trc/Tools/MinGW/include/c++/3.3.1/bits/stl_vector.h ****        *  function throws out_of_range if the check fails.
 551:d:/software/ovi_2503a_s3trc/ovi_2503a_s3trc/Tools/MinGW/include/c++/3.3.1/bits/stl_vector.h ****        */
 552:d:/software/ovi_2503a_s3trc/ovi_2503a_s3trc/Tools/MinGW/include/c++/3.3.1/bits/stl_vector.h ****       const_reference
 553:d:/software/ovi_2503a_s3trc/ovi_2503a_s3trc/Tools/MinGW/include/c++/3.3.1/bits/stl_vector.h ****       at(size_type __n) const { _M_range_check(__n); return (*this)[__n]; }
 554:d:/software/ovi_2503a_s3trc/ovi_2503a_s3trc/Tools/MinGW/include/c++/3.3.1/bits/stl_vector.h ****       
 555:d:/software/ovi_2503a_s3trc/ovi_2503a_s3trc/Tools/MinGW/include/c++/3.3.1/bits/stl_vector.h ****       /**
 556:d:/software/ovi_2503a_s3trc/ovi_2503a_s3trc/Tools/MinGW/include/c++/3.3.1/bits/stl_vector.h ****        *  Returns a read/write reference to the data at the first
 557:d:/software/ovi_2503a_s3trc/ovi_2503a_s3trc/Tools/MinGW/include/c++/3.3.1/bits/stl_vector.h ****        *  element of the %vector.
 558:d:/software/ovi_2503a_s3trc/ovi_2503a_s3trc/Tools/MinGW/include/c++/3.3.1/bits/stl_vector.h ****        */
 559:d:/software/ovi_2503a_s3trc/ovi_2503a_s3trc/Tools/MinGW/include/c++/3.3.1/bits/stl_vector.h ****       reference
 560:d:/software/ovi_2503a_s3trc/ovi_2503a_s3trc/Tools/MinGW/include/c++/3.3.1/bits/stl_vector.h ****       front() { return *begin(); }
 561:d:/software/ovi_2503a_s3trc/ovi_2503a_s3trc/Tools/MinGW/include/c++/3.3.1/bits/stl_vector.h ****       
 562:d:/software/ovi_2503a_s3trc/ovi_2503a_s3trc/Tools/MinGW/include/c++/3.3.1/bits/stl_vector.h ****       /**
 563:d:/software/ovi_2503a_s3trc/ovi_2503a_s3trc/Tools/MinGW/include/c++/3.3.1/bits/stl_vector.h ****        *  Returns a read-only (constant) reference to the data at the first
 564:d:/software/ovi_2503a_s3trc/ovi_2503a_s3trc/Tools/MinGW/include/c++/3.3.1/bits/stl_vector.h ****        *  element of the %vector.
 565:d:/software/ovi_2503a_s3trc/ovi_2503a_s3trc/Tools/MinGW/include/c++/3.3.1/bits/stl_vector.h ****        */
 566:d:/software/ovi_2503a_s3trc/ovi_2503a_s3trc/Tools/MinGW/include/c++/3.3.1/bits/stl_vector.h ****       const_reference
 567:d:/software/ovi_2503a_s3trc/ovi_2503a_s3trc/Tools/MinGW/include/c++/3.3.1/bits/stl_vector.h ****       front() const { return *begin(); }
 568:d:/software/ovi_2503a_s3trc/ovi_2503a_s3trc/Tools/MinGW/include/c++/3.3.1/bits/stl_vector.h ****       
 569:d:/software/ovi_2503a_s3trc/ovi_2503a_s3trc/Tools/MinGW/include/c++/3.3.1/bits/stl_vector.h ****       /**
 570:d:/software/ovi_2503a_s3trc/ovi_2503a_s3trc/Tools/MinGW/include/c++/3.3.1/bits/stl_vector.h ****        *  Returns a read/write reference to the data at the last element of the
 571:d:/software/ovi_2503a_s3trc/ovi_2503a_s3trc/Tools/MinGW/include/c++/3.3.1/bits/stl_vector.h ****        *  %vector.
 572:d:/software/ovi_2503a_s3trc/ovi_2503a_s3trc/Tools/MinGW/include/c++/3.3.1/bits/stl_vector.h ****        */
 573:d:/software/ovi_2503a_s3trc/ovi_2503a_s3trc/Tools/MinGW/include/c++/3.3.1/bits/stl_vector.h ****       reference
 574:d:/software/ovi_2503a_s3trc/ovi_2503a_s3trc/Tools/MinGW/include/c++/3.3.1/bits/stl_vector.h ****       back() { return *(end() - 1); }
 575:d:/software/ovi_2503a_s3trc/ovi_2503a_s3trc/Tools/MinGW/include/c++/3.3.1/bits/stl_vector.h ****       
 576:d:/software/ovi_2503a_s3trc/ovi_2503a_s3trc/Tools/MinGW/include/c++/3.3.1/bits/stl_vector.h ****       /**
 577:d:/software/ovi_2503a_s3trc/ovi_2503a_s3trc/Tools/MinGW/include/c++/3.3.1/bits/stl_vector.h ****        *  Returns a read-only (constant) reference to the data at the last
 578:d:/software/ovi_2503a_s3trc/ovi_2503a_s3trc/Tools/MinGW/include/c++/3.3.1/bits/stl_vector.h ****        *  element of the %vector.
 579:d:/software/ovi_2503a_s3trc/ovi_2503a_s3trc/Tools/MinGW/include/c++/3.3.1/bits/stl_vector.h ****        */
 580:d:/software/ovi_2503a_s3trc/ovi_2503a_s3trc/Tools/MinGW/include/c++/3.3.1/bits/stl_vector.h ****       const_reference
 581:d:/software/ovi_2503a_s3trc/ovi_2503a_s3trc/Tools/MinGW/include/c++/3.3.1/bits/stl_vector.h ****       back() const { return *(end() - 1); }
 582:d:/software/ovi_2503a_s3trc/ovi_2503a_s3trc/Tools/MinGW/include/c++/3.3.1/bits/stl_vector.h ****   
 583:d:/software/ovi_2503a_s3trc/ovi_2503a_s3trc/Tools/MinGW/include/c++/3.3.1/bits/stl_vector.h ****       // [23.2.4.3] modifiers
 584:d:/software/ovi_2503a_s3trc/ovi_2503a_s3trc/Tools/MinGW/include/c++/3.3.1/bits/stl_vector.h ****       /**
 585:d:/software/ovi_2503a_s3trc/ovi_2503a_s3trc/Tools/MinGW/include/c++/3.3.1/bits/stl_vector.h ****        *  @brief  Add data to the end of the %vector.
 586:d:/software/ovi_2503a_s3trc/ovi_2503a_s3trc/Tools/MinGW/include/c++/3.3.1/bits/stl_vector.h ****        *  @param  x  Data to be added.
 587:d:/software/ovi_2503a_s3trc/ovi_2503a_s3trc/Tools/MinGW/include/c++/3.3.1/bits/stl_vector.h ****        *
 588:d:/software/ovi_2503a_s3trc/ovi_2503a_s3trc/Tools/MinGW/include/c++/3.3.1/bits/stl_vector.h ****        *  This is a typical stack operation.  The function creates an
 589:d:/software/ovi_2503a_s3trc/ovi_2503a_s3trc/Tools/MinGW/include/c++/3.3.1/bits/stl_vector.h ****        *  element at the end of the %vector and assigns the given data
 590:d:/software/ovi_2503a_s3trc/ovi_2503a_s3trc/Tools/MinGW/include/c++/3.3.1/bits/stl_vector.h ****        *  to it.  Due to the nature of a %vector this operation can be
 591:d:/software/ovi_2503a_s3trc/ovi_2503a_s3trc/Tools/MinGW/include/c++/3.3.1/bits/stl_vector.h ****        *  done in constant time if the %vector has preallocated space
 592:d:/software/ovi_2503a_s3trc/ovi_2503a_s3trc/Tools/MinGW/include/c++/3.3.1/bits/stl_vector.h ****        *  available.
 593:d:/software/ovi_2503a_s3trc/ovi_2503a_s3trc/Tools/MinGW/include/c++/3.3.1/bits/stl_vector.h ****        */
 594:d:/software/ovi_2503a_s3trc/ovi_2503a_s3trc/Tools/MinGW/include/c++/3.3.1/bits/stl_vector.h ****       void
 595:d:/software/ovi_2503a_s3trc/ovi_2503a_s3trc/Tools/MinGW/include/c++/3.3.1/bits/stl_vector.h ****       push_back(const value_type& __x)
 596:d:/software/ovi_2503a_s3trc/ovi_2503a_s3trc/Tools/MinGW/include/c++/3.3.1/bits/stl_vector.h ****       {
 5038              	LM172:
 5039 0000 55       		pushl	%ebp
 5040 0001 89E5     		movl	%esp, %ebp
 5041 0003 83EC18   		subl	$24, %esp
 597:d:/software/ovi_2503a_s3trc/ovi_2503a_s3trc/Tools/MinGW/include/c++/3.3.1/bits/stl_vector.h **** 	if (_M_finish != _M_end_of_storage)
 5043              	LM173:
 5044              	LBB36:
 5045 0006 8B4508   		movl	8(%ebp), %eax
GAS LISTING d:/software/ovi_2503a_s3trc/ovi_2503a_s3trc/plutommi/Customer/ResGenerator/gcctmp/cci0baaa.s 			page 76


 5046 0009 8B5508   		movl	8(%ebp), %edx
 5047 000c 8B4004   		movl	4(%eax), %eax
 5048 000f 3B4208   		cmpl	8(%edx), %eax
 5049 0012 741E     		je	L191
 598:d:/software/ovi_2503a_s3trc/ovi_2503a_s3trc/Tools/MinGW/include/c++/3.3.1/bits/stl_vector.h **** 	  {
 599:d:/software/ovi_2503a_s3trc/ovi_2503a_s3trc/Tools/MinGW/include/c++/3.3.1/bits/stl_vector.h **** 	    _Construct(_M_finish, __x);
 5051              	LM174:
 5052 0014 8B450C   		movl	12(%ebp), %eax
 5053 0017 89442404 		movl	%eax, 4(%esp)
 5054 001b 8B4508   		movl	8(%ebp), %eax
 5055 001e 8B4004   		movl	4(%eax), %eax
 5056 0021 890424   		movl	%eax, (%esp)
 5057 0024 E8000000 		call	__ZSt10_ConstructIN10ThreadPool10ThreadDataES1_EvPT_RKT0_
 5057      00
 600:d:/software/ovi_2503a_s3trc/ovi_2503a_s3trc/Tools/MinGW/include/c++/3.3.1/bits/stl_vector.h **** 	    ++_M_finish;
 5059              	LM175:
 5060 0029 8B4508   		movl	8(%ebp), %eax
 5061 002c 8340040C 		addl	$12, 4(%eax)
 5062 0030 EB27     		jmp	L190
 5063              	L191:
 601:d:/software/ovi_2503a_s3trc/ovi_2503a_s3trc/Tools/MinGW/include/c++/3.3.1/bits/stl_vector.h **** 	  }
 602:d:/software/ovi_2503a_s3trc/ovi_2503a_s3trc/Tools/MinGW/include/c++/3.3.1/bits/stl_vector.h **** 	else
 603:d:/software/ovi_2503a_s3trc/ovi_2503a_s3trc/Tools/MinGW/include/c++/3.3.1/bits/stl_vector.h **** 	  _M_insert_aux(end(), __x);
 5065              	LM176:
 5066 0032 8B4508   		movl	8(%ebp), %eax
 5067 0035 890424   		movl	%eax, (%esp)
 5068 0038 E8000000 		call	__ZNSt6vectorIN10ThreadPool10ThreadDataESaIS1_EE3endEv
 5068      00
 5069 003d 8945FC   		movl	%eax, -4(%ebp)
 5070 0040 8B450C   		movl	12(%ebp), %eax
 5071 0043 89442408 		movl	%eax, 8(%esp)
 5072 0047 8B45FC   		movl	-4(%ebp), %eax
 5073 004a 89442404 		movl	%eax, 4(%esp)
 5074 004e 8B4508   		movl	8(%ebp), %eax
 5075 0051 890424   		movl	%eax, (%esp)
 5076 0054 E8000000 		call	__ZNSt6vectorIN10ThreadPool10ThreadDataESaIS1_EE13_M_insert_auxEN9__gnu_cxx17__normal_iterato
 5076      00
 5077              	L190:
 5078 0059 C9       		leave
 5079 005a C3       		ret
 5080              	LBE36:
 5081              	Lscope19:
 5083 005b 90       		.section	.text$_ZNSt6vectorIN10ThreadPool10ThreadDataESaIS1_EE5beginEv,"x"
 5084              		.linkonce discard
 5085              		.align 2
 5088              	.globl __ZNSt6vectorIN10ThreadPool10ThreadDataESaIS1_EE5beginEv
 5090              	__ZNSt6vectorIN10ThreadPool10ThreadDataESaIS1_EE5beginEv:
 5092              	LM177:
 5093 0000 55       		pushl	%ebp
 5094 0001 89E5     		movl	%esp, %ebp
 5095 0003 83EC18   		subl	$24, %esp
 5097              	LM178:
 5098              	LBB37:
 5099 0006 8B4508   		movl	8(%ebp), %eax
 5100 0009 89442404 		movl	%eax, 4(%esp)
 5101 000d 8D45FC   		leal	-4(%ebp), %eax
 5102 0010 890424   		movl	%eax, (%esp)
GAS LISTING d:/software/ovi_2503a_s3trc/ovi_2503a_s3trc/plutommi/Customer/ResGenerator/gcctmp/cci0baaa.s 			page 77


 5103 0013 E8000000 		call	__ZN9__gnu_cxx17__normal_iteratorIPN10ThreadPool10ThreadDataESt6vectorIS2_SaIS2_EEEC1ERKS3_
 5103      00
 5104 0018 8B45FC   		movl	-4(%ebp), %eax
 5105 001b C9       		leave
 5106 001c C3       		ret
 5107              	LBE37:
 5108              	Lscope20:
 5110 001d 909090   		.section	.text$_ZN9__gnu_cxxneIPN10ThreadPool10ThreadDataESt6vectorIS2_SaIS2_EEEEbRKNS_17__normal_
 5111              		.linkonce discard
 5112              		.align 2
 5116              	.globl __ZN9__gnu_cxxneIPN10ThreadPool10ThreadDataESt6vectorIS2_SaIS2_EEEEbRKNS_17__normal_iterator
 5118              	__ZN9__gnu_cxxneIPN10ThreadPool10ThreadDataESt6vectorIS2_SaIS2_EEEEbRKNS_17__normal_iteratorIT_T0_E
 5120              	Ltext5:
   1:d:/software/ovi_2503a_s3trc/ovi_2503a_s3trc/Tools/MinGW/include/c++/3.3.1/bits/stl_iterator.h **** // Iterators -*- C++ -*-
   2:d:/software/ovi_2503a_s3trc/ovi_2503a_s3trc/Tools/MinGW/include/c++/3.3.1/bits/stl_iterator.h **** 
   3:d:/software/ovi_2503a_s3trc/ovi_2503a_s3trc/Tools/MinGW/include/c++/3.3.1/bits/stl_iterator.h **** // Copyright (C) 2001, 2002 Free Software Foundation, Inc.
   4:d:/software/ovi_2503a_s3trc/ovi_2503a_s3trc/Tools/MinGW/include/c++/3.3.1/bits/stl_iterator.h **** //
   5:d:/software/ovi_2503a_s3trc/ovi_2503a_s3trc/Tools/MinGW/include/c++/3.3.1/bits/stl_iterator.h **** // This file is part of the GNU ISO C++ Library.  This library is free
   6:d:/software/ovi_2503a_s3trc/ovi_2503a_s3trc/Tools/MinGW/include/c++/3.3.1/bits/stl_iterator.h **** // software; you can redistribute it and/or modify it under the
   7:d:/software/ovi_2503a_s3trc/ovi_2503a_s3trc/Tools/MinGW/include/c++/3.3.1/bits/stl_iterator.h **** // terms of the GNU General Public License as published by the
   8:d:/software/ovi_2503a_s3trc/ovi_2503a_s3trc/Tools/MinGW/include/c++/3.3.1/bits/stl_iterator.h **** // Free Software Foundation; either version 2, or (at your option)
   9:d:/software/ovi_2503a_s3trc/ovi_2503a_s3trc/Tools/MinGW/include/c++/3.3.1/bits/stl_iterator.h **** // any later version.
  10:d:/software/ovi_2503a_s3trc/ovi_2503a_s3trc/Tools/MinGW/include/c++/3.3.1/bits/stl_iterator.h **** 
  11:d:/software/ovi_2503a_s3trc/ovi_2503a_s3trc/Tools/MinGW/include/c++/3.3.1/bits/stl_iterator.h **** // This library is distributed in the hope that it will be useful,
  12:d:/software/ovi_2503a_s3trc/ovi_2503a_s3trc/Tools/MinGW/include/c++/3.3.1/bits/stl_iterator.h **** // but WITHOUT ANY WARRANTY; without even the implied warranty of
  13:d:/software/ovi_2503a_s3trc/ovi_2503a_s3trc/Tools/MinGW/include/c++/3.3.1/bits/stl_iterator.h **** // MERCHANTABILITY or FITNESS FOR A PARTICULAR PURPOSE.  See the
  14:d:/software/ovi_2503a_s3trc/ovi_2503a_s3trc/Tools/MinGW/include/c++/3.3.1/bits/stl_iterator.h **** // GNU General Public License for more details.
  15:d:/software/ovi_2503a_s3trc/ovi_2503a_s3trc/Tools/MinGW/include/c++/3.3.1/bits/stl_iterator.h **** 
  16:d:/software/ovi_2503a_s3trc/ovi_2503a_s3trc/Tools/MinGW/include/c++/3.3.1/bits/stl_iterator.h **** // You should have received a copy of the GNU General Public License along
  17:d:/software/ovi_2503a_s3trc/ovi_2503a_s3trc/Tools/MinGW/include/c++/3.3.1/bits/stl_iterator.h **** // with this library; see the file COPYING.  If not, write to the Free
  18:d:/software/ovi_2503a_s3trc/ovi_2503a_s3trc/Tools/MinGW/include/c++/3.3.1/bits/stl_iterator.h **** // Software Foundation, 59 Temple Place - Suite 330, Boston, MA 02111-1307,
  19:d:/software/ovi_2503a_s3trc/ovi_2503a_s3trc/Tools/MinGW/include/c++/3.3.1/bits/stl_iterator.h **** // USA.
  20:d:/software/ovi_2503a_s3trc/ovi_2503a_s3trc/Tools/MinGW/include/c++/3.3.1/bits/stl_iterator.h **** 
  21:d:/software/ovi_2503a_s3trc/ovi_2503a_s3trc/Tools/MinGW/include/c++/3.3.1/bits/stl_iterator.h **** // As a special exception, you may use this file as part of a free software
  22:d:/software/ovi_2503a_s3trc/ovi_2503a_s3trc/Tools/MinGW/include/c++/3.3.1/bits/stl_iterator.h **** // library without restriction.  Specifically, if other files instantiate
  23:d:/software/ovi_2503a_s3trc/ovi_2503a_s3trc/Tools/MinGW/include/c++/3.3.1/bits/stl_iterator.h **** // templates or use macros or inline functions from this file, or you compile
  24:d:/software/ovi_2503a_s3trc/ovi_2503a_s3trc/Tools/MinGW/include/c++/3.3.1/bits/stl_iterator.h **** // this file and link it with other files to produce an executable, this
  25:d:/software/ovi_2503a_s3trc/ovi_2503a_s3trc/Tools/MinGW/include/c++/3.3.1/bits/stl_iterator.h **** // file does not by itself cause the resulting executable to be covered by
  26:d:/software/ovi_2503a_s3trc/ovi_2503a_s3trc/Tools/MinGW/include/c++/3.3.1/bits/stl_iterator.h **** // the GNU General Public License.  This exception does not however
  27:d:/software/ovi_2503a_s3trc/ovi_2503a_s3trc/Tools/MinGW/include/c++/3.3.1/bits/stl_iterator.h **** // invalidate any other reasons why the executable file might be covered by
  28:d:/software/ovi_2503a_s3trc/ovi_2503a_s3trc/Tools/MinGW/include/c++/3.3.1/bits/stl_iterator.h **** // the GNU General Public License.
  29:d:/software/ovi_2503a_s3trc/ovi_2503a_s3trc/Tools/MinGW/include/c++/3.3.1/bits/stl_iterator.h **** 
  30:d:/software/ovi_2503a_s3trc/ovi_2503a_s3trc/Tools/MinGW/include/c++/3.3.1/bits/stl_iterator.h **** /*
  31:d:/software/ovi_2503a_s3trc/ovi_2503a_s3trc/Tools/MinGW/include/c++/3.3.1/bits/stl_iterator.h ****  *
  32:d:/software/ovi_2503a_s3trc/ovi_2503a_s3trc/Tools/MinGW/include/c++/3.3.1/bits/stl_iterator.h ****  * Copyright (c) 1994
  33:d:/software/ovi_2503a_s3trc/ovi_2503a_s3trc/Tools/MinGW/include/c++/3.3.1/bits/stl_iterator.h ****  * Hewlett-Packard Company
  34:d:/software/ovi_2503a_s3trc/ovi_2503a_s3trc/Tools/MinGW/include/c++/3.3.1/bits/stl_iterator.h ****  *
  35:d:/software/ovi_2503a_s3trc/ovi_2503a_s3trc/Tools/MinGW/include/c++/3.3.1/bits/stl_iterator.h ****  * Permission to use, copy, modify, distribute and sell this software
  36:d:/software/ovi_2503a_s3trc/ovi_2503a_s3trc/Tools/MinGW/include/c++/3.3.1/bits/stl_iterator.h ****  * and its documentation for any purpose is hereby granted without fee,
  37:d:/software/ovi_2503a_s3trc/ovi_2503a_s3trc/Tools/MinGW/include/c++/3.3.1/bits/stl_iterator.h ****  * provided that the above copyright notice appear in all copies and
  38:d:/software/ovi_2503a_s3trc/ovi_2503a_s3trc/Tools/MinGW/include/c++/3.3.1/bits/stl_iterator.h ****  * that both that copyright notice and this permission notice appear
  39:d:/software/ovi_2503a_s3trc/ovi_2503a_s3trc/Tools/MinGW/include/c++/3.3.1/bits/stl_iterator.h ****  * in supporting documentation.  Hewlett-Packard Company makes no
  40:d:/software/ovi_2503a_s3trc/ovi_2503a_s3trc/Tools/MinGW/include/c++/3.3.1/bits/stl_iterator.h ****  * representations about the suitability of this software for any
  41:d:/software/ovi_2503a_s3trc/ovi_2503a_s3trc/Tools/MinGW/include/c++/3.3.1/bits/stl_iterator.h ****  * purpose.  It is provided "as is" without express or implied warranty.
  42:d:/software/ovi_2503a_s3trc/ovi_2503a_s3trc/Tools/MinGW/include/c++/3.3.1/bits/stl_iterator.h ****  *
  43:d:/software/ovi_2503a_s3trc/ovi_2503a_s3trc/Tools/MinGW/include/c++/3.3.1/bits/stl_iterator.h ****  *
  44:d:/software/ovi_2503a_s3trc/ovi_2503a_s3trc/Tools/MinGW/include/c++/3.3.1/bits/stl_iterator.h ****  * Copyright (c) 1996-1998
GAS LISTING d:/software/ovi_2503a_s3trc/ovi_2503a_s3trc/plutommi/Customer/ResGenerator/gcctmp/cci0baaa.s 			page 78


  45:d:/software/ovi_2503a_s3trc/ovi_2503a_s3trc/Tools/MinGW/include/c++/3.3.1/bits/stl_iterator.h ****  * Silicon Graphics Computer Systems, Inc.
  46:d:/software/ovi_2503a_s3trc/ovi_2503a_s3trc/Tools/MinGW/include/c++/3.3.1/bits/stl_iterator.h ****  *
  47:d:/software/ovi_2503a_s3trc/ovi_2503a_s3trc/Tools/MinGW/include/c++/3.3.1/bits/stl_iterator.h ****  * Permission to use, copy, modify, distribute and sell this software
  48:d:/software/ovi_2503a_s3trc/ovi_2503a_s3trc/Tools/MinGW/include/c++/3.3.1/bits/stl_iterator.h ****  * and its documentation for any purpose is hereby granted without fee,
  49:d:/software/ovi_2503a_s3trc/ovi_2503a_s3trc/Tools/MinGW/include/c++/3.3.1/bits/stl_iterator.h ****  * provided that the above copyright notice appear in all copies and
  50:d:/software/ovi_2503a_s3trc/ovi_2503a_s3trc/Tools/MinGW/include/c++/3.3.1/bits/stl_iterator.h ****  * that both that copyright notice and this permission notice appear
  51:d:/software/ovi_2503a_s3trc/ovi_2503a_s3trc/Tools/MinGW/include/c++/3.3.1/bits/stl_iterator.h ****  * in supporting documentation.  Silicon Graphics makes no
  52:d:/software/ovi_2503a_s3trc/ovi_2503a_s3trc/Tools/MinGW/include/c++/3.3.1/bits/stl_iterator.h ****  * representations about the suitability of this software for any
  53:d:/software/ovi_2503a_s3trc/ovi_2503a_s3trc/Tools/MinGW/include/c++/3.3.1/bits/stl_iterator.h ****  * purpose.  It is provided "as is" without express or implied warranty.
  54:d:/software/ovi_2503a_s3trc/ovi_2503a_s3trc/Tools/MinGW/include/c++/3.3.1/bits/stl_iterator.h ****  */
  55:d:/software/ovi_2503a_s3trc/ovi_2503a_s3trc/Tools/MinGW/include/c++/3.3.1/bits/stl_iterator.h **** 
  56:d:/software/ovi_2503a_s3trc/ovi_2503a_s3trc/Tools/MinGW/include/c++/3.3.1/bits/stl_iterator.h **** /** @file stl_iterator.h
  57:d:/software/ovi_2503a_s3trc/ovi_2503a_s3trc/Tools/MinGW/include/c++/3.3.1/bits/stl_iterator.h ****  *  This is an internal header file, included by other library headers.
  58:d:/software/ovi_2503a_s3trc/ovi_2503a_s3trc/Tools/MinGW/include/c++/3.3.1/bits/stl_iterator.h ****  *  You should not attempt to use it directly.
  59:d:/software/ovi_2503a_s3trc/ovi_2503a_s3trc/Tools/MinGW/include/c++/3.3.1/bits/stl_iterator.h ****  *
  60:d:/software/ovi_2503a_s3trc/ovi_2503a_s3trc/Tools/MinGW/include/c++/3.3.1/bits/stl_iterator.h ****  *  This file implements reverse_iterator, back_insert_iterator,
  61:d:/software/ovi_2503a_s3trc/ovi_2503a_s3trc/Tools/MinGW/include/c++/3.3.1/bits/stl_iterator.h ****  *  front_insert_iterator, insert_iterator, __normal_iterator, and their
  62:d:/software/ovi_2503a_s3trc/ovi_2503a_s3trc/Tools/MinGW/include/c++/3.3.1/bits/stl_iterator.h ****  *  supporting functions and overloaded operators.
  63:d:/software/ovi_2503a_s3trc/ovi_2503a_s3trc/Tools/MinGW/include/c++/3.3.1/bits/stl_iterator.h ****  */
  64:d:/software/ovi_2503a_s3trc/ovi_2503a_s3trc/Tools/MinGW/include/c++/3.3.1/bits/stl_iterator.h **** 
  65:d:/software/ovi_2503a_s3trc/ovi_2503a_s3trc/Tools/MinGW/include/c++/3.3.1/bits/stl_iterator.h **** #ifndef __GLIBCPP_INTERNAL_ITERATOR_H
  66:d:/software/ovi_2503a_s3trc/ovi_2503a_s3trc/Tools/MinGW/include/c++/3.3.1/bits/stl_iterator.h **** #define __GLIBCPP_INTERNAL_ITERATOR_H
  67:d:/software/ovi_2503a_s3trc/ovi_2503a_s3trc/Tools/MinGW/include/c++/3.3.1/bits/stl_iterator.h **** 
  68:d:/software/ovi_2503a_s3trc/ovi_2503a_s3trc/Tools/MinGW/include/c++/3.3.1/bits/stl_iterator.h **** namespace std
  69:d:/software/ovi_2503a_s3trc/ovi_2503a_s3trc/Tools/MinGW/include/c++/3.3.1/bits/stl_iterator.h **** {
  70:d:/software/ovi_2503a_s3trc/ovi_2503a_s3trc/Tools/MinGW/include/c++/3.3.1/bits/stl_iterator.h ****   // 24.4.1 Reverse iterators
  71:d:/software/ovi_2503a_s3trc/ovi_2503a_s3trc/Tools/MinGW/include/c++/3.3.1/bits/stl_iterator.h ****   /**
  72:d:/software/ovi_2503a_s3trc/ovi_2503a_s3trc/Tools/MinGW/include/c++/3.3.1/bits/stl_iterator.h ****    *  "Bidirectional and random access iterators have corresponding reverse
  73:d:/software/ovi_2503a_s3trc/ovi_2503a_s3trc/Tools/MinGW/include/c++/3.3.1/bits/stl_iterator.h ****    *  %iterator adaptors that iterate through the data structure in the
  74:d:/software/ovi_2503a_s3trc/ovi_2503a_s3trc/Tools/MinGW/include/c++/3.3.1/bits/stl_iterator.h ****    *  opposite direction.  They have the same signatures as the corresponding
  75:d:/software/ovi_2503a_s3trc/ovi_2503a_s3trc/Tools/MinGW/include/c++/3.3.1/bits/stl_iterator.h ****    *  iterators.  The fundamental relation between a reverse %iterator and its
  76:d:/software/ovi_2503a_s3trc/ovi_2503a_s3trc/Tools/MinGW/include/c++/3.3.1/bits/stl_iterator.h ****    *  corresponding %iterator @c i is established by the identity:
  77:d:/software/ovi_2503a_s3trc/ovi_2503a_s3trc/Tools/MinGW/include/c++/3.3.1/bits/stl_iterator.h ****    *  @code
  78:d:/software/ovi_2503a_s3trc/ovi_2503a_s3trc/Tools/MinGW/include/c++/3.3.1/bits/stl_iterator.h ****    *      &*(reverse_iterator(i)) == &*(i - 1)
  79:d:/software/ovi_2503a_s3trc/ovi_2503a_s3trc/Tools/MinGW/include/c++/3.3.1/bits/stl_iterator.h ****    *  @endcode
  80:d:/software/ovi_2503a_s3trc/ovi_2503a_s3trc/Tools/MinGW/include/c++/3.3.1/bits/stl_iterator.h ****    *
  81:d:/software/ovi_2503a_s3trc/ovi_2503a_s3trc/Tools/MinGW/include/c++/3.3.1/bits/stl_iterator.h ****    *  This mapping is dictated by the fact that while there is always a
  82:d:/software/ovi_2503a_s3trc/ovi_2503a_s3trc/Tools/MinGW/include/c++/3.3.1/bits/stl_iterator.h ****    *  pointer past the end of an array, there might not be a valid pointer
  83:d:/software/ovi_2503a_s3trc/ovi_2503a_s3trc/Tools/MinGW/include/c++/3.3.1/bits/stl_iterator.h ****    *  before the beginning of an array." [24.4.1]/1,2
  84:d:/software/ovi_2503a_s3trc/ovi_2503a_s3trc/Tools/MinGW/include/c++/3.3.1/bits/stl_iterator.h ****    *
  85:d:/software/ovi_2503a_s3trc/ovi_2503a_s3trc/Tools/MinGW/include/c++/3.3.1/bits/stl_iterator.h ****    *  Reverse iterators can be tricky and surprising at first.  Their
  86:d:/software/ovi_2503a_s3trc/ovi_2503a_s3trc/Tools/MinGW/include/c++/3.3.1/bits/stl_iterator.h ****    *  semantics make sense, however, and the trickiness is a side effect of
  87:d:/software/ovi_2503a_s3trc/ovi_2503a_s3trc/Tools/MinGW/include/c++/3.3.1/bits/stl_iterator.h ****    *  the requirement that the iterators must be safe.
  88:d:/software/ovi_2503a_s3trc/ovi_2503a_s3trc/Tools/MinGW/include/c++/3.3.1/bits/stl_iterator.h ****   */
  89:d:/software/ovi_2503a_s3trc/ovi_2503a_s3trc/Tools/MinGW/include/c++/3.3.1/bits/stl_iterator.h ****   template<typename _Iterator>
  90:d:/software/ovi_2503a_s3trc/ovi_2503a_s3trc/Tools/MinGW/include/c++/3.3.1/bits/stl_iterator.h ****     class reverse_iterator 
  91:d:/software/ovi_2503a_s3trc/ovi_2503a_s3trc/Tools/MinGW/include/c++/3.3.1/bits/stl_iterator.h ****     : public iterator<typename iterator_traits<_Iterator>::iterator_category,
  92:d:/software/ovi_2503a_s3trc/ovi_2503a_s3trc/Tools/MinGW/include/c++/3.3.1/bits/stl_iterator.h **** 		      typename iterator_traits<_Iterator>::value_type,
  93:d:/software/ovi_2503a_s3trc/ovi_2503a_s3trc/Tools/MinGW/include/c++/3.3.1/bits/stl_iterator.h **** 		      typename iterator_traits<_Iterator>::difference_type,
  94:d:/software/ovi_2503a_s3trc/ovi_2503a_s3trc/Tools/MinGW/include/c++/3.3.1/bits/stl_iterator.h **** 		      typename iterator_traits<_Iterator>::pointer,
  95:d:/software/ovi_2503a_s3trc/ovi_2503a_s3trc/Tools/MinGW/include/c++/3.3.1/bits/stl_iterator.h ****                       typename iterator_traits<_Iterator>::reference>
  96:d:/software/ovi_2503a_s3trc/ovi_2503a_s3trc/Tools/MinGW/include/c++/3.3.1/bits/stl_iterator.h ****     {
  97:d:/software/ovi_2503a_s3trc/ovi_2503a_s3trc/Tools/MinGW/include/c++/3.3.1/bits/stl_iterator.h ****     protected:
  98:d:/software/ovi_2503a_s3trc/ovi_2503a_s3trc/Tools/MinGW/include/c++/3.3.1/bits/stl_iterator.h ****       _Iterator current;
  99:d:/software/ovi_2503a_s3trc/ovi_2503a_s3trc/Tools/MinGW/include/c++/3.3.1/bits/stl_iterator.h **** 
 100:d:/software/ovi_2503a_s3trc/ovi_2503a_s3trc/Tools/MinGW/include/c++/3.3.1/bits/stl_iterator.h ****     public:
 101:d:/software/ovi_2503a_s3trc/ovi_2503a_s3trc/Tools/MinGW/include/c++/3.3.1/bits/stl_iterator.h ****       typedef _Iterator 				       iterator_type;
GAS LISTING d:/software/ovi_2503a_s3trc/ovi_2503a_s3trc/plutommi/Customer/ResGenerator/gcctmp/cci0baaa.s 			page 79


 102:d:/software/ovi_2503a_s3trc/ovi_2503a_s3trc/Tools/MinGW/include/c++/3.3.1/bits/stl_iterator.h ****       typedef typename iterator_traits<_Iterator>::difference_type 	
 103:d:/software/ovi_2503a_s3trc/ovi_2503a_s3trc/Tools/MinGW/include/c++/3.3.1/bits/stl_iterator.h ****       							       difference_type;
 104:d:/software/ovi_2503a_s3trc/ovi_2503a_s3trc/Tools/MinGW/include/c++/3.3.1/bits/stl_iterator.h ****       typedef typename iterator_traits<_Iterator>::reference   reference;
 105:d:/software/ovi_2503a_s3trc/ovi_2503a_s3trc/Tools/MinGW/include/c++/3.3.1/bits/stl_iterator.h ****       typedef typename iterator_traits<_Iterator>::pointer     pointer;
 106:d:/software/ovi_2503a_s3trc/ovi_2503a_s3trc/Tools/MinGW/include/c++/3.3.1/bits/stl_iterator.h **** 
 107:d:/software/ovi_2503a_s3trc/ovi_2503a_s3trc/Tools/MinGW/include/c++/3.3.1/bits/stl_iterator.h ****     public:
 108:d:/software/ovi_2503a_s3trc/ovi_2503a_s3trc/Tools/MinGW/include/c++/3.3.1/bits/stl_iterator.h ****       /**
 109:d:/software/ovi_2503a_s3trc/ovi_2503a_s3trc/Tools/MinGW/include/c++/3.3.1/bits/stl_iterator.h ****        *  The default constructor default-initializes member @p current.
 110:d:/software/ovi_2503a_s3trc/ovi_2503a_s3trc/Tools/MinGW/include/c++/3.3.1/bits/stl_iterator.h ****        *  If it is a pointer, that means it is zero-initialized.
 111:d:/software/ovi_2503a_s3trc/ovi_2503a_s3trc/Tools/MinGW/include/c++/3.3.1/bits/stl_iterator.h ****       */
 112:d:/software/ovi_2503a_s3trc/ovi_2503a_s3trc/Tools/MinGW/include/c++/3.3.1/bits/stl_iterator.h ****       // _GLIBCPP_RESOLVE_LIB_DEFECTS
 113:d:/software/ovi_2503a_s3trc/ovi_2503a_s3trc/Tools/MinGW/include/c++/3.3.1/bits/stl_iterator.h ****       // 235 No specification of default ctor for reverse_iterator
 114:d:/software/ovi_2503a_s3trc/ovi_2503a_s3trc/Tools/MinGW/include/c++/3.3.1/bits/stl_iterator.h ****       reverse_iterator() : current() { }
 115:d:/software/ovi_2503a_s3trc/ovi_2503a_s3trc/Tools/MinGW/include/c++/3.3.1/bits/stl_iterator.h **** 
 116:d:/software/ovi_2503a_s3trc/ovi_2503a_s3trc/Tools/MinGW/include/c++/3.3.1/bits/stl_iterator.h ****       /**
 117:d:/software/ovi_2503a_s3trc/ovi_2503a_s3trc/Tools/MinGW/include/c++/3.3.1/bits/stl_iterator.h ****        *  This %iterator will move in the opposite direction that @p x does.
 118:d:/software/ovi_2503a_s3trc/ovi_2503a_s3trc/Tools/MinGW/include/c++/3.3.1/bits/stl_iterator.h ****       */
 119:d:/software/ovi_2503a_s3trc/ovi_2503a_s3trc/Tools/MinGW/include/c++/3.3.1/bits/stl_iterator.h ****       explicit 
 120:d:/software/ovi_2503a_s3trc/ovi_2503a_s3trc/Tools/MinGW/include/c++/3.3.1/bits/stl_iterator.h ****       reverse_iterator(iterator_type __x) : current(__x) { }
 121:d:/software/ovi_2503a_s3trc/ovi_2503a_s3trc/Tools/MinGW/include/c++/3.3.1/bits/stl_iterator.h **** 
 122:d:/software/ovi_2503a_s3trc/ovi_2503a_s3trc/Tools/MinGW/include/c++/3.3.1/bits/stl_iterator.h ****       /**
 123:d:/software/ovi_2503a_s3trc/ovi_2503a_s3trc/Tools/MinGW/include/c++/3.3.1/bits/stl_iterator.h ****        *  The copy constructor is normal.
 124:d:/software/ovi_2503a_s3trc/ovi_2503a_s3trc/Tools/MinGW/include/c++/3.3.1/bits/stl_iterator.h ****       */
 125:d:/software/ovi_2503a_s3trc/ovi_2503a_s3trc/Tools/MinGW/include/c++/3.3.1/bits/stl_iterator.h ****       reverse_iterator(const reverse_iterator& __x) 
 126:d:/software/ovi_2503a_s3trc/ovi_2503a_s3trc/Tools/MinGW/include/c++/3.3.1/bits/stl_iterator.h ****       : current(__x.current) { }
 127:d:/software/ovi_2503a_s3trc/ovi_2503a_s3trc/Tools/MinGW/include/c++/3.3.1/bits/stl_iterator.h **** 
 128:d:/software/ovi_2503a_s3trc/ovi_2503a_s3trc/Tools/MinGW/include/c++/3.3.1/bits/stl_iterator.h ****       /**
 129:d:/software/ovi_2503a_s3trc/ovi_2503a_s3trc/Tools/MinGW/include/c++/3.3.1/bits/stl_iterator.h ****        *  A reverse_iterator across other types can be copied in the normal
 130:d:/software/ovi_2503a_s3trc/ovi_2503a_s3trc/Tools/MinGW/include/c++/3.3.1/bits/stl_iterator.h ****        *  fashion.
 131:d:/software/ovi_2503a_s3trc/ovi_2503a_s3trc/Tools/MinGW/include/c++/3.3.1/bits/stl_iterator.h ****       */
 132:d:/software/ovi_2503a_s3trc/ovi_2503a_s3trc/Tools/MinGW/include/c++/3.3.1/bits/stl_iterator.h ****       template<typename _Iter>
 133:d:/software/ovi_2503a_s3trc/ovi_2503a_s3trc/Tools/MinGW/include/c++/3.3.1/bits/stl_iterator.h ****         reverse_iterator(const reverse_iterator<_Iter>& __x)
 134:d:/software/ovi_2503a_s3trc/ovi_2503a_s3trc/Tools/MinGW/include/c++/3.3.1/bits/stl_iterator.h **** 	: current(__x.base()) { }
 135:d:/software/ovi_2503a_s3trc/ovi_2503a_s3trc/Tools/MinGW/include/c++/3.3.1/bits/stl_iterator.h ****     
 136:d:/software/ovi_2503a_s3trc/ovi_2503a_s3trc/Tools/MinGW/include/c++/3.3.1/bits/stl_iterator.h ****       /**
 137:d:/software/ovi_2503a_s3trc/ovi_2503a_s3trc/Tools/MinGW/include/c++/3.3.1/bits/stl_iterator.h ****        *  @return  @c current, the %iterator used for underlying work.
 138:d:/software/ovi_2503a_s3trc/ovi_2503a_s3trc/Tools/MinGW/include/c++/3.3.1/bits/stl_iterator.h ****       */
 139:d:/software/ovi_2503a_s3trc/ovi_2503a_s3trc/Tools/MinGW/include/c++/3.3.1/bits/stl_iterator.h ****       iterator_type 
 140:d:/software/ovi_2503a_s3trc/ovi_2503a_s3trc/Tools/MinGW/include/c++/3.3.1/bits/stl_iterator.h ****       base() const { return current; }
 141:d:/software/ovi_2503a_s3trc/ovi_2503a_s3trc/Tools/MinGW/include/c++/3.3.1/bits/stl_iterator.h **** 
 142:d:/software/ovi_2503a_s3trc/ovi_2503a_s3trc/Tools/MinGW/include/c++/3.3.1/bits/stl_iterator.h ****       /**
 143:d:/software/ovi_2503a_s3trc/ovi_2503a_s3trc/Tools/MinGW/include/c++/3.3.1/bits/stl_iterator.h ****        *  @return  TODO
 144:d:/software/ovi_2503a_s3trc/ovi_2503a_s3trc/Tools/MinGW/include/c++/3.3.1/bits/stl_iterator.h ****        *
 145:d:/software/ovi_2503a_s3trc/ovi_2503a_s3trc/Tools/MinGW/include/c++/3.3.1/bits/stl_iterator.h ****        *  @doctodo
 146:d:/software/ovi_2503a_s3trc/ovi_2503a_s3trc/Tools/MinGW/include/c++/3.3.1/bits/stl_iterator.h ****       */
 147:d:/software/ovi_2503a_s3trc/ovi_2503a_s3trc/Tools/MinGW/include/c++/3.3.1/bits/stl_iterator.h ****       reference 
 148:d:/software/ovi_2503a_s3trc/ovi_2503a_s3trc/Tools/MinGW/include/c++/3.3.1/bits/stl_iterator.h ****       operator*() const 
 149:d:/software/ovi_2503a_s3trc/ovi_2503a_s3trc/Tools/MinGW/include/c++/3.3.1/bits/stl_iterator.h ****       {
 150:d:/software/ovi_2503a_s3trc/ovi_2503a_s3trc/Tools/MinGW/include/c++/3.3.1/bits/stl_iterator.h **** 	_Iterator __tmp = current;
 151:d:/software/ovi_2503a_s3trc/ovi_2503a_s3trc/Tools/MinGW/include/c++/3.3.1/bits/stl_iterator.h **** 	return *--__tmp;
 152:d:/software/ovi_2503a_s3trc/ovi_2503a_s3trc/Tools/MinGW/include/c++/3.3.1/bits/stl_iterator.h ****       }
 153:d:/software/ovi_2503a_s3trc/ovi_2503a_s3trc/Tools/MinGW/include/c++/3.3.1/bits/stl_iterator.h **** 
 154:d:/software/ovi_2503a_s3trc/ovi_2503a_s3trc/Tools/MinGW/include/c++/3.3.1/bits/stl_iterator.h ****       /**
 155:d:/software/ovi_2503a_s3trc/ovi_2503a_s3trc/Tools/MinGW/include/c++/3.3.1/bits/stl_iterator.h ****        *  @return  TODO
 156:d:/software/ovi_2503a_s3trc/ovi_2503a_s3trc/Tools/MinGW/include/c++/3.3.1/bits/stl_iterator.h ****        *
 157:d:/software/ovi_2503a_s3trc/ovi_2503a_s3trc/Tools/MinGW/include/c++/3.3.1/bits/stl_iterator.h ****        *  @doctodo
 158:d:/software/ovi_2503a_s3trc/ovi_2503a_s3trc/Tools/MinGW/include/c++/3.3.1/bits/stl_iterator.h ****       */
GAS LISTING d:/software/ovi_2503a_s3trc/ovi_2503a_s3trc/plutommi/Customer/ResGenerator/gcctmp/cci0baaa.s 			page 80


 159:d:/software/ovi_2503a_s3trc/ovi_2503a_s3trc/Tools/MinGW/include/c++/3.3.1/bits/stl_iterator.h ****       pointer 
 160:d:/software/ovi_2503a_s3trc/ovi_2503a_s3trc/Tools/MinGW/include/c++/3.3.1/bits/stl_iterator.h ****       operator->() const { return &(operator*()); }
 161:d:/software/ovi_2503a_s3trc/ovi_2503a_s3trc/Tools/MinGW/include/c++/3.3.1/bits/stl_iterator.h **** 
 162:d:/software/ovi_2503a_s3trc/ovi_2503a_s3trc/Tools/MinGW/include/c++/3.3.1/bits/stl_iterator.h ****       /**
 163:d:/software/ovi_2503a_s3trc/ovi_2503a_s3trc/Tools/MinGW/include/c++/3.3.1/bits/stl_iterator.h ****        *  @return  TODO
 164:d:/software/ovi_2503a_s3trc/ovi_2503a_s3trc/Tools/MinGW/include/c++/3.3.1/bits/stl_iterator.h ****        *
 165:d:/software/ovi_2503a_s3trc/ovi_2503a_s3trc/Tools/MinGW/include/c++/3.3.1/bits/stl_iterator.h ****        *  @doctodo
 166:d:/software/ovi_2503a_s3trc/ovi_2503a_s3trc/Tools/MinGW/include/c++/3.3.1/bits/stl_iterator.h ****       */
 167:d:/software/ovi_2503a_s3trc/ovi_2503a_s3trc/Tools/MinGW/include/c++/3.3.1/bits/stl_iterator.h ****       reverse_iterator& 
 168:d:/software/ovi_2503a_s3trc/ovi_2503a_s3trc/Tools/MinGW/include/c++/3.3.1/bits/stl_iterator.h ****       operator++() 
 169:d:/software/ovi_2503a_s3trc/ovi_2503a_s3trc/Tools/MinGW/include/c++/3.3.1/bits/stl_iterator.h ****       {
 170:d:/software/ovi_2503a_s3trc/ovi_2503a_s3trc/Tools/MinGW/include/c++/3.3.1/bits/stl_iterator.h **** 	--current;
 171:d:/software/ovi_2503a_s3trc/ovi_2503a_s3trc/Tools/MinGW/include/c++/3.3.1/bits/stl_iterator.h **** 	return *this;
 172:d:/software/ovi_2503a_s3trc/ovi_2503a_s3trc/Tools/MinGW/include/c++/3.3.1/bits/stl_iterator.h ****       }
 173:d:/software/ovi_2503a_s3trc/ovi_2503a_s3trc/Tools/MinGW/include/c++/3.3.1/bits/stl_iterator.h **** 
 174:d:/software/ovi_2503a_s3trc/ovi_2503a_s3trc/Tools/MinGW/include/c++/3.3.1/bits/stl_iterator.h ****       /**
 175:d:/software/ovi_2503a_s3trc/ovi_2503a_s3trc/Tools/MinGW/include/c++/3.3.1/bits/stl_iterator.h ****        *  @return  TODO
 176:d:/software/ovi_2503a_s3trc/ovi_2503a_s3trc/Tools/MinGW/include/c++/3.3.1/bits/stl_iterator.h ****        *
 177:d:/software/ovi_2503a_s3trc/ovi_2503a_s3trc/Tools/MinGW/include/c++/3.3.1/bits/stl_iterator.h ****        *  @doctodo
 178:d:/software/ovi_2503a_s3trc/ovi_2503a_s3trc/Tools/MinGW/include/c++/3.3.1/bits/stl_iterator.h ****       */
 179:d:/software/ovi_2503a_s3trc/ovi_2503a_s3trc/Tools/MinGW/include/c++/3.3.1/bits/stl_iterator.h ****       reverse_iterator 
 180:d:/software/ovi_2503a_s3trc/ovi_2503a_s3trc/Tools/MinGW/include/c++/3.3.1/bits/stl_iterator.h ****       operator++(int) 
 181:d:/software/ovi_2503a_s3trc/ovi_2503a_s3trc/Tools/MinGW/include/c++/3.3.1/bits/stl_iterator.h ****       {
 182:d:/software/ovi_2503a_s3trc/ovi_2503a_s3trc/Tools/MinGW/include/c++/3.3.1/bits/stl_iterator.h **** 	reverse_iterator __tmp = *this;
 183:d:/software/ovi_2503a_s3trc/ovi_2503a_s3trc/Tools/MinGW/include/c++/3.3.1/bits/stl_iterator.h **** 	--current;
 184:d:/software/ovi_2503a_s3trc/ovi_2503a_s3trc/Tools/MinGW/include/c++/3.3.1/bits/stl_iterator.h **** 	return __tmp;
 185:d:/software/ovi_2503a_s3trc/ovi_2503a_s3trc/Tools/MinGW/include/c++/3.3.1/bits/stl_iterator.h ****       }
 186:d:/software/ovi_2503a_s3trc/ovi_2503a_s3trc/Tools/MinGW/include/c++/3.3.1/bits/stl_iterator.h **** 
 187:d:/software/ovi_2503a_s3trc/ovi_2503a_s3trc/Tools/MinGW/include/c++/3.3.1/bits/stl_iterator.h ****       /**
 188:d:/software/ovi_2503a_s3trc/ovi_2503a_s3trc/Tools/MinGW/include/c++/3.3.1/bits/stl_iterator.h ****        *  @return  TODO
 189:d:/software/ovi_2503a_s3trc/ovi_2503a_s3trc/Tools/MinGW/include/c++/3.3.1/bits/stl_iterator.h ****        *
 190:d:/software/ovi_2503a_s3trc/ovi_2503a_s3trc/Tools/MinGW/include/c++/3.3.1/bits/stl_iterator.h ****        *  @doctodo
 191:d:/software/ovi_2503a_s3trc/ovi_2503a_s3trc/Tools/MinGW/include/c++/3.3.1/bits/stl_iterator.h ****       */
 192:d:/software/ovi_2503a_s3trc/ovi_2503a_s3trc/Tools/MinGW/include/c++/3.3.1/bits/stl_iterator.h ****       reverse_iterator& 
 193:d:/software/ovi_2503a_s3trc/ovi_2503a_s3trc/Tools/MinGW/include/c++/3.3.1/bits/stl_iterator.h ****       operator--() 
 194:d:/software/ovi_2503a_s3trc/ovi_2503a_s3trc/Tools/MinGW/include/c++/3.3.1/bits/stl_iterator.h ****       {
 195:d:/software/ovi_2503a_s3trc/ovi_2503a_s3trc/Tools/MinGW/include/c++/3.3.1/bits/stl_iterator.h **** 	++current;
 196:d:/software/ovi_2503a_s3trc/ovi_2503a_s3trc/Tools/MinGW/include/c++/3.3.1/bits/stl_iterator.h **** 	return *this;
 197:d:/software/ovi_2503a_s3trc/ovi_2503a_s3trc/Tools/MinGW/include/c++/3.3.1/bits/stl_iterator.h ****       }
 198:d:/software/ovi_2503a_s3trc/ovi_2503a_s3trc/Tools/MinGW/include/c++/3.3.1/bits/stl_iterator.h **** 
 199:d:/software/ovi_2503a_s3trc/ovi_2503a_s3trc/Tools/MinGW/include/c++/3.3.1/bits/stl_iterator.h ****       /**
 200:d:/software/ovi_2503a_s3trc/ovi_2503a_s3trc/Tools/MinGW/include/c++/3.3.1/bits/stl_iterator.h ****        *  @return  TODO
 201:d:/software/ovi_2503a_s3trc/ovi_2503a_s3trc/Tools/MinGW/include/c++/3.3.1/bits/stl_iterator.h ****        *
 202:d:/software/ovi_2503a_s3trc/ovi_2503a_s3trc/Tools/MinGW/include/c++/3.3.1/bits/stl_iterator.h ****        *  @doctodo
 203:d:/software/ovi_2503a_s3trc/ovi_2503a_s3trc/Tools/MinGW/include/c++/3.3.1/bits/stl_iterator.h ****       */
 204:d:/software/ovi_2503a_s3trc/ovi_2503a_s3trc/Tools/MinGW/include/c++/3.3.1/bits/stl_iterator.h ****       reverse_iterator operator--(int) 
 205:d:/software/ovi_2503a_s3trc/ovi_2503a_s3trc/Tools/MinGW/include/c++/3.3.1/bits/stl_iterator.h ****       {
 206:d:/software/ovi_2503a_s3trc/ovi_2503a_s3trc/Tools/MinGW/include/c++/3.3.1/bits/stl_iterator.h **** 	reverse_iterator __tmp = *this;
 207:d:/software/ovi_2503a_s3trc/ovi_2503a_s3trc/Tools/MinGW/include/c++/3.3.1/bits/stl_iterator.h **** 	++current;
 208:d:/software/ovi_2503a_s3trc/ovi_2503a_s3trc/Tools/MinGW/include/c++/3.3.1/bits/stl_iterator.h **** 	return __tmp;
 209:d:/software/ovi_2503a_s3trc/ovi_2503a_s3trc/Tools/MinGW/include/c++/3.3.1/bits/stl_iterator.h ****       }
 210:d:/software/ovi_2503a_s3trc/ovi_2503a_s3trc/Tools/MinGW/include/c++/3.3.1/bits/stl_iterator.h ****       
 211:d:/software/ovi_2503a_s3trc/ovi_2503a_s3trc/Tools/MinGW/include/c++/3.3.1/bits/stl_iterator.h ****       /**
 212:d:/software/ovi_2503a_s3trc/ovi_2503a_s3trc/Tools/MinGW/include/c++/3.3.1/bits/stl_iterator.h ****        *  @return  TODO
 213:d:/software/ovi_2503a_s3trc/ovi_2503a_s3trc/Tools/MinGW/include/c++/3.3.1/bits/stl_iterator.h ****        *
 214:d:/software/ovi_2503a_s3trc/ovi_2503a_s3trc/Tools/MinGW/include/c++/3.3.1/bits/stl_iterator.h ****        *  @doctodo
 215:d:/software/ovi_2503a_s3trc/ovi_2503a_s3trc/Tools/MinGW/include/c++/3.3.1/bits/stl_iterator.h ****       */
GAS LISTING d:/software/ovi_2503a_s3trc/ovi_2503a_s3trc/plutommi/Customer/ResGenerator/gcctmp/cci0baaa.s 			page 81


 216:d:/software/ovi_2503a_s3trc/ovi_2503a_s3trc/Tools/MinGW/include/c++/3.3.1/bits/stl_iterator.h ****       reverse_iterator 
 217:d:/software/ovi_2503a_s3trc/ovi_2503a_s3trc/Tools/MinGW/include/c++/3.3.1/bits/stl_iterator.h ****       operator+(difference_type __n) const 
 218:d:/software/ovi_2503a_s3trc/ovi_2503a_s3trc/Tools/MinGW/include/c++/3.3.1/bits/stl_iterator.h ****       { return reverse_iterator(current - __n); }
 219:d:/software/ovi_2503a_s3trc/ovi_2503a_s3trc/Tools/MinGW/include/c++/3.3.1/bits/stl_iterator.h **** 
 220:d:/software/ovi_2503a_s3trc/ovi_2503a_s3trc/Tools/MinGW/include/c++/3.3.1/bits/stl_iterator.h ****       /**
 221:d:/software/ovi_2503a_s3trc/ovi_2503a_s3trc/Tools/MinGW/include/c++/3.3.1/bits/stl_iterator.h ****        *  @return  TODO
 222:d:/software/ovi_2503a_s3trc/ovi_2503a_s3trc/Tools/MinGW/include/c++/3.3.1/bits/stl_iterator.h ****        *
 223:d:/software/ovi_2503a_s3trc/ovi_2503a_s3trc/Tools/MinGW/include/c++/3.3.1/bits/stl_iterator.h ****        *  @doctodo
 224:d:/software/ovi_2503a_s3trc/ovi_2503a_s3trc/Tools/MinGW/include/c++/3.3.1/bits/stl_iterator.h ****       */
 225:d:/software/ovi_2503a_s3trc/ovi_2503a_s3trc/Tools/MinGW/include/c++/3.3.1/bits/stl_iterator.h ****       reverse_iterator& 
 226:d:/software/ovi_2503a_s3trc/ovi_2503a_s3trc/Tools/MinGW/include/c++/3.3.1/bits/stl_iterator.h ****       operator+=(difference_type __n) 
 227:d:/software/ovi_2503a_s3trc/ovi_2503a_s3trc/Tools/MinGW/include/c++/3.3.1/bits/stl_iterator.h ****       {
 228:d:/software/ovi_2503a_s3trc/ovi_2503a_s3trc/Tools/MinGW/include/c++/3.3.1/bits/stl_iterator.h **** 	current -= __n;
 229:d:/software/ovi_2503a_s3trc/ovi_2503a_s3trc/Tools/MinGW/include/c++/3.3.1/bits/stl_iterator.h **** 	return *this;
 230:d:/software/ovi_2503a_s3trc/ovi_2503a_s3trc/Tools/MinGW/include/c++/3.3.1/bits/stl_iterator.h ****       }
 231:d:/software/ovi_2503a_s3trc/ovi_2503a_s3trc/Tools/MinGW/include/c++/3.3.1/bits/stl_iterator.h **** 
 232:d:/software/ovi_2503a_s3trc/ovi_2503a_s3trc/Tools/MinGW/include/c++/3.3.1/bits/stl_iterator.h ****       /**
 233:d:/software/ovi_2503a_s3trc/ovi_2503a_s3trc/Tools/MinGW/include/c++/3.3.1/bits/stl_iterator.h ****        *  @return  TODO
 234:d:/software/ovi_2503a_s3trc/ovi_2503a_s3trc/Tools/MinGW/include/c++/3.3.1/bits/stl_iterator.h ****        *
 235:d:/software/ovi_2503a_s3trc/ovi_2503a_s3trc/Tools/MinGW/include/c++/3.3.1/bits/stl_iterator.h ****        *  @doctodo
 236:d:/software/ovi_2503a_s3trc/ovi_2503a_s3trc/Tools/MinGW/include/c++/3.3.1/bits/stl_iterator.h ****       */
 237:d:/software/ovi_2503a_s3trc/ovi_2503a_s3trc/Tools/MinGW/include/c++/3.3.1/bits/stl_iterator.h ****       reverse_iterator 
 238:d:/software/ovi_2503a_s3trc/ovi_2503a_s3trc/Tools/MinGW/include/c++/3.3.1/bits/stl_iterator.h ****       operator-(difference_type __n) const 
 239:d:/software/ovi_2503a_s3trc/ovi_2503a_s3trc/Tools/MinGW/include/c++/3.3.1/bits/stl_iterator.h ****       { return reverse_iterator(current + __n); }
 240:d:/software/ovi_2503a_s3trc/ovi_2503a_s3trc/Tools/MinGW/include/c++/3.3.1/bits/stl_iterator.h **** 
 241:d:/software/ovi_2503a_s3trc/ovi_2503a_s3trc/Tools/MinGW/include/c++/3.3.1/bits/stl_iterator.h ****       /**
 242:d:/software/ovi_2503a_s3trc/ovi_2503a_s3trc/Tools/MinGW/include/c++/3.3.1/bits/stl_iterator.h ****        *  @return  TODO
 243:d:/software/ovi_2503a_s3trc/ovi_2503a_s3trc/Tools/MinGW/include/c++/3.3.1/bits/stl_iterator.h ****        *
 244:d:/software/ovi_2503a_s3trc/ovi_2503a_s3trc/Tools/MinGW/include/c++/3.3.1/bits/stl_iterator.h ****        *  @doctodo
 245:d:/software/ovi_2503a_s3trc/ovi_2503a_s3trc/Tools/MinGW/include/c++/3.3.1/bits/stl_iterator.h ****       */
 246:d:/software/ovi_2503a_s3trc/ovi_2503a_s3trc/Tools/MinGW/include/c++/3.3.1/bits/stl_iterator.h ****       reverse_iterator& 
 247:d:/software/ovi_2503a_s3trc/ovi_2503a_s3trc/Tools/MinGW/include/c++/3.3.1/bits/stl_iterator.h ****       operator-=(difference_type __n) 
 248:d:/software/ovi_2503a_s3trc/ovi_2503a_s3trc/Tools/MinGW/include/c++/3.3.1/bits/stl_iterator.h ****       {
 249:d:/software/ovi_2503a_s3trc/ovi_2503a_s3trc/Tools/MinGW/include/c++/3.3.1/bits/stl_iterator.h **** 	current += __n;
 250:d:/software/ovi_2503a_s3trc/ovi_2503a_s3trc/Tools/MinGW/include/c++/3.3.1/bits/stl_iterator.h **** 	return *this;
 251:d:/software/ovi_2503a_s3trc/ovi_2503a_s3trc/Tools/MinGW/include/c++/3.3.1/bits/stl_iterator.h ****       }
 252:d:/software/ovi_2503a_s3trc/ovi_2503a_s3trc/Tools/MinGW/include/c++/3.3.1/bits/stl_iterator.h **** 
 253:d:/software/ovi_2503a_s3trc/ovi_2503a_s3trc/Tools/MinGW/include/c++/3.3.1/bits/stl_iterator.h ****       /**
 254:d:/software/ovi_2503a_s3trc/ovi_2503a_s3trc/Tools/MinGW/include/c++/3.3.1/bits/stl_iterator.h ****        *  @return  TODO
 255:d:/software/ovi_2503a_s3trc/ovi_2503a_s3trc/Tools/MinGW/include/c++/3.3.1/bits/stl_iterator.h ****        *
 256:d:/software/ovi_2503a_s3trc/ovi_2503a_s3trc/Tools/MinGW/include/c++/3.3.1/bits/stl_iterator.h ****        *  @doctodo
 257:d:/software/ovi_2503a_s3trc/ovi_2503a_s3trc/Tools/MinGW/include/c++/3.3.1/bits/stl_iterator.h ****       */
 258:d:/software/ovi_2503a_s3trc/ovi_2503a_s3trc/Tools/MinGW/include/c++/3.3.1/bits/stl_iterator.h ****       reference 
 259:d:/software/ovi_2503a_s3trc/ovi_2503a_s3trc/Tools/MinGW/include/c++/3.3.1/bits/stl_iterator.h ****       operator[](difference_type __n) const { return *(*this + __n); }  
 260:d:/software/ovi_2503a_s3trc/ovi_2503a_s3trc/Tools/MinGW/include/c++/3.3.1/bits/stl_iterator.h ****     }; 
 261:d:/software/ovi_2503a_s3trc/ovi_2503a_s3trc/Tools/MinGW/include/c++/3.3.1/bits/stl_iterator.h ****  
 262:d:/software/ovi_2503a_s3trc/ovi_2503a_s3trc/Tools/MinGW/include/c++/3.3.1/bits/stl_iterator.h ****   //@{
 263:d:/software/ovi_2503a_s3trc/ovi_2503a_s3trc/Tools/MinGW/include/c++/3.3.1/bits/stl_iterator.h ****   /**
 264:d:/software/ovi_2503a_s3trc/ovi_2503a_s3trc/Tools/MinGW/include/c++/3.3.1/bits/stl_iterator.h ****    *  @param  x  A %reverse_iterator.
 265:d:/software/ovi_2503a_s3trc/ovi_2503a_s3trc/Tools/MinGW/include/c++/3.3.1/bits/stl_iterator.h ****    *  @param  y  A %reverse_iterator.
 266:d:/software/ovi_2503a_s3trc/ovi_2503a_s3trc/Tools/MinGW/include/c++/3.3.1/bits/stl_iterator.h ****    *  @return  A simple bool.
 267:d:/software/ovi_2503a_s3trc/ovi_2503a_s3trc/Tools/MinGW/include/c++/3.3.1/bits/stl_iterator.h ****    *
 268:d:/software/ovi_2503a_s3trc/ovi_2503a_s3trc/Tools/MinGW/include/c++/3.3.1/bits/stl_iterator.h ****    *  Reverse iterators forward many operations to their underlying base()
 269:d:/software/ovi_2503a_s3trc/ovi_2503a_s3trc/Tools/MinGW/include/c++/3.3.1/bits/stl_iterator.h ****    *  iterators.  Others are implemented in terms of one another.
 270:d:/software/ovi_2503a_s3trc/ovi_2503a_s3trc/Tools/MinGW/include/c++/3.3.1/bits/stl_iterator.h ****    *
 271:d:/software/ovi_2503a_s3trc/ovi_2503a_s3trc/Tools/MinGW/include/c++/3.3.1/bits/stl_iterator.h ****   */
 272:d:/software/ovi_2503a_s3trc/ovi_2503a_s3trc/Tools/MinGW/include/c++/3.3.1/bits/stl_iterator.h ****   template<typename _Iterator>
GAS LISTING d:/software/ovi_2503a_s3trc/ovi_2503a_s3trc/plutommi/Customer/ResGenerator/gcctmp/cci0baaa.s 			page 82


 273:d:/software/ovi_2503a_s3trc/ovi_2503a_s3trc/Tools/MinGW/include/c++/3.3.1/bits/stl_iterator.h ****     inline bool 
 274:d:/software/ovi_2503a_s3trc/ovi_2503a_s3trc/Tools/MinGW/include/c++/3.3.1/bits/stl_iterator.h ****     operator==(const reverse_iterator<_Iterator>& __x, 
 275:d:/software/ovi_2503a_s3trc/ovi_2503a_s3trc/Tools/MinGW/include/c++/3.3.1/bits/stl_iterator.h **** 	       const reverse_iterator<_Iterator>& __y) 
 276:d:/software/ovi_2503a_s3trc/ovi_2503a_s3trc/Tools/MinGW/include/c++/3.3.1/bits/stl_iterator.h ****     { return __x.base() == __y.base(); }
 277:d:/software/ovi_2503a_s3trc/ovi_2503a_s3trc/Tools/MinGW/include/c++/3.3.1/bits/stl_iterator.h **** 
 278:d:/software/ovi_2503a_s3trc/ovi_2503a_s3trc/Tools/MinGW/include/c++/3.3.1/bits/stl_iterator.h ****   template<typename _Iterator>
 279:d:/software/ovi_2503a_s3trc/ovi_2503a_s3trc/Tools/MinGW/include/c++/3.3.1/bits/stl_iterator.h ****     inline bool 
 280:d:/software/ovi_2503a_s3trc/ovi_2503a_s3trc/Tools/MinGW/include/c++/3.3.1/bits/stl_iterator.h ****     operator<(const reverse_iterator<_Iterator>& __x, 
 281:d:/software/ovi_2503a_s3trc/ovi_2503a_s3trc/Tools/MinGW/include/c++/3.3.1/bits/stl_iterator.h **** 	      const reverse_iterator<_Iterator>& __y) 
 282:d:/software/ovi_2503a_s3trc/ovi_2503a_s3trc/Tools/MinGW/include/c++/3.3.1/bits/stl_iterator.h ****     { return __y.base() < __x.base(); }
 283:d:/software/ovi_2503a_s3trc/ovi_2503a_s3trc/Tools/MinGW/include/c++/3.3.1/bits/stl_iterator.h **** 
 284:d:/software/ovi_2503a_s3trc/ovi_2503a_s3trc/Tools/MinGW/include/c++/3.3.1/bits/stl_iterator.h ****   template<typename _Iterator>
 285:d:/software/ovi_2503a_s3trc/ovi_2503a_s3trc/Tools/MinGW/include/c++/3.3.1/bits/stl_iterator.h ****     inline bool 
 286:d:/software/ovi_2503a_s3trc/ovi_2503a_s3trc/Tools/MinGW/include/c++/3.3.1/bits/stl_iterator.h ****     operator!=(const reverse_iterator<_Iterator>& __x, 
 287:d:/software/ovi_2503a_s3trc/ovi_2503a_s3trc/Tools/MinGW/include/c++/3.3.1/bits/stl_iterator.h **** 	       const reverse_iterator<_Iterator>& __y) 
 288:d:/software/ovi_2503a_s3trc/ovi_2503a_s3trc/Tools/MinGW/include/c++/3.3.1/bits/stl_iterator.h ****     { return !(__x == __y); }
 289:d:/software/ovi_2503a_s3trc/ovi_2503a_s3trc/Tools/MinGW/include/c++/3.3.1/bits/stl_iterator.h **** 
 290:d:/software/ovi_2503a_s3trc/ovi_2503a_s3trc/Tools/MinGW/include/c++/3.3.1/bits/stl_iterator.h ****   template<typename _Iterator>
 291:d:/software/ovi_2503a_s3trc/ovi_2503a_s3trc/Tools/MinGW/include/c++/3.3.1/bits/stl_iterator.h ****     inline bool 
 292:d:/software/ovi_2503a_s3trc/ovi_2503a_s3trc/Tools/MinGW/include/c++/3.3.1/bits/stl_iterator.h ****     operator>(const reverse_iterator<_Iterator>& __x, 
 293:d:/software/ovi_2503a_s3trc/ovi_2503a_s3trc/Tools/MinGW/include/c++/3.3.1/bits/stl_iterator.h **** 	      const reverse_iterator<_Iterator>& __y) 
 294:d:/software/ovi_2503a_s3trc/ovi_2503a_s3trc/Tools/MinGW/include/c++/3.3.1/bits/stl_iterator.h ****     { return __y < __x; }
 295:d:/software/ovi_2503a_s3trc/ovi_2503a_s3trc/Tools/MinGW/include/c++/3.3.1/bits/stl_iterator.h **** 
 296:d:/software/ovi_2503a_s3trc/ovi_2503a_s3trc/Tools/MinGW/include/c++/3.3.1/bits/stl_iterator.h ****   template<typename _Iterator>
 297:d:/software/ovi_2503a_s3trc/ovi_2503a_s3trc/Tools/MinGW/include/c++/3.3.1/bits/stl_iterator.h ****     inline bool 
 298:d:/software/ovi_2503a_s3trc/ovi_2503a_s3trc/Tools/MinGW/include/c++/3.3.1/bits/stl_iterator.h ****     operator<=(const reverse_iterator<_Iterator>& __x, 
 299:d:/software/ovi_2503a_s3trc/ovi_2503a_s3trc/Tools/MinGW/include/c++/3.3.1/bits/stl_iterator.h **** 		const reverse_iterator<_Iterator>& __y) 
 300:d:/software/ovi_2503a_s3trc/ovi_2503a_s3trc/Tools/MinGW/include/c++/3.3.1/bits/stl_iterator.h ****     { return !(__y < __x); }
 301:d:/software/ovi_2503a_s3trc/ovi_2503a_s3trc/Tools/MinGW/include/c++/3.3.1/bits/stl_iterator.h **** 
 302:d:/software/ovi_2503a_s3trc/ovi_2503a_s3trc/Tools/MinGW/include/c++/3.3.1/bits/stl_iterator.h ****   template<typename _Iterator>
 303:d:/software/ovi_2503a_s3trc/ovi_2503a_s3trc/Tools/MinGW/include/c++/3.3.1/bits/stl_iterator.h ****     inline bool 
 304:d:/software/ovi_2503a_s3trc/ovi_2503a_s3trc/Tools/MinGW/include/c++/3.3.1/bits/stl_iterator.h ****     operator>=(const reverse_iterator<_Iterator>& __x, 
 305:d:/software/ovi_2503a_s3trc/ovi_2503a_s3trc/Tools/MinGW/include/c++/3.3.1/bits/stl_iterator.h **** 	       const reverse_iterator<_Iterator>& __y) 
 306:d:/software/ovi_2503a_s3trc/ovi_2503a_s3trc/Tools/MinGW/include/c++/3.3.1/bits/stl_iterator.h ****     { return !(__x < __y); }
 307:d:/software/ovi_2503a_s3trc/ovi_2503a_s3trc/Tools/MinGW/include/c++/3.3.1/bits/stl_iterator.h **** 
 308:d:/software/ovi_2503a_s3trc/ovi_2503a_s3trc/Tools/MinGW/include/c++/3.3.1/bits/stl_iterator.h ****   template<typename _Iterator>
 309:d:/software/ovi_2503a_s3trc/ovi_2503a_s3trc/Tools/MinGW/include/c++/3.3.1/bits/stl_iterator.h ****     inline typename reverse_iterator<_Iterator>::difference_type
 310:d:/software/ovi_2503a_s3trc/ovi_2503a_s3trc/Tools/MinGW/include/c++/3.3.1/bits/stl_iterator.h ****     operator-(const reverse_iterator<_Iterator>& __x, 
 311:d:/software/ovi_2503a_s3trc/ovi_2503a_s3trc/Tools/MinGW/include/c++/3.3.1/bits/stl_iterator.h **** 	      const reverse_iterator<_Iterator>& __y) 
 312:d:/software/ovi_2503a_s3trc/ovi_2503a_s3trc/Tools/MinGW/include/c++/3.3.1/bits/stl_iterator.h ****     { return __y.base() - __x.base(); }
 313:d:/software/ovi_2503a_s3trc/ovi_2503a_s3trc/Tools/MinGW/include/c++/3.3.1/bits/stl_iterator.h **** 
 314:d:/software/ovi_2503a_s3trc/ovi_2503a_s3trc/Tools/MinGW/include/c++/3.3.1/bits/stl_iterator.h ****   template<typename _Iterator>
 315:d:/software/ovi_2503a_s3trc/ovi_2503a_s3trc/Tools/MinGW/include/c++/3.3.1/bits/stl_iterator.h ****     inline reverse_iterator<_Iterator> 
 316:d:/software/ovi_2503a_s3trc/ovi_2503a_s3trc/Tools/MinGW/include/c++/3.3.1/bits/stl_iterator.h ****     operator+(typename reverse_iterator<_Iterator>::difference_type __n,
 317:d:/software/ovi_2503a_s3trc/ovi_2503a_s3trc/Tools/MinGW/include/c++/3.3.1/bits/stl_iterator.h **** 	      const reverse_iterator<_Iterator>& __x) 
 318:d:/software/ovi_2503a_s3trc/ovi_2503a_s3trc/Tools/MinGW/include/c++/3.3.1/bits/stl_iterator.h ****     { return reverse_iterator<_Iterator>(__x.base() - __n); }
 319:d:/software/ovi_2503a_s3trc/ovi_2503a_s3trc/Tools/MinGW/include/c++/3.3.1/bits/stl_iterator.h ****   //@}
 320:d:/software/ovi_2503a_s3trc/ovi_2503a_s3trc/Tools/MinGW/include/c++/3.3.1/bits/stl_iterator.h **** 
 321:d:/software/ovi_2503a_s3trc/ovi_2503a_s3trc/Tools/MinGW/include/c++/3.3.1/bits/stl_iterator.h ****   // 24.4.2.2.1 back_insert_iterator
 322:d:/software/ovi_2503a_s3trc/ovi_2503a_s3trc/Tools/MinGW/include/c++/3.3.1/bits/stl_iterator.h ****   /**
 323:d:/software/ovi_2503a_s3trc/ovi_2503a_s3trc/Tools/MinGW/include/c++/3.3.1/bits/stl_iterator.h ****    *  @brief  Turns assignment into insertion.
 324:d:/software/ovi_2503a_s3trc/ovi_2503a_s3trc/Tools/MinGW/include/c++/3.3.1/bits/stl_iterator.h ****    *
 325:d:/software/ovi_2503a_s3trc/ovi_2503a_s3trc/Tools/MinGW/include/c++/3.3.1/bits/stl_iterator.h ****    *  These are output iterators, constructed from a container-of-T.
 326:d:/software/ovi_2503a_s3trc/ovi_2503a_s3trc/Tools/MinGW/include/c++/3.3.1/bits/stl_iterator.h ****    *  Assigning a T to the iterator appends it to the container using
 327:d:/software/ovi_2503a_s3trc/ovi_2503a_s3trc/Tools/MinGW/include/c++/3.3.1/bits/stl_iterator.h ****    *  push_back.
 328:d:/software/ovi_2503a_s3trc/ovi_2503a_s3trc/Tools/MinGW/include/c++/3.3.1/bits/stl_iterator.h ****    *
 329:d:/software/ovi_2503a_s3trc/ovi_2503a_s3trc/Tools/MinGW/include/c++/3.3.1/bits/stl_iterator.h ****    *  Tip:  Using the back_inserter function to create these iterators can
GAS LISTING d:/software/ovi_2503a_s3trc/ovi_2503a_s3trc/plutommi/Customer/ResGenerator/gcctmp/cci0baaa.s 			page 83


 330:d:/software/ovi_2503a_s3trc/ovi_2503a_s3trc/Tools/MinGW/include/c++/3.3.1/bits/stl_iterator.h ****    *  save typing.
 331:d:/software/ovi_2503a_s3trc/ovi_2503a_s3trc/Tools/MinGW/include/c++/3.3.1/bits/stl_iterator.h ****   */
 332:d:/software/ovi_2503a_s3trc/ovi_2503a_s3trc/Tools/MinGW/include/c++/3.3.1/bits/stl_iterator.h ****   template<typename _Container>
 333:d:/software/ovi_2503a_s3trc/ovi_2503a_s3trc/Tools/MinGW/include/c++/3.3.1/bits/stl_iterator.h ****     class back_insert_iterator 
 334:d:/software/ovi_2503a_s3trc/ovi_2503a_s3trc/Tools/MinGW/include/c++/3.3.1/bits/stl_iterator.h ****     : public iterator<output_iterator_tag, void, void, void, void>
 335:d:/software/ovi_2503a_s3trc/ovi_2503a_s3trc/Tools/MinGW/include/c++/3.3.1/bits/stl_iterator.h ****     {
 336:d:/software/ovi_2503a_s3trc/ovi_2503a_s3trc/Tools/MinGW/include/c++/3.3.1/bits/stl_iterator.h ****     protected:
 337:d:/software/ovi_2503a_s3trc/ovi_2503a_s3trc/Tools/MinGW/include/c++/3.3.1/bits/stl_iterator.h ****       _Container* container;
 338:d:/software/ovi_2503a_s3trc/ovi_2503a_s3trc/Tools/MinGW/include/c++/3.3.1/bits/stl_iterator.h **** 
 339:d:/software/ovi_2503a_s3trc/ovi_2503a_s3trc/Tools/MinGW/include/c++/3.3.1/bits/stl_iterator.h ****     public:
 340:d:/software/ovi_2503a_s3trc/ovi_2503a_s3trc/Tools/MinGW/include/c++/3.3.1/bits/stl_iterator.h ****       /// A nested typedef for the type of whatever container you used.
 341:d:/software/ovi_2503a_s3trc/ovi_2503a_s3trc/Tools/MinGW/include/c++/3.3.1/bits/stl_iterator.h ****       typedef _Container          container_type;
 342:d:/software/ovi_2503a_s3trc/ovi_2503a_s3trc/Tools/MinGW/include/c++/3.3.1/bits/stl_iterator.h ****       
 343:d:/software/ovi_2503a_s3trc/ovi_2503a_s3trc/Tools/MinGW/include/c++/3.3.1/bits/stl_iterator.h ****       /// The only way to create this %iterator is with a container.
 344:d:/software/ovi_2503a_s3trc/ovi_2503a_s3trc/Tools/MinGW/include/c++/3.3.1/bits/stl_iterator.h ****       explicit 
 345:d:/software/ovi_2503a_s3trc/ovi_2503a_s3trc/Tools/MinGW/include/c++/3.3.1/bits/stl_iterator.h ****       back_insert_iterator(_Container& __x) : container(&__x) { }
 346:d:/software/ovi_2503a_s3trc/ovi_2503a_s3trc/Tools/MinGW/include/c++/3.3.1/bits/stl_iterator.h **** 
 347:d:/software/ovi_2503a_s3trc/ovi_2503a_s3trc/Tools/MinGW/include/c++/3.3.1/bits/stl_iterator.h ****       /**
 348:d:/software/ovi_2503a_s3trc/ovi_2503a_s3trc/Tools/MinGW/include/c++/3.3.1/bits/stl_iterator.h ****        *  @param  value  An instance of whatever type
 349:d:/software/ovi_2503a_s3trc/ovi_2503a_s3trc/Tools/MinGW/include/c++/3.3.1/bits/stl_iterator.h ****        *                 container_type::const_reference is; presumably a
 350:d:/software/ovi_2503a_s3trc/ovi_2503a_s3trc/Tools/MinGW/include/c++/3.3.1/bits/stl_iterator.h ****        *                 reference-to-const T for container<T>.
 351:d:/software/ovi_2503a_s3trc/ovi_2503a_s3trc/Tools/MinGW/include/c++/3.3.1/bits/stl_iterator.h ****        *  @return  This %iterator, for chained operations.
 352:d:/software/ovi_2503a_s3trc/ovi_2503a_s3trc/Tools/MinGW/include/c++/3.3.1/bits/stl_iterator.h ****        *
 353:d:/software/ovi_2503a_s3trc/ovi_2503a_s3trc/Tools/MinGW/include/c++/3.3.1/bits/stl_iterator.h ****        *  This kind of %iterator doesn't really have a "position" in the
 354:d:/software/ovi_2503a_s3trc/ovi_2503a_s3trc/Tools/MinGW/include/c++/3.3.1/bits/stl_iterator.h ****        *  container (you can think of the position as being permanently at
 355:d:/software/ovi_2503a_s3trc/ovi_2503a_s3trc/Tools/MinGW/include/c++/3.3.1/bits/stl_iterator.h ****        *  the end, if you like).  Assigning a value to the %iterator will
 356:d:/software/ovi_2503a_s3trc/ovi_2503a_s3trc/Tools/MinGW/include/c++/3.3.1/bits/stl_iterator.h ****        *  always append the value to the end of the container.
 357:d:/software/ovi_2503a_s3trc/ovi_2503a_s3trc/Tools/MinGW/include/c++/3.3.1/bits/stl_iterator.h ****       */
 358:d:/software/ovi_2503a_s3trc/ovi_2503a_s3trc/Tools/MinGW/include/c++/3.3.1/bits/stl_iterator.h ****       back_insert_iterator&
 359:d:/software/ovi_2503a_s3trc/ovi_2503a_s3trc/Tools/MinGW/include/c++/3.3.1/bits/stl_iterator.h ****       operator=(typename _Container::const_reference __value) 
 360:d:/software/ovi_2503a_s3trc/ovi_2503a_s3trc/Tools/MinGW/include/c++/3.3.1/bits/stl_iterator.h ****       { 
 361:d:/software/ovi_2503a_s3trc/ovi_2503a_s3trc/Tools/MinGW/include/c++/3.3.1/bits/stl_iterator.h **** 	container->push_back(__value);
 362:d:/software/ovi_2503a_s3trc/ovi_2503a_s3trc/Tools/MinGW/include/c++/3.3.1/bits/stl_iterator.h **** 	return *this;
 363:d:/software/ovi_2503a_s3trc/ovi_2503a_s3trc/Tools/MinGW/include/c++/3.3.1/bits/stl_iterator.h ****       }
 364:d:/software/ovi_2503a_s3trc/ovi_2503a_s3trc/Tools/MinGW/include/c++/3.3.1/bits/stl_iterator.h **** 
 365:d:/software/ovi_2503a_s3trc/ovi_2503a_s3trc/Tools/MinGW/include/c++/3.3.1/bits/stl_iterator.h ****       /// Simply returns *this.
 366:d:/software/ovi_2503a_s3trc/ovi_2503a_s3trc/Tools/MinGW/include/c++/3.3.1/bits/stl_iterator.h ****       back_insert_iterator& 
 367:d:/software/ovi_2503a_s3trc/ovi_2503a_s3trc/Tools/MinGW/include/c++/3.3.1/bits/stl_iterator.h ****       operator*() { return *this; }
 368:d:/software/ovi_2503a_s3trc/ovi_2503a_s3trc/Tools/MinGW/include/c++/3.3.1/bits/stl_iterator.h **** 
 369:d:/software/ovi_2503a_s3trc/ovi_2503a_s3trc/Tools/MinGW/include/c++/3.3.1/bits/stl_iterator.h ****       /// Simply returns *this.  (This %iterator does not "move".)
 370:d:/software/ovi_2503a_s3trc/ovi_2503a_s3trc/Tools/MinGW/include/c++/3.3.1/bits/stl_iterator.h ****       back_insert_iterator& 
 371:d:/software/ovi_2503a_s3trc/ovi_2503a_s3trc/Tools/MinGW/include/c++/3.3.1/bits/stl_iterator.h ****       operator++() { return *this; }
 372:d:/software/ovi_2503a_s3trc/ovi_2503a_s3trc/Tools/MinGW/include/c++/3.3.1/bits/stl_iterator.h **** 
 373:d:/software/ovi_2503a_s3trc/ovi_2503a_s3trc/Tools/MinGW/include/c++/3.3.1/bits/stl_iterator.h ****       /// Simply returns *this.  (This %iterator does not "move".)
 374:d:/software/ovi_2503a_s3trc/ovi_2503a_s3trc/Tools/MinGW/include/c++/3.3.1/bits/stl_iterator.h ****       back_insert_iterator
 375:d:/software/ovi_2503a_s3trc/ovi_2503a_s3trc/Tools/MinGW/include/c++/3.3.1/bits/stl_iterator.h ****       operator++(int) { return *this; }
 376:d:/software/ovi_2503a_s3trc/ovi_2503a_s3trc/Tools/MinGW/include/c++/3.3.1/bits/stl_iterator.h ****     };
 377:d:/software/ovi_2503a_s3trc/ovi_2503a_s3trc/Tools/MinGW/include/c++/3.3.1/bits/stl_iterator.h **** 
 378:d:/software/ovi_2503a_s3trc/ovi_2503a_s3trc/Tools/MinGW/include/c++/3.3.1/bits/stl_iterator.h ****   /**
 379:d:/software/ovi_2503a_s3trc/ovi_2503a_s3trc/Tools/MinGW/include/c++/3.3.1/bits/stl_iterator.h ****    *  @param  x  A container of arbitrary type.
 380:d:/software/ovi_2503a_s3trc/ovi_2503a_s3trc/Tools/MinGW/include/c++/3.3.1/bits/stl_iterator.h ****    *  @return  An instance of back_insert_iterator working on @p x.
 381:d:/software/ovi_2503a_s3trc/ovi_2503a_s3trc/Tools/MinGW/include/c++/3.3.1/bits/stl_iterator.h ****    *
 382:d:/software/ovi_2503a_s3trc/ovi_2503a_s3trc/Tools/MinGW/include/c++/3.3.1/bits/stl_iterator.h ****    *  This wrapper function helps in creating back_insert_iterator instances.
 383:d:/software/ovi_2503a_s3trc/ovi_2503a_s3trc/Tools/MinGW/include/c++/3.3.1/bits/stl_iterator.h ****    *  Typing the name of the %iterator requires knowing the precise full
 384:d:/software/ovi_2503a_s3trc/ovi_2503a_s3trc/Tools/MinGW/include/c++/3.3.1/bits/stl_iterator.h ****    *  type of the container, which can be tedious and impedes generic
 385:d:/software/ovi_2503a_s3trc/ovi_2503a_s3trc/Tools/MinGW/include/c++/3.3.1/bits/stl_iterator.h ****    *  programming.  Using this function lets you take advantage of automatic
 386:d:/software/ovi_2503a_s3trc/ovi_2503a_s3trc/Tools/MinGW/include/c++/3.3.1/bits/stl_iterator.h ****    *  template parameter deduction, making the compiler match the correct
GAS LISTING d:/software/ovi_2503a_s3trc/ovi_2503a_s3trc/plutommi/Customer/ResGenerator/gcctmp/cci0baaa.s 			page 84


 387:d:/software/ovi_2503a_s3trc/ovi_2503a_s3trc/Tools/MinGW/include/c++/3.3.1/bits/stl_iterator.h ****    *  types for you.
 388:d:/software/ovi_2503a_s3trc/ovi_2503a_s3trc/Tools/MinGW/include/c++/3.3.1/bits/stl_iterator.h ****   */
 389:d:/software/ovi_2503a_s3trc/ovi_2503a_s3trc/Tools/MinGW/include/c++/3.3.1/bits/stl_iterator.h ****   template<typename _Container>
 390:d:/software/ovi_2503a_s3trc/ovi_2503a_s3trc/Tools/MinGW/include/c++/3.3.1/bits/stl_iterator.h ****     inline back_insert_iterator<_Container> 
 391:d:/software/ovi_2503a_s3trc/ovi_2503a_s3trc/Tools/MinGW/include/c++/3.3.1/bits/stl_iterator.h ****     back_inserter(_Container& __x) 
 392:d:/software/ovi_2503a_s3trc/ovi_2503a_s3trc/Tools/MinGW/include/c++/3.3.1/bits/stl_iterator.h ****     { return back_insert_iterator<_Container>(__x); }
 393:d:/software/ovi_2503a_s3trc/ovi_2503a_s3trc/Tools/MinGW/include/c++/3.3.1/bits/stl_iterator.h **** 
 394:d:/software/ovi_2503a_s3trc/ovi_2503a_s3trc/Tools/MinGW/include/c++/3.3.1/bits/stl_iterator.h ****   /**
 395:d:/software/ovi_2503a_s3trc/ovi_2503a_s3trc/Tools/MinGW/include/c++/3.3.1/bits/stl_iterator.h ****    *  @brief  Turns assignment into insertion.
 396:d:/software/ovi_2503a_s3trc/ovi_2503a_s3trc/Tools/MinGW/include/c++/3.3.1/bits/stl_iterator.h ****    *
 397:d:/software/ovi_2503a_s3trc/ovi_2503a_s3trc/Tools/MinGW/include/c++/3.3.1/bits/stl_iterator.h ****    *  These are output iterators, constructed from a container-of-T.
 398:d:/software/ovi_2503a_s3trc/ovi_2503a_s3trc/Tools/MinGW/include/c++/3.3.1/bits/stl_iterator.h ****    *  Assigning a T to the iterator prepends it to the container using
 399:d:/software/ovi_2503a_s3trc/ovi_2503a_s3trc/Tools/MinGW/include/c++/3.3.1/bits/stl_iterator.h ****    *  push_front.
 400:d:/software/ovi_2503a_s3trc/ovi_2503a_s3trc/Tools/MinGW/include/c++/3.3.1/bits/stl_iterator.h ****    *
 401:d:/software/ovi_2503a_s3trc/ovi_2503a_s3trc/Tools/MinGW/include/c++/3.3.1/bits/stl_iterator.h ****    *  Tip:  Using the front_inserter function to create these iterators can
 402:d:/software/ovi_2503a_s3trc/ovi_2503a_s3trc/Tools/MinGW/include/c++/3.3.1/bits/stl_iterator.h ****    *  save typing.
 403:d:/software/ovi_2503a_s3trc/ovi_2503a_s3trc/Tools/MinGW/include/c++/3.3.1/bits/stl_iterator.h ****   */
 404:d:/software/ovi_2503a_s3trc/ovi_2503a_s3trc/Tools/MinGW/include/c++/3.3.1/bits/stl_iterator.h ****   template<typename _Container>
 405:d:/software/ovi_2503a_s3trc/ovi_2503a_s3trc/Tools/MinGW/include/c++/3.3.1/bits/stl_iterator.h ****     class front_insert_iterator 
 406:d:/software/ovi_2503a_s3trc/ovi_2503a_s3trc/Tools/MinGW/include/c++/3.3.1/bits/stl_iterator.h ****     : public iterator<output_iterator_tag, void, void, void, void>
 407:d:/software/ovi_2503a_s3trc/ovi_2503a_s3trc/Tools/MinGW/include/c++/3.3.1/bits/stl_iterator.h ****     {
 408:d:/software/ovi_2503a_s3trc/ovi_2503a_s3trc/Tools/MinGW/include/c++/3.3.1/bits/stl_iterator.h ****     protected:
 409:d:/software/ovi_2503a_s3trc/ovi_2503a_s3trc/Tools/MinGW/include/c++/3.3.1/bits/stl_iterator.h ****       _Container* container;
 410:d:/software/ovi_2503a_s3trc/ovi_2503a_s3trc/Tools/MinGW/include/c++/3.3.1/bits/stl_iterator.h **** 
 411:d:/software/ovi_2503a_s3trc/ovi_2503a_s3trc/Tools/MinGW/include/c++/3.3.1/bits/stl_iterator.h ****     public:
 412:d:/software/ovi_2503a_s3trc/ovi_2503a_s3trc/Tools/MinGW/include/c++/3.3.1/bits/stl_iterator.h ****       /// A nested typedef for the type of whatever container you used.
 413:d:/software/ovi_2503a_s3trc/ovi_2503a_s3trc/Tools/MinGW/include/c++/3.3.1/bits/stl_iterator.h ****       typedef _Container          container_type;
 414:d:/software/ovi_2503a_s3trc/ovi_2503a_s3trc/Tools/MinGW/include/c++/3.3.1/bits/stl_iterator.h **** 
 415:d:/software/ovi_2503a_s3trc/ovi_2503a_s3trc/Tools/MinGW/include/c++/3.3.1/bits/stl_iterator.h ****       /// The only way to create this %iterator is with a container.
 416:d:/software/ovi_2503a_s3trc/ovi_2503a_s3trc/Tools/MinGW/include/c++/3.3.1/bits/stl_iterator.h ****       explicit front_insert_iterator(_Container& __x) : container(&__x) { }
 417:d:/software/ovi_2503a_s3trc/ovi_2503a_s3trc/Tools/MinGW/include/c++/3.3.1/bits/stl_iterator.h **** 
 418:d:/software/ovi_2503a_s3trc/ovi_2503a_s3trc/Tools/MinGW/include/c++/3.3.1/bits/stl_iterator.h ****       /**
 419:d:/software/ovi_2503a_s3trc/ovi_2503a_s3trc/Tools/MinGW/include/c++/3.3.1/bits/stl_iterator.h ****        *  @param  value  An instance of whatever type
 420:d:/software/ovi_2503a_s3trc/ovi_2503a_s3trc/Tools/MinGW/include/c++/3.3.1/bits/stl_iterator.h ****        *                 container_type::const_reference is; presumably a
 421:d:/software/ovi_2503a_s3trc/ovi_2503a_s3trc/Tools/MinGW/include/c++/3.3.1/bits/stl_iterator.h ****        *                 reference-to-const T for container<T>.
 422:d:/software/ovi_2503a_s3trc/ovi_2503a_s3trc/Tools/MinGW/include/c++/3.3.1/bits/stl_iterator.h ****        *  @return  This %iterator, for chained operations.
 423:d:/software/ovi_2503a_s3trc/ovi_2503a_s3trc/Tools/MinGW/include/c++/3.3.1/bits/stl_iterator.h ****        *
 424:d:/software/ovi_2503a_s3trc/ovi_2503a_s3trc/Tools/MinGW/include/c++/3.3.1/bits/stl_iterator.h ****        *  This kind of %iterator doesn't really have a "position" in the
 425:d:/software/ovi_2503a_s3trc/ovi_2503a_s3trc/Tools/MinGW/include/c++/3.3.1/bits/stl_iterator.h ****        *  container (you can think of the position as being permanently at
 426:d:/software/ovi_2503a_s3trc/ovi_2503a_s3trc/Tools/MinGW/include/c++/3.3.1/bits/stl_iterator.h ****        *  the front, if you like).  Assigning a value to the %iterator will
 427:d:/software/ovi_2503a_s3trc/ovi_2503a_s3trc/Tools/MinGW/include/c++/3.3.1/bits/stl_iterator.h ****        *  always prepend the value to the front of the container.
 428:d:/software/ovi_2503a_s3trc/ovi_2503a_s3trc/Tools/MinGW/include/c++/3.3.1/bits/stl_iterator.h ****       */
 429:d:/software/ovi_2503a_s3trc/ovi_2503a_s3trc/Tools/MinGW/include/c++/3.3.1/bits/stl_iterator.h ****       front_insert_iterator&
 430:d:/software/ovi_2503a_s3trc/ovi_2503a_s3trc/Tools/MinGW/include/c++/3.3.1/bits/stl_iterator.h ****       operator=(typename _Container::const_reference __value) 
 431:d:/software/ovi_2503a_s3trc/ovi_2503a_s3trc/Tools/MinGW/include/c++/3.3.1/bits/stl_iterator.h ****       { 
 432:d:/software/ovi_2503a_s3trc/ovi_2503a_s3trc/Tools/MinGW/include/c++/3.3.1/bits/stl_iterator.h **** 	container->push_front(__value);
 433:d:/software/ovi_2503a_s3trc/ovi_2503a_s3trc/Tools/MinGW/include/c++/3.3.1/bits/stl_iterator.h **** 	return *this;
 434:d:/software/ovi_2503a_s3trc/ovi_2503a_s3trc/Tools/MinGW/include/c++/3.3.1/bits/stl_iterator.h ****       }
 435:d:/software/ovi_2503a_s3trc/ovi_2503a_s3trc/Tools/MinGW/include/c++/3.3.1/bits/stl_iterator.h **** 
 436:d:/software/ovi_2503a_s3trc/ovi_2503a_s3trc/Tools/MinGW/include/c++/3.3.1/bits/stl_iterator.h ****       /// Simply returns *this.
 437:d:/software/ovi_2503a_s3trc/ovi_2503a_s3trc/Tools/MinGW/include/c++/3.3.1/bits/stl_iterator.h ****       front_insert_iterator& 
 438:d:/software/ovi_2503a_s3trc/ovi_2503a_s3trc/Tools/MinGW/include/c++/3.3.1/bits/stl_iterator.h ****       operator*() { return *this; }
 439:d:/software/ovi_2503a_s3trc/ovi_2503a_s3trc/Tools/MinGW/include/c++/3.3.1/bits/stl_iterator.h **** 
 440:d:/software/ovi_2503a_s3trc/ovi_2503a_s3trc/Tools/MinGW/include/c++/3.3.1/bits/stl_iterator.h ****       /// Simply returns *this.  (This %iterator does not "move".)
 441:d:/software/ovi_2503a_s3trc/ovi_2503a_s3trc/Tools/MinGW/include/c++/3.3.1/bits/stl_iterator.h ****       front_insert_iterator& 
 442:d:/software/ovi_2503a_s3trc/ovi_2503a_s3trc/Tools/MinGW/include/c++/3.3.1/bits/stl_iterator.h ****       operator++() { return *this; }
 443:d:/software/ovi_2503a_s3trc/ovi_2503a_s3trc/Tools/MinGW/include/c++/3.3.1/bits/stl_iterator.h **** 
GAS LISTING d:/software/ovi_2503a_s3trc/ovi_2503a_s3trc/plutommi/Customer/ResGenerator/gcctmp/cci0baaa.s 			page 85


 444:d:/software/ovi_2503a_s3trc/ovi_2503a_s3trc/Tools/MinGW/include/c++/3.3.1/bits/stl_iterator.h ****       /// Simply returns *this.  (This %iterator does not "move".)
 445:d:/software/ovi_2503a_s3trc/ovi_2503a_s3trc/Tools/MinGW/include/c++/3.3.1/bits/stl_iterator.h ****       front_insert_iterator 
 446:d:/software/ovi_2503a_s3trc/ovi_2503a_s3trc/Tools/MinGW/include/c++/3.3.1/bits/stl_iterator.h ****       operator++(int) { return *this; }
 447:d:/software/ovi_2503a_s3trc/ovi_2503a_s3trc/Tools/MinGW/include/c++/3.3.1/bits/stl_iterator.h ****     };
 448:d:/software/ovi_2503a_s3trc/ovi_2503a_s3trc/Tools/MinGW/include/c++/3.3.1/bits/stl_iterator.h **** 
 449:d:/software/ovi_2503a_s3trc/ovi_2503a_s3trc/Tools/MinGW/include/c++/3.3.1/bits/stl_iterator.h ****   /**
 450:d:/software/ovi_2503a_s3trc/ovi_2503a_s3trc/Tools/MinGW/include/c++/3.3.1/bits/stl_iterator.h ****    *  @param  x  A container of arbitrary type.
 451:d:/software/ovi_2503a_s3trc/ovi_2503a_s3trc/Tools/MinGW/include/c++/3.3.1/bits/stl_iterator.h ****    *  @return  An instance of front_insert_iterator working on @p x.
 452:d:/software/ovi_2503a_s3trc/ovi_2503a_s3trc/Tools/MinGW/include/c++/3.3.1/bits/stl_iterator.h ****    *
 453:d:/software/ovi_2503a_s3trc/ovi_2503a_s3trc/Tools/MinGW/include/c++/3.3.1/bits/stl_iterator.h ****    *  This wrapper function helps in creating front_insert_iterator instances.
 454:d:/software/ovi_2503a_s3trc/ovi_2503a_s3trc/Tools/MinGW/include/c++/3.3.1/bits/stl_iterator.h ****    *  Typing the name of the %iterator requires knowing the precise full
 455:d:/software/ovi_2503a_s3trc/ovi_2503a_s3trc/Tools/MinGW/include/c++/3.3.1/bits/stl_iterator.h ****    *  type of the container, which can be tedious and impedes generic
 456:d:/software/ovi_2503a_s3trc/ovi_2503a_s3trc/Tools/MinGW/include/c++/3.3.1/bits/stl_iterator.h ****    *  programming.  Using this function lets you take advantage of automatic
 457:d:/software/ovi_2503a_s3trc/ovi_2503a_s3trc/Tools/MinGW/include/c++/3.3.1/bits/stl_iterator.h ****    *  template parameter deduction, making the compiler match the correct
 458:d:/software/ovi_2503a_s3trc/ovi_2503a_s3trc/Tools/MinGW/include/c++/3.3.1/bits/stl_iterator.h ****    *  types for you.
 459:d:/software/ovi_2503a_s3trc/ovi_2503a_s3trc/Tools/MinGW/include/c++/3.3.1/bits/stl_iterator.h ****   */
 460:d:/software/ovi_2503a_s3trc/ovi_2503a_s3trc/Tools/MinGW/include/c++/3.3.1/bits/stl_iterator.h ****   template<typename _Container>
 461:d:/software/ovi_2503a_s3trc/ovi_2503a_s3trc/Tools/MinGW/include/c++/3.3.1/bits/stl_iterator.h ****     inline front_insert_iterator<_Container> 
 462:d:/software/ovi_2503a_s3trc/ovi_2503a_s3trc/Tools/MinGW/include/c++/3.3.1/bits/stl_iterator.h ****     front_inserter(_Container& __x) 
 463:d:/software/ovi_2503a_s3trc/ovi_2503a_s3trc/Tools/MinGW/include/c++/3.3.1/bits/stl_iterator.h ****     { return front_insert_iterator<_Container>(__x); }
 464:d:/software/ovi_2503a_s3trc/ovi_2503a_s3trc/Tools/MinGW/include/c++/3.3.1/bits/stl_iterator.h **** 
 465:d:/software/ovi_2503a_s3trc/ovi_2503a_s3trc/Tools/MinGW/include/c++/3.3.1/bits/stl_iterator.h ****   /**
 466:d:/software/ovi_2503a_s3trc/ovi_2503a_s3trc/Tools/MinGW/include/c++/3.3.1/bits/stl_iterator.h ****    *  @brief  Turns assignment into insertion.
 467:d:/software/ovi_2503a_s3trc/ovi_2503a_s3trc/Tools/MinGW/include/c++/3.3.1/bits/stl_iterator.h ****    *
 468:d:/software/ovi_2503a_s3trc/ovi_2503a_s3trc/Tools/MinGW/include/c++/3.3.1/bits/stl_iterator.h ****    *  These are output iterators, constructed from a container-of-T.
 469:d:/software/ovi_2503a_s3trc/ovi_2503a_s3trc/Tools/MinGW/include/c++/3.3.1/bits/stl_iterator.h ****    *  Assigning a T to the iterator inserts it in the container at the
 470:d:/software/ovi_2503a_s3trc/ovi_2503a_s3trc/Tools/MinGW/include/c++/3.3.1/bits/stl_iterator.h ****    *  %iterator's position, rather than overwriting the value at that
 471:d:/software/ovi_2503a_s3trc/ovi_2503a_s3trc/Tools/MinGW/include/c++/3.3.1/bits/stl_iterator.h ****    *  position.
 472:d:/software/ovi_2503a_s3trc/ovi_2503a_s3trc/Tools/MinGW/include/c++/3.3.1/bits/stl_iterator.h ****    *
 473:d:/software/ovi_2503a_s3trc/ovi_2503a_s3trc/Tools/MinGW/include/c++/3.3.1/bits/stl_iterator.h ****    *  (Sequences will actually insert a @e copy of the value before the
 474:d:/software/ovi_2503a_s3trc/ovi_2503a_s3trc/Tools/MinGW/include/c++/3.3.1/bits/stl_iterator.h ****    *  %iterator's position.)
 475:d:/software/ovi_2503a_s3trc/ovi_2503a_s3trc/Tools/MinGW/include/c++/3.3.1/bits/stl_iterator.h ****    *
 476:d:/software/ovi_2503a_s3trc/ovi_2503a_s3trc/Tools/MinGW/include/c++/3.3.1/bits/stl_iterator.h ****    *  Tip:  Using the inserter function to create these iterators can
 477:d:/software/ovi_2503a_s3trc/ovi_2503a_s3trc/Tools/MinGW/include/c++/3.3.1/bits/stl_iterator.h ****    *  save typing.
 478:d:/software/ovi_2503a_s3trc/ovi_2503a_s3trc/Tools/MinGW/include/c++/3.3.1/bits/stl_iterator.h ****   */
 479:d:/software/ovi_2503a_s3trc/ovi_2503a_s3trc/Tools/MinGW/include/c++/3.3.1/bits/stl_iterator.h ****   template<typename _Container>
 480:d:/software/ovi_2503a_s3trc/ovi_2503a_s3trc/Tools/MinGW/include/c++/3.3.1/bits/stl_iterator.h ****     class insert_iterator 
 481:d:/software/ovi_2503a_s3trc/ovi_2503a_s3trc/Tools/MinGW/include/c++/3.3.1/bits/stl_iterator.h ****     : public iterator<output_iterator_tag, void, void, void, void>
 482:d:/software/ovi_2503a_s3trc/ovi_2503a_s3trc/Tools/MinGW/include/c++/3.3.1/bits/stl_iterator.h ****     {
 483:d:/software/ovi_2503a_s3trc/ovi_2503a_s3trc/Tools/MinGW/include/c++/3.3.1/bits/stl_iterator.h ****     protected:
 484:d:/software/ovi_2503a_s3trc/ovi_2503a_s3trc/Tools/MinGW/include/c++/3.3.1/bits/stl_iterator.h ****       _Container* container;
 485:d:/software/ovi_2503a_s3trc/ovi_2503a_s3trc/Tools/MinGW/include/c++/3.3.1/bits/stl_iterator.h ****       typename _Container::iterator iter;
 486:d:/software/ovi_2503a_s3trc/ovi_2503a_s3trc/Tools/MinGW/include/c++/3.3.1/bits/stl_iterator.h **** 
 487:d:/software/ovi_2503a_s3trc/ovi_2503a_s3trc/Tools/MinGW/include/c++/3.3.1/bits/stl_iterator.h ****     public:
 488:d:/software/ovi_2503a_s3trc/ovi_2503a_s3trc/Tools/MinGW/include/c++/3.3.1/bits/stl_iterator.h ****       /// A nested typedef for the type of whatever container you used.
 489:d:/software/ovi_2503a_s3trc/ovi_2503a_s3trc/Tools/MinGW/include/c++/3.3.1/bits/stl_iterator.h ****       typedef _Container          container_type;
 490:d:/software/ovi_2503a_s3trc/ovi_2503a_s3trc/Tools/MinGW/include/c++/3.3.1/bits/stl_iterator.h ****       
 491:d:/software/ovi_2503a_s3trc/ovi_2503a_s3trc/Tools/MinGW/include/c++/3.3.1/bits/stl_iterator.h ****       /**
 492:d:/software/ovi_2503a_s3trc/ovi_2503a_s3trc/Tools/MinGW/include/c++/3.3.1/bits/stl_iterator.h ****        *  The only way to create this %iterator is with a container and an
 493:d:/software/ovi_2503a_s3trc/ovi_2503a_s3trc/Tools/MinGW/include/c++/3.3.1/bits/stl_iterator.h ****        *  initial position (a normal %iterator into the container).
 494:d:/software/ovi_2503a_s3trc/ovi_2503a_s3trc/Tools/MinGW/include/c++/3.3.1/bits/stl_iterator.h ****       */
 495:d:/software/ovi_2503a_s3trc/ovi_2503a_s3trc/Tools/MinGW/include/c++/3.3.1/bits/stl_iterator.h ****       insert_iterator(_Container& __x, typename _Container::iterator __i) 
 496:d:/software/ovi_2503a_s3trc/ovi_2503a_s3trc/Tools/MinGW/include/c++/3.3.1/bits/stl_iterator.h ****       : container(&__x), iter(__i) {}
 497:d:/software/ovi_2503a_s3trc/ovi_2503a_s3trc/Tools/MinGW/include/c++/3.3.1/bits/stl_iterator.h ****    
 498:d:/software/ovi_2503a_s3trc/ovi_2503a_s3trc/Tools/MinGW/include/c++/3.3.1/bits/stl_iterator.h ****       /**
 499:d:/software/ovi_2503a_s3trc/ovi_2503a_s3trc/Tools/MinGW/include/c++/3.3.1/bits/stl_iterator.h ****        *  @param  value  An instance of whatever type
 500:d:/software/ovi_2503a_s3trc/ovi_2503a_s3trc/Tools/MinGW/include/c++/3.3.1/bits/stl_iterator.h ****        *                 container_type::const_reference is; presumably a
GAS LISTING d:/software/ovi_2503a_s3trc/ovi_2503a_s3trc/plutommi/Customer/ResGenerator/gcctmp/cci0baaa.s 			page 86


 501:d:/software/ovi_2503a_s3trc/ovi_2503a_s3trc/Tools/MinGW/include/c++/3.3.1/bits/stl_iterator.h ****        *                 reference-to-const T for container<T>.
 502:d:/software/ovi_2503a_s3trc/ovi_2503a_s3trc/Tools/MinGW/include/c++/3.3.1/bits/stl_iterator.h ****        *  @return  This %iterator, for chained operations.
 503:d:/software/ovi_2503a_s3trc/ovi_2503a_s3trc/Tools/MinGW/include/c++/3.3.1/bits/stl_iterator.h ****        *
 504:d:/software/ovi_2503a_s3trc/ovi_2503a_s3trc/Tools/MinGW/include/c++/3.3.1/bits/stl_iterator.h ****        *  This kind of %iterator maintains its own position in the
 505:d:/software/ovi_2503a_s3trc/ovi_2503a_s3trc/Tools/MinGW/include/c++/3.3.1/bits/stl_iterator.h ****        *  container.  Assigning a value to the %iterator will insert the
 506:d:/software/ovi_2503a_s3trc/ovi_2503a_s3trc/Tools/MinGW/include/c++/3.3.1/bits/stl_iterator.h ****        *  value into the container at the place before the %iterator.
 507:d:/software/ovi_2503a_s3trc/ovi_2503a_s3trc/Tools/MinGW/include/c++/3.3.1/bits/stl_iterator.h ****        *
 508:d:/software/ovi_2503a_s3trc/ovi_2503a_s3trc/Tools/MinGW/include/c++/3.3.1/bits/stl_iterator.h ****        *  The position is maintained such that subsequent assignments will
 509:d:/software/ovi_2503a_s3trc/ovi_2503a_s3trc/Tools/MinGW/include/c++/3.3.1/bits/stl_iterator.h ****        *  insert values immediately after one another.  For example,
 510:d:/software/ovi_2503a_s3trc/ovi_2503a_s3trc/Tools/MinGW/include/c++/3.3.1/bits/stl_iterator.h ****        *  @code
 511:d:/software/ovi_2503a_s3trc/ovi_2503a_s3trc/Tools/MinGW/include/c++/3.3.1/bits/stl_iterator.h ****        *     // vector v contains A and Z
 512:d:/software/ovi_2503a_s3trc/ovi_2503a_s3trc/Tools/MinGW/include/c++/3.3.1/bits/stl_iterator.h ****        *
 513:d:/software/ovi_2503a_s3trc/ovi_2503a_s3trc/Tools/MinGW/include/c++/3.3.1/bits/stl_iterator.h ****        *     insert_iterator i (v, ++v.begin());
 514:d:/software/ovi_2503a_s3trc/ovi_2503a_s3trc/Tools/MinGW/include/c++/3.3.1/bits/stl_iterator.h ****        *     i = 1;
 515:d:/software/ovi_2503a_s3trc/ovi_2503a_s3trc/Tools/MinGW/include/c++/3.3.1/bits/stl_iterator.h ****        *     i = 2;
 516:d:/software/ovi_2503a_s3trc/ovi_2503a_s3trc/Tools/MinGW/include/c++/3.3.1/bits/stl_iterator.h ****        *     i = 3;
 517:d:/software/ovi_2503a_s3trc/ovi_2503a_s3trc/Tools/MinGW/include/c++/3.3.1/bits/stl_iterator.h ****        *
 518:d:/software/ovi_2503a_s3trc/ovi_2503a_s3trc/Tools/MinGW/include/c++/3.3.1/bits/stl_iterator.h ****        *     // vector v contains A, 1, 2, 3, and Z
 519:d:/software/ovi_2503a_s3trc/ovi_2503a_s3trc/Tools/MinGW/include/c++/3.3.1/bits/stl_iterator.h ****        *  @endcode
 520:d:/software/ovi_2503a_s3trc/ovi_2503a_s3trc/Tools/MinGW/include/c++/3.3.1/bits/stl_iterator.h ****       */
 521:d:/software/ovi_2503a_s3trc/ovi_2503a_s3trc/Tools/MinGW/include/c++/3.3.1/bits/stl_iterator.h ****       insert_iterator&
 522:d:/software/ovi_2503a_s3trc/ovi_2503a_s3trc/Tools/MinGW/include/c++/3.3.1/bits/stl_iterator.h ****       operator=(const typename _Container::const_reference __value) 
 523:d:/software/ovi_2503a_s3trc/ovi_2503a_s3trc/Tools/MinGW/include/c++/3.3.1/bits/stl_iterator.h ****       { 
 524:d:/software/ovi_2503a_s3trc/ovi_2503a_s3trc/Tools/MinGW/include/c++/3.3.1/bits/stl_iterator.h **** 	iter = container->insert(iter, __value);
 525:d:/software/ovi_2503a_s3trc/ovi_2503a_s3trc/Tools/MinGW/include/c++/3.3.1/bits/stl_iterator.h **** 	++iter;
 526:d:/software/ovi_2503a_s3trc/ovi_2503a_s3trc/Tools/MinGW/include/c++/3.3.1/bits/stl_iterator.h **** 	return *this;
 527:d:/software/ovi_2503a_s3trc/ovi_2503a_s3trc/Tools/MinGW/include/c++/3.3.1/bits/stl_iterator.h ****       }
 528:d:/software/ovi_2503a_s3trc/ovi_2503a_s3trc/Tools/MinGW/include/c++/3.3.1/bits/stl_iterator.h **** 
 529:d:/software/ovi_2503a_s3trc/ovi_2503a_s3trc/Tools/MinGW/include/c++/3.3.1/bits/stl_iterator.h ****       /// Simply returns *this.
 530:d:/software/ovi_2503a_s3trc/ovi_2503a_s3trc/Tools/MinGW/include/c++/3.3.1/bits/stl_iterator.h ****       insert_iterator& 
 531:d:/software/ovi_2503a_s3trc/ovi_2503a_s3trc/Tools/MinGW/include/c++/3.3.1/bits/stl_iterator.h ****       operator*() { return *this; }
 532:d:/software/ovi_2503a_s3trc/ovi_2503a_s3trc/Tools/MinGW/include/c++/3.3.1/bits/stl_iterator.h **** 
 533:d:/software/ovi_2503a_s3trc/ovi_2503a_s3trc/Tools/MinGW/include/c++/3.3.1/bits/stl_iterator.h ****       /// Simply returns *this.  (This %iterator does not "move".)
 534:d:/software/ovi_2503a_s3trc/ovi_2503a_s3trc/Tools/MinGW/include/c++/3.3.1/bits/stl_iterator.h ****       insert_iterator& 
 535:d:/software/ovi_2503a_s3trc/ovi_2503a_s3trc/Tools/MinGW/include/c++/3.3.1/bits/stl_iterator.h ****       operator++() { return *this; }
 536:d:/software/ovi_2503a_s3trc/ovi_2503a_s3trc/Tools/MinGW/include/c++/3.3.1/bits/stl_iterator.h **** 
 537:d:/software/ovi_2503a_s3trc/ovi_2503a_s3trc/Tools/MinGW/include/c++/3.3.1/bits/stl_iterator.h ****       /// Simply returns *this.  (This %iterator does not "move".)
 538:d:/software/ovi_2503a_s3trc/ovi_2503a_s3trc/Tools/MinGW/include/c++/3.3.1/bits/stl_iterator.h ****       insert_iterator& 
 539:d:/software/ovi_2503a_s3trc/ovi_2503a_s3trc/Tools/MinGW/include/c++/3.3.1/bits/stl_iterator.h ****       operator++(int) { return *this; }
 540:d:/software/ovi_2503a_s3trc/ovi_2503a_s3trc/Tools/MinGW/include/c++/3.3.1/bits/stl_iterator.h ****     };
 541:d:/software/ovi_2503a_s3trc/ovi_2503a_s3trc/Tools/MinGW/include/c++/3.3.1/bits/stl_iterator.h ****   
 542:d:/software/ovi_2503a_s3trc/ovi_2503a_s3trc/Tools/MinGW/include/c++/3.3.1/bits/stl_iterator.h ****   /**
 543:d:/software/ovi_2503a_s3trc/ovi_2503a_s3trc/Tools/MinGW/include/c++/3.3.1/bits/stl_iterator.h ****    *  @param  x  A container of arbitrary type.
 544:d:/software/ovi_2503a_s3trc/ovi_2503a_s3trc/Tools/MinGW/include/c++/3.3.1/bits/stl_iterator.h ****    *  @return  An instance of insert_iterator working on @p x.
 545:d:/software/ovi_2503a_s3trc/ovi_2503a_s3trc/Tools/MinGW/include/c++/3.3.1/bits/stl_iterator.h ****    *
 546:d:/software/ovi_2503a_s3trc/ovi_2503a_s3trc/Tools/MinGW/include/c++/3.3.1/bits/stl_iterator.h ****    *  This wrapper function helps in creating insert_iterator instances.
 547:d:/software/ovi_2503a_s3trc/ovi_2503a_s3trc/Tools/MinGW/include/c++/3.3.1/bits/stl_iterator.h ****    *  Typing the name of the %iterator requires knowing the precise full
 548:d:/software/ovi_2503a_s3trc/ovi_2503a_s3trc/Tools/MinGW/include/c++/3.3.1/bits/stl_iterator.h ****    *  type of the container, which can be tedious and impedes generic
 549:d:/software/ovi_2503a_s3trc/ovi_2503a_s3trc/Tools/MinGW/include/c++/3.3.1/bits/stl_iterator.h ****    *  programming.  Using this function lets you take advantage of automatic
 550:d:/software/ovi_2503a_s3trc/ovi_2503a_s3trc/Tools/MinGW/include/c++/3.3.1/bits/stl_iterator.h ****    *  template parameter deduction, making the compiler match the correct
 551:d:/software/ovi_2503a_s3trc/ovi_2503a_s3trc/Tools/MinGW/include/c++/3.3.1/bits/stl_iterator.h ****    *  types for you.
 552:d:/software/ovi_2503a_s3trc/ovi_2503a_s3trc/Tools/MinGW/include/c++/3.3.1/bits/stl_iterator.h ****   */
 553:d:/software/ovi_2503a_s3trc/ovi_2503a_s3trc/Tools/MinGW/include/c++/3.3.1/bits/stl_iterator.h ****   template<typename _Container, typename _Iterator>
 554:d:/software/ovi_2503a_s3trc/ovi_2503a_s3trc/Tools/MinGW/include/c++/3.3.1/bits/stl_iterator.h ****     inline insert_iterator<_Container> 
 555:d:/software/ovi_2503a_s3trc/ovi_2503a_s3trc/Tools/MinGW/include/c++/3.3.1/bits/stl_iterator.h ****     inserter(_Container& __x, _Iterator __i)
 556:d:/software/ovi_2503a_s3trc/ovi_2503a_s3trc/Tools/MinGW/include/c++/3.3.1/bits/stl_iterator.h ****     {
 557:d:/software/ovi_2503a_s3trc/ovi_2503a_s3trc/Tools/MinGW/include/c++/3.3.1/bits/stl_iterator.h ****       return insert_iterator<_Container>(__x, 
GAS LISTING d:/software/ovi_2503a_s3trc/ovi_2503a_s3trc/plutommi/Customer/ResGenerator/gcctmp/cci0baaa.s 			page 87


 558:d:/software/ovi_2503a_s3trc/ovi_2503a_s3trc/Tools/MinGW/include/c++/3.3.1/bits/stl_iterator.h **** 					 typename _Container::iterator(__i));
 559:d:/software/ovi_2503a_s3trc/ovi_2503a_s3trc/Tools/MinGW/include/c++/3.3.1/bits/stl_iterator.h ****     }
 560:d:/software/ovi_2503a_s3trc/ovi_2503a_s3trc/Tools/MinGW/include/c++/3.3.1/bits/stl_iterator.h **** } // namespace std
 561:d:/software/ovi_2503a_s3trc/ovi_2503a_s3trc/Tools/MinGW/include/c++/3.3.1/bits/stl_iterator.h **** 
 562:d:/software/ovi_2503a_s3trc/ovi_2503a_s3trc/Tools/MinGW/include/c++/3.3.1/bits/stl_iterator.h **** namespace __gnu_cxx
 563:d:/software/ovi_2503a_s3trc/ovi_2503a_s3trc/Tools/MinGW/include/c++/3.3.1/bits/stl_iterator.h **** {  
 564:d:/software/ovi_2503a_s3trc/ovi_2503a_s3trc/Tools/MinGW/include/c++/3.3.1/bits/stl_iterator.h ****   // This iterator adapter is 'normal' in the sense that it does not
 565:d:/software/ovi_2503a_s3trc/ovi_2503a_s3trc/Tools/MinGW/include/c++/3.3.1/bits/stl_iterator.h ****   // change the semantics of any of the operators of its iterator
 566:d:/software/ovi_2503a_s3trc/ovi_2503a_s3trc/Tools/MinGW/include/c++/3.3.1/bits/stl_iterator.h ****   // parameter.  Its primary purpose is to convert an iterator that is
 567:d:/software/ovi_2503a_s3trc/ovi_2503a_s3trc/Tools/MinGW/include/c++/3.3.1/bits/stl_iterator.h ****   // not a class, e.g. a pointer, into an iterator that is a class.
 568:d:/software/ovi_2503a_s3trc/ovi_2503a_s3trc/Tools/MinGW/include/c++/3.3.1/bits/stl_iterator.h ****   // The _Container parameter exists solely so that different containers
 569:d:/software/ovi_2503a_s3trc/ovi_2503a_s3trc/Tools/MinGW/include/c++/3.3.1/bits/stl_iterator.h ****   // using this template can instantiate different types, even if the
 570:d:/software/ovi_2503a_s3trc/ovi_2503a_s3trc/Tools/MinGW/include/c++/3.3.1/bits/stl_iterator.h ****   // _Iterator parameter is the same.
 571:d:/software/ovi_2503a_s3trc/ovi_2503a_s3trc/Tools/MinGW/include/c++/3.3.1/bits/stl_iterator.h ****   using std::iterator_traits;
 572:d:/software/ovi_2503a_s3trc/ovi_2503a_s3trc/Tools/MinGW/include/c++/3.3.1/bits/stl_iterator.h ****   using std::iterator;
 573:d:/software/ovi_2503a_s3trc/ovi_2503a_s3trc/Tools/MinGW/include/c++/3.3.1/bits/stl_iterator.h ****   template<typename _Iterator, typename _Container>
 574:d:/software/ovi_2503a_s3trc/ovi_2503a_s3trc/Tools/MinGW/include/c++/3.3.1/bits/stl_iterator.h ****     class __normal_iterator
 575:d:/software/ovi_2503a_s3trc/ovi_2503a_s3trc/Tools/MinGW/include/c++/3.3.1/bits/stl_iterator.h ****       : public iterator<typename iterator_traits<_Iterator>::iterator_category,
 576:d:/software/ovi_2503a_s3trc/ovi_2503a_s3trc/Tools/MinGW/include/c++/3.3.1/bits/stl_iterator.h ****                         typename iterator_traits<_Iterator>::value_type,
 577:d:/software/ovi_2503a_s3trc/ovi_2503a_s3trc/Tools/MinGW/include/c++/3.3.1/bits/stl_iterator.h ****                         typename iterator_traits<_Iterator>::difference_type,
 578:d:/software/ovi_2503a_s3trc/ovi_2503a_s3trc/Tools/MinGW/include/c++/3.3.1/bits/stl_iterator.h ****                         typename iterator_traits<_Iterator>::pointer,
 579:d:/software/ovi_2503a_s3trc/ovi_2503a_s3trc/Tools/MinGW/include/c++/3.3.1/bits/stl_iterator.h ****                         typename iterator_traits<_Iterator>::reference>
 580:d:/software/ovi_2503a_s3trc/ovi_2503a_s3trc/Tools/MinGW/include/c++/3.3.1/bits/stl_iterator.h ****     {
 581:d:/software/ovi_2503a_s3trc/ovi_2503a_s3trc/Tools/MinGW/include/c++/3.3.1/bits/stl_iterator.h ****     protected:
 582:d:/software/ovi_2503a_s3trc/ovi_2503a_s3trc/Tools/MinGW/include/c++/3.3.1/bits/stl_iterator.h ****       _Iterator _M_current;
 583:d:/software/ovi_2503a_s3trc/ovi_2503a_s3trc/Tools/MinGW/include/c++/3.3.1/bits/stl_iterator.h ****       
 584:d:/software/ovi_2503a_s3trc/ovi_2503a_s3trc/Tools/MinGW/include/c++/3.3.1/bits/stl_iterator.h ****     public:
 585:d:/software/ovi_2503a_s3trc/ovi_2503a_s3trc/Tools/MinGW/include/c++/3.3.1/bits/stl_iterator.h ****       typedef typename iterator_traits<_Iterator>::difference_type 	
 586:d:/software/ovi_2503a_s3trc/ovi_2503a_s3trc/Tools/MinGW/include/c++/3.3.1/bits/stl_iterator.h ****       							       difference_type;
 587:d:/software/ovi_2503a_s3trc/ovi_2503a_s3trc/Tools/MinGW/include/c++/3.3.1/bits/stl_iterator.h ****       typedef typename iterator_traits<_Iterator>::reference   reference;
 588:d:/software/ovi_2503a_s3trc/ovi_2503a_s3trc/Tools/MinGW/include/c++/3.3.1/bits/stl_iterator.h ****       typedef typename iterator_traits<_Iterator>::pointer     pointer;
 589:d:/software/ovi_2503a_s3trc/ovi_2503a_s3trc/Tools/MinGW/include/c++/3.3.1/bits/stl_iterator.h **** 
 590:d:/software/ovi_2503a_s3trc/ovi_2503a_s3trc/Tools/MinGW/include/c++/3.3.1/bits/stl_iterator.h ****       __normal_iterator() : _M_current(_Iterator()) { }
 591:d:/software/ovi_2503a_s3trc/ovi_2503a_s3trc/Tools/MinGW/include/c++/3.3.1/bits/stl_iterator.h **** 
 592:d:/software/ovi_2503a_s3trc/ovi_2503a_s3trc/Tools/MinGW/include/c++/3.3.1/bits/stl_iterator.h ****       explicit 
 593:d:/software/ovi_2503a_s3trc/ovi_2503a_s3trc/Tools/MinGW/include/c++/3.3.1/bits/stl_iterator.h ****       __normal_iterator(const _Iterator& __i) : _M_current(__i) { }
 594:d:/software/ovi_2503a_s3trc/ovi_2503a_s3trc/Tools/MinGW/include/c++/3.3.1/bits/stl_iterator.h **** 
 595:d:/software/ovi_2503a_s3trc/ovi_2503a_s3trc/Tools/MinGW/include/c++/3.3.1/bits/stl_iterator.h ****       // Allow iterator to const_iterator conversion
 596:d:/software/ovi_2503a_s3trc/ovi_2503a_s3trc/Tools/MinGW/include/c++/3.3.1/bits/stl_iterator.h ****       template<typename _Iter>
 597:d:/software/ovi_2503a_s3trc/ovi_2503a_s3trc/Tools/MinGW/include/c++/3.3.1/bits/stl_iterator.h ****       inline __normal_iterator(const __normal_iterator<_Iter, _Container>& __i)
 598:d:/software/ovi_2503a_s3trc/ovi_2503a_s3trc/Tools/MinGW/include/c++/3.3.1/bits/stl_iterator.h **** 	: _M_current(__i.base()) { }
 599:d:/software/ovi_2503a_s3trc/ovi_2503a_s3trc/Tools/MinGW/include/c++/3.3.1/bits/stl_iterator.h **** 
 600:d:/software/ovi_2503a_s3trc/ovi_2503a_s3trc/Tools/MinGW/include/c++/3.3.1/bits/stl_iterator.h ****       // Forward iterator requirements
 601:d:/software/ovi_2503a_s3trc/ovi_2503a_s3trc/Tools/MinGW/include/c++/3.3.1/bits/stl_iterator.h ****       reference
 602:d:/software/ovi_2503a_s3trc/ovi_2503a_s3trc/Tools/MinGW/include/c++/3.3.1/bits/stl_iterator.h ****       operator*() const { return *_M_current; }
 603:d:/software/ovi_2503a_s3trc/ovi_2503a_s3trc/Tools/MinGW/include/c++/3.3.1/bits/stl_iterator.h ****       
 604:d:/software/ovi_2503a_s3trc/ovi_2503a_s3trc/Tools/MinGW/include/c++/3.3.1/bits/stl_iterator.h ****       pointer
 605:d:/software/ovi_2503a_s3trc/ovi_2503a_s3trc/Tools/MinGW/include/c++/3.3.1/bits/stl_iterator.h ****       operator->() const { return _M_current; }
 606:d:/software/ovi_2503a_s3trc/ovi_2503a_s3trc/Tools/MinGW/include/c++/3.3.1/bits/stl_iterator.h ****       
 607:d:/software/ovi_2503a_s3trc/ovi_2503a_s3trc/Tools/MinGW/include/c++/3.3.1/bits/stl_iterator.h ****       __normal_iterator&
 608:d:/software/ovi_2503a_s3trc/ovi_2503a_s3trc/Tools/MinGW/include/c++/3.3.1/bits/stl_iterator.h ****       operator++() { ++_M_current; return *this; }
 609:d:/software/ovi_2503a_s3trc/ovi_2503a_s3trc/Tools/MinGW/include/c++/3.3.1/bits/stl_iterator.h ****       
 610:d:/software/ovi_2503a_s3trc/ovi_2503a_s3trc/Tools/MinGW/include/c++/3.3.1/bits/stl_iterator.h ****       __normal_iterator
 611:d:/software/ovi_2503a_s3trc/ovi_2503a_s3trc/Tools/MinGW/include/c++/3.3.1/bits/stl_iterator.h ****       operator++(int) { return __normal_iterator(_M_current++); }
 612:d:/software/ovi_2503a_s3trc/ovi_2503a_s3trc/Tools/MinGW/include/c++/3.3.1/bits/stl_iterator.h ****       
 613:d:/software/ovi_2503a_s3trc/ovi_2503a_s3trc/Tools/MinGW/include/c++/3.3.1/bits/stl_iterator.h ****       // Bidirectional iterator requirements
 614:d:/software/ovi_2503a_s3trc/ovi_2503a_s3trc/Tools/MinGW/include/c++/3.3.1/bits/stl_iterator.h ****       __normal_iterator&
GAS LISTING d:/software/ovi_2503a_s3trc/ovi_2503a_s3trc/plutommi/Customer/ResGenerator/gcctmp/cci0baaa.s 			page 88


 615:d:/software/ovi_2503a_s3trc/ovi_2503a_s3trc/Tools/MinGW/include/c++/3.3.1/bits/stl_iterator.h ****       operator--() { --_M_current; return *this; }
 616:d:/software/ovi_2503a_s3trc/ovi_2503a_s3trc/Tools/MinGW/include/c++/3.3.1/bits/stl_iterator.h ****       
 617:d:/software/ovi_2503a_s3trc/ovi_2503a_s3trc/Tools/MinGW/include/c++/3.3.1/bits/stl_iterator.h ****       __normal_iterator
 618:d:/software/ovi_2503a_s3trc/ovi_2503a_s3trc/Tools/MinGW/include/c++/3.3.1/bits/stl_iterator.h ****       operator--(int) { return __normal_iterator(_M_current--); }
 619:d:/software/ovi_2503a_s3trc/ovi_2503a_s3trc/Tools/MinGW/include/c++/3.3.1/bits/stl_iterator.h ****       
 620:d:/software/ovi_2503a_s3trc/ovi_2503a_s3trc/Tools/MinGW/include/c++/3.3.1/bits/stl_iterator.h ****       // Random access iterator requirements
 621:d:/software/ovi_2503a_s3trc/ovi_2503a_s3trc/Tools/MinGW/include/c++/3.3.1/bits/stl_iterator.h ****       reference
 622:d:/software/ovi_2503a_s3trc/ovi_2503a_s3trc/Tools/MinGW/include/c++/3.3.1/bits/stl_iterator.h ****       operator[](const difference_type& __n) const
 623:d:/software/ovi_2503a_s3trc/ovi_2503a_s3trc/Tools/MinGW/include/c++/3.3.1/bits/stl_iterator.h ****       { return _M_current[__n]; }
 624:d:/software/ovi_2503a_s3trc/ovi_2503a_s3trc/Tools/MinGW/include/c++/3.3.1/bits/stl_iterator.h ****       
 625:d:/software/ovi_2503a_s3trc/ovi_2503a_s3trc/Tools/MinGW/include/c++/3.3.1/bits/stl_iterator.h ****       __normal_iterator&
 626:d:/software/ovi_2503a_s3trc/ovi_2503a_s3trc/Tools/MinGW/include/c++/3.3.1/bits/stl_iterator.h ****       operator+=(const difference_type& __n)
 627:d:/software/ovi_2503a_s3trc/ovi_2503a_s3trc/Tools/MinGW/include/c++/3.3.1/bits/stl_iterator.h ****       { _M_current += __n; return *this; }
 628:d:/software/ovi_2503a_s3trc/ovi_2503a_s3trc/Tools/MinGW/include/c++/3.3.1/bits/stl_iterator.h **** 
 629:d:/software/ovi_2503a_s3trc/ovi_2503a_s3trc/Tools/MinGW/include/c++/3.3.1/bits/stl_iterator.h ****       __normal_iterator
 630:d:/software/ovi_2503a_s3trc/ovi_2503a_s3trc/Tools/MinGW/include/c++/3.3.1/bits/stl_iterator.h ****       operator+(const difference_type& __n) const
 631:d:/software/ovi_2503a_s3trc/ovi_2503a_s3trc/Tools/MinGW/include/c++/3.3.1/bits/stl_iterator.h ****       { return __normal_iterator(_M_current + __n); }
 632:d:/software/ovi_2503a_s3trc/ovi_2503a_s3trc/Tools/MinGW/include/c++/3.3.1/bits/stl_iterator.h ****       
 633:d:/software/ovi_2503a_s3trc/ovi_2503a_s3trc/Tools/MinGW/include/c++/3.3.1/bits/stl_iterator.h ****       __normal_iterator&
 634:d:/software/ovi_2503a_s3trc/ovi_2503a_s3trc/Tools/MinGW/include/c++/3.3.1/bits/stl_iterator.h ****       operator-=(const difference_type& __n)
 635:d:/software/ovi_2503a_s3trc/ovi_2503a_s3trc/Tools/MinGW/include/c++/3.3.1/bits/stl_iterator.h ****       { _M_current -= __n; return *this; }
 636:d:/software/ovi_2503a_s3trc/ovi_2503a_s3trc/Tools/MinGW/include/c++/3.3.1/bits/stl_iterator.h ****       
 637:d:/software/ovi_2503a_s3trc/ovi_2503a_s3trc/Tools/MinGW/include/c++/3.3.1/bits/stl_iterator.h ****       __normal_iterator
 638:d:/software/ovi_2503a_s3trc/ovi_2503a_s3trc/Tools/MinGW/include/c++/3.3.1/bits/stl_iterator.h ****       operator-(const difference_type& __n) const
 639:d:/software/ovi_2503a_s3trc/ovi_2503a_s3trc/Tools/MinGW/include/c++/3.3.1/bits/stl_iterator.h ****       { return __normal_iterator(_M_current - __n); }
 640:d:/software/ovi_2503a_s3trc/ovi_2503a_s3trc/Tools/MinGW/include/c++/3.3.1/bits/stl_iterator.h ****       
 641:d:/software/ovi_2503a_s3trc/ovi_2503a_s3trc/Tools/MinGW/include/c++/3.3.1/bits/stl_iterator.h ****       const _Iterator& 
 642:d:/software/ovi_2503a_s3trc/ovi_2503a_s3trc/Tools/MinGW/include/c++/3.3.1/bits/stl_iterator.h ****       base() const { return _M_current; }
 643:d:/software/ovi_2503a_s3trc/ovi_2503a_s3trc/Tools/MinGW/include/c++/3.3.1/bits/stl_iterator.h ****     };
 644:d:/software/ovi_2503a_s3trc/ovi_2503a_s3trc/Tools/MinGW/include/c++/3.3.1/bits/stl_iterator.h **** 
 645:d:/software/ovi_2503a_s3trc/ovi_2503a_s3trc/Tools/MinGW/include/c++/3.3.1/bits/stl_iterator.h ****   // Note: In what follows, the left- and right-hand-side iterators are
 646:d:/software/ovi_2503a_s3trc/ovi_2503a_s3trc/Tools/MinGW/include/c++/3.3.1/bits/stl_iterator.h ****   // allowed to vary in types (conceptually in cv-qualification) so that
 647:d:/software/ovi_2503a_s3trc/ovi_2503a_s3trc/Tools/MinGW/include/c++/3.3.1/bits/stl_iterator.h ****   // comparaison between cv-qualified and non-cv-qualified iterators be
 648:d:/software/ovi_2503a_s3trc/ovi_2503a_s3trc/Tools/MinGW/include/c++/3.3.1/bits/stl_iterator.h ****   // valid.  However, the greedy and unfriendly operators in std::rel_ops
 649:d:/software/ovi_2503a_s3trc/ovi_2503a_s3trc/Tools/MinGW/include/c++/3.3.1/bits/stl_iterator.h ****   // will make overload resolution ambiguous (when in scope) if we don't
 650:d:/software/ovi_2503a_s3trc/ovi_2503a_s3trc/Tools/MinGW/include/c++/3.3.1/bits/stl_iterator.h ****   // provide overloads whose operands are of the same type.  Can someone
 651:d:/software/ovi_2503a_s3trc/ovi_2503a_s3trc/Tools/MinGW/include/c++/3.3.1/bits/stl_iterator.h ****   // remind me what generic programming is about? -- Gaby
 652:d:/software/ovi_2503a_s3trc/ovi_2503a_s3trc/Tools/MinGW/include/c++/3.3.1/bits/stl_iterator.h ****   
 653:d:/software/ovi_2503a_s3trc/ovi_2503a_s3trc/Tools/MinGW/include/c++/3.3.1/bits/stl_iterator.h ****   // Forward iterator requirements
 654:d:/software/ovi_2503a_s3trc/ovi_2503a_s3trc/Tools/MinGW/include/c++/3.3.1/bits/stl_iterator.h ****   template<typename _IteratorL, typename _IteratorR, typename _Container>
 655:d:/software/ovi_2503a_s3trc/ovi_2503a_s3trc/Tools/MinGW/include/c++/3.3.1/bits/stl_iterator.h ****   inline bool
 656:d:/software/ovi_2503a_s3trc/ovi_2503a_s3trc/Tools/MinGW/include/c++/3.3.1/bits/stl_iterator.h ****   operator==(const __normal_iterator<_IteratorL, _Container>& __lhs,
 657:d:/software/ovi_2503a_s3trc/ovi_2503a_s3trc/Tools/MinGW/include/c++/3.3.1/bits/stl_iterator.h **** 	     const __normal_iterator<_IteratorR, _Container>& __rhs)
 658:d:/software/ovi_2503a_s3trc/ovi_2503a_s3trc/Tools/MinGW/include/c++/3.3.1/bits/stl_iterator.h ****   { return __lhs.base() == __rhs.base(); }
 659:d:/software/ovi_2503a_s3trc/ovi_2503a_s3trc/Tools/MinGW/include/c++/3.3.1/bits/stl_iterator.h **** 
 660:d:/software/ovi_2503a_s3trc/ovi_2503a_s3trc/Tools/MinGW/include/c++/3.3.1/bits/stl_iterator.h ****   template<typename _Iterator, typename _Container>
 661:d:/software/ovi_2503a_s3trc/ovi_2503a_s3trc/Tools/MinGW/include/c++/3.3.1/bits/stl_iterator.h ****   inline bool
 662:d:/software/ovi_2503a_s3trc/ovi_2503a_s3trc/Tools/MinGW/include/c++/3.3.1/bits/stl_iterator.h ****   operator==(const __normal_iterator<_Iterator, _Container>& __lhs,
 663:d:/software/ovi_2503a_s3trc/ovi_2503a_s3trc/Tools/MinGW/include/c++/3.3.1/bits/stl_iterator.h ****              const __normal_iterator<_Iterator, _Container>& __rhs)
 664:d:/software/ovi_2503a_s3trc/ovi_2503a_s3trc/Tools/MinGW/include/c++/3.3.1/bits/stl_iterator.h ****   { return __lhs.base() == __rhs.base(); }
 665:d:/software/ovi_2503a_s3trc/ovi_2503a_s3trc/Tools/MinGW/include/c++/3.3.1/bits/stl_iterator.h **** 
 666:d:/software/ovi_2503a_s3trc/ovi_2503a_s3trc/Tools/MinGW/include/c++/3.3.1/bits/stl_iterator.h ****   template<typename _IteratorL, typename _IteratorR, typename _Container>
 667:d:/software/ovi_2503a_s3trc/ovi_2503a_s3trc/Tools/MinGW/include/c++/3.3.1/bits/stl_iterator.h ****   inline bool
 668:d:/software/ovi_2503a_s3trc/ovi_2503a_s3trc/Tools/MinGW/include/c++/3.3.1/bits/stl_iterator.h ****   operator!=(const __normal_iterator<_IteratorL, _Container>& __lhs,
 669:d:/software/ovi_2503a_s3trc/ovi_2503a_s3trc/Tools/MinGW/include/c++/3.3.1/bits/stl_iterator.h **** 	     const __normal_iterator<_IteratorR, _Container>& __rhs)
 670:d:/software/ovi_2503a_s3trc/ovi_2503a_s3trc/Tools/MinGW/include/c++/3.3.1/bits/stl_iterator.h ****   { return __lhs.base() != __rhs.base(); }
 671:d:/software/ovi_2503a_s3trc/ovi_2503a_s3trc/Tools/MinGW/include/c++/3.3.1/bits/stl_iterator.h **** 
GAS LISTING d:/software/ovi_2503a_s3trc/ovi_2503a_s3trc/plutommi/Customer/ResGenerator/gcctmp/cci0baaa.s 			page 89


 672:d:/software/ovi_2503a_s3trc/ovi_2503a_s3trc/Tools/MinGW/include/c++/3.3.1/bits/stl_iterator.h ****   template<typename _Iterator, typename _Container>
 673:d:/software/ovi_2503a_s3trc/ovi_2503a_s3trc/Tools/MinGW/include/c++/3.3.1/bits/stl_iterator.h ****   inline bool
 674:d:/software/ovi_2503a_s3trc/ovi_2503a_s3trc/Tools/MinGW/include/c++/3.3.1/bits/stl_iterator.h ****   operator!=(const __normal_iterator<_Iterator, _Container>& __lhs,
 675:d:/software/ovi_2503a_s3trc/ovi_2503a_s3trc/Tools/MinGW/include/c++/3.3.1/bits/stl_iterator.h ****              const __normal_iterator<_Iterator, _Container>& __rhs)
 676:d:/software/ovi_2503a_s3trc/ovi_2503a_s3trc/Tools/MinGW/include/c++/3.3.1/bits/stl_iterator.h ****   { return __lhs.base() != __rhs.base(); }
 5122              	LM179:
 5123 0000 55       		pushl	%ebp
 5124 0001 89E5     		movl	%esp, %ebp
 5125 0003 53       		pushl	%ebx
 5126 0004 83EC04   		subl	$4, %esp
 5128              	LM180:
 5129              	LBB38:
 5130 0007 8B4508   		movl	8(%ebp), %eax
 5131 000a 890424   		movl	%eax, (%esp)
 5132 000d E8000000 		call	__ZNK9__gnu_cxx17__normal_iteratorIPN10ThreadPool10ThreadDataESt6vectorIS2_SaIS2_EEE4baseEv
 5132      00
 5133 0012 89C3     		movl	%eax, %ebx
 5134 0014 8B450C   		movl	12(%ebp), %eax
 5135 0017 890424   		movl	%eax, (%esp)
 5136 001a E8000000 		call	__ZNK9__gnu_cxx17__normal_iteratorIPN10ThreadPool10ThreadDataESt6vectorIS2_SaIS2_EEE4baseEv
 5136      00
 5137 001f 89C2     		movl	%eax, %edx
 5138 0021 8B03     		movl	(%ebx), %eax
 5139 0023 3B02     		cmpl	(%edx), %eax
 5140 0025 0F95C0   		setne	%al
 5141 0028 0FB6C0   		movzbl	%al, %eax
 5142 002b 83C404   		addl	$4, %esp
 5143 002e 5B       		popl	%ebx
 5144 002f 5D       		popl	%ebp
 5145 0030 C3       		ret
 5146              	LBE38:
 5147              	Lscope21:
 5149 0031 909090   		.section	.text$_ZN9__gnu_cxx17__normal_iteratorIPN10ThreadPool10ThreadDataESt6vectorIS2_SaIS2_EEEp
 5150              		.linkonce discard
 5151              		.align 2
 5154              	.globl __ZN9__gnu_cxx17__normal_iteratorIPN10ThreadPool10ThreadDataESt6vectorIS2_SaIS2_EEEppEv
 5156              	__ZN9__gnu_cxx17__normal_iteratorIPN10ThreadPool10ThreadDataESt6vectorIS2_SaIS2_EEEppEv:
 5158              	LM181:
 5159 0000 55       		pushl	%ebp
 5160 0001 89E5     		movl	%esp, %ebp
 5162              	LM182:
 5163              	LBB39:
 5164 0003 8B4508   		movl	8(%ebp), %eax
 5165 0006 83000C   		addl	$12, (%eax)
 5166 0009 8B4508   		movl	8(%ebp), %eax
 5167 000c 5D       		popl	%ebp
 5168 000d C3       		ret
 5169              	LBE39:
 5170              	Lscope22:
 5172 000e 9090     		.section	.text$_ZNK9__gnu_cxx17__normal_iteratorIPN10ThreadPool10ThreadDataESt6vectorIS2_SaIS2_EEE
 5173              		.linkonce discard
 5174              		.align 2
 5177              	.globl __ZNK9__gnu_cxx17__normal_iteratorIPN10ThreadPool10ThreadDataESt6vectorIS2_SaIS2_EEEptEv
 5179              	__ZNK9__gnu_cxx17__normal_iteratorIPN10ThreadPool10ThreadDataESt6vectorIS2_SaIS2_EEEptEv:
 5181              	LM183:
 5182 0000 55       		pushl	%ebp
 5183 0001 89E5     		movl	%esp, %ebp
GAS LISTING d:/software/ovi_2503a_s3trc/ovi_2503a_s3trc/plutommi/Customer/ResGenerator/gcctmp/cci0baaa.s 			page 90


 5185              	LM184:
 5186              	LBB40:
 5187 0003 8B4508   		movl	8(%ebp), %eax
 5188 0006 8B00     		movl	(%eax), %eax
 5189 0008 5D       		popl	%ebp
 5190 0009 C3       		ret
 5191              	LBE40:
 5192              	Lscope23:
 5194 000a 9090     		.section	.text$_ZNSt4listIN10ThreadPool7JobDataESaIS1_EE5beginEv,"x"
 5195              		.linkonce discard
 5196              		.align 2
 5199              	.globl __ZNSt4listIN10ThreadPool7JobDataESaIS1_EE5beginEv
 5201              	__ZNSt4listIN10ThreadPool7JobDataESaIS1_EE5beginEv:
 5203              	Ltext6:
 514:d:/software/ovi_2503a_s3trc/ovi_2503a_s3trc/Tools/MinGW/include/c++/3.3.1/bits/stl_list.h ****   
 515:d:/software/ovi_2503a_s3trc/ovi_2503a_s3trc/Tools/MinGW/include/c++/3.3.1/bits/stl_list.h ****     /**
 516:d:/software/ovi_2503a_s3trc/ovi_2503a_s3trc/Tools/MinGW/include/c++/3.3.1/bits/stl_list.h ****      *  @brief  %List assignment operator.
 517:d:/software/ovi_2503a_s3trc/ovi_2503a_s3trc/Tools/MinGW/include/c++/3.3.1/bits/stl_list.h ****      *  @param  x  A %list of identical element and allocator types.
 518:d:/software/ovi_2503a_s3trc/ovi_2503a_s3trc/Tools/MinGW/include/c++/3.3.1/bits/stl_list.h ****      * 
 519:d:/software/ovi_2503a_s3trc/ovi_2503a_s3trc/Tools/MinGW/include/c++/3.3.1/bits/stl_list.h ****      *  All the elements of @a x are copied, but unlike the copy constructor,
 520:d:/software/ovi_2503a_s3trc/ovi_2503a_s3trc/Tools/MinGW/include/c++/3.3.1/bits/stl_list.h ****      *  the allocator object is not copied.
 521:d:/software/ovi_2503a_s3trc/ovi_2503a_s3trc/Tools/MinGW/include/c++/3.3.1/bits/stl_list.h ****     */
 522:d:/software/ovi_2503a_s3trc/ovi_2503a_s3trc/Tools/MinGW/include/c++/3.3.1/bits/stl_list.h ****     list&
 523:d:/software/ovi_2503a_s3trc/ovi_2503a_s3trc/Tools/MinGW/include/c++/3.3.1/bits/stl_list.h ****     operator=(const list& __x);
 524:d:/software/ovi_2503a_s3trc/ovi_2503a_s3trc/Tools/MinGW/include/c++/3.3.1/bits/stl_list.h ****   
 525:d:/software/ovi_2503a_s3trc/ovi_2503a_s3trc/Tools/MinGW/include/c++/3.3.1/bits/stl_list.h ****     /**
 526:d:/software/ovi_2503a_s3trc/ovi_2503a_s3trc/Tools/MinGW/include/c++/3.3.1/bits/stl_list.h ****      *  @brief  Assigns a given value to a %list.
 527:d:/software/ovi_2503a_s3trc/ovi_2503a_s3trc/Tools/MinGW/include/c++/3.3.1/bits/stl_list.h ****      *  @param  n  Number of elements to be assigned.
 528:d:/software/ovi_2503a_s3trc/ovi_2503a_s3trc/Tools/MinGW/include/c++/3.3.1/bits/stl_list.h ****      *  @param  val  Value to be assigned.
 529:d:/software/ovi_2503a_s3trc/ovi_2503a_s3trc/Tools/MinGW/include/c++/3.3.1/bits/stl_list.h ****      *
 530:d:/software/ovi_2503a_s3trc/ovi_2503a_s3trc/Tools/MinGW/include/c++/3.3.1/bits/stl_list.h ****      *  This function fills a %list with @a n copies of the given value.
 531:d:/software/ovi_2503a_s3trc/ovi_2503a_s3trc/Tools/MinGW/include/c++/3.3.1/bits/stl_list.h ****      *  Note that the assignment completely changes the %list and that the
 532:d:/software/ovi_2503a_s3trc/ovi_2503a_s3trc/Tools/MinGW/include/c++/3.3.1/bits/stl_list.h ****      *  resulting %list's size is the same as the number of elements assigned.
 533:d:/software/ovi_2503a_s3trc/ovi_2503a_s3trc/Tools/MinGW/include/c++/3.3.1/bits/stl_list.h ****      *  Old data may be lost.
 534:d:/software/ovi_2503a_s3trc/ovi_2503a_s3trc/Tools/MinGW/include/c++/3.3.1/bits/stl_list.h ****     */
 535:d:/software/ovi_2503a_s3trc/ovi_2503a_s3trc/Tools/MinGW/include/c++/3.3.1/bits/stl_list.h ****     void
 536:d:/software/ovi_2503a_s3trc/ovi_2503a_s3trc/Tools/MinGW/include/c++/3.3.1/bits/stl_list.h ****     assign(size_type __n, const value_type& __val) { _M_fill_assign(__n, __val); }
 537:d:/software/ovi_2503a_s3trc/ovi_2503a_s3trc/Tools/MinGW/include/c++/3.3.1/bits/stl_list.h ****   
 538:d:/software/ovi_2503a_s3trc/ovi_2503a_s3trc/Tools/MinGW/include/c++/3.3.1/bits/stl_list.h ****     /**
 539:d:/software/ovi_2503a_s3trc/ovi_2503a_s3trc/Tools/MinGW/include/c++/3.3.1/bits/stl_list.h ****      *  @brief  Assigns a range to a %list.
 540:d:/software/ovi_2503a_s3trc/ovi_2503a_s3trc/Tools/MinGW/include/c++/3.3.1/bits/stl_list.h ****      *  @param  first  An input iterator.
 541:d:/software/ovi_2503a_s3trc/ovi_2503a_s3trc/Tools/MinGW/include/c++/3.3.1/bits/stl_list.h ****      *  @param  last   An input iterator.
 542:d:/software/ovi_2503a_s3trc/ovi_2503a_s3trc/Tools/MinGW/include/c++/3.3.1/bits/stl_list.h ****      *
 543:d:/software/ovi_2503a_s3trc/ovi_2503a_s3trc/Tools/MinGW/include/c++/3.3.1/bits/stl_list.h ****      *  This function fills a %list with copies of the elements in the
 544:d:/software/ovi_2503a_s3trc/ovi_2503a_s3trc/Tools/MinGW/include/c++/3.3.1/bits/stl_list.h ****      *  range [first,last).
 545:d:/software/ovi_2503a_s3trc/ovi_2503a_s3trc/Tools/MinGW/include/c++/3.3.1/bits/stl_list.h ****      *
 546:d:/software/ovi_2503a_s3trc/ovi_2503a_s3trc/Tools/MinGW/include/c++/3.3.1/bits/stl_list.h ****      *  Note that the assignment completely changes the %list and that the
 547:d:/software/ovi_2503a_s3trc/ovi_2503a_s3trc/Tools/MinGW/include/c++/3.3.1/bits/stl_list.h ****      *  resulting %list's size is the same as the number of elements assigned.
 548:d:/software/ovi_2503a_s3trc/ovi_2503a_s3trc/Tools/MinGW/include/c++/3.3.1/bits/stl_list.h ****      *  Old data may be lost.
 549:d:/software/ovi_2503a_s3trc/ovi_2503a_s3trc/Tools/MinGW/include/c++/3.3.1/bits/stl_list.h ****     */
 550:d:/software/ovi_2503a_s3trc/ovi_2503a_s3trc/Tools/MinGW/include/c++/3.3.1/bits/stl_list.h ****     template<typename _InputIterator>
 551:d:/software/ovi_2503a_s3trc/ovi_2503a_s3trc/Tools/MinGW/include/c++/3.3.1/bits/stl_list.h ****       void
 552:d:/software/ovi_2503a_s3trc/ovi_2503a_s3trc/Tools/MinGW/include/c++/3.3.1/bits/stl_list.h ****       assign(_InputIterator __first, _InputIterator __last)
 553:d:/software/ovi_2503a_s3trc/ovi_2503a_s3trc/Tools/MinGW/include/c++/3.3.1/bits/stl_list.h ****       {
 554:d:/software/ovi_2503a_s3trc/ovi_2503a_s3trc/Tools/MinGW/include/c++/3.3.1/bits/stl_list.h ****         // Check whether it's an integral type.  If so, it's not an iterator.
 555:d:/software/ovi_2503a_s3trc/ovi_2503a_s3trc/Tools/MinGW/include/c++/3.3.1/bits/stl_list.h ****         typedef typename _Is_integer<_InputIterator>::_Integral _Integral;
 556:d:/software/ovi_2503a_s3trc/ovi_2503a_s3trc/Tools/MinGW/include/c++/3.3.1/bits/stl_list.h ****         _M_assign_dispatch(__first, __last, _Integral());
GAS LISTING d:/software/ovi_2503a_s3trc/ovi_2503a_s3trc/plutommi/Customer/ResGenerator/gcctmp/cci0baaa.s 			page 91


 557:d:/software/ovi_2503a_s3trc/ovi_2503a_s3trc/Tools/MinGW/include/c++/3.3.1/bits/stl_list.h ****       }
 558:d:/software/ovi_2503a_s3trc/ovi_2503a_s3trc/Tools/MinGW/include/c++/3.3.1/bits/stl_list.h ****   
 559:d:/software/ovi_2503a_s3trc/ovi_2503a_s3trc/Tools/MinGW/include/c++/3.3.1/bits/stl_list.h ****     /// Get a copy of the memory allocation object.
 560:d:/software/ovi_2503a_s3trc/ovi_2503a_s3trc/Tools/MinGW/include/c++/3.3.1/bits/stl_list.h ****     allocator_type
 561:d:/software/ovi_2503a_s3trc/ovi_2503a_s3trc/Tools/MinGW/include/c++/3.3.1/bits/stl_list.h ****     get_allocator() const { return _Base::get_allocator(); }
 562:d:/software/ovi_2503a_s3trc/ovi_2503a_s3trc/Tools/MinGW/include/c++/3.3.1/bits/stl_list.h ****   
 563:d:/software/ovi_2503a_s3trc/ovi_2503a_s3trc/Tools/MinGW/include/c++/3.3.1/bits/stl_list.h ****     // iterators
 564:d:/software/ovi_2503a_s3trc/ovi_2503a_s3trc/Tools/MinGW/include/c++/3.3.1/bits/stl_list.h ****     /**
 565:d:/software/ovi_2503a_s3trc/ovi_2503a_s3trc/Tools/MinGW/include/c++/3.3.1/bits/stl_list.h ****      *  Returns a read/write iterator that points to the first element in the
 566:d:/software/ovi_2503a_s3trc/ovi_2503a_s3trc/Tools/MinGW/include/c++/3.3.1/bits/stl_list.h ****      *  %list.  Iteration is done in ordinary element order.
 567:d:/software/ovi_2503a_s3trc/ovi_2503a_s3trc/Tools/MinGW/include/c++/3.3.1/bits/stl_list.h ****     */
 568:d:/software/ovi_2503a_s3trc/ovi_2503a_s3trc/Tools/MinGW/include/c++/3.3.1/bits/stl_list.h ****     iterator
 569:d:/software/ovi_2503a_s3trc/ovi_2503a_s3trc/Tools/MinGW/include/c++/3.3.1/bits/stl_list.h ****     begin() { return static_cast<_Node*>(_M_node->_M_next); }
 5205              	LM185:
 5206 0000 55       		pushl	%ebp
 5207 0001 89E5     		movl	%esp, %ebp
 5208 0003 53       		pushl	%ebx
 5209 0004 83EC14   		subl	$20, %esp
 5210 0007 8B5D08   		movl	8(%ebp), %ebx
 5212              	LM186:
 5213              	LBB41:
 5214 000a 8B450C   		movl	12(%ebp), %eax
 5215 000d 8B00     		movl	(%eax), %eax
 5216 000f 8B00     		movl	(%eax), %eax
 5217 0011 89442404 		movl	%eax, 4(%esp)
 5218 0015 891C24   		movl	%ebx, (%esp)
 5219 0018 E8000000 		call	__ZNSt14_List_iteratorIN10ThreadPool7JobDataERS1_PS1_EC1EPSt10_List_nodeIS1_E
 5219      00
 5220              	LBE41:
 5221 001d 89D8     		movl	%ebx, %eax
 5222 001f 83C414   		addl	$20, %esp
 5223 0022 5B       		popl	%ebx
 5224 0023 5D       		popl	%ebp
 5225 0024 C20400   		ret	$4
 5226              	Lscope24:
 5228 0027 90       		.section	.text$_ZNSt4listIN10ThreadPool7JobDataESaIS1_EE3endEv,"x"
 5229              		.linkonce discard
 5230              		.align 2
 5233              	.globl __ZNSt4listIN10ThreadPool7JobDataESaIS1_EE3endEv
 5235              	__ZNSt4listIN10ThreadPool7JobDataESaIS1_EE3endEv:
 570:d:/software/ovi_2503a_s3trc/ovi_2503a_s3trc/Tools/MinGW/include/c++/3.3.1/bits/stl_list.h ****   
 571:d:/software/ovi_2503a_s3trc/ovi_2503a_s3trc/Tools/MinGW/include/c++/3.3.1/bits/stl_list.h ****     /**
 572:d:/software/ovi_2503a_s3trc/ovi_2503a_s3trc/Tools/MinGW/include/c++/3.3.1/bits/stl_list.h ****      *  Returns a read-only (constant) iterator that points to the first element
 573:d:/software/ovi_2503a_s3trc/ovi_2503a_s3trc/Tools/MinGW/include/c++/3.3.1/bits/stl_list.h ****      *  in the %list.  Iteration is done in ordinary element order.
 574:d:/software/ovi_2503a_s3trc/ovi_2503a_s3trc/Tools/MinGW/include/c++/3.3.1/bits/stl_list.h ****     */
 575:d:/software/ovi_2503a_s3trc/ovi_2503a_s3trc/Tools/MinGW/include/c++/3.3.1/bits/stl_list.h ****     const_iterator
 576:d:/software/ovi_2503a_s3trc/ovi_2503a_s3trc/Tools/MinGW/include/c++/3.3.1/bits/stl_list.h ****     begin() const { return static_cast<_Node*>(_M_node->_M_next); }
 577:d:/software/ovi_2503a_s3trc/ovi_2503a_s3trc/Tools/MinGW/include/c++/3.3.1/bits/stl_list.h ****   
 578:d:/software/ovi_2503a_s3trc/ovi_2503a_s3trc/Tools/MinGW/include/c++/3.3.1/bits/stl_list.h ****     /**
 579:d:/software/ovi_2503a_s3trc/ovi_2503a_s3trc/Tools/MinGW/include/c++/3.3.1/bits/stl_list.h ****      *  Returns a read/write iterator that points one past the last element in
 580:d:/software/ovi_2503a_s3trc/ovi_2503a_s3trc/Tools/MinGW/include/c++/3.3.1/bits/stl_list.h ****      *  the %list.  Iteration is done in ordinary element order.
 581:d:/software/ovi_2503a_s3trc/ovi_2503a_s3trc/Tools/MinGW/include/c++/3.3.1/bits/stl_list.h ****     */
 582:d:/software/ovi_2503a_s3trc/ovi_2503a_s3trc/Tools/MinGW/include/c++/3.3.1/bits/stl_list.h ****     iterator
 583:d:/software/ovi_2503a_s3trc/ovi_2503a_s3trc/Tools/MinGW/include/c++/3.3.1/bits/stl_list.h ****     end() { return _M_node; }
 5237              	LM187:
 5238 0000 55       		pushl	%ebp
 5239 0001 89E5     		movl	%esp, %ebp
GAS LISTING d:/software/ovi_2503a_s3trc/ovi_2503a_s3trc/plutommi/Customer/ResGenerator/gcctmp/cci0baaa.s 			page 92


 5240 0003 53       		pushl	%ebx
 5241 0004 83EC14   		subl	$20, %esp
 5242 0007 8B5D08   		movl	8(%ebp), %ebx
 5244              	LM188:
 5245              	LBB42:
 5246 000a 8B450C   		movl	12(%ebp), %eax
 5247 000d 8B00     		movl	(%eax), %eax
 5248 000f 89442404 		movl	%eax, 4(%esp)
 5249 0013 891C24   		movl	%ebx, (%esp)
 5250 0016 E8000000 		call	__ZNSt14_List_iteratorIN10ThreadPool7JobDataERS1_PS1_EC1EPSt10_List_nodeIS1_E
 5250      00
 5251              	LBE42:
 5252 001b 89D8     		movl	%ebx, %eax
 5253 001d 83C414   		addl	$20, %esp
 5254 0020 5B       		popl	%ebx
 5255 0021 5D       		popl	%ebp
 5256 0022 C20400   		ret	$4
 5257              	Lscope25:
 5259 0025 909090   		.section	.text$_ZNSt14_List_iteratorIN10ThreadPool7JobDataERS1_PS1_EppEi,"x"
 5260              		.linkonce discard
 5261              		.align 2
 5264              	.globl __ZNSt14_List_iteratorIN10ThreadPool7JobDataERS1_PS1_EppEi
 5266              	__ZNSt14_List_iteratorIN10ThreadPool7JobDataERS1_PS1_EppEi:
 5268              	LM189:
 5269 0000 55       		pushl	%ebp
 5270 0001 89E5     		movl	%esp, %ebp
 5271 0003 53       		pushl	%ebx
 5272 0004 83EC14   		subl	$20, %esp
 5273 0007 8B5D08   		movl	8(%ebp), %ebx
 5275              	LM190:
 5276              	LBB43:
 5277 000a 8B450C   		movl	12(%ebp), %eax
 5278 000d 89442404 		movl	%eax, 4(%esp)
 5279 0011 891C24   		movl	%ebx, (%esp)
 5280 0014 E8000000 		call	__ZNSt14_List_iteratorIN10ThreadPool7JobDataERS1_PS1_EC1ERKS4_
 5280      00
 5282              	LM191:
 5283 0019 8B450C   		movl	12(%ebp), %eax
 5284 001c 890424   		movl	%eax, (%esp)
 5285 001f E8000000 		call	__ZNSt19_List_iterator_base7_M_incrEv
 5285      00
 5287              	LM192:
 5288              	LBE43:
 5289 0024 89D8     		movl	%ebx, %eax
 5290 0026 83C414   		addl	$20, %esp
 5291 0029 5B       		popl	%ebx
 5292 002a 5D       		popl	%ebp
 5293 002b C20400   		ret	$4
 5297              	Lscope26:
 5299 002e 9090     		.section	.text$_ZNKSt14_List_iteratorIN10ThreadPool7JobDataERS1_PS1_EptEv,"x"
 5300              		.linkonce discard
 5301              		.align 2
 5304              	.globl __ZNKSt14_List_iteratorIN10ThreadPool7JobDataERS1_PS1_EptEv
 5306              	__ZNKSt14_List_iteratorIN10ThreadPool7JobDataERS1_PS1_EptEv:
 5308              	LM193:
 5309 0000 55       		pushl	%ebp
 5310 0001 89E5     		movl	%esp, %ebp
GAS LISTING d:/software/ovi_2503a_s3trc/ovi_2503a_s3trc/plutommi/Customer/ResGenerator/gcctmp/cci0baaa.s 			page 93


 5311 0003 83EC08   		subl	$8, %esp
 5313              	LM194:
 5314              	LBB44:
 5315 0006 8B4508   		movl	8(%ebp), %eax
 5316 0009 890424   		movl	%eax, (%esp)
 5317 000c E8000000 		call	__ZNKSt14_List_iteratorIN10ThreadPool7JobDataERS1_PS1_EdeEv
 5317      00
 5318 0011 C9       		leave
 5319 0012 C3       		ret
 5320              	LBE44:
 5321              	Lscope27:
 5323 0013 90       		.section	.text$_ZNSt4listIN10ThreadPool7JobDataESaIS1_EE5clearEv,"x"
 5324              		.linkonce discard
 5325              		.align 2
 5328              	.globl __ZNSt4listIN10ThreadPool7JobDataESaIS1_EE5clearEv
 5330              	__ZNSt4listIN10ThreadPool7JobDataESaIS1_EE5clearEv:
 584:d:/software/ovi_2503a_s3trc/ovi_2503a_s3trc/Tools/MinGW/include/c++/3.3.1/bits/stl_list.h ****   
 585:d:/software/ovi_2503a_s3trc/ovi_2503a_s3trc/Tools/MinGW/include/c++/3.3.1/bits/stl_list.h ****     /**
 586:d:/software/ovi_2503a_s3trc/ovi_2503a_s3trc/Tools/MinGW/include/c++/3.3.1/bits/stl_list.h ****      *  Returns a read-only (constant) iterator that points one past the last
 587:d:/software/ovi_2503a_s3trc/ovi_2503a_s3trc/Tools/MinGW/include/c++/3.3.1/bits/stl_list.h ****      *  element in the %list.  Iteration is done in ordinary element order.
 588:d:/software/ovi_2503a_s3trc/ovi_2503a_s3trc/Tools/MinGW/include/c++/3.3.1/bits/stl_list.h ****     */
 589:d:/software/ovi_2503a_s3trc/ovi_2503a_s3trc/Tools/MinGW/include/c++/3.3.1/bits/stl_list.h ****     const_iterator
 590:d:/software/ovi_2503a_s3trc/ovi_2503a_s3trc/Tools/MinGW/include/c++/3.3.1/bits/stl_list.h ****     end() const { return _M_node; }
 591:d:/software/ovi_2503a_s3trc/ovi_2503a_s3trc/Tools/MinGW/include/c++/3.3.1/bits/stl_list.h ****   
 592:d:/software/ovi_2503a_s3trc/ovi_2503a_s3trc/Tools/MinGW/include/c++/3.3.1/bits/stl_list.h ****     /**
 593:d:/software/ovi_2503a_s3trc/ovi_2503a_s3trc/Tools/MinGW/include/c++/3.3.1/bits/stl_list.h ****      *  Returns a read/write reverse iterator that points to the last element in
 594:d:/software/ovi_2503a_s3trc/ovi_2503a_s3trc/Tools/MinGW/include/c++/3.3.1/bits/stl_list.h ****      *  the %list.  Iteration is done in reverse element order.
 595:d:/software/ovi_2503a_s3trc/ovi_2503a_s3trc/Tools/MinGW/include/c++/3.3.1/bits/stl_list.h ****     */
 596:d:/software/ovi_2503a_s3trc/ovi_2503a_s3trc/Tools/MinGW/include/c++/3.3.1/bits/stl_list.h ****     reverse_iterator
 597:d:/software/ovi_2503a_s3trc/ovi_2503a_s3trc/Tools/MinGW/include/c++/3.3.1/bits/stl_list.h ****     rbegin() { return reverse_iterator(end()); }
 598:d:/software/ovi_2503a_s3trc/ovi_2503a_s3trc/Tools/MinGW/include/c++/3.3.1/bits/stl_list.h ****   
 599:d:/software/ovi_2503a_s3trc/ovi_2503a_s3trc/Tools/MinGW/include/c++/3.3.1/bits/stl_list.h ****     /**
 600:d:/software/ovi_2503a_s3trc/ovi_2503a_s3trc/Tools/MinGW/include/c++/3.3.1/bits/stl_list.h ****      *  Returns a read-only (constant) reverse iterator that points to the last
 601:d:/software/ovi_2503a_s3trc/ovi_2503a_s3trc/Tools/MinGW/include/c++/3.3.1/bits/stl_list.h ****      *  element in the %list.  Iteration is done in reverse element order.
 602:d:/software/ovi_2503a_s3trc/ovi_2503a_s3trc/Tools/MinGW/include/c++/3.3.1/bits/stl_list.h ****     */
 603:d:/software/ovi_2503a_s3trc/ovi_2503a_s3trc/Tools/MinGW/include/c++/3.3.1/bits/stl_list.h ****     const_reverse_iterator
 604:d:/software/ovi_2503a_s3trc/ovi_2503a_s3trc/Tools/MinGW/include/c++/3.3.1/bits/stl_list.h ****     rbegin() const { return const_reverse_iterator(end()); }
 605:d:/software/ovi_2503a_s3trc/ovi_2503a_s3trc/Tools/MinGW/include/c++/3.3.1/bits/stl_list.h ****   
 606:d:/software/ovi_2503a_s3trc/ovi_2503a_s3trc/Tools/MinGW/include/c++/3.3.1/bits/stl_list.h ****     /**
 607:d:/software/ovi_2503a_s3trc/ovi_2503a_s3trc/Tools/MinGW/include/c++/3.3.1/bits/stl_list.h ****      *  Returns a read/write reverse iterator that points to one before the
 608:d:/software/ovi_2503a_s3trc/ovi_2503a_s3trc/Tools/MinGW/include/c++/3.3.1/bits/stl_list.h ****      *  first element in the %list.  Iteration is done in reverse element
 609:d:/software/ovi_2503a_s3trc/ovi_2503a_s3trc/Tools/MinGW/include/c++/3.3.1/bits/stl_list.h ****      *  order.
 610:d:/software/ovi_2503a_s3trc/ovi_2503a_s3trc/Tools/MinGW/include/c++/3.3.1/bits/stl_list.h ****     */
 611:d:/software/ovi_2503a_s3trc/ovi_2503a_s3trc/Tools/MinGW/include/c++/3.3.1/bits/stl_list.h ****     reverse_iterator
 612:d:/software/ovi_2503a_s3trc/ovi_2503a_s3trc/Tools/MinGW/include/c++/3.3.1/bits/stl_list.h ****     rend() { return reverse_iterator(begin()); }
 613:d:/software/ovi_2503a_s3trc/ovi_2503a_s3trc/Tools/MinGW/include/c++/3.3.1/bits/stl_list.h ****   
 614:d:/software/ovi_2503a_s3trc/ovi_2503a_s3trc/Tools/MinGW/include/c++/3.3.1/bits/stl_list.h ****     /**
 615:d:/software/ovi_2503a_s3trc/ovi_2503a_s3trc/Tools/MinGW/include/c++/3.3.1/bits/stl_list.h ****      *  Returns a read-only (constant) reverse iterator that points to one
 616:d:/software/ovi_2503a_s3trc/ovi_2503a_s3trc/Tools/MinGW/include/c++/3.3.1/bits/stl_list.h ****      *  before the first element in the %list.  Iteration is done in reverse
 617:d:/software/ovi_2503a_s3trc/ovi_2503a_s3trc/Tools/MinGW/include/c++/3.3.1/bits/stl_list.h ****      *  element order.
 618:d:/software/ovi_2503a_s3trc/ovi_2503a_s3trc/Tools/MinGW/include/c++/3.3.1/bits/stl_list.h ****     */
 619:d:/software/ovi_2503a_s3trc/ovi_2503a_s3trc/Tools/MinGW/include/c++/3.3.1/bits/stl_list.h ****     const_reverse_iterator
 620:d:/software/ovi_2503a_s3trc/ovi_2503a_s3trc/Tools/MinGW/include/c++/3.3.1/bits/stl_list.h ****     rend() const
 621:d:/software/ovi_2503a_s3trc/ovi_2503a_s3trc/Tools/MinGW/include/c++/3.3.1/bits/stl_list.h ****     { return const_reverse_iterator(begin()); }
 622:d:/software/ovi_2503a_s3trc/ovi_2503a_s3trc/Tools/MinGW/include/c++/3.3.1/bits/stl_list.h ****   
 623:d:/software/ovi_2503a_s3trc/ovi_2503a_s3trc/Tools/MinGW/include/c++/3.3.1/bits/stl_list.h ****     // [23.2.2.2] capacity
 624:d:/software/ovi_2503a_s3trc/ovi_2503a_s3trc/Tools/MinGW/include/c++/3.3.1/bits/stl_list.h ****     /**
GAS LISTING d:/software/ovi_2503a_s3trc/ovi_2503a_s3trc/plutommi/Customer/ResGenerator/gcctmp/cci0baaa.s 			page 94


 625:d:/software/ovi_2503a_s3trc/ovi_2503a_s3trc/Tools/MinGW/include/c++/3.3.1/bits/stl_list.h ****      *  Returns true if the %list is empty.  (Thus begin() would equal end().)
 626:d:/software/ovi_2503a_s3trc/ovi_2503a_s3trc/Tools/MinGW/include/c++/3.3.1/bits/stl_list.h ****     */
 627:d:/software/ovi_2503a_s3trc/ovi_2503a_s3trc/Tools/MinGW/include/c++/3.3.1/bits/stl_list.h ****     bool
 628:d:/software/ovi_2503a_s3trc/ovi_2503a_s3trc/Tools/MinGW/include/c++/3.3.1/bits/stl_list.h ****     empty() const { return _M_node->_M_next == _M_node; }
 629:d:/software/ovi_2503a_s3trc/ovi_2503a_s3trc/Tools/MinGW/include/c++/3.3.1/bits/stl_list.h ****   
 630:d:/software/ovi_2503a_s3trc/ovi_2503a_s3trc/Tools/MinGW/include/c++/3.3.1/bits/stl_list.h ****     /**  Returns the number of elements in the %list.  */
 631:d:/software/ovi_2503a_s3trc/ovi_2503a_s3trc/Tools/MinGW/include/c++/3.3.1/bits/stl_list.h ****     size_type
 632:d:/software/ovi_2503a_s3trc/ovi_2503a_s3trc/Tools/MinGW/include/c++/3.3.1/bits/stl_list.h ****     size() const { return distance(begin(), end()); }
 633:d:/software/ovi_2503a_s3trc/ovi_2503a_s3trc/Tools/MinGW/include/c++/3.3.1/bits/stl_list.h ****   
 634:d:/software/ovi_2503a_s3trc/ovi_2503a_s3trc/Tools/MinGW/include/c++/3.3.1/bits/stl_list.h ****     /**  Returns the size() of the largest possible %list.  */
 635:d:/software/ovi_2503a_s3trc/ovi_2503a_s3trc/Tools/MinGW/include/c++/3.3.1/bits/stl_list.h ****     size_type
 636:d:/software/ovi_2503a_s3trc/ovi_2503a_s3trc/Tools/MinGW/include/c++/3.3.1/bits/stl_list.h ****     max_size() const { return size_type(-1); }
 637:d:/software/ovi_2503a_s3trc/ovi_2503a_s3trc/Tools/MinGW/include/c++/3.3.1/bits/stl_list.h ****   
 638:d:/software/ovi_2503a_s3trc/ovi_2503a_s3trc/Tools/MinGW/include/c++/3.3.1/bits/stl_list.h ****     /**
 639:d:/software/ovi_2503a_s3trc/ovi_2503a_s3trc/Tools/MinGW/include/c++/3.3.1/bits/stl_list.h ****      *  @brief  Resizes the %list to the specified number of elements.
 640:d:/software/ovi_2503a_s3trc/ovi_2503a_s3trc/Tools/MinGW/include/c++/3.3.1/bits/stl_list.h ****      *  @param  new_size  Number of elements the %list should contain.
 641:d:/software/ovi_2503a_s3trc/ovi_2503a_s3trc/Tools/MinGW/include/c++/3.3.1/bits/stl_list.h ****      *  @param  x  Data with which new elements should be populated.
 642:d:/software/ovi_2503a_s3trc/ovi_2503a_s3trc/Tools/MinGW/include/c++/3.3.1/bits/stl_list.h ****      *
 643:d:/software/ovi_2503a_s3trc/ovi_2503a_s3trc/Tools/MinGW/include/c++/3.3.1/bits/stl_list.h ****      *  This function will %resize the %list to the specified number of
 644:d:/software/ovi_2503a_s3trc/ovi_2503a_s3trc/Tools/MinGW/include/c++/3.3.1/bits/stl_list.h ****      *  elements.  If the number is smaller than the %list's current size the
 645:d:/software/ovi_2503a_s3trc/ovi_2503a_s3trc/Tools/MinGW/include/c++/3.3.1/bits/stl_list.h ****      *  %list is truncated, otherwise the %list is extended and new elements
 646:d:/software/ovi_2503a_s3trc/ovi_2503a_s3trc/Tools/MinGW/include/c++/3.3.1/bits/stl_list.h ****      *  are populated with given data.
 647:d:/software/ovi_2503a_s3trc/ovi_2503a_s3trc/Tools/MinGW/include/c++/3.3.1/bits/stl_list.h ****     */
 648:d:/software/ovi_2503a_s3trc/ovi_2503a_s3trc/Tools/MinGW/include/c++/3.3.1/bits/stl_list.h ****     void
 649:d:/software/ovi_2503a_s3trc/ovi_2503a_s3trc/Tools/MinGW/include/c++/3.3.1/bits/stl_list.h ****     resize(size_type __new_size, const value_type& __x);
 650:d:/software/ovi_2503a_s3trc/ovi_2503a_s3trc/Tools/MinGW/include/c++/3.3.1/bits/stl_list.h ****   
 651:d:/software/ovi_2503a_s3trc/ovi_2503a_s3trc/Tools/MinGW/include/c++/3.3.1/bits/stl_list.h ****     /**
 652:d:/software/ovi_2503a_s3trc/ovi_2503a_s3trc/Tools/MinGW/include/c++/3.3.1/bits/stl_list.h ****      *  @brief  Resizes the %list to the specified number of elements.
 653:d:/software/ovi_2503a_s3trc/ovi_2503a_s3trc/Tools/MinGW/include/c++/3.3.1/bits/stl_list.h ****      *  @param  new_size  Number of elements the %list should contain.
 654:d:/software/ovi_2503a_s3trc/ovi_2503a_s3trc/Tools/MinGW/include/c++/3.3.1/bits/stl_list.h ****      *
 655:d:/software/ovi_2503a_s3trc/ovi_2503a_s3trc/Tools/MinGW/include/c++/3.3.1/bits/stl_list.h ****      *  This function will resize the %list to the specified number of
 656:d:/software/ovi_2503a_s3trc/ovi_2503a_s3trc/Tools/MinGW/include/c++/3.3.1/bits/stl_list.h ****      *  elements.  If the number is smaller than the %list's current size the
 657:d:/software/ovi_2503a_s3trc/ovi_2503a_s3trc/Tools/MinGW/include/c++/3.3.1/bits/stl_list.h ****      *  %list is truncated, otherwise the %list is extended and new elements
 658:d:/software/ovi_2503a_s3trc/ovi_2503a_s3trc/Tools/MinGW/include/c++/3.3.1/bits/stl_list.h ****      *  are default-constructed.
 659:d:/software/ovi_2503a_s3trc/ovi_2503a_s3trc/Tools/MinGW/include/c++/3.3.1/bits/stl_list.h ****     */
 660:d:/software/ovi_2503a_s3trc/ovi_2503a_s3trc/Tools/MinGW/include/c++/3.3.1/bits/stl_list.h ****     void
 661:d:/software/ovi_2503a_s3trc/ovi_2503a_s3trc/Tools/MinGW/include/c++/3.3.1/bits/stl_list.h ****     resize(size_type __new_size) { this->resize(__new_size, value_type()); }
 662:d:/software/ovi_2503a_s3trc/ovi_2503a_s3trc/Tools/MinGW/include/c++/3.3.1/bits/stl_list.h ****   
 663:d:/software/ovi_2503a_s3trc/ovi_2503a_s3trc/Tools/MinGW/include/c++/3.3.1/bits/stl_list.h ****     // element access
 664:d:/software/ovi_2503a_s3trc/ovi_2503a_s3trc/Tools/MinGW/include/c++/3.3.1/bits/stl_list.h ****     /**
 665:d:/software/ovi_2503a_s3trc/ovi_2503a_s3trc/Tools/MinGW/include/c++/3.3.1/bits/stl_list.h ****      *  Returns a read/write reference to the data at the first element of the
 666:d:/software/ovi_2503a_s3trc/ovi_2503a_s3trc/Tools/MinGW/include/c++/3.3.1/bits/stl_list.h ****      *  %list.
 667:d:/software/ovi_2503a_s3trc/ovi_2503a_s3trc/Tools/MinGW/include/c++/3.3.1/bits/stl_list.h ****     */
 668:d:/software/ovi_2503a_s3trc/ovi_2503a_s3trc/Tools/MinGW/include/c++/3.3.1/bits/stl_list.h ****     reference
 669:d:/software/ovi_2503a_s3trc/ovi_2503a_s3trc/Tools/MinGW/include/c++/3.3.1/bits/stl_list.h ****     front() { return *begin(); }
 670:d:/software/ovi_2503a_s3trc/ovi_2503a_s3trc/Tools/MinGW/include/c++/3.3.1/bits/stl_list.h ****   
 671:d:/software/ovi_2503a_s3trc/ovi_2503a_s3trc/Tools/MinGW/include/c++/3.3.1/bits/stl_list.h ****     /**
 672:d:/software/ovi_2503a_s3trc/ovi_2503a_s3trc/Tools/MinGW/include/c++/3.3.1/bits/stl_list.h ****      *  Returns a read-only (constant) reference to the data at the first
 673:d:/software/ovi_2503a_s3trc/ovi_2503a_s3trc/Tools/MinGW/include/c++/3.3.1/bits/stl_list.h ****      *  element of the %list.
 674:d:/software/ovi_2503a_s3trc/ovi_2503a_s3trc/Tools/MinGW/include/c++/3.3.1/bits/stl_list.h ****     */
 675:d:/software/ovi_2503a_s3trc/ovi_2503a_s3trc/Tools/MinGW/include/c++/3.3.1/bits/stl_list.h ****     const_reference
 676:d:/software/ovi_2503a_s3trc/ovi_2503a_s3trc/Tools/MinGW/include/c++/3.3.1/bits/stl_list.h ****     front() const { return *begin(); }
 677:d:/software/ovi_2503a_s3trc/ovi_2503a_s3trc/Tools/MinGW/include/c++/3.3.1/bits/stl_list.h ****   
 678:d:/software/ovi_2503a_s3trc/ovi_2503a_s3trc/Tools/MinGW/include/c++/3.3.1/bits/stl_list.h ****     /**
 679:d:/software/ovi_2503a_s3trc/ovi_2503a_s3trc/Tools/MinGW/include/c++/3.3.1/bits/stl_list.h ****      *  Returns a read/write reference to the data at the last element of the
 680:d:/software/ovi_2503a_s3trc/ovi_2503a_s3trc/Tools/MinGW/include/c++/3.3.1/bits/stl_list.h ****      *  %list.
 681:d:/software/ovi_2503a_s3trc/ovi_2503a_s3trc/Tools/MinGW/include/c++/3.3.1/bits/stl_list.h ****     */
GAS LISTING d:/software/ovi_2503a_s3trc/ovi_2503a_s3trc/plutommi/Customer/ResGenerator/gcctmp/cci0baaa.s 			page 95


 682:d:/software/ovi_2503a_s3trc/ovi_2503a_s3trc/Tools/MinGW/include/c++/3.3.1/bits/stl_list.h ****     reference
 683:d:/software/ovi_2503a_s3trc/ovi_2503a_s3trc/Tools/MinGW/include/c++/3.3.1/bits/stl_list.h ****     back() { return *(--end()); }
 684:d:/software/ovi_2503a_s3trc/ovi_2503a_s3trc/Tools/MinGW/include/c++/3.3.1/bits/stl_list.h ****   
 685:d:/software/ovi_2503a_s3trc/ovi_2503a_s3trc/Tools/MinGW/include/c++/3.3.1/bits/stl_list.h ****     /**
 686:d:/software/ovi_2503a_s3trc/ovi_2503a_s3trc/Tools/MinGW/include/c++/3.3.1/bits/stl_list.h ****      *  Returns a read-only (constant) reference to the data at the last
 687:d:/software/ovi_2503a_s3trc/ovi_2503a_s3trc/Tools/MinGW/include/c++/3.3.1/bits/stl_list.h ****      *  element of the %list.
 688:d:/software/ovi_2503a_s3trc/ovi_2503a_s3trc/Tools/MinGW/include/c++/3.3.1/bits/stl_list.h ****     */
 689:d:/software/ovi_2503a_s3trc/ovi_2503a_s3trc/Tools/MinGW/include/c++/3.3.1/bits/stl_list.h ****     const_reference
 690:d:/software/ovi_2503a_s3trc/ovi_2503a_s3trc/Tools/MinGW/include/c++/3.3.1/bits/stl_list.h ****     back() const { return *(--end()); }
 691:d:/software/ovi_2503a_s3trc/ovi_2503a_s3trc/Tools/MinGW/include/c++/3.3.1/bits/stl_list.h ****   
 692:d:/software/ovi_2503a_s3trc/ovi_2503a_s3trc/Tools/MinGW/include/c++/3.3.1/bits/stl_list.h ****     // [23.2.2.3] modifiers
 693:d:/software/ovi_2503a_s3trc/ovi_2503a_s3trc/Tools/MinGW/include/c++/3.3.1/bits/stl_list.h ****     /**
 694:d:/software/ovi_2503a_s3trc/ovi_2503a_s3trc/Tools/MinGW/include/c++/3.3.1/bits/stl_list.h ****      *  @brief  Add data to the front of the %list.
 695:d:/software/ovi_2503a_s3trc/ovi_2503a_s3trc/Tools/MinGW/include/c++/3.3.1/bits/stl_list.h ****      *  @param  x  Data to be added.
 696:d:/software/ovi_2503a_s3trc/ovi_2503a_s3trc/Tools/MinGW/include/c++/3.3.1/bits/stl_list.h ****      *
 697:d:/software/ovi_2503a_s3trc/ovi_2503a_s3trc/Tools/MinGW/include/c++/3.3.1/bits/stl_list.h ****      *  This is a typical stack operation.  The function creates an element at
 698:d:/software/ovi_2503a_s3trc/ovi_2503a_s3trc/Tools/MinGW/include/c++/3.3.1/bits/stl_list.h ****      *  the front of the %list and assigns the given data to it.  Due to the
 699:d:/software/ovi_2503a_s3trc/ovi_2503a_s3trc/Tools/MinGW/include/c++/3.3.1/bits/stl_list.h ****      *  nature of a %list this operation can be done in constant time, and
 700:d:/software/ovi_2503a_s3trc/ovi_2503a_s3trc/Tools/MinGW/include/c++/3.3.1/bits/stl_list.h ****      *  does not invalidate iterators and references.
 701:d:/software/ovi_2503a_s3trc/ovi_2503a_s3trc/Tools/MinGW/include/c++/3.3.1/bits/stl_list.h ****     */
 702:d:/software/ovi_2503a_s3trc/ovi_2503a_s3trc/Tools/MinGW/include/c++/3.3.1/bits/stl_list.h ****     void
 703:d:/software/ovi_2503a_s3trc/ovi_2503a_s3trc/Tools/MinGW/include/c++/3.3.1/bits/stl_list.h ****     push_front(const value_type& __x) { this->insert(begin(), __x); }
 704:d:/software/ovi_2503a_s3trc/ovi_2503a_s3trc/Tools/MinGW/include/c++/3.3.1/bits/stl_list.h ****   
 705:d:/software/ovi_2503a_s3trc/ovi_2503a_s3trc/Tools/MinGW/include/c++/3.3.1/bits/stl_list.h ****   #ifdef _GLIBCPP_DEPRECATED
 706:d:/software/ovi_2503a_s3trc/ovi_2503a_s3trc/Tools/MinGW/include/c++/3.3.1/bits/stl_list.h ****     /**
 707:d:/software/ovi_2503a_s3trc/ovi_2503a_s3trc/Tools/MinGW/include/c++/3.3.1/bits/stl_list.h ****      *  @brief  Add data to the front of the %list.
 708:d:/software/ovi_2503a_s3trc/ovi_2503a_s3trc/Tools/MinGW/include/c++/3.3.1/bits/stl_list.h ****      *
 709:d:/software/ovi_2503a_s3trc/ovi_2503a_s3trc/Tools/MinGW/include/c++/3.3.1/bits/stl_list.h ****      *  This is a typical stack operation.  The function creates a
 710:d:/software/ovi_2503a_s3trc/ovi_2503a_s3trc/Tools/MinGW/include/c++/3.3.1/bits/stl_list.h ****      *  default-constructed element at the front of the %list.  Due to the
 711:d:/software/ovi_2503a_s3trc/ovi_2503a_s3trc/Tools/MinGW/include/c++/3.3.1/bits/stl_list.h ****      *  nature of a %list this operation can be done in constant time.  You
 712:d:/software/ovi_2503a_s3trc/ovi_2503a_s3trc/Tools/MinGW/include/c++/3.3.1/bits/stl_list.h ****      *  should consider using push_front(value_type()) instead.
 713:d:/software/ovi_2503a_s3trc/ovi_2503a_s3trc/Tools/MinGW/include/c++/3.3.1/bits/stl_list.h ****      *
 714:d:/software/ovi_2503a_s3trc/ovi_2503a_s3trc/Tools/MinGW/include/c++/3.3.1/bits/stl_list.h ****      *  @note This was deprecated in 3.2 and will be removed in 3.4.  You must
 715:d:/software/ovi_2503a_s3trc/ovi_2503a_s3trc/Tools/MinGW/include/c++/3.3.1/bits/stl_list.h ****      *        define @c _GLIBCPP_DEPRECATED to make this visible in 3.2; see
 716:d:/software/ovi_2503a_s3trc/ovi_2503a_s3trc/Tools/MinGW/include/c++/3.3.1/bits/stl_list.h ****      *        c++config.h.
 717:d:/software/ovi_2503a_s3trc/ovi_2503a_s3trc/Tools/MinGW/include/c++/3.3.1/bits/stl_list.h ****     */
 718:d:/software/ovi_2503a_s3trc/ovi_2503a_s3trc/Tools/MinGW/include/c++/3.3.1/bits/stl_list.h ****     void
 719:d:/software/ovi_2503a_s3trc/ovi_2503a_s3trc/Tools/MinGW/include/c++/3.3.1/bits/stl_list.h ****     push_front() { this->insert(begin(), value_type()); }
 720:d:/software/ovi_2503a_s3trc/ovi_2503a_s3trc/Tools/MinGW/include/c++/3.3.1/bits/stl_list.h ****   #endif
 721:d:/software/ovi_2503a_s3trc/ovi_2503a_s3trc/Tools/MinGW/include/c++/3.3.1/bits/stl_list.h ****   
 722:d:/software/ovi_2503a_s3trc/ovi_2503a_s3trc/Tools/MinGW/include/c++/3.3.1/bits/stl_list.h ****     /**
 723:d:/software/ovi_2503a_s3trc/ovi_2503a_s3trc/Tools/MinGW/include/c++/3.3.1/bits/stl_list.h ****      *  @brief  Removes first element.
 724:d:/software/ovi_2503a_s3trc/ovi_2503a_s3trc/Tools/MinGW/include/c++/3.3.1/bits/stl_list.h ****      *
 725:d:/software/ovi_2503a_s3trc/ovi_2503a_s3trc/Tools/MinGW/include/c++/3.3.1/bits/stl_list.h ****      *  This is a typical stack operation.  It shrinks the %list by one.
 726:d:/software/ovi_2503a_s3trc/ovi_2503a_s3trc/Tools/MinGW/include/c++/3.3.1/bits/stl_list.h ****      *  Due to the nature of a %list this operation can be done in constant
 727:d:/software/ovi_2503a_s3trc/ovi_2503a_s3trc/Tools/MinGW/include/c++/3.3.1/bits/stl_list.h ****      *  time, and only invalidates iterators/references to the element being
 728:d:/software/ovi_2503a_s3trc/ovi_2503a_s3trc/Tools/MinGW/include/c++/3.3.1/bits/stl_list.h ****      *  removed.
 729:d:/software/ovi_2503a_s3trc/ovi_2503a_s3trc/Tools/MinGW/include/c++/3.3.1/bits/stl_list.h ****      *
 730:d:/software/ovi_2503a_s3trc/ovi_2503a_s3trc/Tools/MinGW/include/c++/3.3.1/bits/stl_list.h ****      *  Note that no data is returned, and if the first element's data is
 731:d:/software/ovi_2503a_s3trc/ovi_2503a_s3trc/Tools/MinGW/include/c++/3.3.1/bits/stl_list.h ****      *  needed, it should be retrieved before pop_front() is called.
 732:d:/software/ovi_2503a_s3trc/ovi_2503a_s3trc/Tools/MinGW/include/c++/3.3.1/bits/stl_list.h ****     */
 733:d:/software/ovi_2503a_s3trc/ovi_2503a_s3trc/Tools/MinGW/include/c++/3.3.1/bits/stl_list.h ****     void
 734:d:/software/ovi_2503a_s3trc/ovi_2503a_s3trc/Tools/MinGW/include/c++/3.3.1/bits/stl_list.h ****     pop_front() { this->erase(begin()); }
 735:d:/software/ovi_2503a_s3trc/ovi_2503a_s3trc/Tools/MinGW/include/c++/3.3.1/bits/stl_list.h ****   
 736:d:/software/ovi_2503a_s3trc/ovi_2503a_s3trc/Tools/MinGW/include/c++/3.3.1/bits/stl_list.h ****     /**
 737:d:/software/ovi_2503a_s3trc/ovi_2503a_s3trc/Tools/MinGW/include/c++/3.3.1/bits/stl_list.h ****      *  @brief  Add data to the end of the %list.
 738:d:/software/ovi_2503a_s3trc/ovi_2503a_s3trc/Tools/MinGW/include/c++/3.3.1/bits/stl_list.h ****      *  @param  x  Data to be added.
GAS LISTING d:/software/ovi_2503a_s3trc/ovi_2503a_s3trc/plutommi/Customer/ResGenerator/gcctmp/cci0baaa.s 			page 96


 739:d:/software/ovi_2503a_s3trc/ovi_2503a_s3trc/Tools/MinGW/include/c++/3.3.1/bits/stl_list.h ****      *
 740:d:/software/ovi_2503a_s3trc/ovi_2503a_s3trc/Tools/MinGW/include/c++/3.3.1/bits/stl_list.h ****      *  This is a typical stack operation.  The function creates an element at
 741:d:/software/ovi_2503a_s3trc/ovi_2503a_s3trc/Tools/MinGW/include/c++/3.3.1/bits/stl_list.h ****      *  the end of the %list and assigns the given data to it.  Due to the
 742:d:/software/ovi_2503a_s3trc/ovi_2503a_s3trc/Tools/MinGW/include/c++/3.3.1/bits/stl_list.h ****      *  nature of a %list this operation can be done in constant time, and
 743:d:/software/ovi_2503a_s3trc/ovi_2503a_s3trc/Tools/MinGW/include/c++/3.3.1/bits/stl_list.h ****      *  does not invalidate iterators and references.
 744:d:/software/ovi_2503a_s3trc/ovi_2503a_s3trc/Tools/MinGW/include/c++/3.3.1/bits/stl_list.h ****     */
 745:d:/software/ovi_2503a_s3trc/ovi_2503a_s3trc/Tools/MinGW/include/c++/3.3.1/bits/stl_list.h ****     void
 746:d:/software/ovi_2503a_s3trc/ovi_2503a_s3trc/Tools/MinGW/include/c++/3.3.1/bits/stl_list.h ****     push_back(const value_type& __x) { this->insert(end(), __x); }
 747:d:/software/ovi_2503a_s3trc/ovi_2503a_s3trc/Tools/MinGW/include/c++/3.3.1/bits/stl_list.h ****   
 748:d:/software/ovi_2503a_s3trc/ovi_2503a_s3trc/Tools/MinGW/include/c++/3.3.1/bits/stl_list.h ****   #ifdef _GLIBCPP_DEPRECATED
 749:d:/software/ovi_2503a_s3trc/ovi_2503a_s3trc/Tools/MinGW/include/c++/3.3.1/bits/stl_list.h ****     /**
 750:d:/software/ovi_2503a_s3trc/ovi_2503a_s3trc/Tools/MinGW/include/c++/3.3.1/bits/stl_list.h ****      *  @brief  Add data to the end of the %list.
 751:d:/software/ovi_2503a_s3trc/ovi_2503a_s3trc/Tools/MinGW/include/c++/3.3.1/bits/stl_list.h ****      *
 752:d:/software/ovi_2503a_s3trc/ovi_2503a_s3trc/Tools/MinGW/include/c++/3.3.1/bits/stl_list.h ****      *  This is a typical stack operation.  The function creates a
 753:d:/software/ovi_2503a_s3trc/ovi_2503a_s3trc/Tools/MinGW/include/c++/3.3.1/bits/stl_list.h ****      *  default-constructed element at the end of the %list.  Due to the nature
 754:d:/software/ovi_2503a_s3trc/ovi_2503a_s3trc/Tools/MinGW/include/c++/3.3.1/bits/stl_list.h ****      *  of a %list this operation can be done in constant time.  You should
 755:d:/software/ovi_2503a_s3trc/ovi_2503a_s3trc/Tools/MinGW/include/c++/3.3.1/bits/stl_list.h ****      *  consider using push_back(value_type()) instead.
 756:d:/software/ovi_2503a_s3trc/ovi_2503a_s3trc/Tools/MinGW/include/c++/3.3.1/bits/stl_list.h ****      *
 757:d:/software/ovi_2503a_s3trc/ovi_2503a_s3trc/Tools/MinGW/include/c++/3.3.1/bits/stl_list.h ****      *  @note This was deprecated in 3.2 and will be removed in 3.4.  You must
 758:d:/software/ovi_2503a_s3trc/ovi_2503a_s3trc/Tools/MinGW/include/c++/3.3.1/bits/stl_list.h ****      *        define @c _GLIBCPP_DEPRECATED to make this visible in 3.2; see
 759:d:/software/ovi_2503a_s3trc/ovi_2503a_s3trc/Tools/MinGW/include/c++/3.3.1/bits/stl_list.h ****      *        c++config.h.
 760:d:/software/ovi_2503a_s3trc/ovi_2503a_s3trc/Tools/MinGW/include/c++/3.3.1/bits/stl_list.h ****     */
 761:d:/software/ovi_2503a_s3trc/ovi_2503a_s3trc/Tools/MinGW/include/c++/3.3.1/bits/stl_list.h ****     void
 762:d:/software/ovi_2503a_s3trc/ovi_2503a_s3trc/Tools/MinGW/include/c++/3.3.1/bits/stl_list.h ****     push_back() { this->insert(end(), value_type()); }
 763:d:/software/ovi_2503a_s3trc/ovi_2503a_s3trc/Tools/MinGW/include/c++/3.3.1/bits/stl_list.h ****   #endif
 764:d:/software/ovi_2503a_s3trc/ovi_2503a_s3trc/Tools/MinGW/include/c++/3.3.1/bits/stl_list.h ****   
 765:d:/software/ovi_2503a_s3trc/ovi_2503a_s3trc/Tools/MinGW/include/c++/3.3.1/bits/stl_list.h ****     /**
 766:d:/software/ovi_2503a_s3trc/ovi_2503a_s3trc/Tools/MinGW/include/c++/3.3.1/bits/stl_list.h ****      *  @brief  Removes last element.
 767:d:/software/ovi_2503a_s3trc/ovi_2503a_s3trc/Tools/MinGW/include/c++/3.3.1/bits/stl_list.h ****      *
 768:d:/software/ovi_2503a_s3trc/ovi_2503a_s3trc/Tools/MinGW/include/c++/3.3.1/bits/stl_list.h ****      *  This is a typical stack operation.  It shrinks the %list by one.
 769:d:/software/ovi_2503a_s3trc/ovi_2503a_s3trc/Tools/MinGW/include/c++/3.3.1/bits/stl_list.h ****      *  Due to the nature of a %list this operation can be done in constant
 770:d:/software/ovi_2503a_s3trc/ovi_2503a_s3trc/Tools/MinGW/include/c++/3.3.1/bits/stl_list.h ****      *  time, and only invalidates iterators/references to the element being
 771:d:/software/ovi_2503a_s3trc/ovi_2503a_s3trc/Tools/MinGW/include/c++/3.3.1/bits/stl_list.h ****      *  removed.
 772:d:/software/ovi_2503a_s3trc/ovi_2503a_s3trc/Tools/MinGW/include/c++/3.3.1/bits/stl_list.h ****      *
 773:d:/software/ovi_2503a_s3trc/ovi_2503a_s3trc/Tools/MinGW/include/c++/3.3.1/bits/stl_list.h ****      *  Note that no data is returned, and if the last element's data is
 774:d:/software/ovi_2503a_s3trc/ovi_2503a_s3trc/Tools/MinGW/include/c++/3.3.1/bits/stl_list.h ****      *  needed, it should be retrieved before pop_back() is called.
 775:d:/software/ovi_2503a_s3trc/ovi_2503a_s3trc/Tools/MinGW/include/c++/3.3.1/bits/stl_list.h ****     */
 776:d:/software/ovi_2503a_s3trc/ovi_2503a_s3trc/Tools/MinGW/include/c++/3.3.1/bits/stl_list.h ****     void
 777:d:/software/ovi_2503a_s3trc/ovi_2503a_s3trc/Tools/MinGW/include/c++/3.3.1/bits/stl_list.h ****     pop_back()
 778:d:/software/ovi_2503a_s3trc/ovi_2503a_s3trc/Tools/MinGW/include/c++/3.3.1/bits/stl_list.h ****     {
 779:d:/software/ovi_2503a_s3trc/ovi_2503a_s3trc/Tools/MinGW/include/c++/3.3.1/bits/stl_list.h ****       iterator __tmp = end();
 780:d:/software/ovi_2503a_s3trc/ovi_2503a_s3trc/Tools/MinGW/include/c++/3.3.1/bits/stl_list.h ****       this->erase(--__tmp);
 781:d:/software/ovi_2503a_s3trc/ovi_2503a_s3trc/Tools/MinGW/include/c++/3.3.1/bits/stl_list.h ****     }
 782:d:/software/ovi_2503a_s3trc/ovi_2503a_s3trc/Tools/MinGW/include/c++/3.3.1/bits/stl_list.h ****   
 783:d:/software/ovi_2503a_s3trc/ovi_2503a_s3trc/Tools/MinGW/include/c++/3.3.1/bits/stl_list.h ****     /**
 784:d:/software/ovi_2503a_s3trc/ovi_2503a_s3trc/Tools/MinGW/include/c++/3.3.1/bits/stl_list.h ****      *  @brief  Inserts given value into %list before specified iterator.
 785:d:/software/ovi_2503a_s3trc/ovi_2503a_s3trc/Tools/MinGW/include/c++/3.3.1/bits/stl_list.h ****      *  @param  position  An iterator into the %list.
 786:d:/software/ovi_2503a_s3trc/ovi_2503a_s3trc/Tools/MinGW/include/c++/3.3.1/bits/stl_list.h ****      *  @param  x  Data to be inserted.
 787:d:/software/ovi_2503a_s3trc/ovi_2503a_s3trc/Tools/MinGW/include/c++/3.3.1/bits/stl_list.h ****      *  @return  An iterator that points to the inserted data.
 788:d:/software/ovi_2503a_s3trc/ovi_2503a_s3trc/Tools/MinGW/include/c++/3.3.1/bits/stl_list.h ****      *
 789:d:/software/ovi_2503a_s3trc/ovi_2503a_s3trc/Tools/MinGW/include/c++/3.3.1/bits/stl_list.h ****      *  This function will insert a copy of the given value before the specified
 790:d:/software/ovi_2503a_s3trc/ovi_2503a_s3trc/Tools/MinGW/include/c++/3.3.1/bits/stl_list.h ****      *  location.
 791:d:/software/ovi_2503a_s3trc/ovi_2503a_s3trc/Tools/MinGW/include/c++/3.3.1/bits/stl_list.h ****      *  Due to the nature of a %list this operation can be done in constant
 792:d:/software/ovi_2503a_s3trc/ovi_2503a_s3trc/Tools/MinGW/include/c++/3.3.1/bits/stl_list.h ****      *  time, and does not invalidate iterators and references.
 793:d:/software/ovi_2503a_s3trc/ovi_2503a_s3trc/Tools/MinGW/include/c++/3.3.1/bits/stl_list.h ****     */
 794:d:/software/ovi_2503a_s3trc/ovi_2503a_s3trc/Tools/MinGW/include/c++/3.3.1/bits/stl_list.h ****     iterator
 795:d:/software/ovi_2503a_s3trc/ovi_2503a_s3trc/Tools/MinGW/include/c++/3.3.1/bits/stl_list.h ****     insert(iterator __position, const value_type& __x);
GAS LISTING d:/software/ovi_2503a_s3trc/ovi_2503a_s3trc/plutommi/Customer/ResGenerator/gcctmp/cci0baaa.s 			page 97


 796:d:/software/ovi_2503a_s3trc/ovi_2503a_s3trc/Tools/MinGW/include/c++/3.3.1/bits/stl_list.h ****   
 797:d:/software/ovi_2503a_s3trc/ovi_2503a_s3trc/Tools/MinGW/include/c++/3.3.1/bits/stl_list.h ****   #ifdef _GLIBCPP_DEPRECATED
 798:d:/software/ovi_2503a_s3trc/ovi_2503a_s3trc/Tools/MinGW/include/c++/3.3.1/bits/stl_list.h ****     /**
 799:d:/software/ovi_2503a_s3trc/ovi_2503a_s3trc/Tools/MinGW/include/c++/3.3.1/bits/stl_list.h ****      *  @brief  Inserts an element into the %list.
 800:d:/software/ovi_2503a_s3trc/ovi_2503a_s3trc/Tools/MinGW/include/c++/3.3.1/bits/stl_list.h ****      *  @param  position  An iterator into the %list.
 801:d:/software/ovi_2503a_s3trc/ovi_2503a_s3trc/Tools/MinGW/include/c++/3.3.1/bits/stl_list.h ****      *  @return  An iterator that points to the inserted element.
 802:d:/software/ovi_2503a_s3trc/ovi_2503a_s3trc/Tools/MinGW/include/c++/3.3.1/bits/stl_list.h ****      *
 803:d:/software/ovi_2503a_s3trc/ovi_2503a_s3trc/Tools/MinGW/include/c++/3.3.1/bits/stl_list.h ****      *  This function will insert a default-constructed element before the
 804:d:/software/ovi_2503a_s3trc/ovi_2503a_s3trc/Tools/MinGW/include/c++/3.3.1/bits/stl_list.h ****      *  specified location.  You should consider using
 805:d:/software/ovi_2503a_s3trc/ovi_2503a_s3trc/Tools/MinGW/include/c++/3.3.1/bits/stl_list.h ****      *  insert(position,value_type()) instead.
 806:d:/software/ovi_2503a_s3trc/ovi_2503a_s3trc/Tools/MinGW/include/c++/3.3.1/bits/stl_list.h ****      *  Due to the nature of a %list this operation can be done in constant
 807:d:/software/ovi_2503a_s3trc/ovi_2503a_s3trc/Tools/MinGW/include/c++/3.3.1/bits/stl_list.h ****      *  time, and does not invalidate iterators and references.
 808:d:/software/ovi_2503a_s3trc/ovi_2503a_s3trc/Tools/MinGW/include/c++/3.3.1/bits/stl_list.h ****      *
 809:d:/software/ovi_2503a_s3trc/ovi_2503a_s3trc/Tools/MinGW/include/c++/3.3.1/bits/stl_list.h ****      *  @note This was deprecated in 3.2 and will be removed in 3.4.  You must
 810:d:/software/ovi_2503a_s3trc/ovi_2503a_s3trc/Tools/MinGW/include/c++/3.3.1/bits/stl_list.h ****      *        define @c _GLIBCPP_DEPRECATED to make this visible in 3.2; see
 811:d:/software/ovi_2503a_s3trc/ovi_2503a_s3trc/Tools/MinGW/include/c++/3.3.1/bits/stl_list.h ****      *        c++config.h.
 812:d:/software/ovi_2503a_s3trc/ovi_2503a_s3trc/Tools/MinGW/include/c++/3.3.1/bits/stl_list.h ****     */
 813:d:/software/ovi_2503a_s3trc/ovi_2503a_s3trc/Tools/MinGW/include/c++/3.3.1/bits/stl_list.h ****     iterator
 814:d:/software/ovi_2503a_s3trc/ovi_2503a_s3trc/Tools/MinGW/include/c++/3.3.1/bits/stl_list.h ****     insert(iterator __position) { return insert(__position, value_type()); }
 815:d:/software/ovi_2503a_s3trc/ovi_2503a_s3trc/Tools/MinGW/include/c++/3.3.1/bits/stl_list.h ****   #endif
 816:d:/software/ovi_2503a_s3trc/ovi_2503a_s3trc/Tools/MinGW/include/c++/3.3.1/bits/stl_list.h ****   
 817:d:/software/ovi_2503a_s3trc/ovi_2503a_s3trc/Tools/MinGW/include/c++/3.3.1/bits/stl_list.h ****     /**
 818:d:/software/ovi_2503a_s3trc/ovi_2503a_s3trc/Tools/MinGW/include/c++/3.3.1/bits/stl_list.h ****      *  @brief  Inserts a number of copies of given data into the %list.
 819:d:/software/ovi_2503a_s3trc/ovi_2503a_s3trc/Tools/MinGW/include/c++/3.3.1/bits/stl_list.h ****      *  @param  position  An iterator into the %list.
 820:d:/software/ovi_2503a_s3trc/ovi_2503a_s3trc/Tools/MinGW/include/c++/3.3.1/bits/stl_list.h ****      *  @param  n  Number of elements to be inserted.
 821:d:/software/ovi_2503a_s3trc/ovi_2503a_s3trc/Tools/MinGW/include/c++/3.3.1/bits/stl_list.h ****      *  @param  x  Data to be inserted.
 822:d:/software/ovi_2503a_s3trc/ovi_2503a_s3trc/Tools/MinGW/include/c++/3.3.1/bits/stl_list.h ****      *
 823:d:/software/ovi_2503a_s3trc/ovi_2503a_s3trc/Tools/MinGW/include/c++/3.3.1/bits/stl_list.h ****      *  This function will insert a specified number of copies of the given data
 824:d:/software/ovi_2503a_s3trc/ovi_2503a_s3trc/Tools/MinGW/include/c++/3.3.1/bits/stl_list.h ****      *  before the location specified by @a position.
 825:d:/software/ovi_2503a_s3trc/ovi_2503a_s3trc/Tools/MinGW/include/c++/3.3.1/bits/stl_list.h ****      *
 826:d:/software/ovi_2503a_s3trc/ovi_2503a_s3trc/Tools/MinGW/include/c++/3.3.1/bits/stl_list.h ****      *  Due to the nature of a %list this operation can be done in constant
 827:d:/software/ovi_2503a_s3trc/ovi_2503a_s3trc/Tools/MinGW/include/c++/3.3.1/bits/stl_list.h ****      *  time, and does not invalidate iterators and references.
 828:d:/software/ovi_2503a_s3trc/ovi_2503a_s3trc/Tools/MinGW/include/c++/3.3.1/bits/stl_list.h ****     */
 829:d:/software/ovi_2503a_s3trc/ovi_2503a_s3trc/Tools/MinGW/include/c++/3.3.1/bits/stl_list.h ****     void
 830:d:/software/ovi_2503a_s3trc/ovi_2503a_s3trc/Tools/MinGW/include/c++/3.3.1/bits/stl_list.h ****     insert(iterator __pos, size_type __n, const value_type& __x)
 831:d:/software/ovi_2503a_s3trc/ovi_2503a_s3trc/Tools/MinGW/include/c++/3.3.1/bits/stl_list.h ****     { _M_fill_insert(__pos, __n, __x); }
 832:d:/software/ovi_2503a_s3trc/ovi_2503a_s3trc/Tools/MinGW/include/c++/3.3.1/bits/stl_list.h ****   
 833:d:/software/ovi_2503a_s3trc/ovi_2503a_s3trc/Tools/MinGW/include/c++/3.3.1/bits/stl_list.h ****     /**
 834:d:/software/ovi_2503a_s3trc/ovi_2503a_s3trc/Tools/MinGW/include/c++/3.3.1/bits/stl_list.h ****      *  @brief  Inserts a range into the %list.
 835:d:/software/ovi_2503a_s3trc/ovi_2503a_s3trc/Tools/MinGW/include/c++/3.3.1/bits/stl_list.h ****      *  @param  pos  An iterator into the %list.
 836:d:/software/ovi_2503a_s3trc/ovi_2503a_s3trc/Tools/MinGW/include/c++/3.3.1/bits/stl_list.h ****      *  @param  first  An input iterator.
 837:d:/software/ovi_2503a_s3trc/ovi_2503a_s3trc/Tools/MinGW/include/c++/3.3.1/bits/stl_list.h ****      *  @param  last   An input iterator.
 838:d:/software/ovi_2503a_s3trc/ovi_2503a_s3trc/Tools/MinGW/include/c++/3.3.1/bits/stl_list.h ****      *
 839:d:/software/ovi_2503a_s3trc/ovi_2503a_s3trc/Tools/MinGW/include/c++/3.3.1/bits/stl_list.h ****      *  This function will insert copies of the data in the range [first,last)
 840:d:/software/ovi_2503a_s3trc/ovi_2503a_s3trc/Tools/MinGW/include/c++/3.3.1/bits/stl_list.h ****      *  into the %list before the location specified by @a pos.
 841:d:/software/ovi_2503a_s3trc/ovi_2503a_s3trc/Tools/MinGW/include/c++/3.3.1/bits/stl_list.h ****      *
 842:d:/software/ovi_2503a_s3trc/ovi_2503a_s3trc/Tools/MinGW/include/c++/3.3.1/bits/stl_list.h ****      *  Due to the nature of a %list this operation can be done in constant
 843:d:/software/ovi_2503a_s3trc/ovi_2503a_s3trc/Tools/MinGW/include/c++/3.3.1/bits/stl_list.h ****      *  time, and does not invalidate iterators and references.
 844:d:/software/ovi_2503a_s3trc/ovi_2503a_s3trc/Tools/MinGW/include/c++/3.3.1/bits/stl_list.h ****     */
 845:d:/software/ovi_2503a_s3trc/ovi_2503a_s3trc/Tools/MinGW/include/c++/3.3.1/bits/stl_list.h ****     template<typename _InputIterator>
 846:d:/software/ovi_2503a_s3trc/ovi_2503a_s3trc/Tools/MinGW/include/c++/3.3.1/bits/stl_list.h ****       void
 847:d:/software/ovi_2503a_s3trc/ovi_2503a_s3trc/Tools/MinGW/include/c++/3.3.1/bits/stl_list.h ****       insert(iterator __pos, _InputIterator __first, _InputIterator __last)
 848:d:/software/ovi_2503a_s3trc/ovi_2503a_s3trc/Tools/MinGW/include/c++/3.3.1/bits/stl_list.h ****       {
 849:d:/software/ovi_2503a_s3trc/ovi_2503a_s3trc/Tools/MinGW/include/c++/3.3.1/bits/stl_list.h ****         // Check whether it's an integral type.  If so, it's not an iterator.
 850:d:/software/ovi_2503a_s3trc/ovi_2503a_s3trc/Tools/MinGW/include/c++/3.3.1/bits/stl_list.h ****         typedef typename _Is_integer<_InputIterator>::_Integral _Integral;
 851:d:/software/ovi_2503a_s3trc/ovi_2503a_s3trc/Tools/MinGW/include/c++/3.3.1/bits/stl_list.h ****         _M_insert_dispatch(__pos, __first, __last, _Integral());
 852:d:/software/ovi_2503a_s3trc/ovi_2503a_s3trc/Tools/MinGW/include/c++/3.3.1/bits/stl_list.h ****       }
GAS LISTING d:/software/ovi_2503a_s3trc/ovi_2503a_s3trc/plutommi/Customer/ResGenerator/gcctmp/cci0baaa.s 			page 98


 853:d:/software/ovi_2503a_s3trc/ovi_2503a_s3trc/Tools/MinGW/include/c++/3.3.1/bits/stl_list.h ****   
 854:d:/software/ovi_2503a_s3trc/ovi_2503a_s3trc/Tools/MinGW/include/c++/3.3.1/bits/stl_list.h ****     /**
 855:d:/software/ovi_2503a_s3trc/ovi_2503a_s3trc/Tools/MinGW/include/c++/3.3.1/bits/stl_list.h ****      *  @brief  Remove element at given position.
 856:d:/software/ovi_2503a_s3trc/ovi_2503a_s3trc/Tools/MinGW/include/c++/3.3.1/bits/stl_list.h ****      *  @param  position  Iterator pointing to element to be erased.
 857:d:/software/ovi_2503a_s3trc/ovi_2503a_s3trc/Tools/MinGW/include/c++/3.3.1/bits/stl_list.h ****      *  @return  An iterator pointing to the next element (or end()).
 858:d:/software/ovi_2503a_s3trc/ovi_2503a_s3trc/Tools/MinGW/include/c++/3.3.1/bits/stl_list.h ****      *
 859:d:/software/ovi_2503a_s3trc/ovi_2503a_s3trc/Tools/MinGW/include/c++/3.3.1/bits/stl_list.h ****      *  This function will erase the element at the given position and thus
 860:d:/software/ovi_2503a_s3trc/ovi_2503a_s3trc/Tools/MinGW/include/c++/3.3.1/bits/stl_list.h ****      *  shorten the %list by one.
 861:d:/software/ovi_2503a_s3trc/ovi_2503a_s3trc/Tools/MinGW/include/c++/3.3.1/bits/stl_list.h ****      *
 862:d:/software/ovi_2503a_s3trc/ovi_2503a_s3trc/Tools/MinGW/include/c++/3.3.1/bits/stl_list.h ****      *  Due to the nature of a %list this operation can be done in constant
 863:d:/software/ovi_2503a_s3trc/ovi_2503a_s3trc/Tools/MinGW/include/c++/3.3.1/bits/stl_list.h ****      *  time, and only invalidates iterators/references to the element being
 864:d:/software/ovi_2503a_s3trc/ovi_2503a_s3trc/Tools/MinGW/include/c++/3.3.1/bits/stl_list.h ****      *  removed.
 865:d:/software/ovi_2503a_s3trc/ovi_2503a_s3trc/Tools/MinGW/include/c++/3.3.1/bits/stl_list.h ****      *  The user is also cautioned that
 866:d:/software/ovi_2503a_s3trc/ovi_2503a_s3trc/Tools/MinGW/include/c++/3.3.1/bits/stl_list.h ****      *  this function only erases the element, and that if the element is itself
 867:d:/software/ovi_2503a_s3trc/ovi_2503a_s3trc/Tools/MinGW/include/c++/3.3.1/bits/stl_list.h ****      *  a pointer, the pointed-to memory is not touched in any way.  Managing
 868:d:/software/ovi_2503a_s3trc/ovi_2503a_s3trc/Tools/MinGW/include/c++/3.3.1/bits/stl_list.h ****      *  the pointer is the user's responsibilty.
 869:d:/software/ovi_2503a_s3trc/ovi_2503a_s3trc/Tools/MinGW/include/c++/3.3.1/bits/stl_list.h ****     */
 870:d:/software/ovi_2503a_s3trc/ovi_2503a_s3trc/Tools/MinGW/include/c++/3.3.1/bits/stl_list.h ****     iterator
 871:d:/software/ovi_2503a_s3trc/ovi_2503a_s3trc/Tools/MinGW/include/c++/3.3.1/bits/stl_list.h ****     erase(iterator __position);
 872:d:/software/ovi_2503a_s3trc/ovi_2503a_s3trc/Tools/MinGW/include/c++/3.3.1/bits/stl_list.h ****   
 873:d:/software/ovi_2503a_s3trc/ovi_2503a_s3trc/Tools/MinGW/include/c++/3.3.1/bits/stl_list.h ****     /**
 874:d:/software/ovi_2503a_s3trc/ovi_2503a_s3trc/Tools/MinGW/include/c++/3.3.1/bits/stl_list.h ****      *  @brief  Remove a range of elements.
 875:d:/software/ovi_2503a_s3trc/ovi_2503a_s3trc/Tools/MinGW/include/c++/3.3.1/bits/stl_list.h ****      *  @param  first  Iterator pointing to the first element to be erased.
 876:d:/software/ovi_2503a_s3trc/ovi_2503a_s3trc/Tools/MinGW/include/c++/3.3.1/bits/stl_list.h ****      *  @param  last  Iterator pointing to one past the last element to be
 877:d:/software/ovi_2503a_s3trc/ovi_2503a_s3trc/Tools/MinGW/include/c++/3.3.1/bits/stl_list.h ****      *                erased.
 878:d:/software/ovi_2503a_s3trc/ovi_2503a_s3trc/Tools/MinGW/include/c++/3.3.1/bits/stl_list.h ****      *  @return  An iterator pointing to the element pointed to by @a last
 879:d:/software/ovi_2503a_s3trc/ovi_2503a_s3trc/Tools/MinGW/include/c++/3.3.1/bits/stl_list.h ****      *           prior to erasing (or end()).
 880:d:/software/ovi_2503a_s3trc/ovi_2503a_s3trc/Tools/MinGW/include/c++/3.3.1/bits/stl_list.h ****      *
 881:d:/software/ovi_2503a_s3trc/ovi_2503a_s3trc/Tools/MinGW/include/c++/3.3.1/bits/stl_list.h ****      *  This function will erase the elements in the range [first,last) and
 882:d:/software/ovi_2503a_s3trc/ovi_2503a_s3trc/Tools/MinGW/include/c++/3.3.1/bits/stl_list.h ****      *  shorten the %list accordingly.
 883:d:/software/ovi_2503a_s3trc/ovi_2503a_s3trc/Tools/MinGW/include/c++/3.3.1/bits/stl_list.h ****      *
 884:d:/software/ovi_2503a_s3trc/ovi_2503a_s3trc/Tools/MinGW/include/c++/3.3.1/bits/stl_list.h ****      *  Due to the nature of a %list this operation can be done in constant
 885:d:/software/ovi_2503a_s3trc/ovi_2503a_s3trc/Tools/MinGW/include/c++/3.3.1/bits/stl_list.h ****      *  time, and only invalidates iterators/references to the element being
 886:d:/software/ovi_2503a_s3trc/ovi_2503a_s3trc/Tools/MinGW/include/c++/3.3.1/bits/stl_list.h ****      *  removed.
 887:d:/software/ovi_2503a_s3trc/ovi_2503a_s3trc/Tools/MinGW/include/c++/3.3.1/bits/stl_list.h ****      *  The user is also cautioned that
 888:d:/software/ovi_2503a_s3trc/ovi_2503a_s3trc/Tools/MinGW/include/c++/3.3.1/bits/stl_list.h ****      *  this function only erases the elements, and that if the elements
 889:d:/software/ovi_2503a_s3trc/ovi_2503a_s3trc/Tools/MinGW/include/c++/3.3.1/bits/stl_list.h ****      *  themselves are pointers, the pointed-to memory is not touched in any
 890:d:/software/ovi_2503a_s3trc/ovi_2503a_s3trc/Tools/MinGW/include/c++/3.3.1/bits/stl_list.h ****      *  way.  Managing the pointer is the user's responsibilty.
 891:d:/software/ovi_2503a_s3trc/ovi_2503a_s3trc/Tools/MinGW/include/c++/3.3.1/bits/stl_list.h ****     */
 892:d:/software/ovi_2503a_s3trc/ovi_2503a_s3trc/Tools/MinGW/include/c++/3.3.1/bits/stl_list.h ****     iterator
 893:d:/software/ovi_2503a_s3trc/ovi_2503a_s3trc/Tools/MinGW/include/c++/3.3.1/bits/stl_list.h ****     erase(iterator __first, iterator __last)
 894:d:/software/ovi_2503a_s3trc/ovi_2503a_s3trc/Tools/MinGW/include/c++/3.3.1/bits/stl_list.h ****     {
 895:d:/software/ovi_2503a_s3trc/ovi_2503a_s3trc/Tools/MinGW/include/c++/3.3.1/bits/stl_list.h ****       while (__first != __last)
 896:d:/software/ovi_2503a_s3trc/ovi_2503a_s3trc/Tools/MinGW/include/c++/3.3.1/bits/stl_list.h ****         erase(__first++);
 897:d:/software/ovi_2503a_s3trc/ovi_2503a_s3trc/Tools/MinGW/include/c++/3.3.1/bits/stl_list.h ****       return __last;
 898:d:/software/ovi_2503a_s3trc/ovi_2503a_s3trc/Tools/MinGW/include/c++/3.3.1/bits/stl_list.h ****     }
 899:d:/software/ovi_2503a_s3trc/ovi_2503a_s3trc/Tools/MinGW/include/c++/3.3.1/bits/stl_list.h ****   
 900:d:/software/ovi_2503a_s3trc/ovi_2503a_s3trc/Tools/MinGW/include/c++/3.3.1/bits/stl_list.h ****     /**
 901:d:/software/ovi_2503a_s3trc/ovi_2503a_s3trc/Tools/MinGW/include/c++/3.3.1/bits/stl_list.h ****      *  @brief  Swaps data with another %list.
 902:d:/software/ovi_2503a_s3trc/ovi_2503a_s3trc/Tools/MinGW/include/c++/3.3.1/bits/stl_list.h ****      *  @param  x  A %list of the same element and allocator types.
 903:d:/software/ovi_2503a_s3trc/ovi_2503a_s3trc/Tools/MinGW/include/c++/3.3.1/bits/stl_list.h ****      *
 904:d:/software/ovi_2503a_s3trc/ovi_2503a_s3trc/Tools/MinGW/include/c++/3.3.1/bits/stl_list.h ****      *  This exchanges the elements between two lists in constant time.
 905:d:/software/ovi_2503a_s3trc/ovi_2503a_s3trc/Tools/MinGW/include/c++/3.3.1/bits/stl_list.h ****      *  (It is only swapping a single pointer, so it should be quite fast.)
 906:d:/software/ovi_2503a_s3trc/ovi_2503a_s3trc/Tools/MinGW/include/c++/3.3.1/bits/stl_list.h ****      *  Note that the global std::swap() function is specialized such that
 907:d:/software/ovi_2503a_s3trc/ovi_2503a_s3trc/Tools/MinGW/include/c++/3.3.1/bits/stl_list.h ****      *  std::swap(l1,l2) will feed to this function.
 908:d:/software/ovi_2503a_s3trc/ovi_2503a_s3trc/Tools/MinGW/include/c++/3.3.1/bits/stl_list.h ****     */
 909:d:/software/ovi_2503a_s3trc/ovi_2503a_s3trc/Tools/MinGW/include/c++/3.3.1/bits/stl_list.h ****     void
GAS LISTING d:/software/ovi_2503a_s3trc/ovi_2503a_s3trc/plutommi/Customer/ResGenerator/gcctmp/cci0baaa.s 			page 99


 910:d:/software/ovi_2503a_s3trc/ovi_2503a_s3trc/Tools/MinGW/include/c++/3.3.1/bits/stl_list.h ****     swap(list& __x) { std::swap(_M_node, __x._M_node); }
 911:d:/software/ovi_2503a_s3trc/ovi_2503a_s3trc/Tools/MinGW/include/c++/3.3.1/bits/stl_list.h ****   
 912:d:/software/ovi_2503a_s3trc/ovi_2503a_s3trc/Tools/MinGW/include/c++/3.3.1/bits/stl_list.h ****     /**
 913:d:/software/ovi_2503a_s3trc/ovi_2503a_s3trc/Tools/MinGW/include/c++/3.3.1/bits/stl_list.h ****      *  Erases all the elements.  Note that this function only erases the
 914:d:/software/ovi_2503a_s3trc/ovi_2503a_s3trc/Tools/MinGW/include/c++/3.3.1/bits/stl_list.h ****      *  elements, and that if the elements themselves are pointers, the
 915:d:/software/ovi_2503a_s3trc/ovi_2503a_s3trc/Tools/MinGW/include/c++/3.3.1/bits/stl_list.h ****      *  pointed-to memory is not touched in any way.  Managing the pointer is
 916:d:/software/ovi_2503a_s3trc/ovi_2503a_s3trc/Tools/MinGW/include/c++/3.3.1/bits/stl_list.h ****      *  the user's responsibilty.
 917:d:/software/ovi_2503a_s3trc/ovi_2503a_s3trc/Tools/MinGW/include/c++/3.3.1/bits/stl_list.h ****     */
 918:d:/software/ovi_2503a_s3trc/ovi_2503a_s3trc/Tools/MinGW/include/c++/3.3.1/bits/stl_list.h ****     void
 919:d:/software/ovi_2503a_s3trc/ovi_2503a_s3trc/Tools/MinGW/include/c++/3.3.1/bits/stl_list.h ****     clear() { _Base::__clear(); }
 5332              	LM195:
 5333 0000 55       		pushl	%ebp
 5334 0001 89E5     		movl	%esp, %ebp
 5335 0003 83EC08   		subl	$8, %esp
 5337              	LM196:
 5338              	LBB45:
 5339 0006 8B4508   		movl	8(%ebp), %eax
 5340 0009 890424   		movl	%eax, (%esp)
 5341 000c E8000000 		call	__ZNSt10_List_baseIN10ThreadPool7JobDataESaIS1_EE7__clearEv
 5341      00
 5342 0011 C9       		leave
 5343 0012 C3       		ret
 5344              	LBE45:
 5345              	Lscope28:
 5355 0013 90       		.section	.text$_ZNSt6vectorIN10ThreadPool10ThreadDataESaIS1_EE5clearEv,"x"
 5356              		.linkonce discard
 5357              		.align 2
 5360              	.globl __ZNSt6vectorIN10ThreadPool10ThreadDataESaIS1_EE5clearEv
 5362              	__ZNSt6vectorIN10ThreadPool10ThreadDataESaIS1_EE5clearEv:
 5364              	Ltext7:
 604:d:/software/ovi_2503a_s3trc/ovi_2503a_s3trc/Tools/MinGW/include/c++/3.3.1/bits/stl_vector.h ****       }
 605:d:/software/ovi_2503a_s3trc/ovi_2503a_s3trc/Tools/MinGW/include/c++/3.3.1/bits/stl_vector.h ****       
 606:d:/software/ovi_2503a_s3trc/ovi_2503a_s3trc/Tools/MinGW/include/c++/3.3.1/bits/stl_vector.h ****       /**
 607:d:/software/ovi_2503a_s3trc/ovi_2503a_s3trc/Tools/MinGW/include/c++/3.3.1/bits/stl_vector.h ****        *  @brief  Removes last element.
 608:d:/software/ovi_2503a_s3trc/ovi_2503a_s3trc/Tools/MinGW/include/c++/3.3.1/bits/stl_vector.h ****        *
 609:d:/software/ovi_2503a_s3trc/ovi_2503a_s3trc/Tools/MinGW/include/c++/3.3.1/bits/stl_vector.h ****        *  This is a typical stack operation. It shrinks the %vector by one.
 610:d:/software/ovi_2503a_s3trc/ovi_2503a_s3trc/Tools/MinGW/include/c++/3.3.1/bits/stl_vector.h ****        *
 611:d:/software/ovi_2503a_s3trc/ovi_2503a_s3trc/Tools/MinGW/include/c++/3.3.1/bits/stl_vector.h ****        *  Note that no data is returned, and if the last element's data is
 612:d:/software/ovi_2503a_s3trc/ovi_2503a_s3trc/Tools/MinGW/include/c++/3.3.1/bits/stl_vector.h ****        *  needed, it should be retrieved before pop_back() is called.
 613:d:/software/ovi_2503a_s3trc/ovi_2503a_s3trc/Tools/MinGW/include/c++/3.3.1/bits/stl_vector.h ****        */
 614:d:/software/ovi_2503a_s3trc/ovi_2503a_s3trc/Tools/MinGW/include/c++/3.3.1/bits/stl_vector.h ****       void
 615:d:/software/ovi_2503a_s3trc/ovi_2503a_s3trc/Tools/MinGW/include/c++/3.3.1/bits/stl_vector.h ****       pop_back()
 616:d:/software/ovi_2503a_s3trc/ovi_2503a_s3trc/Tools/MinGW/include/c++/3.3.1/bits/stl_vector.h ****       {
 617:d:/software/ovi_2503a_s3trc/ovi_2503a_s3trc/Tools/MinGW/include/c++/3.3.1/bits/stl_vector.h **** 	--_M_finish;
 618:d:/software/ovi_2503a_s3trc/ovi_2503a_s3trc/Tools/MinGW/include/c++/3.3.1/bits/stl_vector.h **** 	_Destroy(_M_finish);
 619:d:/software/ovi_2503a_s3trc/ovi_2503a_s3trc/Tools/MinGW/include/c++/3.3.1/bits/stl_vector.h ****       }
 620:d:/software/ovi_2503a_s3trc/ovi_2503a_s3trc/Tools/MinGW/include/c++/3.3.1/bits/stl_vector.h ****       
 621:d:/software/ovi_2503a_s3trc/ovi_2503a_s3trc/Tools/MinGW/include/c++/3.3.1/bits/stl_vector.h ****       /**
 622:d:/software/ovi_2503a_s3trc/ovi_2503a_s3trc/Tools/MinGW/include/c++/3.3.1/bits/stl_vector.h ****        *  @brief  Inserts given value into %vector before specified iterator.
 623:d:/software/ovi_2503a_s3trc/ovi_2503a_s3trc/Tools/MinGW/include/c++/3.3.1/bits/stl_vector.h ****        *  @param  position  An iterator into the %vector.
 624:d:/software/ovi_2503a_s3trc/ovi_2503a_s3trc/Tools/MinGW/include/c++/3.3.1/bits/stl_vector.h ****        *  @param  x  Data to be inserted.
 625:d:/software/ovi_2503a_s3trc/ovi_2503a_s3trc/Tools/MinGW/include/c++/3.3.1/bits/stl_vector.h ****        *  @return  An iterator that points to the inserted data.
 626:d:/software/ovi_2503a_s3trc/ovi_2503a_s3trc/Tools/MinGW/include/c++/3.3.1/bits/stl_vector.h ****        *
 627:d:/software/ovi_2503a_s3trc/ovi_2503a_s3trc/Tools/MinGW/include/c++/3.3.1/bits/stl_vector.h ****        *  This function will insert a copy of the given value before
 628:d:/software/ovi_2503a_s3trc/ovi_2503a_s3trc/Tools/MinGW/include/c++/3.3.1/bits/stl_vector.h ****        *  the specified location.  Note that this kind of operation
 629:d:/software/ovi_2503a_s3trc/ovi_2503a_s3trc/Tools/MinGW/include/c++/3.3.1/bits/stl_vector.h ****        *  could be expensive for a %vector and if it is frequently
 630:d:/software/ovi_2503a_s3trc/ovi_2503a_s3trc/Tools/MinGW/include/c++/3.3.1/bits/stl_vector.h ****        *  used the user should consider using std::list.
GAS LISTING d:/software/ovi_2503a_s3trc/ovi_2503a_s3trc/plutommi/Customer/ResGenerator/gcctmp/cci0baaa.s 			page 100


 631:d:/software/ovi_2503a_s3trc/ovi_2503a_s3trc/Tools/MinGW/include/c++/3.3.1/bits/stl_vector.h ****        */
 632:d:/software/ovi_2503a_s3trc/ovi_2503a_s3trc/Tools/MinGW/include/c++/3.3.1/bits/stl_vector.h ****       iterator
 633:d:/software/ovi_2503a_s3trc/ovi_2503a_s3trc/Tools/MinGW/include/c++/3.3.1/bits/stl_vector.h ****       insert(iterator __position, const value_type& __x);
 634:d:/software/ovi_2503a_s3trc/ovi_2503a_s3trc/Tools/MinGW/include/c++/3.3.1/bits/stl_vector.h ****   
 635:d:/software/ovi_2503a_s3trc/ovi_2503a_s3trc/Tools/MinGW/include/c++/3.3.1/bits/stl_vector.h **** #ifdef _GLIBCPP_DEPRECATED
 636:d:/software/ovi_2503a_s3trc/ovi_2503a_s3trc/Tools/MinGW/include/c++/3.3.1/bits/stl_vector.h ****       /**
 637:d:/software/ovi_2503a_s3trc/ovi_2503a_s3trc/Tools/MinGW/include/c++/3.3.1/bits/stl_vector.h ****        *  @brief  Inserts an element into the %vector.
 638:d:/software/ovi_2503a_s3trc/ovi_2503a_s3trc/Tools/MinGW/include/c++/3.3.1/bits/stl_vector.h ****        *  @param  position  An iterator into the %vector.
 639:d:/software/ovi_2503a_s3trc/ovi_2503a_s3trc/Tools/MinGW/include/c++/3.3.1/bits/stl_vector.h ****        *  @return  An iterator that points to the inserted element.
 640:d:/software/ovi_2503a_s3trc/ovi_2503a_s3trc/Tools/MinGW/include/c++/3.3.1/bits/stl_vector.h ****        *
 641:d:/software/ovi_2503a_s3trc/ovi_2503a_s3trc/Tools/MinGW/include/c++/3.3.1/bits/stl_vector.h ****        *  This function will insert a default-constructed element
 642:d:/software/ovi_2503a_s3trc/ovi_2503a_s3trc/Tools/MinGW/include/c++/3.3.1/bits/stl_vector.h ****        *  before the specified location.  You should consider using
 643:d:/software/ovi_2503a_s3trc/ovi_2503a_s3trc/Tools/MinGW/include/c++/3.3.1/bits/stl_vector.h ****        *  insert(position,value_type()) instead.  Note that this kind
 644:d:/software/ovi_2503a_s3trc/ovi_2503a_s3trc/Tools/MinGW/include/c++/3.3.1/bits/stl_vector.h ****        *  of operation could be expensive for a vector and if it is
 645:d:/software/ovi_2503a_s3trc/ovi_2503a_s3trc/Tools/MinGW/include/c++/3.3.1/bits/stl_vector.h ****        *  frequently used the user should consider using std::list.
 646:d:/software/ovi_2503a_s3trc/ovi_2503a_s3trc/Tools/MinGW/include/c++/3.3.1/bits/stl_vector.h ****        *
 647:d:/software/ovi_2503a_s3trc/ovi_2503a_s3trc/Tools/MinGW/include/c++/3.3.1/bits/stl_vector.h ****        *  @note This was deprecated in 3.2 and will be removed in 3.4.
 648:d:/software/ovi_2503a_s3trc/ovi_2503a_s3trc/Tools/MinGW/include/c++/3.3.1/bits/stl_vector.h ****        *  You must define @c _GLIBCPP_DEPRECATED to make this visible
 649:d:/software/ovi_2503a_s3trc/ovi_2503a_s3trc/Tools/MinGW/include/c++/3.3.1/bits/stl_vector.h ****        *  in 3.2; see c++config.h.
 650:d:/software/ovi_2503a_s3trc/ovi_2503a_s3trc/Tools/MinGW/include/c++/3.3.1/bits/stl_vector.h ****        */
 651:d:/software/ovi_2503a_s3trc/ovi_2503a_s3trc/Tools/MinGW/include/c++/3.3.1/bits/stl_vector.h ****       iterator
 652:d:/software/ovi_2503a_s3trc/ovi_2503a_s3trc/Tools/MinGW/include/c++/3.3.1/bits/stl_vector.h ****       insert(iterator __position)
 653:d:/software/ovi_2503a_s3trc/ovi_2503a_s3trc/Tools/MinGW/include/c++/3.3.1/bits/stl_vector.h ****       { return insert(__position, value_type()); }
 654:d:/software/ovi_2503a_s3trc/ovi_2503a_s3trc/Tools/MinGW/include/c++/3.3.1/bits/stl_vector.h **** #endif
 655:d:/software/ovi_2503a_s3trc/ovi_2503a_s3trc/Tools/MinGW/include/c++/3.3.1/bits/stl_vector.h ****       
 656:d:/software/ovi_2503a_s3trc/ovi_2503a_s3trc/Tools/MinGW/include/c++/3.3.1/bits/stl_vector.h ****       /**
 657:d:/software/ovi_2503a_s3trc/ovi_2503a_s3trc/Tools/MinGW/include/c++/3.3.1/bits/stl_vector.h ****        *  @brief  Inserts a number of copies of given data into the %vector.
 658:d:/software/ovi_2503a_s3trc/ovi_2503a_s3trc/Tools/MinGW/include/c++/3.3.1/bits/stl_vector.h ****        *  @param  position  An iterator into the %vector.
 659:d:/software/ovi_2503a_s3trc/ovi_2503a_s3trc/Tools/MinGW/include/c++/3.3.1/bits/stl_vector.h ****        *  @param  n  Number of elements to be inserted.
 660:d:/software/ovi_2503a_s3trc/ovi_2503a_s3trc/Tools/MinGW/include/c++/3.3.1/bits/stl_vector.h ****        *  @param  x  Data to be inserted.
 661:d:/software/ovi_2503a_s3trc/ovi_2503a_s3trc/Tools/MinGW/include/c++/3.3.1/bits/stl_vector.h ****        *
 662:d:/software/ovi_2503a_s3trc/ovi_2503a_s3trc/Tools/MinGW/include/c++/3.3.1/bits/stl_vector.h ****        *  This function will insert a specified number of copies of
 663:d:/software/ovi_2503a_s3trc/ovi_2503a_s3trc/Tools/MinGW/include/c++/3.3.1/bits/stl_vector.h ****        *  the given data before the location specified by @a position.
 664:d:/software/ovi_2503a_s3trc/ovi_2503a_s3trc/Tools/MinGW/include/c++/3.3.1/bits/stl_vector.h ****        *
 665:d:/software/ovi_2503a_s3trc/ovi_2503a_s3trc/Tools/MinGW/include/c++/3.3.1/bits/stl_vector.h ****        *  Note that this kind of operation could be expensive for a
 666:d:/software/ovi_2503a_s3trc/ovi_2503a_s3trc/Tools/MinGW/include/c++/3.3.1/bits/stl_vector.h ****        *  %vector and if it is frequently used the user should
 667:d:/software/ovi_2503a_s3trc/ovi_2503a_s3trc/Tools/MinGW/include/c++/3.3.1/bits/stl_vector.h ****        *  consider using std::list.
 668:d:/software/ovi_2503a_s3trc/ovi_2503a_s3trc/Tools/MinGW/include/c++/3.3.1/bits/stl_vector.h ****        */
 669:d:/software/ovi_2503a_s3trc/ovi_2503a_s3trc/Tools/MinGW/include/c++/3.3.1/bits/stl_vector.h ****       void
 670:d:/software/ovi_2503a_s3trc/ovi_2503a_s3trc/Tools/MinGW/include/c++/3.3.1/bits/stl_vector.h ****       insert(iterator __pos, size_type __n, const value_type& __x)
 671:d:/software/ovi_2503a_s3trc/ovi_2503a_s3trc/Tools/MinGW/include/c++/3.3.1/bits/stl_vector.h ****       { _M_fill_insert(__pos, __n, __x); }
 672:d:/software/ovi_2503a_s3trc/ovi_2503a_s3trc/Tools/MinGW/include/c++/3.3.1/bits/stl_vector.h ****       
 673:d:/software/ovi_2503a_s3trc/ovi_2503a_s3trc/Tools/MinGW/include/c++/3.3.1/bits/stl_vector.h ****       /**
 674:d:/software/ovi_2503a_s3trc/ovi_2503a_s3trc/Tools/MinGW/include/c++/3.3.1/bits/stl_vector.h ****        *  @brief  Inserts a range into the %vector.
 675:d:/software/ovi_2503a_s3trc/ovi_2503a_s3trc/Tools/MinGW/include/c++/3.3.1/bits/stl_vector.h ****        *  @param  pos  An iterator into the %vector.
 676:d:/software/ovi_2503a_s3trc/ovi_2503a_s3trc/Tools/MinGW/include/c++/3.3.1/bits/stl_vector.h ****        *  @param  first  An input iterator.
 677:d:/software/ovi_2503a_s3trc/ovi_2503a_s3trc/Tools/MinGW/include/c++/3.3.1/bits/stl_vector.h ****        *  @param  last   An input iterator.
 678:d:/software/ovi_2503a_s3trc/ovi_2503a_s3trc/Tools/MinGW/include/c++/3.3.1/bits/stl_vector.h ****        *
 679:d:/software/ovi_2503a_s3trc/ovi_2503a_s3trc/Tools/MinGW/include/c++/3.3.1/bits/stl_vector.h ****        *  This function will insert copies of the data in the range
 680:d:/software/ovi_2503a_s3trc/ovi_2503a_s3trc/Tools/MinGW/include/c++/3.3.1/bits/stl_vector.h ****        *  [first,last) into the %vector before the location specified
 681:d:/software/ovi_2503a_s3trc/ovi_2503a_s3trc/Tools/MinGW/include/c++/3.3.1/bits/stl_vector.h ****        *  by @a pos.
 682:d:/software/ovi_2503a_s3trc/ovi_2503a_s3trc/Tools/MinGW/include/c++/3.3.1/bits/stl_vector.h ****        *
 683:d:/software/ovi_2503a_s3trc/ovi_2503a_s3trc/Tools/MinGW/include/c++/3.3.1/bits/stl_vector.h ****        *  Note that this kind of operation could be expensive for a
 684:d:/software/ovi_2503a_s3trc/ovi_2503a_s3trc/Tools/MinGW/include/c++/3.3.1/bits/stl_vector.h ****        *  %vector and if it is frequently used the user should
 685:d:/software/ovi_2503a_s3trc/ovi_2503a_s3trc/Tools/MinGW/include/c++/3.3.1/bits/stl_vector.h ****        *  consider using std::list.
 686:d:/software/ovi_2503a_s3trc/ovi_2503a_s3trc/Tools/MinGW/include/c++/3.3.1/bits/stl_vector.h ****        */
 687:d:/software/ovi_2503a_s3trc/ovi_2503a_s3trc/Tools/MinGW/include/c++/3.3.1/bits/stl_vector.h ****       template<typename _InputIterator>
GAS LISTING d:/software/ovi_2503a_s3trc/ovi_2503a_s3trc/plutommi/Customer/ResGenerator/gcctmp/cci0baaa.s 			page 101


 688:d:/software/ovi_2503a_s3trc/ovi_2503a_s3trc/Tools/MinGW/include/c++/3.3.1/bits/stl_vector.h ****         void
 689:d:/software/ovi_2503a_s3trc/ovi_2503a_s3trc/Tools/MinGW/include/c++/3.3.1/bits/stl_vector.h ****         insert(iterator __pos, _InputIterator __first, _InputIterator __last)
 690:d:/software/ovi_2503a_s3trc/ovi_2503a_s3trc/Tools/MinGW/include/c++/3.3.1/bits/stl_vector.h ****         {
 691:d:/software/ovi_2503a_s3trc/ovi_2503a_s3trc/Tools/MinGW/include/c++/3.3.1/bits/stl_vector.h **** 	  // Check whether it's an integral type.  If so, it's not an iterator.
 692:d:/software/ovi_2503a_s3trc/ovi_2503a_s3trc/Tools/MinGW/include/c++/3.3.1/bits/stl_vector.h **** 	  typedef typename _Is_integer<_InputIterator>::_Integral _Integral;
 693:d:/software/ovi_2503a_s3trc/ovi_2503a_s3trc/Tools/MinGW/include/c++/3.3.1/bits/stl_vector.h **** 	  _M_insert_dispatch(__pos, __first, __last, _Integral());
 694:d:/software/ovi_2503a_s3trc/ovi_2503a_s3trc/Tools/MinGW/include/c++/3.3.1/bits/stl_vector.h **** 	}
 695:d:/software/ovi_2503a_s3trc/ovi_2503a_s3trc/Tools/MinGW/include/c++/3.3.1/bits/stl_vector.h ****       
 696:d:/software/ovi_2503a_s3trc/ovi_2503a_s3trc/Tools/MinGW/include/c++/3.3.1/bits/stl_vector.h ****       /**
 697:d:/software/ovi_2503a_s3trc/ovi_2503a_s3trc/Tools/MinGW/include/c++/3.3.1/bits/stl_vector.h ****        *  @brief  Remove element at given position.
 698:d:/software/ovi_2503a_s3trc/ovi_2503a_s3trc/Tools/MinGW/include/c++/3.3.1/bits/stl_vector.h ****        *  @param  position  Iterator pointing to element to be erased.
 699:d:/software/ovi_2503a_s3trc/ovi_2503a_s3trc/Tools/MinGW/include/c++/3.3.1/bits/stl_vector.h ****        *  @return  An iterator pointing to the next element (or end()).
 700:d:/software/ovi_2503a_s3trc/ovi_2503a_s3trc/Tools/MinGW/include/c++/3.3.1/bits/stl_vector.h ****        *
 701:d:/software/ovi_2503a_s3trc/ovi_2503a_s3trc/Tools/MinGW/include/c++/3.3.1/bits/stl_vector.h ****        *  This function will erase the element at the given position and thus
 702:d:/software/ovi_2503a_s3trc/ovi_2503a_s3trc/Tools/MinGW/include/c++/3.3.1/bits/stl_vector.h ****        *  shorten the %vector by one.
 703:d:/software/ovi_2503a_s3trc/ovi_2503a_s3trc/Tools/MinGW/include/c++/3.3.1/bits/stl_vector.h ****        *
 704:d:/software/ovi_2503a_s3trc/ovi_2503a_s3trc/Tools/MinGW/include/c++/3.3.1/bits/stl_vector.h ****        *  Note This operation could be expensive and if it is
 705:d:/software/ovi_2503a_s3trc/ovi_2503a_s3trc/Tools/MinGW/include/c++/3.3.1/bits/stl_vector.h ****        *  frequently used the user should consider using std::list.
 706:d:/software/ovi_2503a_s3trc/ovi_2503a_s3trc/Tools/MinGW/include/c++/3.3.1/bits/stl_vector.h ****        *  The user is also cautioned that this function only erases
 707:d:/software/ovi_2503a_s3trc/ovi_2503a_s3trc/Tools/MinGW/include/c++/3.3.1/bits/stl_vector.h ****        *  the element, and that if the element is itself a pointer,
 708:d:/software/ovi_2503a_s3trc/ovi_2503a_s3trc/Tools/MinGW/include/c++/3.3.1/bits/stl_vector.h ****        *  the pointed-to memory is not touched in any way.  Managing
 709:d:/software/ovi_2503a_s3trc/ovi_2503a_s3trc/Tools/MinGW/include/c++/3.3.1/bits/stl_vector.h ****        *  the pointer is the user's responsibilty.
 710:d:/software/ovi_2503a_s3trc/ovi_2503a_s3trc/Tools/MinGW/include/c++/3.3.1/bits/stl_vector.h ****        */
 711:d:/software/ovi_2503a_s3trc/ovi_2503a_s3trc/Tools/MinGW/include/c++/3.3.1/bits/stl_vector.h ****       iterator
 712:d:/software/ovi_2503a_s3trc/ovi_2503a_s3trc/Tools/MinGW/include/c++/3.3.1/bits/stl_vector.h ****       erase(iterator __position);
 713:d:/software/ovi_2503a_s3trc/ovi_2503a_s3trc/Tools/MinGW/include/c++/3.3.1/bits/stl_vector.h ****   
 714:d:/software/ovi_2503a_s3trc/ovi_2503a_s3trc/Tools/MinGW/include/c++/3.3.1/bits/stl_vector.h ****       /**
 715:d:/software/ovi_2503a_s3trc/ovi_2503a_s3trc/Tools/MinGW/include/c++/3.3.1/bits/stl_vector.h ****        *  @brief  Remove a range of elements.
 716:d:/software/ovi_2503a_s3trc/ovi_2503a_s3trc/Tools/MinGW/include/c++/3.3.1/bits/stl_vector.h ****        *  @param  first  Iterator pointing to the first element to be erased.
 717:d:/software/ovi_2503a_s3trc/ovi_2503a_s3trc/Tools/MinGW/include/c++/3.3.1/bits/stl_vector.h ****        *  @param  last  Iterator pointing to one past the last element to be
 718:d:/software/ovi_2503a_s3trc/ovi_2503a_s3trc/Tools/MinGW/include/c++/3.3.1/bits/stl_vector.h ****        *                erased.
 719:d:/software/ovi_2503a_s3trc/ovi_2503a_s3trc/Tools/MinGW/include/c++/3.3.1/bits/stl_vector.h ****        *  @return  An iterator pointing to the element pointed to by @a last
 720:d:/software/ovi_2503a_s3trc/ovi_2503a_s3trc/Tools/MinGW/include/c++/3.3.1/bits/stl_vector.h ****        *           prior to erasing (or end()).
 721:d:/software/ovi_2503a_s3trc/ovi_2503a_s3trc/Tools/MinGW/include/c++/3.3.1/bits/stl_vector.h ****        *
 722:d:/software/ovi_2503a_s3trc/ovi_2503a_s3trc/Tools/MinGW/include/c++/3.3.1/bits/stl_vector.h ****        *  This function will erase the elements in the range [first,last) and
 723:d:/software/ovi_2503a_s3trc/ovi_2503a_s3trc/Tools/MinGW/include/c++/3.3.1/bits/stl_vector.h ****        *  shorten the %vector accordingly.
 724:d:/software/ovi_2503a_s3trc/ovi_2503a_s3trc/Tools/MinGW/include/c++/3.3.1/bits/stl_vector.h ****        *
 725:d:/software/ovi_2503a_s3trc/ovi_2503a_s3trc/Tools/MinGW/include/c++/3.3.1/bits/stl_vector.h ****        *  Note This operation could be expensive and if it is
 726:d:/software/ovi_2503a_s3trc/ovi_2503a_s3trc/Tools/MinGW/include/c++/3.3.1/bits/stl_vector.h ****        *  frequently used the user should consider using std::list.
 727:d:/software/ovi_2503a_s3trc/ovi_2503a_s3trc/Tools/MinGW/include/c++/3.3.1/bits/stl_vector.h ****        *  The user is also cautioned that this function only erases
 728:d:/software/ovi_2503a_s3trc/ovi_2503a_s3trc/Tools/MinGW/include/c++/3.3.1/bits/stl_vector.h ****        *  the elements, and that if the elements themselves are
 729:d:/software/ovi_2503a_s3trc/ovi_2503a_s3trc/Tools/MinGW/include/c++/3.3.1/bits/stl_vector.h ****        *  pointers, the pointed-to memory is not touched in any way.
 730:d:/software/ovi_2503a_s3trc/ovi_2503a_s3trc/Tools/MinGW/include/c++/3.3.1/bits/stl_vector.h ****        *  Managing the pointer is the user's responsibilty.
 731:d:/software/ovi_2503a_s3trc/ovi_2503a_s3trc/Tools/MinGW/include/c++/3.3.1/bits/stl_vector.h ****        */
 732:d:/software/ovi_2503a_s3trc/ovi_2503a_s3trc/Tools/MinGW/include/c++/3.3.1/bits/stl_vector.h ****       iterator
 733:d:/software/ovi_2503a_s3trc/ovi_2503a_s3trc/Tools/MinGW/include/c++/3.3.1/bits/stl_vector.h ****       erase(iterator __first, iterator __last);
 734:d:/software/ovi_2503a_s3trc/ovi_2503a_s3trc/Tools/MinGW/include/c++/3.3.1/bits/stl_vector.h ****       
 735:d:/software/ovi_2503a_s3trc/ovi_2503a_s3trc/Tools/MinGW/include/c++/3.3.1/bits/stl_vector.h ****       /**
 736:d:/software/ovi_2503a_s3trc/ovi_2503a_s3trc/Tools/MinGW/include/c++/3.3.1/bits/stl_vector.h ****        *  @brief  Swaps data with another %vector.
 737:d:/software/ovi_2503a_s3trc/ovi_2503a_s3trc/Tools/MinGW/include/c++/3.3.1/bits/stl_vector.h ****        *  @param  x  A %vector of the same element and allocator types.
 738:d:/software/ovi_2503a_s3trc/ovi_2503a_s3trc/Tools/MinGW/include/c++/3.3.1/bits/stl_vector.h ****        *
 739:d:/software/ovi_2503a_s3trc/ovi_2503a_s3trc/Tools/MinGW/include/c++/3.3.1/bits/stl_vector.h ****        *  This exchanges the elements between two vectors in constant time.
 740:d:/software/ovi_2503a_s3trc/ovi_2503a_s3trc/Tools/MinGW/include/c++/3.3.1/bits/stl_vector.h ****        *  (Three pointers, so it should be quite fast.)
 741:d:/software/ovi_2503a_s3trc/ovi_2503a_s3trc/Tools/MinGW/include/c++/3.3.1/bits/stl_vector.h ****        *  Note that the global std::swap() function is specialized such that
 742:d:/software/ovi_2503a_s3trc/ovi_2503a_s3trc/Tools/MinGW/include/c++/3.3.1/bits/stl_vector.h ****        *  std::swap(v1,v2) will feed to this function.
 743:d:/software/ovi_2503a_s3trc/ovi_2503a_s3trc/Tools/MinGW/include/c++/3.3.1/bits/stl_vector.h ****        */
 744:d:/software/ovi_2503a_s3trc/ovi_2503a_s3trc/Tools/MinGW/include/c++/3.3.1/bits/stl_vector.h ****       void
GAS LISTING d:/software/ovi_2503a_s3trc/ovi_2503a_s3trc/plutommi/Customer/ResGenerator/gcctmp/cci0baaa.s 			page 102


 745:d:/software/ovi_2503a_s3trc/ovi_2503a_s3trc/Tools/MinGW/include/c++/3.3.1/bits/stl_vector.h ****       swap(vector& __x)
 746:d:/software/ovi_2503a_s3trc/ovi_2503a_s3trc/Tools/MinGW/include/c++/3.3.1/bits/stl_vector.h ****       {
 747:d:/software/ovi_2503a_s3trc/ovi_2503a_s3trc/Tools/MinGW/include/c++/3.3.1/bits/stl_vector.h **** 	std::swap(_M_start, __x._M_start);
 748:d:/software/ovi_2503a_s3trc/ovi_2503a_s3trc/Tools/MinGW/include/c++/3.3.1/bits/stl_vector.h **** 	std::swap(_M_finish, __x._M_finish);
 749:d:/software/ovi_2503a_s3trc/ovi_2503a_s3trc/Tools/MinGW/include/c++/3.3.1/bits/stl_vector.h **** 	std::swap(_M_end_of_storage, __x._M_end_of_storage);
 750:d:/software/ovi_2503a_s3trc/ovi_2503a_s3trc/Tools/MinGW/include/c++/3.3.1/bits/stl_vector.h ****       }
 751:d:/software/ovi_2503a_s3trc/ovi_2503a_s3trc/Tools/MinGW/include/c++/3.3.1/bits/stl_vector.h ****       
 752:d:/software/ovi_2503a_s3trc/ovi_2503a_s3trc/Tools/MinGW/include/c++/3.3.1/bits/stl_vector.h ****       /**
 753:d:/software/ovi_2503a_s3trc/ovi_2503a_s3trc/Tools/MinGW/include/c++/3.3.1/bits/stl_vector.h ****        *  Erases all the elements.  Note that this function only erases the
 754:d:/software/ovi_2503a_s3trc/ovi_2503a_s3trc/Tools/MinGW/include/c++/3.3.1/bits/stl_vector.h ****        *  elements, and that if the elements themselves are pointers, the
 755:d:/software/ovi_2503a_s3trc/ovi_2503a_s3trc/Tools/MinGW/include/c++/3.3.1/bits/stl_vector.h ****        *  pointed-to memory is not touched in any way.  Managing the pointer is
 756:d:/software/ovi_2503a_s3trc/ovi_2503a_s3trc/Tools/MinGW/include/c++/3.3.1/bits/stl_vector.h ****        *  the user's responsibilty.
 757:d:/software/ovi_2503a_s3trc/ovi_2503a_s3trc/Tools/MinGW/include/c++/3.3.1/bits/stl_vector.h ****        */
 758:d:/software/ovi_2503a_s3trc/ovi_2503a_s3trc/Tools/MinGW/include/c++/3.3.1/bits/stl_vector.h ****       void
 759:d:/software/ovi_2503a_s3trc/ovi_2503a_s3trc/Tools/MinGW/include/c++/3.3.1/bits/stl_vector.h ****       clear() { erase(begin(), end()); }
 5366              	LM197:
 5367 0000 55       		pushl	%ebp
 5368 0001 89E5     		movl	%esp, %ebp
 5369 0003 83EC18   		subl	$24, %esp
 5371              	LM198:
 5372              	LBB46:
 5373 0006 8B4508   		movl	8(%ebp), %eax
 5374 0009 890424   		movl	%eax, (%esp)
 5375 000c E8000000 		call	__ZNSt6vectorIN10ThreadPool10ThreadDataESaIS1_EE3endEv
 5375      00
 5376 0011 8945FC   		movl	%eax, -4(%ebp)
 5377 0014 8B4508   		movl	8(%ebp), %eax
 5378 0017 890424   		movl	%eax, (%esp)
 5379 001a E8000000 		call	__ZNSt6vectorIN10ThreadPool10ThreadDataESaIS1_EE5beginEv
 5379      00
 5380 001f 8945F8   		movl	%eax, -8(%ebp)
 5381 0022 8B45FC   		movl	-4(%ebp), %eax
 5382 0025 89442408 		movl	%eax, 8(%esp)
 5383 0029 8B45F8   		movl	-8(%ebp), %eax
 5384 002c 89442404 		movl	%eax, 4(%esp)
 5385 0030 8B4508   		movl	8(%ebp), %eax
 5386 0033 890424   		movl	%eax, (%esp)
 5387 0036 E8000000 		call	__ZNSt6vectorIN10ThreadPool10ThreadDataESaIS1_EE5eraseEN9__gnu_cxx17__normal_iteratorIPS1_S3_
 5387      00
 5388 003b C9       		leave
 5389 003c C3       		ret
 5390              	LBE46:
 5391              	Lscope29:
 5393 003d 909090   		.section	.text$_ZNSt4listIN10ThreadPool7JobDataESaIS1_EE9push_backERKS1_,"x"
 5394              		.linkonce discard
 5395              		.align 2
 5399              	.globl __ZNSt4listIN10ThreadPool7JobDataESaIS1_EE9push_backERKS1_
 5401              	__ZNSt4listIN10ThreadPool7JobDataESaIS1_EE9push_backERKS1_:
 5403              	Ltext8:
 5405              	LM199:
 5406 0000 55       		pushl	%ebp
 5407 0001 89E5     		movl	%esp, %ebp
 5408 0003 53       		pushl	%ebx
 5409 0004 83EC34   		subl	$52, %esp
 5411              	LM200:
 5412              	LBB47:
 5413 0007 8D5DE8   		leal	-24(%ebp), %ebx
GAS LISTING d:/software/ovi_2503a_s3trc/ovi_2503a_s3trc/plutommi/Customer/ResGenerator/gcctmp/cci0baaa.s 			page 103


 5414 000a 8D55D8   		leal	-40(%ebp), %edx
 5415 000d 8B4508   		movl	8(%ebp), %eax
 5416 0010 89442404 		movl	%eax, 4(%esp)
 5417 0014 891424   		movl	%edx, (%esp)
 5418 0017 E8000000 		call	__ZNSt4listIN10ThreadPool7JobDataESaIS1_EE3endEv
 5418      00
 5419 001c 83EC04   		subl	$4, %esp
 5420 001f 8D55D8   		leal	-40(%ebp), %edx
 5421 0022 8B450C   		movl	12(%ebp), %eax
 5422 0025 8944240C 		movl	%eax, 12(%esp)
 5423 0029 89542408 		movl	%edx, 8(%esp)
 5424 002d 8B4508   		movl	8(%ebp), %eax
 5425 0030 89442404 		movl	%eax, 4(%esp)
 5426 0034 891C24   		movl	%ebx, (%esp)
 5427 0037 E8000000 		call	__ZNSt4listIN10ThreadPool7JobDataESaIS1_EE6insertESt14_List_iteratorIS1_RS1_PS1_ERKS1_
 5427      00
 5428 003c 83EC04   		subl	$4, %esp
 5429 003f 8B5DFC   		movl	-4(%ebp), %ebx
 5430 0042 C9       		leave
 5431 0043 C3       		ret
 5432              	LBE47:
 5433              	Lscope30:
 5435              		.section	.text$_ZNSt4listIN10ThreadPool7JobDataESaIS1_EE10push_frontERKS1_,"x"
 5436              		.linkonce discard
 5437              		.align 2
 5441              	.globl __ZNSt4listIN10ThreadPool7JobDataESaIS1_EE10push_frontERKS1_
 5443              	__ZNSt4listIN10ThreadPool7JobDataESaIS1_EE10push_frontERKS1_:
 5445              	LM201:
 5446 0000 55       		pushl	%ebp
 5447 0001 89E5     		movl	%esp, %ebp
 5448 0003 53       		pushl	%ebx
 5449 0004 83EC34   		subl	$52, %esp
 5451              	LM202:
 5452              	LBB48:
 5453 0007 8D5DE8   		leal	-24(%ebp), %ebx
 5454 000a 8D55D8   		leal	-40(%ebp), %edx
 5455 000d 8B4508   		movl	8(%ebp), %eax
 5456 0010 89442404 		movl	%eax, 4(%esp)
 5457 0014 891424   		movl	%edx, (%esp)
 5458 0017 E8000000 		call	__ZNSt4listIN10ThreadPool7JobDataESaIS1_EE5beginEv
 5458      00
 5459 001c 83EC04   		subl	$4, %esp
 5460 001f 8D55D8   		leal	-40(%ebp), %edx
 5461 0022 8B450C   		movl	12(%ebp), %eax
 5462 0025 8944240C 		movl	%eax, 12(%esp)
 5463 0029 89542408 		movl	%edx, 8(%esp)
 5464 002d 8B4508   		movl	8(%ebp), %eax
 5465 0030 89442404 		movl	%eax, 4(%esp)
 5466 0034 891C24   		movl	%ebx, (%esp)
 5467 0037 E8000000 		call	__ZNSt4listIN10ThreadPool7JobDataESaIS1_EE6insertESt14_List_iteratorIS1_RS1_PS1_ERKS1_
 5467      00
 5468 003c 83EC04   		subl	$4, %esp
 5469 003f 8B5DFC   		movl	-4(%ebp), %ebx
 5470 0042 C9       		leave
 5471 0043 C3       		ret
 5472              	LBE48:
 5473              	Lscope31:
GAS LISTING d:/software/ovi_2503a_s3trc/ovi_2503a_s3trc/plutommi/Customer/ResGenerator/gcctmp/cci0baaa.s 			page 104


 5475              		.section	.text$_ZNSt4listIN10ThreadPool7JobDataESaIS1_EE9pop_frontEv,"x"
 5476              		.linkonce discard
 5477              		.align 2
 5480              	.globl __ZNSt4listIN10ThreadPool7JobDataESaIS1_EE9pop_frontEv
 5482              	__ZNSt4listIN10ThreadPool7JobDataESaIS1_EE9pop_frontEv:
 5484              	LM203:
 5485 0000 55       		pushl	%ebp
 5486 0001 89E5     		movl	%esp, %ebp
 5487 0003 53       		pushl	%ebx
 5488 0004 83EC34   		subl	$52, %esp
 5490              	LM204:
 5491              	LBB49:
 5492 0007 8D5DE8   		leal	-24(%ebp), %ebx
 5493 000a 8D55D8   		leal	-40(%ebp), %edx
 5494 000d 8B4508   		movl	8(%ebp), %eax
 5495 0010 89442404 		movl	%eax, 4(%esp)
 5496 0014 891424   		movl	%edx, (%esp)
 5497 0017 E8000000 		call	__ZNSt4listIN10ThreadPool7JobDataESaIS1_EE5beginEv
 5497      00
 5498 001c 83EC04   		subl	$4, %esp
 5499 001f 8D45D8   		leal	-40(%ebp), %eax
 5500 0022 89442408 		movl	%eax, 8(%esp)
 5501 0026 8B4508   		movl	8(%ebp), %eax
 5502 0029 89442404 		movl	%eax, 4(%esp)
 5503 002d 891C24   		movl	%ebx, (%esp)
 5504 0030 E8000000 		call	__ZNSt4listIN10ThreadPool7JobDataESaIS1_EE5eraseESt14_List_iteratorIS1_RS1_PS1_E
 5504      00
 5505 0035 83EC04   		subl	$4, %esp
 5506 0038 8B5DFC   		movl	-4(%ebp), %ebx
 5507 003b C9       		leave
 5508 003c C3       		ret
 5509              	LBE49:
 5510              	Lscope32:
 5514 003d 909090   		.section	.text$_ZSt8_DestroyIPN10ThreadPool10ThreadDataEEvT_S3_,"x"
 5515              		.linkonce discard
 5516              		.align 2
 5520              	.globl __ZSt8_DestroyIPN10ThreadPool10ThreadDataEEvT_S3_
 5522              	__ZSt8_DestroyIPN10ThreadPool10ThreadDataEEvT_S3_:
 5524              	Ltext9:
   1:d:/software/ovi_2503a_s3trc/ovi_2503a_s3trc/Tools/MinGW/include/c++/3.3.1/bits/stl_construct.h **** // nonstandard construct and destroy functions -*- C++ -*-
   2:d:/software/ovi_2503a_s3trc/ovi_2503a_s3trc/Tools/MinGW/include/c++/3.3.1/bits/stl_construct.h **** 
   3:d:/software/ovi_2503a_s3trc/ovi_2503a_s3trc/Tools/MinGW/include/c++/3.3.1/bits/stl_construct.h **** // Copyright (C) 2001, 2002 Free Software Foundation, Inc.
   4:d:/software/ovi_2503a_s3trc/ovi_2503a_s3trc/Tools/MinGW/include/c++/3.3.1/bits/stl_construct.h **** //
   5:d:/software/ovi_2503a_s3trc/ovi_2503a_s3trc/Tools/MinGW/include/c++/3.3.1/bits/stl_construct.h **** // This file is part of the GNU ISO C++ Library.  This library is free
   6:d:/software/ovi_2503a_s3trc/ovi_2503a_s3trc/Tools/MinGW/include/c++/3.3.1/bits/stl_construct.h **** // software; you can redistribute it and/or modify it under the
   7:d:/software/ovi_2503a_s3trc/ovi_2503a_s3trc/Tools/MinGW/include/c++/3.3.1/bits/stl_construct.h **** // terms of the GNU General Public License as published by the
   8:d:/software/ovi_2503a_s3trc/ovi_2503a_s3trc/Tools/MinGW/include/c++/3.3.1/bits/stl_construct.h **** // Free Software Foundation; either version 2, or (at your option)
   9:d:/software/ovi_2503a_s3trc/ovi_2503a_s3trc/Tools/MinGW/include/c++/3.3.1/bits/stl_construct.h **** // any later version.
  10:d:/software/ovi_2503a_s3trc/ovi_2503a_s3trc/Tools/MinGW/include/c++/3.3.1/bits/stl_construct.h **** 
  11:d:/software/ovi_2503a_s3trc/ovi_2503a_s3trc/Tools/MinGW/include/c++/3.3.1/bits/stl_construct.h **** // This library is distributed in the hope that it will be useful,
  12:d:/software/ovi_2503a_s3trc/ovi_2503a_s3trc/Tools/MinGW/include/c++/3.3.1/bits/stl_construct.h **** // but WITHOUT ANY WARRANTY; without even the implied warranty of
  13:d:/software/ovi_2503a_s3trc/ovi_2503a_s3trc/Tools/MinGW/include/c++/3.3.1/bits/stl_construct.h **** // MERCHANTABILITY or FITNESS FOR A PARTICULAR PURPOSE.  See the
  14:d:/software/ovi_2503a_s3trc/ovi_2503a_s3trc/Tools/MinGW/include/c++/3.3.1/bits/stl_construct.h **** // GNU General Public License for more details.
  15:d:/software/ovi_2503a_s3trc/ovi_2503a_s3trc/Tools/MinGW/include/c++/3.3.1/bits/stl_construct.h **** 
  16:d:/software/ovi_2503a_s3trc/ovi_2503a_s3trc/Tools/MinGW/include/c++/3.3.1/bits/stl_construct.h **** // You should have received a copy of the GNU General Public License along
  17:d:/software/ovi_2503a_s3trc/ovi_2503a_s3trc/Tools/MinGW/include/c++/3.3.1/bits/stl_construct.h **** // with this library; see the file COPYING.  If not, write to the Free
  18:d:/software/ovi_2503a_s3trc/ovi_2503a_s3trc/Tools/MinGW/include/c++/3.3.1/bits/stl_construct.h **** // Software Foundation, 59 Temple Place - Suite 330, Boston, MA 02111-1307,
GAS LISTING d:/software/ovi_2503a_s3trc/ovi_2503a_s3trc/plutommi/Customer/ResGenerator/gcctmp/cci0baaa.s 			page 105


  19:d:/software/ovi_2503a_s3trc/ovi_2503a_s3trc/Tools/MinGW/include/c++/3.3.1/bits/stl_construct.h **** // USA.
  20:d:/software/ovi_2503a_s3trc/ovi_2503a_s3trc/Tools/MinGW/include/c++/3.3.1/bits/stl_construct.h **** 
  21:d:/software/ovi_2503a_s3trc/ovi_2503a_s3trc/Tools/MinGW/include/c++/3.3.1/bits/stl_construct.h **** // As a special exception, you may use this file as part of a free software
  22:d:/software/ovi_2503a_s3trc/ovi_2503a_s3trc/Tools/MinGW/include/c++/3.3.1/bits/stl_construct.h **** // library without restriction.  Specifically, if other files instantiate
  23:d:/software/ovi_2503a_s3trc/ovi_2503a_s3trc/Tools/MinGW/include/c++/3.3.1/bits/stl_construct.h **** // templates or use macros or inline functions from this file, or you compile
  24:d:/software/ovi_2503a_s3trc/ovi_2503a_s3trc/Tools/MinGW/include/c++/3.3.1/bits/stl_construct.h **** // this file and link it with other files to produce an executable, this
  25:d:/software/ovi_2503a_s3trc/ovi_2503a_s3trc/Tools/MinGW/include/c++/3.3.1/bits/stl_construct.h **** // file does not by itself cause the resulting executable to be covered by
  26:d:/software/ovi_2503a_s3trc/ovi_2503a_s3trc/Tools/MinGW/include/c++/3.3.1/bits/stl_construct.h **** // the GNU General Public License.  This exception does not however
  27:d:/software/ovi_2503a_s3trc/ovi_2503a_s3trc/Tools/MinGW/include/c++/3.3.1/bits/stl_construct.h **** // invalidate any other reasons why the executable file might be covered by
  28:d:/software/ovi_2503a_s3trc/ovi_2503a_s3trc/Tools/MinGW/include/c++/3.3.1/bits/stl_construct.h **** // the GNU General Public License.
  29:d:/software/ovi_2503a_s3trc/ovi_2503a_s3trc/Tools/MinGW/include/c++/3.3.1/bits/stl_construct.h **** 
  30:d:/software/ovi_2503a_s3trc/ovi_2503a_s3trc/Tools/MinGW/include/c++/3.3.1/bits/stl_construct.h **** /*
  31:d:/software/ovi_2503a_s3trc/ovi_2503a_s3trc/Tools/MinGW/include/c++/3.3.1/bits/stl_construct.h ****  *
  32:d:/software/ovi_2503a_s3trc/ovi_2503a_s3trc/Tools/MinGW/include/c++/3.3.1/bits/stl_construct.h ****  * Copyright (c) 1994
  33:d:/software/ovi_2503a_s3trc/ovi_2503a_s3trc/Tools/MinGW/include/c++/3.3.1/bits/stl_construct.h ****  * Hewlett-Packard Company
  34:d:/software/ovi_2503a_s3trc/ovi_2503a_s3trc/Tools/MinGW/include/c++/3.3.1/bits/stl_construct.h ****  *
  35:d:/software/ovi_2503a_s3trc/ovi_2503a_s3trc/Tools/MinGW/include/c++/3.3.1/bits/stl_construct.h ****  * Permission to use, copy, modify, distribute and sell this software
  36:d:/software/ovi_2503a_s3trc/ovi_2503a_s3trc/Tools/MinGW/include/c++/3.3.1/bits/stl_construct.h ****  * and its documentation for any purpose is hereby granted without fee,
  37:d:/software/ovi_2503a_s3trc/ovi_2503a_s3trc/Tools/MinGW/include/c++/3.3.1/bits/stl_construct.h ****  * provided that the above copyright notice appear in all copies and
  38:d:/software/ovi_2503a_s3trc/ovi_2503a_s3trc/Tools/MinGW/include/c++/3.3.1/bits/stl_construct.h ****  * that both that copyright notice and this permission notice appear
  39:d:/software/ovi_2503a_s3trc/ovi_2503a_s3trc/Tools/MinGW/include/c++/3.3.1/bits/stl_construct.h ****  * in supporting documentation.  Hewlett-Packard Company makes no
  40:d:/software/ovi_2503a_s3trc/ovi_2503a_s3trc/Tools/MinGW/include/c++/3.3.1/bits/stl_construct.h ****  * representations about the suitability of this software for any
  41:d:/software/ovi_2503a_s3trc/ovi_2503a_s3trc/Tools/MinGW/include/c++/3.3.1/bits/stl_construct.h ****  * purpose.  It is provided "as is" without express or implied warranty.
  42:d:/software/ovi_2503a_s3trc/ovi_2503a_s3trc/Tools/MinGW/include/c++/3.3.1/bits/stl_construct.h ****  *
  43:d:/software/ovi_2503a_s3trc/ovi_2503a_s3trc/Tools/MinGW/include/c++/3.3.1/bits/stl_construct.h ****  *
  44:d:/software/ovi_2503a_s3trc/ovi_2503a_s3trc/Tools/MinGW/include/c++/3.3.1/bits/stl_construct.h ****  * Copyright (c) 1996,1997
  45:d:/software/ovi_2503a_s3trc/ovi_2503a_s3trc/Tools/MinGW/include/c++/3.3.1/bits/stl_construct.h ****  * Silicon Graphics Computer Systems, Inc.
  46:d:/software/ovi_2503a_s3trc/ovi_2503a_s3trc/Tools/MinGW/include/c++/3.3.1/bits/stl_construct.h ****  *
  47:d:/software/ovi_2503a_s3trc/ovi_2503a_s3trc/Tools/MinGW/include/c++/3.3.1/bits/stl_construct.h ****  * Permission to use, copy, modify, distribute and sell this software
  48:d:/software/ovi_2503a_s3trc/ovi_2503a_s3trc/Tools/MinGW/include/c++/3.3.1/bits/stl_construct.h ****  * and its documentation for any purpose is hereby granted without fee,
  49:d:/software/ovi_2503a_s3trc/ovi_2503a_s3trc/Tools/MinGW/include/c++/3.3.1/bits/stl_construct.h ****  * provided that the above copyright notice appear in all copies and
  50:d:/software/ovi_2503a_s3trc/ovi_2503a_s3trc/Tools/MinGW/include/c++/3.3.1/bits/stl_construct.h ****  * that both that copyright notice and this permission notice appear
  51:d:/software/ovi_2503a_s3trc/ovi_2503a_s3trc/Tools/MinGW/include/c++/3.3.1/bits/stl_construct.h ****  * in supporting documentation.  Silicon Graphics makes no
  52:d:/software/ovi_2503a_s3trc/ovi_2503a_s3trc/Tools/MinGW/include/c++/3.3.1/bits/stl_construct.h ****  * representations about the suitability of this software for any
  53:d:/software/ovi_2503a_s3trc/ovi_2503a_s3trc/Tools/MinGW/include/c++/3.3.1/bits/stl_construct.h ****  * purpose.  It is provided "as is" without express or implied warranty.
  54:d:/software/ovi_2503a_s3trc/ovi_2503a_s3trc/Tools/MinGW/include/c++/3.3.1/bits/stl_construct.h ****  */
  55:d:/software/ovi_2503a_s3trc/ovi_2503a_s3trc/Tools/MinGW/include/c++/3.3.1/bits/stl_construct.h **** 
  56:d:/software/ovi_2503a_s3trc/ovi_2503a_s3trc/Tools/MinGW/include/c++/3.3.1/bits/stl_construct.h **** /** @file stl_construct.h
  57:d:/software/ovi_2503a_s3trc/ovi_2503a_s3trc/Tools/MinGW/include/c++/3.3.1/bits/stl_construct.h ****  *  This is an internal header file, included by other library headers.
  58:d:/software/ovi_2503a_s3trc/ovi_2503a_s3trc/Tools/MinGW/include/c++/3.3.1/bits/stl_construct.h ****  *  You should not attempt to use it directly.
  59:d:/software/ovi_2503a_s3trc/ovi_2503a_s3trc/Tools/MinGW/include/c++/3.3.1/bits/stl_construct.h ****  */
  60:d:/software/ovi_2503a_s3trc/ovi_2503a_s3trc/Tools/MinGW/include/c++/3.3.1/bits/stl_construct.h **** 
  61:d:/software/ovi_2503a_s3trc/ovi_2503a_s3trc/Tools/MinGW/include/c++/3.3.1/bits/stl_construct.h **** #ifndef _CPP_BITS_STL_CONSTRUCT_H
  62:d:/software/ovi_2503a_s3trc/ovi_2503a_s3trc/Tools/MinGW/include/c++/3.3.1/bits/stl_construct.h **** #define _CPP_BITS_STL_CONSTRUCT_H 1
  63:d:/software/ovi_2503a_s3trc/ovi_2503a_s3trc/Tools/MinGW/include/c++/3.3.1/bits/stl_construct.h **** 
  64:d:/software/ovi_2503a_s3trc/ovi_2503a_s3trc/Tools/MinGW/include/c++/3.3.1/bits/stl_construct.h **** #include <bits/type_traits.h>
  65:d:/software/ovi_2503a_s3trc/ovi_2503a_s3trc/Tools/MinGW/include/c++/3.3.1/bits/stl_construct.h **** #include <new>
  66:d:/software/ovi_2503a_s3trc/ovi_2503a_s3trc/Tools/MinGW/include/c++/3.3.1/bits/stl_construct.h **** 
  67:d:/software/ovi_2503a_s3trc/ovi_2503a_s3trc/Tools/MinGW/include/c++/3.3.1/bits/stl_construct.h **** namespace std
  68:d:/software/ovi_2503a_s3trc/ovi_2503a_s3trc/Tools/MinGW/include/c++/3.3.1/bits/stl_construct.h **** {
  69:d:/software/ovi_2503a_s3trc/ovi_2503a_s3trc/Tools/MinGW/include/c++/3.3.1/bits/stl_construct.h ****   /**
  70:d:/software/ovi_2503a_s3trc/ovi_2503a_s3trc/Tools/MinGW/include/c++/3.3.1/bits/stl_construct.h ****    * @if maint
  71:d:/software/ovi_2503a_s3trc/ovi_2503a_s3trc/Tools/MinGW/include/c++/3.3.1/bits/stl_construct.h ****    * Constructs an object in existing memory by invoking an allocated
  72:d:/software/ovi_2503a_s3trc/ovi_2503a_s3trc/Tools/MinGW/include/c++/3.3.1/bits/stl_construct.h ****    * object's constructor with an initializer.
  73:d:/software/ovi_2503a_s3trc/ovi_2503a_s3trc/Tools/MinGW/include/c++/3.3.1/bits/stl_construct.h ****    * @endif
  74:d:/software/ovi_2503a_s3trc/ovi_2503a_s3trc/Tools/MinGW/include/c++/3.3.1/bits/stl_construct.h ****    */
  75:d:/software/ovi_2503a_s3trc/ovi_2503a_s3trc/Tools/MinGW/include/c++/3.3.1/bits/stl_construct.h ****   template <class _T1, class _T2>
GAS LISTING d:/software/ovi_2503a_s3trc/ovi_2503a_s3trc/plutommi/Customer/ResGenerator/gcctmp/cci0baaa.s 			page 106


  76:d:/software/ovi_2503a_s3trc/ovi_2503a_s3trc/Tools/MinGW/include/c++/3.3.1/bits/stl_construct.h ****     inline void
  77:d:/software/ovi_2503a_s3trc/ovi_2503a_s3trc/Tools/MinGW/include/c++/3.3.1/bits/stl_construct.h ****     _Construct(_T1* __p, const _T2& __value)
  78:d:/software/ovi_2503a_s3trc/ovi_2503a_s3trc/Tools/MinGW/include/c++/3.3.1/bits/stl_construct.h ****     { new (static_cast<void*>(__p)) _T1(__value); }
  79:d:/software/ovi_2503a_s3trc/ovi_2503a_s3trc/Tools/MinGW/include/c++/3.3.1/bits/stl_construct.h ****   
  80:d:/software/ovi_2503a_s3trc/ovi_2503a_s3trc/Tools/MinGW/include/c++/3.3.1/bits/stl_construct.h ****   /**
  81:d:/software/ovi_2503a_s3trc/ovi_2503a_s3trc/Tools/MinGW/include/c++/3.3.1/bits/stl_construct.h ****    * @if maint
  82:d:/software/ovi_2503a_s3trc/ovi_2503a_s3trc/Tools/MinGW/include/c++/3.3.1/bits/stl_construct.h ****    * Constructs an object in existing memory by invoking an allocated
  83:d:/software/ovi_2503a_s3trc/ovi_2503a_s3trc/Tools/MinGW/include/c++/3.3.1/bits/stl_construct.h ****    * object's default constructor (no initializers).
  84:d:/software/ovi_2503a_s3trc/ovi_2503a_s3trc/Tools/MinGW/include/c++/3.3.1/bits/stl_construct.h ****    * @endif
  85:d:/software/ovi_2503a_s3trc/ovi_2503a_s3trc/Tools/MinGW/include/c++/3.3.1/bits/stl_construct.h ****    */
  86:d:/software/ovi_2503a_s3trc/ovi_2503a_s3trc/Tools/MinGW/include/c++/3.3.1/bits/stl_construct.h ****   template <class _T1>
  87:d:/software/ovi_2503a_s3trc/ovi_2503a_s3trc/Tools/MinGW/include/c++/3.3.1/bits/stl_construct.h ****     inline void
  88:d:/software/ovi_2503a_s3trc/ovi_2503a_s3trc/Tools/MinGW/include/c++/3.3.1/bits/stl_construct.h ****     _Construct(_T1* __p)
  89:d:/software/ovi_2503a_s3trc/ovi_2503a_s3trc/Tools/MinGW/include/c++/3.3.1/bits/stl_construct.h ****     { new (static_cast<void*>(__p)) _T1(); }
  90:d:/software/ovi_2503a_s3trc/ovi_2503a_s3trc/Tools/MinGW/include/c++/3.3.1/bits/stl_construct.h **** 
  91:d:/software/ovi_2503a_s3trc/ovi_2503a_s3trc/Tools/MinGW/include/c++/3.3.1/bits/stl_construct.h ****   /**
  92:d:/software/ovi_2503a_s3trc/ovi_2503a_s3trc/Tools/MinGW/include/c++/3.3.1/bits/stl_construct.h ****    * @if maint
  93:d:/software/ovi_2503a_s3trc/ovi_2503a_s3trc/Tools/MinGW/include/c++/3.3.1/bits/stl_construct.h ****    * Destroy a range of objects with nontrivial destructors.  
  94:d:/software/ovi_2503a_s3trc/ovi_2503a_s3trc/Tools/MinGW/include/c++/3.3.1/bits/stl_construct.h ****    *
  95:d:/software/ovi_2503a_s3trc/ovi_2503a_s3trc/Tools/MinGW/include/c++/3.3.1/bits/stl_construct.h ****    * This is a helper function used only by _Destroy().
  96:d:/software/ovi_2503a_s3trc/ovi_2503a_s3trc/Tools/MinGW/include/c++/3.3.1/bits/stl_construct.h ****    * @endif
  97:d:/software/ovi_2503a_s3trc/ovi_2503a_s3trc/Tools/MinGW/include/c++/3.3.1/bits/stl_construct.h ****    */
  98:d:/software/ovi_2503a_s3trc/ovi_2503a_s3trc/Tools/MinGW/include/c++/3.3.1/bits/stl_construct.h ****   template <class _ForwardIterator>
  99:d:/software/ovi_2503a_s3trc/ovi_2503a_s3trc/Tools/MinGW/include/c++/3.3.1/bits/stl_construct.h ****     inline void
 100:d:/software/ovi_2503a_s3trc/ovi_2503a_s3trc/Tools/MinGW/include/c++/3.3.1/bits/stl_construct.h ****     __destroy_aux(_ForwardIterator __first, _ForwardIterator __last, __false_type)
 101:d:/software/ovi_2503a_s3trc/ovi_2503a_s3trc/Tools/MinGW/include/c++/3.3.1/bits/stl_construct.h ****     { for ( ; __first != __last; ++__first) _Destroy(&*__first); }
 102:d:/software/ovi_2503a_s3trc/ovi_2503a_s3trc/Tools/MinGW/include/c++/3.3.1/bits/stl_construct.h **** 
 103:d:/software/ovi_2503a_s3trc/ovi_2503a_s3trc/Tools/MinGW/include/c++/3.3.1/bits/stl_construct.h ****   /**
 104:d:/software/ovi_2503a_s3trc/ovi_2503a_s3trc/Tools/MinGW/include/c++/3.3.1/bits/stl_construct.h ****    * @if maint
 105:d:/software/ovi_2503a_s3trc/ovi_2503a_s3trc/Tools/MinGW/include/c++/3.3.1/bits/stl_construct.h ****    * Destroy a range of objects with trivial destructors.  Since the destructors
 106:d:/software/ovi_2503a_s3trc/ovi_2503a_s3trc/Tools/MinGW/include/c++/3.3.1/bits/stl_construct.h ****    * are trivial, there's nothing to do and hopefully this function will be
 107:d:/software/ovi_2503a_s3trc/ovi_2503a_s3trc/Tools/MinGW/include/c++/3.3.1/bits/stl_construct.h ****    * entirely optimized away.
 108:d:/software/ovi_2503a_s3trc/ovi_2503a_s3trc/Tools/MinGW/include/c++/3.3.1/bits/stl_construct.h ****    *
 109:d:/software/ovi_2503a_s3trc/ovi_2503a_s3trc/Tools/MinGW/include/c++/3.3.1/bits/stl_construct.h ****    * This is a helper function used only by _Destroy().
 110:d:/software/ovi_2503a_s3trc/ovi_2503a_s3trc/Tools/MinGW/include/c++/3.3.1/bits/stl_construct.h ****    * @endif
 111:d:/software/ovi_2503a_s3trc/ovi_2503a_s3trc/Tools/MinGW/include/c++/3.3.1/bits/stl_construct.h ****    */
 112:d:/software/ovi_2503a_s3trc/ovi_2503a_s3trc/Tools/MinGW/include/c++/3.3.1/bits/stl_construct.h ****   template <class _ForwardIterator> 
 113:d:/software/ovi_2503a_s3trc/ovi_2503a_s3trc/Tools/MinGW/include/c++/3.3.1/bits/stl_construct.h ****     inline void
 114:d:/software/ovi_2503a_s3trc/ovi_2503a_s3trc/Tools/MinGW/include/c++/3.3.1/bits/stl_construct.h ****     __destroy_aux(_ForwardIterator, _ForwardIterator, __true_type)
 115:d:/software/ovi_2503a_s3trc/ovi_2503a_s3trc/Tools/MinGW/include/c++/3.3.1/bits/stl_construct.h ****     { }
 116:d:/software/ovi_2503a_s3trc/ovi_2503a_s3trc/Tools/MinGW/include/c++/3.3.1/bits/stl_construct.h **** 
 117:d:/software/ovi_2503a_s3trc/ovi_2503a_s3trc/Tools/MinGW/include/c++/3.3.1/bits/stl_construct.h ****   /**
 118:d:/software/ovi_2503a_s3trc/ovi_2503a_s3trc/Tools/MinGW/include/c++/3.3.1/bits/stl_construct.h ****    * @if maint
 119:d:/software/ovi_2503a_s3trc/ovi_2503a_s3trc/Tools/MinGW/include/c++/3.3.1/bits/stl_construct.h ****    * Destroy the object pointed to by a pointer type.
 120:d:/software/ovi_2503a_s3trc/ovi_2503a_s3trc/Tools/MinGW/include/c++/3.3.1/bits/stl_construct.h ****    * @endif
 121:d:/software/ovi_2503a_s3trc/ovi_2503a_s3trc/Tools/MinGW/include/c++/3.3.1/bits/stl_construct.h ****    */
 122:d:/software/ovi_2503a_s3trc/ovi_2503a_s3trc/Tools/MinGW/include/c++/3.3.1/bits/stl_construct.h ****   template <class _Tp>
 123:d:/software/ovi_2503a_s3trc/ovi_2503a_s3trc/Tools/MinGW/include/c++/3.3.1/bits/stl_construct.h ****     inline void
 124:d:/software/ovi_2503a_s3trc/ovi_2503a_s3trc/Tools/MinGW/include/c++/3.3.1/bits/stl_construct.h ****     _Destroy(_Tp* __pointer)
 125:d:/software/ovi_2503a_s3trc/ovi_2503a_s3trc/Tools/MinGW/include/c++/3.3.1/bits/stl_construct.h ****     { __pointer->~_Tp(); }
 126:d:/software/ovi_2503a_s3trc/ovi_2503a_s3trc/Tools/MinGW/include/c++/3.3.1/bits/stl_construct.h ****   
 127:d:/software/ovi_2503a_s3trc/ovi_2503a_s3trc/Tools/MinGW/include/c++/3.3.1/bits/stl_construct.h ****   /**
 128:d:/software/ovi_2503a_s3trc/ovi_2503a_s3trc/Tools/MinGW/include/c++/3.3.1/bits/stl_construct.h ****    * @if maint
 129:d:/software/ovi_2503a_s3trc/ovi_2503a_s3trc/Tools/MinGW/include/c++/3.3.1/bits/stl_construct.h ****    * Destroy a range of objects.  If the value_type of the object has
 130:d:/software/ovi_2503a_s3trc/ovi_2503a_s3trc/Tools/MinGW/include/c++/3.3.1/bits/stl_construct.h ****    * a trivial destructor, the compiler should optimize all of this
 131:d:/software/ovi_2503a_s3trc/ovi_2503a_s3trc/Tools/MinGW/include/c++/3.3.1/bits/stl_construct.h ****    * away, otherwise the objects' destructors must be invoked.
 132:d:/software/ovi_2503a_s3trc/ovi_2503a_s3trc/Tools/MinGW/include/c++/3.3.1/bits/stl_construct.h ****    * @endif
GAS LISTING d:/software/ovi_2503a_s3trc/ovi_2503a_s3trc/plutommi/Customer/ResGenerator/gcctmp/cci0baaa.s 			page 107


 133:d:/software/ovi_2503a_s3trc/ovi_2503a_s3trc/Tools/MinGW/include/c++/3.3.1/bits/stl_construct.h ****    */
 134:d:/software/ovi_2503a_s3trc/ovi_2503a_s3trc/Tools/MinGW/include/c++/3.3.1/bits/stl_construct.h ****   template <class _ForwardIterator>
 135:d:/software/ovi_2503a_s3trc/ovi_2503a_s3trc/Tools/MinGW/include/c++/3.3.1/bits/stl_construct.h ****     inline void
 136:d:/software/ovi_2503a_s3trc/ovi_2503a_s3trc/Tools/MinGW/include/c++/3.3.1/bits/stl_construct.h ****     _Destroy(_ForwardIterator __first, _ForwardIterator __last)
 137:d:/software/ovi_2503a_s3trc/ovi_2503a_s3trc/Tools/MinGW/include/c++/3.3.1/bits/stl_construct.h ****     {
 5526              	LM205:
 5527 0000 55       		pushl	%ebp
 5528 0001 89E5     		movl	%esp, %ebp
 5529 0003 83EC18   		subl	$24, %esp
 138:d:/software/ovi_2503a_s3trc/ovi_2503a_s3trc/Tools/MinGW/include/c++/3.3.1/bits/stl_construct.h ****       typedef typename iterator_traits<_ForwardIterator>::value_type
 139:d:/software/ovi_2503a_s3trc/ovi_2503a_s3trc/Tools/MinGW/include/c++/3.3.1/bits/stl_construct.h ****                        _Value_type;
 140:d:/software/ovi_2503a_s3trc/ovi_2503a_s3trc/Tools/MinGW/include/c++/3.3.1/bits/stl_construct.h ****       typedef typename __type_traits<_Value_type>::has_trivial_destructor
 141:d:/software/ovi_2503a_s3trc/ovi_2503a_s3trc/Tools/MinGW/include/c++/3.3.1/bits/stl_construct.h ****                        _Has_trivial_destructor;
 142:d:/software/ovi_2503a_s3trc/ovi_2503a_s3trc/Tools/MinGW/include/c++/3.3.1/bits/stl_construct.h **** 
 143:d:/software/ovi_2503a_s3trc/ovi_2503a_s3trc/Tools/MinGW/include/c++/3.3.1/bits/stl_construct.h ****       __destroy_aux(__first, __last, _Has_trivial_destructor());
 5531              	LM206:
 5532              	LBB50:
 5533 0006 C6442408 		movb	$0, 8(%esp)
 5533      00
 5534 000b 8B450C   		movl	12(%ebp), %eax
 5535 000e 89442404 		movl	%eax, 4(%esp)
 5536 0012 8B4508   		movl	8(%ebp), %eax
 5537 0015 890424   		movl	%eax, (%esp)
 5538 0018 E8000000 		call	__ZSt13__destroy_auxIPN10ThreadPool10ThreadDataEEvT_S3_12__false_type
 5538      00
 5539 001d C9       		leave
 5540 001e C3       		ret
 5541              	LBE50:
 5542              	Lscope33:
 5546              	.globl __ZTV10ThreadPool
 5547 001f 90       		.section	.rdata$_ZTV10ThreadPool,""
 5548              		.linkonce same_size
 5549              		.align 8
 5550              	__ZTV10ThreadPool:
 5551 0000 00000000 		.long	0
 5552 0004 00000000 		.long	__ZTI10ThreadPool
 5553 0008 90050000 		.long	__ZN10ThreadPoolD1Ev
 5554 000c B0060000 		.long	__ZN10ThreadPoolD0Ev
 5556              		.section	.text$_ZNSt19_List_iterator_base7_M_incrEv,"x"
 5557              		.linkonce discard
 5558              		.align 2
 5561              	.globl __ZNSt19_List_iterator_base7_M_incrEv
 5563              	__ZNSt19_List_iterator_base7_M_incrEv:
 5565              	Ltext10:
 5567              	LM207:
 5568 0000 55       		pushl	%ebp
 5569 0001 89E5     		movl	%esp, %ebp
 5571              	LM208:
 5572              	LBB51:
 5573 0003 8B5508   		movl	8(%ebp), %edx
 5574 0006 8B4508   		movl	8(%ebp), %eax
 5575 0009 8B00     		movl	(%eax), %eax
 5576 000b 8B00     		movl	(%eax), %eax
 5577 000d 8902     		movl	%eax, (%edx)
 5578 000f 5D       		popl	%ebp
 5579 0010 C3       		ret
 5580              	LBE51:
GAS LISTING d:/software/ovi_2503a_s3trc/ovi_2503a_s3trc/plutommi/Customer/ResGenerator/gcctmp/cci0baaa.s 			page 108


 5581              	Lscope34:
 5583 0011 909090   		.section	.text$_ZNKSt19_List_iterator_baseeqERKS_,"x"
 5584              		.linkonce discard
 5585              		.align 2
 5589              	.globl __ZNKSt19_List_iterator_baseeqERKS_
 5591              	__ZNKSt19_List_iterator_baseeqERKS_:
 5593              	LM209:
 5594 0000 55       		pushl	%ebp
 5595 0001 89E5     		movl	%esp, %ebp
 5597              	LM210:
 5598              	LBB52:
 5599 0003 8B4508   		movl	8(%ebp), %eax
 5600 0006 8B550C   		movl	12(%ebp), %edx
 5601 0009 8B00     		movl	(%eax), %eax
 5602 000b 3B02     		cmpl	(%edx), %eax
 5603 000d 0F94C0   		sete	%al
 5604 0010 0FB6C0   		movzbl	%al, %eax
 5605 0013 5D       		popl	%ebp
 5606 0014 C3       		ret
 5607              	LBE52:
 5608              	Lscope35:
 5610 0015 909090   		.section	.text$_ZNKSt19_List_iterator_baseneERKS_,"x"
 5611              		.linkonce discard
 5612              		.align 2
 5616              	.globl __ZNKSt19_List_iterator_baseneERKS_
 5618              	__ZNKSt19_List_iterator_baseneERKS_:
 5620              	LM211:
 5621 0000 55       		pushl	%ebp
 5622 0001 89E5     		movl	%esp, %ebp
 5624              	LM212:
 5625              	LBB53:
 5626 0003 8B4508   		movl	8(%ebp), %eax
 5627 0006 8B550C   		movl	12(%ebp), %edx
 5628 0009 8B00     		movl	(%eax), %eax
 5629 000b 3B02     		cmpl	(%edx), %eax
 5630 000d 0F95C0   		setne	%al
 5631 0010 0FB6C0   		movzbl	%al, %eax
 5632 0013 5D       		popl	%ebp
 5633 0014 C3       		ret
 5634              	LBE53:
 5635              	Lscope36:
 5637 0015 909090   		.section	.text$_ZN10ThreadPool15CheckThreadStopEv,"x"
 5638              		.linkonce discard
 5639              		.align 2
 5642              	.globl __ZN10ThreadPool15CheckThreadStopEv
 5644              	__ZN10ThreadPool15CheckThreadStopEv:
 5646              	Ltext11:
   1:../../mmi/resource/inc/ThreadPool.h **** #pragma once
   2:../../mmi/resource/inc/ThreadPool.h **** // Filename     : ThreadPool.h
   3:../../mmi/resource/inc/ThreadPool.h **** // Author       : Siddharth Barman
   4:../../mmi/resource/inc/ThreadPool.h **** // Date         : 18 Sept 2005
   5:../../mmi/resource/inc/ThreadPool.h **** // Refactored   : 29 Sept 2010 by Greg Labute
   6:../../mmi/resource/inc/ThreadPool.h **** /* Description  : Defines ThreadPool class. How to use the Thread Pool. First
   7:../../mmi/resource/inc/ThreadPool.h ****                 create a ThreadPool object. The default constructor will
   8:../../mmi/resource/inc/ThreadPool.h ****                 create 10 threads in the pool. To defer creation of the pool
   9:../../mmi/resource/inc/ThreadPool.h ****                 pass a pool size of 0 to the constructor.
  10:../../mmi/resource/inc/ThreadPool.h **** 
GAS LISTING d:/software/ovi_2503a_s3trc/ovi_2503a_s3trc/plutommi/Customer/ResGenerator/gcctmp/cci0baaa.s 			page 109


  11:../../mmi/resource/inc/ThreadPool.h ****                 You can use two approaches while working with the thread
  12:../../mmi/resource/inc/ThreadPool.h ****                 pool.
  13:../../mmi/resource/inc/ThreadPool.h **** 
  14:../../mmi/resource/inc/ThreadPool.h ****                 1. To make use of the thread pool, you will need to first
  15:../../mmi/resource/inc/ThreadPool.h ****                 create a function having the following signature
  16:../../mmi/resource/inc/ThreadPool.h ****                 DWORD WINAPI ThreadProc(LPVOID); Check the CreateThread
  17:../../mmi/resource/inc/ThreadPool.h ****                 documentation in MSDN to get details. Add this function to
  18:../../mmi/resource/inc/ThreadPool.h ****                 the pool by calling the Run() method and pass in the function
  19:../../mmi/resource/inc/ThreadPool.h ****                 name and a void* pointer to any object you want. The pool will
  20:../../mmi/resource/inc/ThreadPool.h ****                 pick up the function passed into Run() method and execute as
  21:../../mmi/resource/inc/ThreadPool.h ****                 threads in the pool become free.
  22:../../mmi/resource/inc/ThreadPool.h **** 
  23:../../mmi/resource/inc/ThreadPool.h ****                 2. Instead of using a function pointer, you can use an object
  24:../../mmi/resource/inc/ThreadPool.h ****                 of a class which derives from IRunObject. Pass a pointer to
  25:../../mmi/resource/inc/ThreadPool.h ****                 this object in the Run() method of the thread pool. As threads
  26:../../mmi/resource/inc/ThreadPool.h ****                 become free, the thread pool will call the Run() method of you
  27:../../mmi/resource/inc/ThreadPool.h ****                 r class. You will also need to write a body for AutoDelete() f
  28:../../mmi/resource/inc/ThreadPool.h ****                 unction. If the return value is true, the thread pool will use
  29:../../mmi/resource/inc/ThreadPool.h ****                 'delete' to free the object you pass in. If it returns false,
  30:../../mmi/resource/inc/ThreadPool.h ****                 the thread pool will not do anything else to the object after
  31:../../mmi/resource/inc/ThreadPool.h ****                 calling the Run() function.
  32:../../mmi/resource/inc/ThreadPool.h **** 
  33:../../mmi/resource/inc/ThreadPool.h ****                 It is possible to destroy the pool whenever you want by
  34:../../mmi/resource/inc/ThreadPool.h ****                 calling the Destroy() method. If you want to create a new pool
  35:../../mmi/resource/inc/ThreadPool.h ****                 call the Create() method.
  36:../../mmi/resource/inc/ThreadPool.h **** 
  37:../../mmi/resource/inc/ThreadPool.h ****                 If this code works, it was written by Siddharth Barman, email
  38:../../mmi/resource/inc/ThreadPool.h ****                 siddharth_b@yahoo.com.
  39:../../mmi/resource/inc/ThreadPool.h ****                 _____ _                        _  ______           _
  40:../../mmi/resource/inc/ThreadPool.h ****                 |_   _| |                      | | | ___ \         | |
  41:../../mmi/resource/inc/ThreadPool.h ****                 | | | |__  _ __ ___  __ _  __| | | |_/ /__   ___ | |
  42:../../mmi/resource/inc/ThreadPool.h ****                 | | | '_ \| '__/ _ \/ _` |/ _` | |  __/ _ \ / _ \| |
  43:../../mmi/resource/inc/ThreadPool.h ****                 | | | | | | | |  __/ (_| | (_| | | | | (_) | (_) | |
  44:../../mmi/resource/inc/ThreadPool.h ****                 \_/ |_| |_|_|  \___|\__,_|\__,_| \_|  \___/ \___/|_|
  45:../../mmi/resource/inc/ThreadPool.h **** ------------------------------------------------------------------------------*/
  46:../../mmi/resource/inc/ThreadPool.h **** 
  47:../../mmi/resource/inc/ThreadPool.h **** #include <list>
  48:../../mmi/resource/inc/ThreadPool.h **** #include <vector>
  49:../../mmi/resource/inc/ThreadPool.h **** 
  50:../../mmi/resource/inc/ThreadPool.h **** class ThreadPool
  51:../../mmi/resource/inc/ThreadPool.h **** {
  52:../../mmi/resource/inc/ThreadPool.h **** public:
  53:../../mmi/resource/inc/ThreadPool.h ****     // PoolSize is the number of worker threads that will be created.
  54:../../mmi/resource/inc/ThreadPool.h ****     ThreadPool(int poolSize = 10, int waitTimeForThreadsToCompleteMS = 5000);
  55:../../mmi/resource/inc/ThreadPool.h ****     virtual ~ThreadPool();
  56:../../mmi/resource/inc/ThreadPool.h **** 
  57:../../mmi/resource/inc/ThreadPool.h ****     // Use this method to create the worker threads if you specified a poolSize
  58:../../mmi/resource/inc/ThreadPool.h ****     // of 0 in the constructor, or if you want to change the number of worker threads.
  59:../../mmi/resource/inc/ThreadPool.h ****     // Returns: true if no error.
  60:../../mmi/resource/inc/ThreadPool.h ****     bool Create(int poolSize);
  61:../../mmi/resource/inc/ThreadPool.h **** 
  62:../../mmi/resource/inc/ThreadPool.h ****     // Use this method to destroy the worker threads. The destructor of
  63:../../mmi/resource/inc/ThreadPool.h ****     // this class will destroy the threads automatically.
  64:../../mmi/resource/inc/ThreadPool.h ****     void Destroy();
  65:../../mmi/resource/inc/ThreadPool.h **** 
  66:../../mmi/resource/inc/ThreadPool.h ****     // How many worker threads are in the pool?
  67:../../mmi/resource/inc/ThreadPool.h ****     int GetPoolSize() { return m_threads.size(); }
GAS LISTING d:/software/ovi_2503a_s3trc/ovi_2503a_s3trc/plutommi/Customer/ResGenerator/gcctmp/cci0baaa.s 			page 110


  68:../../mmi/resource/inc/ThreadPool.h **** 
  69:../../mmi/resource/inc/ThreadPool.h ****     // This decides whether a job is added to the front or back of the queue.
  70:../../mmi/resource/inc/ThreadPool.h ****     enum ThreadPriority { High, Low };
  71:../../mmi/resource/inc/ThreadPool.h **** 
  72:../../mmi/resource/inc/ThreadPool.h ****     // Run a job
  73:../../mmi/resource/inc/ThreadPool.h ****     void Run(LPTHREAD_START_ROUTINE pFunc, LPVOID pData, ThreadPriority priority = Low)
  74:../../mmi/resource/inc/ThreadPool.h ****         { AddJobToQueue(pFunc, pData, NULL, priority); }
  75:../../mmi/resource/inc/ThreadPool.h ****     struct IRunObject
  76:../../mmi/resource/inc/ThreadPool.h ****     {
  77:../../mmi/resource/inc/ThreadPool.h ****         virtual ~IRunObject() {}
  78:../../mmi/resource/inc/ThreadPool.h ****         virtual void Run() = 0;
  79:../../mmi/resource/inc/ThreadPool.h ****         virtual bool AutoDelete() = 0;
  80:../../mmi/resource/inc/ThreadPool.h ****     };
  81:../../mmi/resource/inc/ThreadPool.h ****     void Run(IRunObject* job, ThreadPriority priority = Low)
  82:../../mmi/resource/inc/ThreadPool.h ****         { AddJobToQueue(NULL, NULL, job, priority); }
  83:../../mmi/resource/inc/ThreadPool.h **** 
  84:../../mmi/resource/inc/ThreadPool.h ****     // This is function expected to be called by thread functions or IRunObject
  85:../../mmi/resource/inc/ThreadPool.h ****     // derived. The expectation is that the code will check this 'property' of
  86:../../mmi/resource/inc/ThreadPool.h ****     // the pool and stop its processing as soon as possible.
  87:../../mmi/resource/inc/ThreadPool.h ****     bool CheckThreadStop()
  88:../../mmi/resource/inc/ThreadPool.h ****     { return WaitForSingleObject(m_hNotifyShutdown, 0) != WAIT_TIMEOUT; }
 5648              	LM213:
 5649 0000 55       		pushl	%ebp
 5650 0001 89E5     		movl	%esp, %ebp
 5651 0003 83EC18   		subl	$24, %esp
 5653              	LM214:
 5654              	LBB54:
 5655 0006 C7442404 		movl	$0, 4(%esp)
 5655      00000000 
 5656 000e 8B4508   		movl	8(%ebp), %eax
 5657 0011 8B4018   		movl	24(%eax), %eax
 5658 0014 890424   		movl	%eax, (%esp)
 5659 0017 E8000000 		call	_WaitForSingleObject@8
 5659      00
 5660 001c 83EC08   		subl	$8, %esp
 5661 001f 8945FC   		movl	%eax, -4(%ebp)
 5662 0022 817DFC02 		cmpl	$258, -4(%ebp)
 5662      010000
 5663 0029 0F95C0   		setne	%al
 5664 002c 0FB6C0   		movzbl	%al, %eax
 5665 002f 8945FC   		movl	%eax, -4(%ebp)
 5666 0032 8B45FC   		movl	-4(%ebp), %eax
 5667 0035 C9       		leave
 5668 0036 C3       		ret
 5669              	LBE54:
 5670              	Lscope37:
 5672 0037 90       		.section	.text$_ZNSt4listIN10ThreadPool7JobDataESaIS1_EEC1ERKS2_,"x"
 5673              		.linkonce discard
 5674              		.align 2
 5678              	.globl __ZNSt4listIN10ThreadPool7JobDataESaIS1_EEC1ERKS2_
 5680              	__ZNSt4listIN10ThreadPool7JobDataESaIS1_EEC1ERKS2_:
 5682              	Ltext12:
 5684              	LM215:
 5685 0000 55       		pushl	%ebp
 5686 0001 89E5     		movl	%esp, %ebp
 5687 0003 83EC08   		subl	$8, %esp
 5689              	LM216:
GAS LISTING d:/software/ovi_2503a_s3trc/ovi_2503a_s3trc/plutommi/Customer/ResGenerator/gcctmp/cci0baaa.s 			page 111


 5690              	LBB55:
 5691 0006 8B450C   		movl	12(%ebp), %eax
 5692 0009 89442404 		movl	%eax, 4(%esp)
 5693 000d 8B4508   		movl	8(%ebp), %eax
 5694 0010 890424   		movl	%eax, (%esp)
 5695 0013 E8000000 		call	__ZNSt10_List_baseIN10ThreadPool7JobDataESaIS1_EEC2ERKS2_
 5695      00
 5696 0018 C9       		leave
 5697 0019 C3       		ret
 5698              	L212:
 5699              	L211:
 5700              	LBE55:
 5701              	Lscope38:
 5703 001a 9090     		.section	.text$_ZNSt10_List_baseIN10ThreadPool7JobDataESaIS1_EEC2ERKS2_,"x"
 5704              		.linkonce discard
 5705              		.align 2
 5709              	.globl __ZNSt10_List_baseIN10ThreadPool7JobDataESaIS1_EEC2ERKS2_
 5711              	__ZNSt10_List_baseIN10ThreadPool7JobDataESaIS1_EEC2ERKS2_:
 5713              	LM217:
 5714 0000 55       		pushl	%ebp
 5715 0001 89E5     		movl	%esp, %ebp
 5716 0003 53       		pushl	%ebx
 5717 0004 83EC14   		subl	$20, %esp
 5719              	LM218:
 5720              	LBB56:
 5721 0007 8B450C   		movl	12(%ebp), %eax
 5722 000a 89442404 		movl	%eax, 4(%esp)
 5723 000e 8B4508   		movl	8(%ebp), %eax
 5724 0011 890424   		movl	%eax, (%esp)
 5725 0014 E8000000 		call	__ZNSt16_List_alloc_baseIN10ThreadPool7JobDataESaIS1_ELb1EEC2ERKS2_
 5725      00
 5727              	LM219:
 5728 0019 8B5D08   		movl	8(%ebp), %ebx
 5729 001c 8B4508   		movl	8(%ebp), %eax
 5730 001f 890424   		movl	%eax, (%esp)
 5731 0022 E8000000 		call	__ZNSt16_List_alloc_baseIN10ThreadPool7JobDataESaIS1_ELb1EE11_M_get_nodeEv
 5731      00
 5732 0027 8903     		movl	%eax, (%ebx)
 5734              	LM220:
 5735 0029 8B4508   		movl	8(%ebp), %eax
 5736 002c 8B10     		movl	(%eax), %edx
 5737 002e 8B4508   		movl	8(%ebp), %eax
 5738 0031 8B00     		movl	(%eax), %eax
 5739 0033 8902     		movl	%eax, (%edx)
 5741              	LM221:
 5742 0035 8B4508   		movl	8(%ebp), %eax
 5743 0038 8B10     		movl	(%eax), %edx
 5744 003a 8B4508   		movl	8(%ebp), %eax
 5745 003d 8B00     		movl	(%eax), %eax
 5746 003f 894204   		movl	%eax, 4(%edx)
 5747 0042 83C414   		addl	$20, %esp
 5748 0045 5B       		popl	%ebx
 5749 0046 5D       		popl	%ebp
 5750 0047 C3       		ret
 5751              	LBE56:
 5752              	Lscope39:
 5754              		.section	.text$_ZNSt16_List_alloc_baseIN10ThreadPool7JobDataESaIS1_ELb1EEC2ERKS2_,"x"
GAS LISTING d:/software/ovi_2503a_s3trc/ovi_2503a_s3trc/plutommi/Customer/ResGenerator/gcctmp/cci0baaa.s 			page 112


 5755              		.linkonce discard
 5756              		.align 2
 5759              	.globl __ZNSt16_List_alloc_baseIN10ThreadPool7JobDataESaIS1_ELb1EEC2ERKS2_
 5761              	__ZNSt16_List_alloc_baseIN10ThreadPool7JobDataESaIS1_ELb1EEC2ERKS2_:
 5763              	LM222:
 5764 0000 55       		pushl	%ebp
 5765 0001 89E5     		movl	%esp, %ebp
 5767              	LM223:
 5768 0003 5D       		popl	%ebp
 5769 0004 C3       		ret
 5770              	Lscope40:
 5772 0005 909090   		.section	.text$_ZNSt16_List_alloc_baseIN10ThreadPool7JobDataESaIS1_ELb1EE11_M_get_nodeEv,"x"
 5773              		.linkonce discard
 5774              		.align 2
 5777              	.globl __ZNSt16_List_alloc_baseIN10ThreadPool7JobDataESaIS1_ELb1EE11_M_get_nodeEv
 5779              	__ZNSt16_List_alloc_baseIN10ThreadPool7JobDataESaIS1_ELb1EE11_M_get_nodeEv:
 5781              	LM224:
 5782 0000 55       		pushl	%ebp
 5783 0001 89E5     		movl	%esp, %ebp
 5784 0003 83EC08   		subl	$8, %esp
 5786              	LM225:
 5787              	LBB57:
 5788 0006 C7042401 		movl	$1, (%esp)
 5788      000000
 5789 000d E8000000 		call	__ZNSt14__simple_allocISt10_List_nodeIN10ThreadPool7JobDataEESt24__default_alloc_templateILb1
 5789      00
 5790 0012 C9       		leave
 5791 0013 C3       		ret
 5792              	LBE57:
 5793              	Lscope41:
 5795              		.section	.text$_ZNSt14__simple_allocISt10_List_nodeIN10ThreadPool7JobDataEESt24__default_alloc_tem
 5796              		.linkonce discard
 5797              		.align 2
 5800              	.globl __ZNSt14__simple_allocISt10_List_nodeIN10ThreadPool7JobDataEESt24__default_alloc_templateILb
 5802              	__ZNSt14__simple_allocISt10_List_nodeIN10ThreadPool7JobDataEESt24__default_alloc_templateILb1ELi0EE
 5804              	Ltext13:
 5806              	LM226:
 5807 0000 55       		pushl	%ebp
 5808 0001 89E5     		movl	%esp, %ebp
 5809 0003 83EC08   		subl	$8, %esp
 5811              	LM227:
 5812              	LBB58:
 5813 0006 C745FC00 		movl	$0, -4(%ebp)
 5813      000000
 5815              	LM228:
 5816 000d 837D0800 		cmpl	$0, 8(%ebp)
 5817 0011 741C     		je	L218
 5819              	LM229:
 5820 0013 8B4508   		movl	8(%ebp), %eax
 5821 0016 89C2     		movl	%eax, %edx
 5822 0018 C1E202   		sall	$2, %edx
 5823 001b 01C2     		addl	%eax, %edx
 5824 001d 8D049500 		leal	0(,%edx,4), %eax
 5824      000000
 5825 0024 890424   		movl	%eax, (%esp)
 5826 0027 E8000000 		call	__ZNSt24__default_alloc_templateILb1ELi0EE8allocateEj
 5826      00
GAS LISTING d:/software/ovi_2503a_s3trc/ovi_2503a_s3trc/plutommi/Customer/ResGenerator/gcctmp/cci0baaa.s 			page 113


 5827 002c 8945FC   		movl	%eax, -4(%ebp)
 5828              	L218:
 5830              	LM230:
 5831 002f 8B45FC   		movl	-4(%ebp), %eax
 5832 0032 C9       		leave
 5833 0033 C3       		ret
 5834              	LBE58:
 5838              	Lscope42:
 5840              		.section	.text$_ZNSt10_List_baseIN10ThreadPool7JobDataESaIS1_EED2Ev,"x"
 5841              		.linkonce discard
 5842              		.align 2
 5845              	.globl __ZNSt10_List_baseIN10ThreadPool7JobDataESaIS1_EED2Ev
 5847              	__ZNSt10_List_baseIN10ThreadPool7JobDataESaIS1_EED2Ev:
 5849              	Ltext14:
 5851              	LM231:
 5852 0000 55       		pushl	%ebp
 5853 0001 89E5     		movl	%esp, %ebp
 5854 0003 83EC08   		subl	$8, %esp
 5856              	LM232:
 5857              	LBB59:
 5858 0006 8B4508   		movl	8(%ebp), %eax
 5859 0009 890424   		movl	%eax, (%esp)
 5860 000c E8000000 		call	__ZNSt10_List_baseIN10ThreadPool7JobDataESaIS1_EE7__clearEv
 5860      00
 5862              	LM233:
 5863 0011 8B4508   		movl	8(%ebp), %eax
 5864 0014 8B00     		movl	(%eax), %eax
 5865 0016 89442404 		movl	%eax, 4(%esp)
 5866 001a 8B4508   		movl	8(%ebp), %eax
 5867 001d 890424   		movl	%eax, (%esp)
 5868 0020 E8000000 		call	__ZNSt16_List_alloc_baseIN10ThreadPool7JobDataESaIS1_ELb1EE11_M_put_nodeEPSt10_List_nodeIS1_E
 5868      00
 5869 0025 C9       		leave
 5870 0026 C3       		ret
 5871              	LBE59:
 5872              	Lscope43:
 5874 0027 90       		.section	.text$_ZNSt16_List_alloc_baseIN10ThreadPool7JobDataESaIS1_ELb1EE11_M_put_nodeEPSt10_List_
 5875              		.linkonce discard
 5876              		.align 2
 5880              	.globl __ZNSt16_List_alloc_baseIN10ThreadPool7JobDataESaIS1_ELb1EE11_M_put_nodeEPSt10_List_nodeIS1_
 5882              	__ZNSt16_List_alloc_baseIN10ThreadPool7JobDataESaIS1_ELb1EE11_M_put_nodeEPSt10_List_nodeIS1_E:
 5884              	LM234:
 5885 0000 55       		pushl	%ebp
 5886 0001 89E5     		movl	%esp, %ebp
 5887 0003 83EC08   		subl	$8, %esp
 5889              	LM235:
 5890              	LBB60:
 5891 0006 C7442404 		movl	$1, 4(%esp)
 5891      01000000 
 5892 000e 8B450C   		movl	12(%ebp), %eax
 5893 0011 890424   		movl	%eax, (%esp)
 5894 0014 E8000000 		call	__ZNSt14__simple_allocISt10_List_nodeIN10ThreadPool7JobDataEESt24__default_alloc_templateILb1
 5894      00
 5895 0019 C9       		leave
 5896 001a C3       		ret
 5897              	LBE60:
 5898              	Lscope44:
GAS LISTING d:/software/ovi_2503a_s3trc/ovi_2503a_s3trc/plutommi/Customer/ResGenerator/gcctmp/cci0baaa.s 			page 114


 5900 001b 90       		.section	.text$_ZNSt14__simple_allocISt10_List_nodeIN10ThreadPool7JobDataEESt24__default_alloc_tem
 5901              		.linkonce discard
 5902              		.align 2
 5906              	.globl __ZNSt14__simple_allocISt10_List_nodeIN10ThreadPool7JobDataEESt24__default_alloc_templateILb
 5908              	__ZNSt14__simple_allocISt10_List_nodeIN10ThreadPool7JobDataEESt24__default_alloc_templateILb1ELi0EE
 5910              	Ltext15:
 5912              	LM236:
 5913 0000 55       		pushl	%ebp
 5914 0001 89E5     		movl	%esp, %ebp
 5915 0003 83EC08   		subl	$8, %esp
 5917              	LM237:
 5918              	LBB61:
 5919 0006 837D0C00 		cmpl	$0, 12(%ebp)
 5920 000a 741C     		je	L223
 5921 000c 8B550C   		movl	12(%ebp), %edx
 5922 000f 89D0     		movl	%edx, %eax
 5923 0011 C1E002   		sall	$2, %eax
 5924 0014 01D0     		addl	%edx, %eax
 5925 0016 C1E002   		sall	$2, %eax
 5926 0019 89442404 		movl	%eax, 4(%esp)
 5927 001d 8B4508   		movl	8(%ebp), %eax
 5928 0020 890424   		movl	%eax, (%esp)
 5929 0023 E8000000 		call	__ZNSt24__default_alloc_templateILb1ELi0EE10deallocateEPvj
 5929      00
 5930              	L223:
 5931 0028 C9       		leave
 5932 0029 C3       		ret
 5933              	LBE61:
 5934              	Lscope45:
 5936 002a 9090     		.section	.text$_ZNSt10_List_baseIN10ThreadPool7JobDataESaIS1_EE7__clearEv,"x"
 5937              		.linkonce discard
 5938              		.align 2
 5941              	.globl __ZNSt10_List_baseIN10ThreadPool7JobDataESaIS1_EE7__clearEv
 5943              	__ZNSt10_List_baseIN10ThreadPool7JobDataESaIS1_EE7__clearEv:
 5945              	Ltext16:
   1:d:/software/ovi_2503a_s3trc/ovi_2503a_s3trc/Tools/MinGW/include/c++/3.3.1/bits/list.tcc **** // List implementation (out of line) -*- C++ -*-
   2:d:/software/ovi_2503a_s3trc/ovi_2503a_s3trc/Tools/MinGW/include/c++/3.3.1/bits/list.tcc **** 
   3:d:/software/ovi_2503a_s3trc/ovi_2503a_s3trc/Tools/MinGW/include/c++/3.3.1/bits/list.tcc **** // Copyright (C) 2001, 2002 Free Software Foundation, Inc.
   4:d:/software/ovi_2503a_s3trc/ovi_2503a_s3trc/Tools/MinGW/include/c++/3.3.1/bits/list.tcc **** //
   5:d:/software/ovi_2503a_s3trc/ovi_2503a_s3trc/Tools/MinGW/include/c++/3.3.1/bits/list.tcc **** // This file is part of the GNU ISO C++ Library.  This library is free
   6:d:/software/ovi_2503a_s3trc/ovi_2503a_s3trc/Tools/MinGW/include/c++/3.3.1/bits/list.tcc **** // software; you can redistribute it and/or modify it under the
   7:d:/software/ovi_2503a_s3trc/ovi_2503a_s3trc/Tools/MinGW/include/c++/3.3.1/bits/list.tcc **** // terms of the GNU General Public License as published by the
   8:d:/software/ovi_2503a_s3trc/ovi_2503a_s3trc/Tools/MinGW/include/c++/3.3.1/bits/list.tcc **** // Free Software Foundation; either version 2, or (at your option)
   9:d:/software/ovi_2503a_s3trc/ovi_2503a_s3trc/Tools/MinGW/include/c++/3.3.1/bits/list.tcc **** // any later version.
  10:d:/software/ovi_2503a_s3trc/ovi_2503a_s3trc/Tools/MinGW/include/c++/3.3.1/bits/list.tcc **** 
  11:d:/software/ovi_2503a_s3trc/ovi_2503a_s3trc/Tools/MinGW/include/c++/3.3.1/bits/list.tcc **** // This library is distributed in the hope that it will be useful,
  12:d:/software/ovi_2503a_s3trc/ovi_2503a_s3trc/Tools/MinGW/include/c++/3.3.1/bits/list.tcc **** // but WITHOUT ANY WARRANTY; without even the implied warranty of
  13:d:/software/ovi_2503a_s3trc/ovi_2503a_s3trc/Tools/MinGW/include/c++/3.3.1/bits/list.tcc **** // MERCHANTABILITY or FITNESS FOR A PARTICULAR PURPOSE.  See the
  14:d:/software/ovi_2503a_s3trc/ovi_2503a_s3trc/Tools/MinGW/include/c++/3.3.1/bits/list.tcc **** // GNU General Public License for more details.
  15:d:/software/ovi_2503a_s3trc/ovi_2503a_s3trc/Tools/MinGW/include/c++/3.3.1/bits/list.tcc **** 
  16:d:/software/ovi_2503a_s3trc/ovi_2503a_s3trc/Tools/MinGW/include/c++/3.3.1/bits/list.tcc **** // You should have received a copy of the GNU General Public License along
  17:d:/software/ovi_2503a_s3trc/ovi_2503a_s3trc/Tools/MinGW/include/c++/3.3.1/bits/list.tcc **** // with this library; see the file COPYING.  If not, write to the Free
  18:d:/software/ovi_2503a_s3trc/ovi_2503a_s3trc/Tools/MinGW/include/c++/3.3.1/bits/list.tcc **** // Software Foundation, 59 Temple Place - Suite 330, Boston, MA 02111-1307,
  19:d:/software/ovi_2503a_s3trc/ovi_2503a_s3trc/Tools/MinGW/include/c++/3.3.1/bits/list.tcc **** // USA.
  20:d:/software/ovi_2503a_s3trc/ovi_2503a_s3trc/Tools/MinGW/include/c++/3.3.1/bits/list.tcc **** 
  21:d:/software/ovi_2503a_s3trc/ovi_2503a_s3trc/Tools/MinGW/include/c++/3.3.1/bits/list.tcc **** // As a special exception, you may use this file as part of a free software
  22:d:/software/ovi_2503a_s3trc/ovi_2503a_s3trc/Tools/MinGW/include/c++/3.3.1/bits/list.tcc **** // library without restriction.  Specifically, if other files instantiate
GAS LISTING d:/software/ovi_2503a_s3trc/ovi_2503a_s3trc/plutommi/Customer/ResGenerator/gcctmp/cci0baaa.s 			page 115


  23:d:/software/ovi_2503a_s3trc/ovi_2503a_s3trc/Tools/MinGW/include/c++/3.3.1/bits/list.tcc **** // templates or use macros or inline functions from this file, or you compile
  24:d:/software/ovi_2503a_s3trc/ovi_2503a_s3trc/Tools/MinGW/include/c++/3.3.1/bits/list.tcc **** // this file and link it with other files to produce an executable, this
  25:d:/software/ovi_2503a_s3trc/ovi_2503a_s3trc/Tools/MinGW/include/c++/3.3.1/bits/list.tcc **** // file does not by itself cause the resulting executable to be covered by
  26:d:/software/ovi_2503a_s3trc/ovi_2503a_s3trc/Tools/MinGW/include/c++/3.3.1/bits/list.tcc **** // the GNU General Public License.  This exception does not however
  27:d:/software/ovi_2503a_s3trc/ovi_2503a_s3trc/Tools/MinGW/include/c++/3.3.1/bits/list.tcc **** // invalidate any other reasons why the executable file might be covered by
  28:d:/software/ovi_2503a_s3trc/ovi_2503a_s3trc/Tools/MinGW/include/c++/3.3.1/bits/list.tcc **** // the GNU General Public License.
  29:d:/software/ovi_2503a_s3trc/ovi_2503a_s3trc/Tools/MinGW/include/c++/3.3.1/bits/list.tcc **** 
  30:d:/software/ovi_2503a_s3trc/ovi_2503a_s3trc/Tools/MinGW/include/c++/3.3.1/bits/list.tcc **** /*
  31:d:/software/ovi_2503a_s3trc/ovi_2503a_s3trc/Tools/MinGW/include/c++/3.3.1/bits/list.tcc ****  *
  32:d:/software/ovi_2503a_s3trc/ovi_2503a_s3trc/Tools/MinGW/include/c++/3.3.1/bits/list.tcc ****  * Copyright (c) 1994
  33:d:/software/ovi_2503a_s3trc/ovi_2503a_s3trc/Tools/MinGW/include/c++/3.3.1/bits/list.tcc ****  * Hewlett-Packard Company
  34:d:/software/ovi_2503a_s3trc/ovi_2503a_s3trc/Tools/MinGW/include/c++/3.3.1/bits/list.tcc ****  *
  35:d:/software/ovi_2503a_s3trc/ovi_2503a_s3trc/Tools/MinGW/include/c++/3.3.1/bits/list.tcc ****  * Permission to use, copy, modify, distribute and sell this software
  36:d:/software/ovi_2503a_s3trc/ovi_2503a_s3trc/Tools/MinGW/include/c++/3.3.1/bits/list.tcc ****  * and its documentation for any purpose is hereby granted without fee,
  37:d:/software/ovi_2503a_s3trc/ovi_2503a_s3trc/Tools/MinGW/include/c++/3.3.1/bits/list.tcc ****  * provided that the above copyright notice appear in all copies and
  38:d:/software/ovi_2503a_s3trc/ovi_2503a_s3trc/Tools/MinGW/include/c++/3.3.1/bits/list.tcc ****  * that both that copyright notice and this permission notice appear
  39:d:/software/ovi_2503a_s3trc/ovi_2503a_s3trc/Tools/MinGW/include/c++/3.3.1/bits/list.tcc ****  * in supporting documentation.  Hewlett-Packard Company makes no
  40:d:/software/ovi_2503a_s3trc/ovi_2503a_s3trc/Tools/MinGW/include/c++/3.3.1/bits/list.tcc ****  * representations about the suitability of this software for any
  41:d:/software/ovi_2503a_s3trc/ovi_2503a_s3trc/Tools/MinGW/include/c++/3.3.1/bits/list.tcc ****  * purpose.  It is provided "as is" without express or implied warranty.
  42:d:/software/ovi_2503a_s3trc/ovi_2503a_s3trc/Tools/MinGW/include/c++/3.3.1/bits/list.tcc ****  *
  43:d:/software/ovi_2503a_s3trc/ovi_2503a_s3trc/Tools/MinGW/include/c++/3.3.1/bits/list.tcc ****  *
  44:d:/software/ovi_2503a_s3trc/ovi_2503a_s3trc/Tools/MinGW/include/c++/3.3.1/bits/list.tcc ****  * Copyright (c) 1996,1997
  45:d:/software/ovi_2503a_s3trc/ovi_2503a_s3trc/Tools/MinGW/include/c++/3.3.1/bits/list.tcc ****  * Silicon Graphics Computer Systems, Inc.
  46:d:/software/ovi_2503a_s3trc/ovi_2503a_s3trc/Tools/MinGW/include/c++/3.3.1/bits/list.tcc ****  *
  47:d:/software/ovi_2503a_s3trc/ovi_2503a_s3trc/Tools/MinGW/include/c++/3.3.1/bits/list.tcc ****  * Permission to use, copy, modify, distribute and sell this software
  48:d:/software/ovi_2503a_s3trc/ovi_2503a_s3trc/Tools/MinGW/include/c++/3.3.1/bits/list.tcc ****  * and its documentation for any purpose is hereby granted without fee,
  49:d:/software/ovi_2503a_s3trc/ovi_2503a_s3trc/Tools/MinGW/include/c++/3.3.1/bits/list.tcc ****  * provided that the above copyright notice appear in all copies and
  50:d:/software/ovi_2503a_s3trc/ovi_2503a_s3trc/Tools/MinGW/include/c++/3.3.1/bits/list.tcc ****  * that both that copyright notice and this permission notice appear
  51:d:/software/ovi_2503a_s3trc/ovi_2503a_s3trc/Tools/MinGW/include/c++/3.3.1/bits/list.tcc ****  * in supporting documentation.  Silicon Graphics makes no
  52:d:/software/ovi_2503a_s3trc/ovi_2503a_s3trc/Tools/MinGW/include/c++/3.3.1/bits/list.tcc ****  * representations about the suitability of this software for any
  53:d:/software/ovi_2503a_s3trc/ovi_2503a_s3trc/Tools/MinGW/include/c++/3.3.1/bits/list.tcc ****  * purpose.  It is provided "as is" without express or implied warranty.
  54:d:/software/ovi_2503a_s3trc/ovi_2503a_s3trc/Tools/MinGW/include/c++/3.3.1/bits/list.tcc ****  */
  55:d:/software/ovi_2503a_s3trc/ovi_2503a_s3trc/Tools/MinGW/include/c++/3.3.1/bits/list.tcc **** 
  56:d:/software/ovi_2503a_s3trc/ovi_2503a_s3trc/Tools/MinGW/include/c++/3.3.1/bits/list.tcc **** /** @file list.tcc
  57:d:/software/ovi_2503a_s3trc/ovi_2503a_s3trc/Tools/MinGW/include/c++/3.3.1/bits/list.tcc ****  *  This is an internal header file, included by other library headers.
  58:d:/software/ovi_2503a_s3trc/ovi_2503a_s3trc/Tools/MinGW/include/c++/3.3.1/bits/list.tcc ****  *  You should not attempt to use it directly.
  59:d:/software/ovi_2503a_s3trc/ovi_2503a_s3trc/Tools/MinGW/include/c++/3.3.1/bits/list.tcc ****  */
  60:d:/software/ovi_2503a_s3trc/ovi_2503a_s3trc/Tools/MinGW/include/c++/3.3.1/bits/list.tcc **** 
  61:d:/software/ovi_2503a_s3trc/ovi_2503a_s3trc/Tools/MinGW/include/c++/3.3.1/bits/list.tcc **** #ifndef __GLIBCPP_INTERNAL_LIST_TCC
  62:d:/software/ovi_2503a_s3trc/ovi_2503a_s3trc/Tools/MinGW/include/c++/3.3.1/bits/list.tcc **** #define __GLIBCPP_INTERNAL_LIST_TCC
  63:d:/software/ovi_2503a_s3trc/ovi_2503a_s3trc/Tools/MinGW/include/c++/3.3.1/bits/list.tcc **** 
  64:d:/software/ovi_2503a_s3trc/ovi_2503a_s3trc/Tools/MinGW/include/c++/3.3.1/bits/list.tcc **** namespace std
  65:d:/software/ovi_2503a_s3trc/ovi_2503a_s3trc/Tools/MinGW/include/c++/3.3.1/bits/list.tcc **** {
  66:d:/software/ovi_2503a_s3trc/ovi_2503a_s3trc/Tools/MinGW/include/c++/3.3.1/bits/list.tcc ****   template<typename _Tp, typename _Alloc>
  67:d:/software/ovi_2503a_s3trc/ovi_2503a_s3trc/Tools/MinGW/include/c++/3.3.1/bits/list.tcc ****     void
  68:d:/software/ovi_2503a_s3trc/ovi_2503a_s3trc/Tools/MinGW/include/c++/3.3.1/bits/list.tcc ****     _List_base<_Tp,_Alloc>::
  69:d:/software/ovi_2503a_s3trc/ovi_2503a_s3trc/Tools/MinGW/include/c++/3.3.1/bits/list.tcc ****     __clear()
  70:d:/software/ovi_2503a_s3trc/ovi_2503a_s3trc/Tools/MinGW/include/c++/3.3.1/bits/list.tcc ****     {
 5947              	LM238:
 5948 0000 55       		pushl	%ebp
 5949 0001 89E5     		movl	%esp, %ebp
 5950 0003 83EC18   		subl	$24, %esp
  71:d:/software/ovi_2503a_s3trc/ovi_2503a_s3trc/Tools/MinGW/include/c++/3.3.1/bits/list.tcc ****       typedef _List_node<_Tp>  _Node;
  72:d:/software/ovi_2503a_s3trc/ovi_2503a_s3trc/Tools/MinGW/include/c++/3.3.1/bits/list.tcc ****       _Node* __cur = static_cast<_Node*>(_M_node->_M_next);
 5952              	LM239:
 5953              	LBB62:
 5954 0006 8B4508   		movl	8(%ebp), %eax
GAS LISTING d:/software/ovi_2503a_s3trc/ovi_2503a_s3trc/plutommi/Customer/ResGenerator/gcctmp/cci0baaa.s 			page 116


 5955 0009 8B00     		movl	(%eax), %eax
 5956 000b 8B00     		movl	(%eax), %eax
 5957 000d 8945FC   		movl	%eax, -4(%ebp)
  73:d:/software/ovi_2503a_s3trc/ovi_2503a_s3trc/Tools/MinGW/include/c++/3.3.1/bits/list.tcc ****       while (__cur != _M_node)
 5959              	LM240:
 5960              	L226:
 5961 0010 8B5508   		movl	8(%ebp), %edx
 5962 0013 8B45FC   		movl	-4(%ebp), %eax
 5963 0016 3B02     		cmpl	(%edx), %eax
 5964 0018 7502     		jne	L228
 5965 001a EB30     		jmp	L227
 5966              	L228:
  74:d:/software/ovi_2503a_s3trc/ovi_2503a_s3trc/Tools/MinGW/include/c++/3.3.1/bits/list.tcc ****       {
  75:d:/software/ovi_2503a_s3trc/ovi_2503a_s3trc/Tools/MinGW/include/c++/3.3.1/bits/list.tcc ****         _Node* __tmp = __cur;
 5968              	LM241:
 5969              	LBB63:
 5970              	LBB64:
 5971 001c 8B45FC   		movl	-4(%ebp), %eax
 5972 001f 8945F8   		movl	%eax, -8(%ebp)
  76:d:/software/ovi_2503a_s3trc/ovi_2503a_s3trc/Tools/MinGW/include/c++/3.3.1/bits/list.tcc ****         __cur = static_cast<_Node*>(__cur->_M_next);
 5974              	LM242:
 5975 0022 8B45FC   		movl	-4(%ebp), %eax
 5976 0025 8B00     		movl	(%eax), %eax
 5977 0027 8945FC   		movl	%eax, -4(%ebp)
  77:d:/software/ovi_2503a_s3trc/ovi_2503a_s3trc/Tools/MinGW/include/c++/3.3.1/bits/list.tcc ****         _Destroy(&__tmp->_M_data);
 5979              	LM243:
 5980 002a 8B45F8   		movl	-8(%ebp), %eax
 5981 002d 83C008   		addl	$8, %eax
 5982 0030 890424   		movl	%eax, (%esp)
 5983 0033 E8000000 		call	__ZSt8_DestroyIN10ThreadPool7JobDataEEvPT_
 5983      00
  78:d:/software/ovi_2503a_s3trc/ovi_2503a_s3trc/Tools/MinGW/include/c++/3.3.1/bits/list.tcc ****         _M_put_node(__tmp);
 5985              	LM244:
 5986 0038 8B45F8   		movl	-8(%ebp), %eax
 5987 003b 89442404 		movl	%eax, 4(%esp)
 5988 003f 8B4508   		movl	8(%ebp), %eax
 5989 0042 890424   		movl	%eax, (%esp)
 5990 0045 E8000000 		call	__ZNSt16_List_alloc_baseIN10ThreadPool7JobDataESaIS1_ELb1EE11_M_put_nodeEPSt10_List_nodeIS1_E
 5990      00
 5991              	LBE64:
 5992              	LBE63:
 5993 004a EBC4     		jmp	L226
 5994              	L227:
  79:d:/software/ovi_2503a_s3trc/ovi_2503a_s3trc/Tools/MinGW/include/c++/3.3.1/bits/list.tcc ****       }
  80:d:/software/ovi_2503a_s3trc/ovi_2503a_s3trc/Tools/MinGW/include/c++/3.3.1/bits/list.tcc ****       _M_node->_M_next = _M_node;
 5996              	LM245:
 5997 004c 8B4508   		movl	8(%ebp), %eax
 5998 004f 8B10     		movl	(%eax), %edx
 5999 0051 8B4508   		movl	8(%ebp), %eax
 6000 0054 8B00     		movl	(%eax), %eax
 6001 0056 8902     		movl	%eax, (%edx)
  81:d:/software/ovi_2503a_s3trc/ovi_2503a_s3trc/Tools/MinGW/include/c++/3.3.1/bits/list.tcc ****       _M_node->_M_prev = _M_node;
 6003              	LM246:
 6004 0058 8B4508   		movl	8(%ebp), %eax
 6005 005b 8B10     		movl	(%eax), %edx
 6006 005d 8B4508   		movl	8(%ebp), %eax
 6007 0060 8B00     		movl	(%eax), %eax
GAS LISTING d:/software/ovi_2503a_s3trc/ovi_2503a_s3trc/plutommi/Customer/ResGenerator/gcctmp/cci0baaa.s 			page 117


 6008 0062 894204   		movl	%eax, 4(%edx)
 6009 0065 C9       		leave
 6010 0066 C3       		ret
 6011              	LBE62:
 6018              	Lscope46:
 6020 0067 90       		.section	.text$_ZNSt14_List_iteratorIN10ThreadPool7JobDataERS1_PS1_EC1ERKS4_,"x"
 6021              		.linkonce discard
 6022              		.align 2
 6026              	.globl __ZNSt14_List_iteratorIN10ThreadPool7JobDataERS1_PS1_EC1ERKS4_
 6028              	__ZNSt14_List_iteratorIN10ThreadPool7JobDataERS1_PS1_EC1ERKS4_:
 6030              	Ltext17:
 6032              	LM247:
 6033 0000 55       		pushl	%ebp
 6034 0001 89E5     		movl	%esp, %ebp
 6035 0003 83EC08   		subl	$8, %esp
 6037              	LM248:
 6038              	LBB65:
 6039 0006 8B450C   		movl	12(%ebp), %eax
 6040 0009 8B00     		movl	(%eax), %eax
 6041 000b 89442404 		movl	%eax, 4(%esp)
 6042 000f 8B4508   		movl	8(%ebp), %eax
 6043 0012 890424   		movl	%eax, (%esp)
 6044 0015 E8000000 		call	__ZNSt19_List_iterator_baseC2EPSt15_List_node_base
 6044      00
 6045 001a C9       		leave
 6046 001b C3       		ret
 6047              	LBE65:
 6048              	Lscope47:
 6050              		.section	.text$_ZNSt12_Vector_baseIN10ThreadPool10ThreadDataESaIS1_EEC2ERKS2_,"x"
 6051              		.linkonce discard
 6052              		.align 2
 6056              	.globl __ZNSt12_Vector_baseIN10ThreadPool10ThreadDataESaIS1_EEC2ERKS2_
 6058              	__ZNSt12_Vector_baseIN10ThreadPool10ThreadDataESaIS1_EEC2ERKS2_:
 6060              	Ltext18:
 6062              	LM249:
 6063 0000 55       		pushl	%ebp
 6064 0001 89E5     		movl	%esp, %ebp
 6065 0003 83EC08   		subl	$8, %esp
 6067              	LM250:
 6068              	LBB66:
 6069 0006 8B450C   		movl	12(%ebp), %eax
 6070 0009 89442404 		movl	%eax, 4(%esp)
 6071 000d 8B4508   		movl	8(%ebp), %eax
 6072 0010 890424   		movl	%eax, (%esp)
 6073 0013 E8000000 		call	__ZNSt18_Vector_alloc_baseIN10ThreadPool10ThreadDataESaIS1_ELb1EEC2ERKS2_
 6073      00
 6074 0018 C9       		leave
 6075 0019 C3       		ret
 6076              	LBE66:
 6077              	Lscope48:
 6079 001a 9090     		.section	.text$_ZNSt18_Vector_alloc_baseIN10ThreadPool10ThreadDataESaIS1_ELb1EEC2ERKS2_,"x"
 6080              		.linkonce discard
 6081              		.align 2
 6084              	.globl __ZNSt18_Vector_alloc_baseIN10ThreadPool10ThreadDataESaIS1_ELb1EEC2ERKS2_
 6086              	__ZNSt18_Vector_alloc_baseIN10ThreadPool10ThreadDataESaIS1_ELb1EEC2ERKS2_:
 6088              	LM251:
 6089 0000 55       		pushl	%ebp
GAS LISTING d:/software/ovi_2503a_s3trc/ovi_2503a_s3trc/plutommi/Customer/ResGenerator/gcctmp/cci0baaa.s 			page 118


 6090 0001 89E5     		movl	%esp, %ebp
 6092              	LM252:
 6093              	LBB67:
 6094 0003 8B4508   		movl	8(%ebp), %eax
 6095 0006 C7000000 		movl	$0, (%eax)
 6095      0000
 6096 000c 8B4508   		movl	8(%ebp), %eax
 6097 000f C7400400 		movl	$0, 4(%eax)
 6097      000000
 6098 0016 8B4508   		movl	8(%ebp), %eax
 6099 0019 C7400800 		movl	$0, 8(%eax)
 6099      000000
 6100 0020 5D       		popl	%ebp
 6101 0021 C3       		ret
 6102              	LBE67:
 6103              	Lscope49:
 6105 0022 9090     		.section	.text$_ZNSt12_Vector_baseIN10ThreadPool10ThreadDataESaIS1_EED2Ev,"x"
 6106              		.linkonce discard
 6107              		.align 2
 6110              	.globl __ZNSt12_Vector_baseIN10ThreadPool10ThreadDataESaIS1_EED2Ev
 6112              	__ZNSt12_Vector_baseIN10ThreadPool10ThreadDataESaIS1_EED2Ev:
 6114              	LM253:
 6115 0000 55       		pushl	%ebp
 6116 0001 89E5     		movl	%esp, %ebp
 6117 0003 83EC18   		subl	$24, %esp
 6119              	LM254:
 6120              	LBB68:
 6121 0006 8B4D08   		movl	8(%ebp), %ecx
 6122 0009 8B4508   		movl	8(%ebp), %eax
 6123 000c 8B10     		movl	(%eax), %edx
 6124 000e 8B4108   		movl	8(%ecx), %eax
 6125 0011 29D0     		subl	%edx, %eax
 6126 0013 C1F802   		sarl	$2, %eax
 6127 0016 69C0ABAA 		imull	$-1431655765, %eax, %eax
 6127      AAAA
 6128 001c 89442408 		movl	%eax, 8(%esp)
 6129 0020 8B4508   		movl	8(%ebp), %eax
 6130 0023 8B00     		movl	(%eax), %eax
 6131 0025 89442404 		movl	%eax, 4(%esp)
 6132 0029 8B4508   		movl	8(%ebp), %eax
 6133 002c 890424   		movl	%eax, (%esp)
 6134 002f E8000000 		call	__ZNSt18_Vector_alloc_baseIN10ThreadPool10ThreadDataESaIS1_ELb1EE13_M_deallocateEPS1_j
 6134      00
 6135 0034 C9       		leave
 6136 0035 C3       		ret
 6137              	LBE68:
 6138              	Lscope50:
 6140 0036 9090     		.section	.text$_ZNSt18_Vector_alloc_baseIN10ThreadPool10ThreadDataESaIS1_ELb1EE13_M_deallocateEPS1
 6141              		.linkonce discard
 6142              		.align 2
 6147              	.globl __ZNSt18_Vector_alloc_baseIN10ThreadPool10ThreadDataESaIS1_ELb1EE13_M_deallocateEPS1_j
 6149              	__ZNSt18_Vector_alloc_baseIN10ThreadPool10ThreadDataESaIS1_ELb1EE13_M_deallocateEPS1_j:
 6151              	LM255:
 6152 0000 55       		pushl	%ebp
 6153 0001 89E5     		movl	%esp, %ebp
 6154 0003 83EC08   		subl	$8, %esp
 6156              	LM256:
GAS LISTING d:/software/ovi_2503a_s3trc/ovi_2503a_s3trc/plutommi/Customer/ResGenerator/gcctmp/cci0baaa.s 			page 119


 6157              	LBB69:
 6158 0006 8B4510   		movl	16(%ebp), %eax
 6159 0009 89442404 		movl	%eax, 4(%esp)
 6160 000d 8B450C   		movl	12(%ebp), %eax
 6161 0010 890424   		movl	%eax, (%esp)
 6162 0013 E8000000 		call	__ZNSt14__simple_allocIN10ThreadPool10ThreadDataESt24__default_alloc_templateILb1ELi0EEE10dea
 6162      00
 6163 0018 C9       		leave
 6164 0019 C3       		ret
 6165              	LBE69:
 6166              	Lscope51:
 6168 001a 9090     		.section	.text$_ZNSt14__simple_allocIN10ThreadPool10ThreadDataESt24__default_alloc_templateILb1ELi
 6169              		.linkonce discard
 6170              		.align 2
 6174              	.globl __ZNSt14__simple_allocIN10ThreadPool10ThreadDataESt24__default_alloc_templateILb1ELi0EEE10de
 6176              	__ZNSt14__simple_allocIN10ThreadPool10ThreadDataESt24__default_alloc_templateILb1ELi0EEE10deallocat
 6178              	Ltext19:
 6180              	LM257:
 6181 0000 55       		pushl	%ebp
 6182 0001 89E5     		movl	%esp, %ebp
 6183 0003 83EC08   		subl	$8, %esp
 6185              	LM258:
 6186              	LBB70:
 6187 0006 837D0C00 		cmpl	$0, 12(%ebp)
 6188 000a 741B     		je	L236
 6189 000c 8B550C   		movl	12(%ebp), %edx
 6190 000f 89D0     		movl	%edx, %eax
 6191 0011 01C0     		addl	%eax, %eax
 6192 0013 01D0     		addl	%edx, %eax
 6193 0015 C1E002   		sall	$2, %eax
 6194 0018 89442404 		movl	%eax, 4(%esp)
 6195 001c 8B4508   		movl	8(%ebp), %eax
 6196 001f 890424   		movl	%eax, (%esp)
 6197 0022 E8000000 		call	__ZNSt24__default_alloc_templateILb1ELi0EE10deallocateEPvj
 6197      00
 6198              	L236:
 6199 0027 C9       		leave
 6200 0028 C3       		ret
 6201              	LBE70:
 6202              	Lscope52:
 6204 0029 909090   		.section	.text$_ZSt10_ConstructIN10ThreadPool10ThreadDataES1_EvPT_RKT0_,"x"
 6205              		.linkonce discard
 6206              		.align 2
 6210              	.globl __ZSt10_ConstructIN10ThreadPool10ThreadDataES1_EvPT_RKT0_
 6212              	__ZSt10_ConstructIN10ThreadPool10ThreadDataES1_EvPT_RKT0_:
 6214              	Ltext20:
 6216              	LM259:
 6217 0000 55       		pushl	%ebp
 6218 0001 89E5     		movl	%esp, %ebp
 6219 0003 83EC18   		subl	$24, %esp
 6221              	LM260:
 6222              	LBB71:
 6223 0006 8B4508   		movl	8(%ebp), %eax
 6224 0009 89442404 		movl	%eax, 4(%esp)
 6225 000d C704240C 		movl	$12, (%esp)
 6225      000000
 6226 0014 E8000000 		call	__ZnwjPv
GAS LISTING d:/software/ovi_2503a_s3trc/ovi_2503a_s3trc/plutommi/Customer/ResGenerator/gcctmp/cci0baaa.s 			page 120


 6226      00
 6227 0019 8945FC   		movl	%eax, -4(%ebp)
 6228 001c 837DFC00 		cmpl	$0, -4(%ebp)
 6229 0020 741C     		je	L238
 6230 0022 8B550C   		movl	12(%ebp), %edx
 6231 0025 8B02     		movl	(%edx), %eax
 6232 0027 8B4DFC   		movl	-4(%ebp), %ecx
 6233 002a 8901     		movl	%eax, (%ecx)
 6234 002c 8B4204   		movl	4(%edx), %eax
 6235 002f 8B4DFC   		movl	-4(%ebp), %ecx
 6236 0032 894104   		movl	%eax, 4(%ecx)
 6237 0035 8B4208   		movl	8(%edx), %eax
 6238 0038 8B55FC   		movl	-4(%ebp), %edx
 6239 003b 894208   		movl	%eax, 8(%edx)
 6240              	L241:
 6241              	L238:
 6242 003e C9       		leave
 6243 003f C3       		ret
 6244              	LBE71:
 6245              	Lscope53:
 6247              		.section	.text$_ZN9__gnu_cxx17__normal_iteratorIPN10ThreadPool10ThreadDataESt6vectorIS2_SaIS2_EEEC
 6248              		.linkonce discard
 6249              		.align 2
 6253              	.globl __ZN9__gnu_cxx17__normal_iteratorIPN10ThreadPool10ThreadDataESt6vectorIS2_SaIS2_EEEC1ERKS3_
 6255              	__ZN9__gnu_cxx17__normal_iteratorIPN10ThreadPool10ThreadDataESt6vectorIS2_SaIS2_EEEC1ERKS3_:
 6257              	Ltext21:
 6259              	LM261:
 6260 0000 55       		pushl	%ebp
 6261 0001 89E5     		movl	%esp, %ebp
 6262 0003 83EC08   		subl	$8, %esp
 6264              	LM262:
 6265              	LBB72:
 6266 0006 8B4508   		movl	8(%ebp), %eax
 6267 0009 890424   		movl	%eax, (%esp)
 6268 000c E8000000 		call	__ZNSt8iteratorISt26random_access_iterator_tagN10ThreadPool10ThreadDataEiPS2_RS2_EC2Ev
 6268      00
 6269 0011 8B5508   		movl	8(%ebp), %edx
 6270 0014 8B450C   		movl	12(%ebp), %eax
 6271 0017 8B00     		movl	(%eax), %eax
 6272 0019 8902     		movl	%eax, (%edx)
 6273 001b C9       		leave
 6274 001c C3       		ret
 6275              	LBE72:
 6276              	Lscope54:
 6278 001d 909090   		.section	.text$_ZNK9__gnu_cxx17__normal_iteratorIPN10ThreadPool10ThreadDataESt6vectorIS2_SaIS2_EEE
 6279              		.linkonce discard
 6280              		.align 2
 6283              	.globl __ZNK9__gnu_cxx17__normal_iteratorIPN10ThreadPool10ThreadDataESt6vectorIS2_SaIS2_EEE4baseEv
 6285              	__ZNK9__gnu_cxx17__normal_iteratorIPN10ThreadPool10ThreadDataESt6vectorIS2_SaIS2_EEE4baseEv:
 6287              	LM263:
 6288 0000 55       		pushl	%ebp
 6289 0001 89E5     		movl	%esp, %ebp
 6291              	LM264:
 6292              	LBB73:
 6293 0003 8B4508   		movl	8(%ebp), %eax
 6294 0006 5D       		popl	%ebp
 6295 0007 C3       		ret
GAS LISTING d:/software/ovi_2503a_s3trc/ovi_2503a_s3trc/plutommi/Customer/ResGenerator/gcctmp/cci0baaa.s 			page 121


 6296              	LBE73:
 6297              	Lscope55:
 6299              		.section	.text$_ZNSt6vectorIN10ThreadPool10ThreadDataESaIS1_EE13_M_insert_auxEN9__gnu_cxx17__norma
 6300              		.linkonce discard
 6301              		.align 2
 6306              	.globl __ZNSt6vectorIN10ThreadPool10ThreadDataESaIS1_EE13_M_insert_auxEN9__gnu_cxx17__normal_iterat
 6308              	__ZNSt6vectorIN10ThreadPool10ThreadDataESaIS1_EE13_M_insert_auxEN9__gnu_cxx17__normal_iteratorIPS1_
 6310              	Ltext22:
   1:d:/software/ovi_2503a_s3trc/ovi_2503a_s3trc/Tools/MinGW/include/c++/3.3.1/bits/vector.tcc **** // Vector implementation (out of line) -*- C++ -*-
   2:d:/software/ovi_2503a_s3trc/ovi_2503a_s3trc/Tools/MinGW/include/c++/3.3.1/bits/vector.tcc **** 
   3:d:/software/ovi_2503a_s3trc/ovi_2503a_s3trc/Tools/MinGW/include/c++/3.3.1/bits/vector.tcc **** // Copyright (C) 2001, 2002 Free Software Foundation, Inc.
   4:d:/software/ovi_2503a_s3trc/ovi_2503a_s3trc/Tools/MinGW/include/c++/3.3.1/bits/vector.tcc **** //
   5:d:/software/ovi_2503a_s3trc/ovi_2503a_s3trc/Tools/MinGW/include/c++/3.3.1/bits/vector.tcc **** // This file is part of the GNU ISO C++ Library.  This library is free
   6:d:/software/ovi_2503a_s3trc/ovi_2503a_s3trc/Tools/MinGW/include/c++/3.3.1/bits/vector.tcc **** // software; you can redistribute it and/or modify it under the
   7:d:/software/ovi_2503a_s3trc/ovi_2503a_s3trc/Tools/MinGW/include/c++/3.3.1/bits/vector.tcc **** // terms of the GNU General Public License as published by the
   8:d:/software/ovi_2503a_s3trc/ovi_2503a_s3trc/Tools/MinGW/include/c++/3.3.1/bits/vector.tcc **** // Free Software Foundation; either version 2, or (at your option)
   9:d:/software/ovi_2503a_s3trc/ovi_2503a_s3trc/Tools/MinGW/include/c++/3.3.1/bits/vector.tcc **** // any later version.
  10:d:/software/ovi_2503a_s3trc/ovi_2503a_s3trc/Tools/MinGW/include/c++/3.3.1/bits/vector.tcc **** 
  11:d:/software/ovi_2503a_s3trc/ovi_2503a_s3trc/Tools/MinGW/include/c++/3.3.1/bits/vector.tcc **** // This library is distributed in the hope that it will be useful,
  12:d:/software/ovi_2503a_s3trc/ovi_2503a_s3trc/Tools/MinGW/include/c++/3.3.1/bits/vector.tcc **** // but WITHOUT ANY WARRANTY; without even the implied warranty of
  13:d:/software/ovi_2503a_s3trc/ovi_2503a_s3trc/Tools/MinGW/include/c++/3.3.1/bits/vector.tcc **** // MERCHANTABILITY or FITNESS FOR A PARTICULAR PURPOSE.  See the
  14:d:/software/ovi_2503a_s3trc/ovi_2503a_s3trc/Tools/MinGW/include/c++/3.3.1/bits/vector.tcc **** // GNU General Public License for more details.
  15:d:/software/ovi_2503a_s3trc/ovi_2503a_s3trc/Tools/MinGW/include/c++/3.3.1/bits/vector.tcc **** 
  16:d:/software/ovi_2503a_s3trc/ovi_2503a_s3trc/Tools/MinGW/include/c++/3.3.1/bits/vector.tcc **** // You should have received a copy of the GNU General Public License along
  17:d:/software/ovi_2503a_s3trc/ovi_2503a_s3trc/Tools/MinGW/include/c++/3.3.1/bits/vector.tcc **** // with this library; see the file COPYING.  If not, write to the Free
  18:d:/software/ovi_2503a_s3trc/ovi_2503a_s3trc/Tools/MinGW/include/c++/3.3.1/bits/vector.tcc **** // Software Foundation, 59 Temple Place - Suite 330, Boston, MA 02111-1307,
  19:d:/software/ovi_2503a_s3trc/ovi_2503a_s3trc/Tools/MinGW/include/c++/3.3.1/bits/vector.tcc **** // USA.
  20:d:/software/ovi_2503a_s3trc/ovi_2503a_s3trc/Tools/MinGW/include/c++/3.3.1/bits/vector.tcc **** 
  21:d:/software/ovi_2503a_s3trc/ovi_2503a_s3trc/Tools/MinGW/include/c++/3.3.1/bits/vector.tcc **** // As a special exception, you may use this file as part of a free software
  22:d:/software/ovi_2503a_s3trc/ovi_2503a_s3trc/Tools/MinGW/include/c++/3.3.1/bits/vector.tcc **** // library without restriction.  Specifically, if other files instantiate
  23:d:/software/ovi_2503a_s3trc/ovi_2503a_s3trc/Tools/MinGW/include/c++/3.3.1/bits/vector.tcc **** // templates or use macros or inline functions from this file, or you compile
  24:d:/software/ovi_2503a_s3trc/ovi_2503a_s3trc/Tools/MinGW/include/c++/3.3.1/bits/vector.tcc **** // this file and link it with other files to produce an executable, this
  25:d:/software/ovi_2503a_s3trc/ovi_2503a_s3trc/Tools/MinGW/include/c++/3.3.1/bits/vector.tcc **** // file does not by itself cause the resulting executable to be covered by
  26:d:/software/ovi_2503a_s3trc/ovi_2503a_s3trc/Tools/MinGW/include/c++/3.3.1/bits/vector.tcc **** // the GNU General Public License.  This exception does not however
  27:d:/software/ovi_2503a_s3trc/ovi_2503a_s3trc/Tools/MinGW/include/c++/3.3.1/bits/vector.tcc **** // invalidate any other reasons why the executable file might be covered by
  28:d:/software/ovi_2503a_s3trc/ovi_2503a_s3trc/Tools/MinGW/include/c++/3.3.1/bits/vector.tcc **** // the GNU General Public License.
  29:d:/software/ovi_2503a_s3trc/ovi_2503a_s3trc/Tools/MinGW/include/c++/3.3.1/bits/vector.tcc **** 
  30:d:/software/ovi_2503a_s3trc/ovi_2503a_s3trc/Tools/MinGW/include/c++/3.3.1/bits/vector.tcc **** /*
  31:d:/software/ovi_2503a_s3trc/ovi_2503a_s3trc/Tools/MinGW/include/c++/3.3.1/bits/vector.tcc ****  *
  32:d:/software/ovi_2503a_s3trc/ovi_2503a_s3trc/Tools/MinGW/include/c++/3.3.1/bits/vector.tcc ****  * Copyright (c) 1994
  33:d:/software/ovi_2503a_s3trc/ovi_2503a_s3trc/Tools/MinGW/include/c++/3.3.1/bits/vector.tcc ****  * Hewlett-Packard Company
  34:d:/software/ovi_2503a_s3trc/ovi_2503a_s3trc/Tools/MinGW/include/c++/3.3.1/bits/vector.tcc ****  *
  35:d:/software/ovi_2503a_s3trc/ovi_2503a_s3trc/Tools/MinGW/include/c++/3.3.1/bits/vector.tcc ****  * Permission to use, copy, modify, distribute and sell this software
  36:d:/software/ovi_2503a_s3trc/ovi_2503a_s3trc/Tools/MinGW/include/c++/3.3.1/bits/vector.tcc ****  * and its documentation for any purpose is hereby granted without fee,
  37:d:/software/ovi_2503a_s3trc/ovi_2503a_s3trc/Tools/MinGW/include/c++/3.3.1/bits/vector.tcc ****  * provided that the above copyright notice appear in all copies and
  38:d:/software/ovi_2503a_s3trc/ovi_2503a_s3trc/Tools/MinGW/include/c++/3.3.1/bits/vector.tcc ****  * that both that copyright notice and this permission notice appear
  39:d:/software/ovi_2503a_s3trc/ovi_2503a_s3trc/Tools/MinGW/include/c++/3.3.1/bits/vector.tcc ****  * in supporting documentation.  Hewlett-Packard Company makes no
  40:d:/software/ovi_2503a_s3trc/ovi_2503a_s3trc/Tools/MinGW/include/c++/3.3.1/bits/vector.tcc ****  * representations about the suitability of this software for any
  41:d:/software/ovi_2503a_s3trc/ovi_2503a_s3trc/Tools/MinGW/include/c++/3.3.1/bits/vector.tcc ****  * purpose.  It is provided "as is" without express or implied warranty.
  42:d:/software/ovi_2503a_s3trc/ovi_2503a_s3trc/Tools/MinGW/include/c++/3.3.1/bits/vector.tcc ****  *
  43:d:/software/ovi_2503a_s3trc/ovi_2503a_s3trc/Tools/MinGW/include/c++/3.3.1/bits/vector.tcc ****  *
  44:d:/software/ovi_2503a_s3trc/ovi_2503a_s3trc/Tools/MinGW/include/c++/3.3.1/bits/vector.tcc ****  * Copyright (c) 1996
  45:d:/software/ovi_2503a_s3trc/ovi_2503a_s3trc/Tools/MinGW/include/c++/3.3.1/bits/vector.tcc ****  * Silicon Graphics Computer Systems, Inc.
  46:d:/software/ovi_2503a_s3trc/ovi_2503a_s3trc/Tools/MinGW/include/c++/3.3.1/bits/vector.tcc ****  *
  47:d:/software/ovi_2503a_s3trc/ovi_2503a_s3trc/Tools/MinGW/include/c++/3.3.1/bits/vector.tcc ****  * Permission to use, copy, modify, distribute and sell this software
  48:d:/software/ovi_2503a_s3trc/ovi_2503a_s3trc/Tools/MinGW/include/c++/3.3.1/bits/vector.tcc ****  * and its documentation for any purpose is hereby granted without fee,
  49:d:/software/ovi_2503a_s3trc/ovi_2503a_s3trc/Tools/MinGW/include/c++/3.3.1/bits/vector.tcc ****  * provided that the above copyright notice appear in all copies and
GAS LISTING d:/software/ovi_2503a_s3trc/ovi_2503a_s3trc/plutommi/Customer/ResGenerator/gcctmp/cci0baaa.s 			page 122


  50:d:/software/ovi_2503a_s3trc/ovi_2503a_s3trc/Tools/MinGW/include/c++/3.3.1/bits/vector.tcc ****  * that both that copyright notice and this permission notice appear
  51:d:/software/ovi_2503a_s3trc/ovi_2503a_s3trc/Tools/MinGW/include/c++/3.3.1/bits/vector.tcc ****  * in supporting documentation.  Silicon Graphics makes no
  52:d:/software/ovi_2503a_s3trc/ovi_2503a_s3trc/Tools/MinGW/include/c++/3.3.1/bits/vector.tcc ****  * representations about the suitability of this  software for any
  53:d:/software/ovi_2503a_s3trc/ovi_2503a_s3trc/Tools/MinGW/include/c++/3.3.1/bits/vector.tcc ****  * purpose.  It is provided "as is" without express or implied warranty.
  54:d:/software/ovi_2503a_s3trc/ovi_2503a_s3trc/Tools/MinGW/include/c++/3.3.1/bits/vector.tcc ****  */
  55:d:/software/ovi_2503a_s3trc/ovi_2503a_s3trc/Tools/MinGW/include/c++/3.3.1/bits/vector.tcc **** 
  56:d:/software/ovi_2503a_s3trc/ovi_2503a_s3trc/Tools/MinGW/include/c++/3.3.1/bits/vector.tcc **** /** @file vector.tcc
  57:d:/software/ovi_2503a_s3trc/ovi_2503a_s3trc/Tools/MinGW/include/c++/3.3.1/bits/vector.tcc ****  *  This is an internal header file, included by other library headers.
  58:d:/software/ovi_2503a_s3trc/ovi_2503a_s3trc/Tools/MinGW/include/c++/3.3.1/bits/vector.tcc ****  *  You should not attempt to use it directly.
  59:d:/software/ovi_2503a_s3trc/ovi_2503a_s3trc/Tools/MinGW/include/c++/3.3.1/bits/vector.tcc ****  */
  60:d:/software/ovi_2503a_s3trc/ovi_2503a_s3trc/Tools/MinGW/include/c++/3.3.1/bits/vector.tcc **** 
  61:d:/software/ovi_2503a_s3trc/ovi_2503a_s3trc/Tools/MinGW/include/c++/3.3.1/bits/vector.tcc **** #ifndef __GLIBCPP_INTERNAL_VECTOR_TCC
  62:d:/software/ovi_2503a_s3trc/ovi_2503a_s3trc/Tools/MinGW/include/c++/3.3.1/bits/vector.tcc **** #define __GLIBCPP_INTERNAL_VECTOR_TCC
  63:d:/software/ovi_2503a_s3trc/ovi_2503a_s3trc/Tools/MinGW/include/c++/3.3.1/bits/vector.tcc **** 
  64:d:/software/ovi_2503a_s3trc/ovi_2503a_s3trc/Tools/MinGW/include/c++/3.3.1/bits/vector.tcc **** namespace std
  65:d:/software/ovi_2503a_s3trc/ovi_2503a_s3trc/Tools/MinGW/include/c++/3.3.1/bits/vector.tcc **** {
  66:d:/software/ovi_2503a_s3trc/ovi_2503a_s3trc/Tools/MinGW/include/c++/3.3.1/bits/vector.tcc ****   template<typename _Tp, typename _Alloc>
  67:d:/software/ovi_2503a_s3trc/ovi_2503a_s3trc/Tools/MinGW/include/c++/3.3.1/bits/vector.tcc ****     void
  68:d:/software/ovi_2503a_s3trc/ovi_2503a_s3trc/Tools/MinGW/include/c++/3.3.1/bits/vector.tcc ****     vector<_Tp,_Alloc>::
  69:d:/software/ovi_2503a_s3trc/ovi_2503a_s3trc/Tools/MinGW/include/c++/3.3.1/bits/vector.tcc ****     reserve(size_type __n)
  70:d:/software/ovi_2503a_s3trc/ovi_2503a_s3trc/Tools/MinGW/include/c++/3.3.1/bits/vector.tcc ****     {
  71:d:/software/ovi_2503a_s3trc/ovi_2503a_s3trc/Tools/MinGW/include/c++/3.3.1/bits/vector.tcc ****       if (__n > this->max_size())
  72:d:/software/ovi_2503a_s3trc/ovi_2503a_s3trc/Tools/MinGW/include/c++/3.3.1/bits/vector.tcc **** 	__throw_length_error("vector::reserve");
  73:d:/software/ovi_2503a_s3trc/ovi_2503a_s3trc/Tools/MinGW/include/c++/3.3.1/bits/vector.tcc ****       if (this->capacity() < __n)
  74:d:/software/ovi_2503a_s3trc/ovi_2503a_s3trc/Tools/MinGW/include/c++/3.3.1/bits/vector.tcc **** 	{
  75:d:/software/ovi_2503a_s3trc/ovi_2503a_s3trc/Tools/MinGW/include/c++/3.3.1/bits/vector.tcc **** 	  const size_type __old_size = size();
  76:d:/software/ovi_2503a_s3trc/ovi_2503a_s3trc/Tools/MinGW/include/c++/3.3.1/bits/vector.tcc **** 	  pointer __tmp = _M_allocate_and_copy(__n, _M_start, _M_finish);
  77:d:/software/ovi_2503a_s3trc/ovi_2503a_s3trc/Tools/MinGW/include/c++/3.3.1/bits/vector.tcc **** 	  _Destroy(_M_start, _M_finish);
  78:d:/software/ovi_2503a_s3trc/ovi_2503a_s3trc/Tools/MinGW/include/c++/3.3.1/bits/vector.tcc **** 	  _M_deallocate(_M_start, _M_end_of_storage - _M_start);
  79:d:/software/ovi_2503a_s3trc/ovi_2503a_s3trc/Tools/MinGW/include/c++/3.3.1/bits/vector.tcc **** 	  _M_start = __tmp;
  80:d:/software/ovi_2503a_s3trc/ovi_2503a_s3trc/Tools/MinGW/include/c++/3.3.1/bits/vector.tcc **** 	  _M_finish = __tmp + __old_size;
  81:d:/software/ovi_2503a_s3trc/ovi_2503a_s3trc/Tools/MinGW/include/c++/3.3.1/bits/vector.tcc **** 	  _M_end_of_storage = _M_start + __n;
  82:d:/software/ovi_2503a_s3trc/ovi_2503a_s3trc/Tools/MinGW/include/c++/3.3.1/bits/vector.tcc **** 	}
  83:d:/software/ovi_2503a_s3trc/ovi_2503a_s3trc/Tools/MinGW/include/c++/3.3.1/bits/vector.tcc ****     }
  84:d:/software/ovi_2503a_s3trc/ovi_2503a_s3trc/Tools/MinGW/include/c++/3.3.1/bits/vector.tcc ****   
  85:d:/software/ovi_2503a_s3trc/ovi_2503a_s3trc/Tools/MinGW/include/c++/3.3.1/bits/vector.tcc ****   template<typename _Tp, typename _Alloc>
  86:d:/software/ovi_2503a_s3trc/ovi_2503a_s3trc/Tools/MinGW/include/c++/3.3.1/bits/vector.tcc ****     typename vector<_Tp,_Alloc>::iterator
  87:d:/software/ovi_2503a_s3trc/ovi_2503a_s3trc/Tools/MinGW/include/c++/3.3.1/bits/vector.tcc ****     vector<_Tp,_Alloc>::
  88:d:/software/ovi_2503a_s3trc/ovi_2503a_s3trc/Tools/MinGW/include/c++/3.3.1/bits/vector.tcc ****     insert(iterator __position, const value_type& __x)
  89:d:/software/ovi_2503a_s3trc/ovi_2503a_s3trc/Tools/MinGW/include/c++/3.3.1/bits/vector.tcc ****     {
  90:d:/software/ovi_2503a_s3trc/ovi_2503a_s3trc/Tools/MinGW/include/c++/3.3.1/bits/vector.tcc ****       size_type __n = __position - begin();
  91:d:/software/ovi_2503a_s3trc/ovi_2503a_s3trc/Tools/MinGW/include/c++/3.3.1/bits/vector.tcc ****       if (_M_finish != _M_end_of_storage && __position == end())
  92:d:/software/ovi_2503a_s3trc/ovi_2503a_s3trc/Tools/MinGW/include/c++/3.3.1/bits/vector.tcc ****       {
  93:d:/software/ovi_2503a_s3trc/ovi_2503a_s3trc/Tools/MinGW/include/c++/3.3.1/bits/vector.tcc ****         _Construct(_M_finish, __x);
  94:d:/software/ovi_2503a_s3trc/ovi_2503a_s3trc/Tools/MinGW/include/c++/3.3.1/bits/vector.tcc ****         ++_M_finish;
  95:d:/software/ovi_2503a_s3trc/ovi_2503a_s3trc/Tools/MinGW/include/c++/3.3.1/bits/vector.tcc ****       }
  96:d:/software/ovi_2503a_s3trc/ovi_2503a_s3trc/Tools/MinGW/include/c++/3.3.1/bits/vector.tcc ****       else
  97:d:/software/ovi_2503a_s3trc/ovi_2503a_s3trc/Tools/MinGW/include/c++/3.3.1/bits/vector.tcc ****         _M_insert_aux(__position, __x);
  98:d:/software/ovi_2503a_s3trc/ovi_2503a_s3trc/Tools/MinGW/include/c++/3.3.1/bits/vector.tcc ****       return begin() + __n;
  99:d:/software/ovi_2503a_s3trc/ovi_2503a_s3trc/Tools/MinGW/include/c++/3.3.1/bits/vector.tcc ****     }
 100:d:/software/ovi_2503a_s3trc/ovi_2503a_s3trc/Tools/MinGW/include/c++/3.3.1/bits/vector.tcc ****   
 101:d:/software/ovi_2503a_s3trc/ovi_2503a_s3trc/Tools/MinGW/include/c++/3.3.1/bits/vector.tcc ****   template<typename _Tp, typename _Alloc>
 102:d:/software/ovi_2503a_s3trc/ovi_2503a_s3trc/Tools/MinGW/include/c++/3.3.1/bits/vector.tcc ****     typename vector<_Tp,_Alloc>::iterator
 103:d:/software/ovi_2503a_s3trc/ovi_2503a_s3trc/Tools/MinGW/include/c++/3.3.1/bits/vector.tcc ****     vector<_Tp,_Alloc>::
 104:d:/software/ovi_2503a_s3trc/ovi_2503a_s3trc/Tools/MinGW/include/c++/3.3.1/bits/vector.tcc ****     erase(iterator __position)
 105:d:/software/ovi_2503a_s3trc/ovi_2503a_s3trc/Tools/MinGW/include/c++/3.3.1/bits/vector.tcc ****     {
 106:d:/software/ovi_2503a_s3trc/ovi_2503a_s3trc/Tools/MinGW/include/c++/3.3.1/bits/vector.tcc ****       if (__position + 1 != end())
GAS LISTING d:/software/ovi_2503a_s3trc/ovi_2503a_s3trc/plutommi/Customer/ResGenerator/gcctmp/cci0baaa.s 			page 123


 107:d:/software/ovi_2503a_s3trc/ovi_2503a_s3trc/Tools/MinGW/include/c++/3.3.1/bits/vector.tcc ****         copy(__position + 1, end(), __position);
 108:d:/software/ovi_2503a_s3trc/ovi_2503a_s3trc/Tools/MinGW/include/c++/3.3.1/bits/vector.tcc ****       --_M_finish;
 109:d:/software/ovi_2503a_s3trc/ovi_2503a_s3trc/Tools/MinGW/include/c++/3.3.1/bits/vector.tcc ****       _Destroy(_M_finish);
 110:d:/software/ovi_2503a_s3trc/ovi_2503a_s3trc/Tools/MinGW/include/c++/3.3.1/bits/vector.tcc ****       return __position;
 111:d:/software/ovi_2503a_s3trc/ovi_2503a_s3trc/Tools/MinGW/include/c++/3.3.1/bits/vector.tcc ****     }
 112:d:/software/ovi_2503a_s3trc/ovi_2503a_s3trc/Tools/MinGW/include/c++/3.3.1/bits/vector.tcc ****   
 113:d:/software/ovi_2503a_s3trc/ovi_2503a_s3trc/Tools/MinGW/include/c++/3.3.1/bits/vector.tcc ****   template<typename _Tp, typename _Alloc>
 114:d:/software/ovi_2503a_s3trc/ovi_2503a_s3trc/Tools/MinGW/include/c++/3.3.1/bits/vector.tcc ****     typename vector<_Tp,_Alloc>::iterator
 115:d:/software/ovi_2503a_s3trc/ovi_2503a_s3trc/Tools/MinGW/include/c++/3.3.1/bits/vector.tcc ****     vector<_Tp,_Alloc>::
 116:d:/software/ovi_2503a_s3trc/ovi_2503a_s3trc/Tools/MinGW/include/c++/3.3.1/bits/vector.tcc ****     erase(iterator __first, iterator __last)
 117:d:/software/ovi_2503a_s3trc/ovi_2503a_s3trc/Tools/MinGW/include/c++/3.3.1/bits/vector.tcc ****     {
 118:d:/software/ovi_2503a_s3trc/ovi_2503a_s3trc/Tools/MinGW/include/c++/3.3.1/bits/vector.tcc ****       iterator __i(copy(__last, end(), __first));
 119:d:/software/ovi_2503a_s3trc/ovi_2503a_s3trc/Tools/MinGW/include/c++/3.3.1/bits/vector.tcc ****       _Destroy(__i, end());
 120:d:/software/ovi_2503a_s3trc/ovi_2503a_s3trc/Tools/MinGW/include/c++/3.3.1/bits/vector.tcc ****       _M_finish = _M_finish - (__last - __first);
 121:d:/software/ovi_2503a_s3trc/ovi_2503a_s3trc/Tools/MinGW/include/c++/3.3.1/bits/vector.tcc ****       return __first;
 122:d:/software/ovi_2503a_s3trc/ovi_2503a_s3trc/Tools/MinGW/include/c++/3.3.1/bits/vector.tcc ****     }
 123:d:/software/ovi_2503a_s3trc/ovi_2503a_s3trc/Tools/MinGW/include/c++/3.3.1/bits/vector.tcc ****   
 124:d:/software/ovi_2503a_s3trc/ovi_2503a_s3trc/Tools/MinGW/include/c++/3.3.1/bits/vector.tcc ****   template<typename _Tp, typename _Alloc>
 125:d:/software/ovi_2503a_s3trc/ovi_2503a_s3trc/Tools/MinGW/include/c++/3.3.1/bits/vector.tcc ****     vector<_Tp,_Alloc>&
 126:d:/software/ovi_2503a_s3trc/ovi_2503a_s3trc/Tools/MinGW/include/c++/3.3.1/bits/vector.tcc ****     vector<_Tp,_Alloc>::
 127:d:/software/ovi_2503a_s3trc/ovi_2503a_s3trc/Tools/MinGW/include/c++/3.3.1/bits/vector.tcc ****     operator=(const vector<_Tp,_Alloc>& __x)
 128:d:/software/ovi_2503a_s3trc/ovi_2503a_s3trc/Tools/MinGW/include/c++/3.3.1/bits/vector.tcc ****     {
 129:d:/software/ovi_2503a_s3trc/ovi_2503a_s3trc/Tools/MinGW/include/c++/3.3.1/bits/vector.tcc ****       if (&__x != this)
 130:d:/software/ovi_2503a_s3trc/ovi_2503a_s3trc/Tools/MinGW/include/c++/3.3.1/bits/vector.tcc ****       {
 131:d:/software/ovi_2503a_s3trc/ovi_2503a_s3trc/Tools/MinGW/include/c++/3.3.1/bits/vector.tcc ****         const size_type __xlen = __x.size();
 132:d:/software/ovi_2503a_s3trc/ovi_2503a_s3trc/Tools/MinGW/include/c++/3.3.1/bits/vector.tcc ****         if (__xlen > capacity())
 133:d:/software/ovi_2503a_s3trc/ovi_2503a_s3trc/Tools/MinGW/include/c++/3.3.1/bits/vector.tcc ****         {
 134:d:/software/ovi_2503a_s3trc/ovi_2503a_s3trc/Tools/MinGW/include/c++/3.3.1/bits/vector.tcc ****           pointer __tmp = _M_allocate_and_copy(__xlen, __x.begin(), __x.end());
 135:d:/software/ovi_2503a_s3trc/ovi_2503a_s3trc/Tools/MinGW/include/c++/3.3.1/bits/vector.tcc ****           _Destroy(_M_start, _M_finish);
 136:d:/software/ovi_2503a_s3trc/ovi_2503a_s3trc/Tools/MinGW/include/c++/3.3.1/bits/vector.tcc ****           _M_deallocate(_M_start, _M_end_of_storage - _M_start);
 137:d:/software/ovi_2503a_s3trc/ovi_2503a_s3trc/Tools/MinGW/include/c++/3.3.1/bits/vector.tcc ****           _M_start = __tmp;
 138:d:/software/ovi_2503a_s3trc/ovi_2503a_s3trc/Tools/MinGW/include/c++/3.3.1/bits/vector.tcc ****           _M_end_of_storage = _M_start + __xlen;
 139:d:/software/ovi_2503a_s3trc/ovi_2503a_s3trc/Tools/MinGW/include/c++/3.3.1/bits/vector.tcc ****         }
 140:d:/software/ovi_2503a_s3trc/ovi_2503a_s3trc/Tools/MinGW/include/c++/3.3.1/bits/vector.tcc ****         else if (size() >= __xlen)
 141:d:/software/ovi_2503a_s3trc/ovi_2503a_s3trc/Tools/MinGW/include/c++/3.3.1/bits/vector.tcc ****         {
 142:d:/software/ovi_2503a_s3trc/ovi_2503a_s3trc/Tools/MinGW/include/c++/3.3.1/bits/vector.tcc ****           iterator __i(copy(__x.begin(), __x.end(), begin()));
 143:d:/software/ovi_2503a_s3trc/ovi_2503a_s3trc/Tools/MinGW/include/c++/3.3.1/bits/vector.tcc ****           _Destroy(__i, end());
 144:d:/software/ovi_2503a_s3trc/ovi_2503a_s3trc/Tools/MinGW/include/c++/3.3.1/bits/vector.tcc ****         }
 145:d:/software/ovi_2503a_s3trc/ovi_2503a_s3trc/Tools/MinGW/include/c++/3.3.1/bits/vector.tcc ****         else
 146:d:/software/ovi_2503a_s3trc/ovi_2503a_s3trc/Tools/MinGW/include/c++/3.3.1/bits/vector.tcc ****         {
 147:d:/software/ovi_2503a_s3trc/ovi_2503a_s3trc/Tools/MinGW/include/c++/3.3.1/bits/vector.tcc ****           copy(__x.begin(), __x.begin() + size(), _M_start);
 148:d:/software/ovi_2503a_s3trc/ovi_2503a_s3trc/Tools/MinGW/include/c++/3.3.1/bits/vector.tcc ****           uninitialized_copy(__x.begin() + size(), __x.end(), _M_finish);
 149:d:/software/ovi_2503a_s3trc/ovi_2503a_s3trc/Tools/MinGW/include/c++/3.3.1/bits/vector.tcc ****         }
 150:d:/software/ovi_2503a_s3trc/ovi_2503a_s3trc/Tools/MinGW/include/c++/3.3.1/bits/vector.tcc ****         _M_finish = _M_start + __xlen;
 151:d:/software/ovi_2503a_s3trc/ovi_2503a_s3trc/Tools/MinGW/include/c++/3.3.1/bits/vector.tcc ****       }
 152:d:/software/ovi_2503a_s3trc/ovi_2503a_s3trc/Tools/MinGW/include/c++/3.3.1/bits/vector.tcc ****       return *this;
 153:d:/software/ovi_2503a_s3trc/ovi_2503a_s3trc/Tools/MinGW/include/c++/3.3.1/bits/vector.tcc ****     }
 154:d:/software/ovi_2503a_s3trc/ovi_2503a_s3trc/Tools/MinGW/include/c++/3.3.1/bits/vector.tcc ****   
 155:d:/software/ovi_2503a_s3trc/ovi_2503a_s3trc/Tools/MinGW/include/c++/3.3.1/bits/vector.tcc ****   template<typename _Tp, typename _Alloc>
 156:d:/software/ovi_2503a_s3trc/ovi_2503a_s3trc/Tools/MinGW/include/c++/3.3.1/bits/vector.tcc ****     void
 157:d:/software/ovi_2503a_s3trc/ovi_2503a_s3trc/Tools/MinGW/include/c++/3.3.1/bits/vector.tcc ****     vector<_Tp,_Alloc>::
 158:d:/software/ovi_2503a_s3trc/ovi_2503a_s3trc/Tools/MinGW/include/c++/3.3.1/bits/vector.tcc ****     _M_fill_assign(size_t __n, const value_type& __val)
 159:d:/software/ovi_2503a_s3trc/ovi_2503a_s3trc/Tools/MinGW/include/c++/3.3.1/bits/vector.tcc ****     {
 160:d:/software/ovi_2503a_s3trc/ovi_2503a_s3trc/Tools/MinGW/include/c++/3.3.1/bits/vector.tcc ****       if (__n > capacity())
 161:d:/software/ovi_2503a_s3trc/ovi_2503a_s3trc/Tools/MinGW/include/c++/3.3.1/bits/vector.tcc ****       {
 162:d:/software/ovi_2503a_s3trc/ovi_2503a_s3trc/Tools/MinGW/include/c++/3.3.1/bits/vector.tcc ****         vector __tmp(__n, __val, get_allocator());
 163:d:/software/ovi_2503a_s3trc/ovi_2503a_s3trc/Tools/MinGW/include/c++/3.3.1/bits/vector.tcc ****         __tmp.swap(*this);
GAS LISTING d:/software/ovi_2503a_s3trc/ovi_2503a_s3trc/plutommi/Customer/ResGenerator/gcctmp/cci0baaa.s 			page 124


 164:d:/software/ovi_2503a_s3trc/ovi_2503a_s3trc/Tools/MinGW/include/c++/3.3.1/bits/vector.tcc ****       }
 165:d:/software/ovi_2503a_s3trc/ovi_2503a_s3trc/Tools/MinGW/include/c++/3.3.1/bits/vector.tcc ****       else if (__n > size())
 166:d:/software/ovi_2503a_s3trc/ovi_2503a_s3trc/Tools/MinGW/include/c++/3.3.1/bits/vector.tcc ****       {
 167:d:/software/ovi_2503a_s3trc/ovi_2503a_s3trc/Tools/MinGW/include/c++/3.3.1/bits/vector.tcc ****         fill(begin(), end(), __val);
 168:d:/software/ovi_2503a_s3trc/ovi_2503a_s3trc/Tools/MinGW/include/c++/3.3.1/bits/vector.tcc ****         _M_finish = uninitialized_fill_n(_M_finish, __n - size(), __val);
 169:d:/software/ovi_2503a_s3trc/ovi_2503a_s3trc/Tools/MinGW/include/c++/3.3.1/bits/vector.tcc ****       }
 170:d:/software/ovi_2503a_s3trc/ovi_2503a_s3trc/Tools/MinGW/include/c++/3.3.1/bits/vector.tcc ****       else
 171:d:/software/ovi_2503a_s3trc/ovi_2503a_s3trc/Tools/MinGW/include/c++/3.3.1/bits/vector.tcc ****         erase(fill_n(begin(), __n, __val), end());
 172:d:/software/ovi_2503a_s3trc/ovi_2503a_s3trc/Tools/MinGW/include/c++/3.3.1/bits/vector.tcc ****     }
 173:d:/software/ovi_2503a_s3trc/ovi_2503a_s3trc/Tools/MinGW/include/c++/3.3.1/bits/vector.tcc ****   
 174:d:/software/ovi_2503a_s3trc/ovi_2503a_s3trc/Tools/MinGW/include/c++/3.3.1/bits/vector.tcc ****   template<typename _Tp, typename _Alloc> template<typename _InputIter>
 175:d:/software/ovi_2503a_s3trc/ovi_2503a_s3trc/Tools/MinGW/include/c++/3.3.1/bits/vector.tcc ****     void
 176:d:/software/ovi_2503a_s3trc/ovi_2503a_s3trc/Tools/MinGW/include/c++/3.3.1/bits/vector.tcc ****     vector<_Tp,_Alloc>::
 177:d:/software/ovi_2503a_s3trc/ovi_2503a_s3trc/Tools/MinGW/include/c++/3.3.1/bits/vector.tcc ****     _M_assign_aux(_InputIter __first, _InputIter __last, input_iterator_tag)
 178:d:/software/ovi_2503a_s3trc/ovi_2503a_s3trc/Tools/MinGW/include/c++/3.3.1/bits/vector.tcc ****     {
 179:d:/software/ovi_2503a_s3trc/ovi_2503a_s3trc/Tools/MinGW/include/c++/3.3.1/bits/vector.tcc ****       iterator __cur(begin());
 180:d:/software/ovi_2503a_s3trc/ovi_2503a_s3trc/Tools/MinGW/include/c++/3.3.1/bits/vector.tcc ****       for ( ; __first != __last && __cur != end(); ++__cur, ++__first)
 181:d:/software/ovi_2503a_s3trc/ovi_2503a_s3trc/Tools/MinGW/include/c++/3.3.1/bits/vector.tcc ****         *__cur = *__first;
 182:d:/software/ovi_2503a_s3trc/ovi_2503a_s3trc/Tools/MinGW/include/c++/3.3.1/bits/vector.tcc ****       if (__first == __last)
 183:d:/software/ovi_2503a_s3trc/ovi_2503a_s3trc/Tools/MinGW/include/c++/3.3.1/bits/vector.tcc ****         erase(__cur, end());
 184:d:/software/ovi_2503a_s3trc/ovi_2503a_s3trc/Tools/MinGW/include/c++/3.3.1/bits/vector.tcc ****       else
 185:d:/software/ovi_2503a_s3trc/ovi_2503a_s3trc/Tools/MinGW/include/c++/3.3.1/bits/vector.tcc ****         insert(end(), __first, __last);
 186:d:/software/ovi_2503a_s3trc/ovi_2503a_s3trc/Tools/MinGW/include/c++/3.3.1/bits/vector.tcc ****     }
 187:d:/software/ovi_2503a_s3trc/ovi_2503a_s3trc/Tools/MinGW/include/c++/3.3.1/bits/vector.tcc ****   
 188:d:/software/ovi_2503a_s3trc/ovi_2503a_s3trc/Tools/MinGW/include/c++/3.3.1/bits/vector.tcc ****   template<typename _Tp, typename _Alloc> template<typename _ForwardIter>
 189:d:/software/ovi_2503a_s3trc/ovi_2503a_s3trc/Tools/MinGW/include/c++/3.3.1/bits/vector.tcc ****     void
 190:d:/software/ovi_2503a_s3trc/ovi_2503a_s3trc/Tools/MinGW/include/c++/3.3.1/bits/vector.tcc ****     vector<_Tp,_Alloc>::
 191:d:/software/ovi_2503a_s3trc/ovi_2503a_s3trc/Tools/MinGW/include/c++/3.3.1/bits/vector.tcc ****     _M_assign_aux(_ForwardIter __first, _ForwardIter __last,
 192:d:/software/ovi_2503a_s3trc/ovi_2503a_s3trc/Tools/MinGW/include/c++/3.3.1/bits/vector.tcc ****                   forward_iterator_tag)
 193:d:/software/ovi_2503a_s3trc/ovi_2503a_s3trc/Tools/MinGW/include/c++/3.3.1/bits/vector.tcc ****     {
 194:d:/software/ovi_2503a_s3trc/ovi_2503a_s3trc/Tools/MinGW/include/c++/3.3.1/bits/vector.tcc ****       size_type __len = distance(__first, __last);
 195:d:/software/ovi_2503a_s3trc/ovi_2503a_s3trc/Tools/MinGW/include/c++/3.3.1/bits/vector.tcc ****   
 196:d:/software/ovi_2503a_s3trc/ovi_2503a_s3trc/Tools/MinGW/include/c++/3.3.1/bits/vector.tcc ****       if (__len > capacity())
 197:d:/software/ovi_2503a_s3trc/ovi_2503a_s3trc/Tools/MinGW/include/c++/3.3.1/bits/vector.tcc ****       {
 198:d:/software/ovi_2503a_s3trc/ovi_2503a_s3trc/Tools/MinGW/include/c++/3.3.1/bits/vector.tcc ****         pointer __tmp(_M_allocate_and_copy(__len, __first, __last));
 199:d:/software/ovi_2503a_s3trc/ovi_2503a_s3trc/Tools/MinGW/include/c++/3.3.1/bits/vector.tcc ****         _Destroy(_M_start, _M_finish);
 200:d:/software/ovi_2503a_s3trc/ovi_2503a_s3trc/Tools/MinGW/include/c++/3.3.1/bits/vector.tcc ****         _M_deallocate(_M_start, _M_end_of_storage - _M_start);
 201:d:/software/ovi_2503a_s3trc/ovi_2503a_s3trc/Tools/MinGW/include/c++/3.3.1/bits/vector.tcc ****         _M_start = __tmp;
 202:d:/software/ovi_2503a_s3trc/ovi_2503a_s3trc/Tools/MinGW/include/c++/3.3.1/bits/vector.tcc ****         _M_end_of_storage = _M_finish = _M_start + __len;
 203:d:/software/ovi_2503a_s3trc/ovi_2503a_s3trc/Tools/MinGW/include/c++/3.3.1/bits/vector.tcc ****       }
 204:d:/software/ovi_2503a_s3trc/ovi_2503a_s3trc/Tools/MinGW/include/c++/3.3.1/bits/vector.tcc ****       else if (size() >= __len)
 205:d:/software/ovi_2503a_s3trc/ovi_2503a_s3trc/Tools/MinGW/include/c++/3.3.1/bits/vector.tcc ****       {
 206:d:/software/ovi_2503a_s3trc/ovi_2503a_s3trc/Tools/MinGW/include/c++/3.3.1/bits/vector.tcc ****         iterator __new_finish(copy(__first, __last, _M_start));
 207:d:/software/ovi_2503a_s3trc/ovi_2503a_s3trc/Tools/MinGW/include/c++/3.3.1/bits/vector.tcc ****         _Destroy(__new_finish, end());
 208:d:/software/ovi_2503a_s3trc/ovi_2503a_s3trc/Tools/MinGW/include/c++/3.3.1/bits/vector.tcc ****         _M_finish = __new_finish.base();
 209:d:/software/ovi_2503a_s3trc/ovi_2503a_s3trc/Tools/MinGW/include/c++/3.3.1/bits/vector.tcc ****       }
 210:d:/software/ovi_2503a_s3trc/ovi_2503a_s3trc/Tools/MinGW/include/c++/3.3.1/bits/vector.tcc ****       else
 211:d:/software/ovi_2503a_s3trc/ovi_2503a_s3trc/Tools/MinGW/include/c++/3.3.1/bits/vector.tcc ****       {
 212:d:/software/ovi_2503a_s3trc/ovi_2503a_s3trc/Tools/MinGW/include/c++/3.3.1/bits/vector.tcc ****         _ForwardIter __mid = __first;
 213:d:/software/ovi_2503a_s3trc/ovi_2503a_s3trc/Tools/MinGW/include/c++/3.3.1/bits/vector.tcc ****         advance(__mid, size());
 214:d:/software/ovi_2503a_s3trc/ovi_2503a_s3trc/Tools/MinGW/include/c++/3.3.1/bits/vector.tcc ****         copy(__first, __mid, _M_start);
 215:d:/software/ovi_2503a_s3trc/ovi_2503a_s3trc/Tools/MinGW/include/c++/3.3.1/bits/vector.tcc ****         _M_finish = uninitialized_copy(__mid, __last, _M_finish);
 216:d:/software/ovi_2503a_s3trc/ovi_2503a_s3trc/Tools/MinGW/include/c++/3.3.1/bits/vector.tcc ****       }
 217:d:/software/ovi_2503a_s3trc/ovi_2503a_s3trc/Tools/MinGW/include/c++/3.3.1/bits/vector.tcc ****     }
 218:d:/software/ovi_2503a_s3trc/ovi_2503a_s3trc/Tools/MinGW/include/c++/3.3.1/bits/vector.tcc ****   
 219:d:/software/ovi_2503a_s3trc/ovi_2503a_s3trc/Tools/MinGW/include/c++/3.3.1/bits/vector.tcc ****   template<typename _Tp, typename _Alloc>
 220:d:/software/ovi_2503a_s3trc/ovi_2503a_s3trc/Tools/MinGW/include/c++/3.3.1/bits/vector.tcc ****     void
GAS LISTING d:/software/ovi_2503a_s3trc/ovi_2503a_s3trc/plutommi/Customer/ResGenerator/gcctmp/cci0baaa.s 			page 125


 221:d:/software/ovi_2503a_s3trc/ovi_2503a_s3trc/Tools/MinGW/include/c++/3.3.1/bits/vector.tcc ****     vector<_Tp,_Alloc>::
 222:d:/software/ovi_2503a_s3trc/ovi_2503a_s3trc/Tools/MinGW/include/c++/3.3.1/bits/vector.tcc ****     _M_insert_aux(iterator __position, const _Tp& __x)
 223:d:/software/ovi_2503a_s3trc/ovi_2503a_s3trc/Tools/MinGW/include/c++/3.3.1/bits/vector.tcc ****     {
 6312              	LM265:
 6313 0000 55       		pushl	%ebp
 6314 0001 89E5     		movl	%esp, %ebp
 6315 0003 57       		pushl	%edi
 6316 0004 56       		pushl	%esi
 6317 0005 53       		pushl	%ebx
 6318 0006 81ECAC00 		subl	$172, %esp
 6318      0000
 6319 000c C7458800 		movl	$___gxx_personality_sj0, -120(%ebp)
 6319      000000
 6320 0013 C7458C34 		movl	$LLSDA819, -116(%ebp)
 6320      000000
 6321 001a 8D4590   		leal	-112(%ebp), %eax
 6322 001d 8D55E8   		leal	-24(%ebp), %edx
 6323 0020 8910     		movl	%edx, (%eax)
 6324 0022 BA5D0200 		movl	$L257, %edx
 6324      00
 6325 0027 895004   		movl	%edx, 4(%eax)
 6326 002a 896008   		movl	%esp, 8(%eax)
 6327 002d 8D8570FF 		leal	-144(%ebp), %eax
 6327      FFFF
 6328 0033 890424   		movl	%eax, (%esp)
 6329 0036 E8000000 		call	__Unwind_SjLj_Register
 6329      00
 224:d:/software/ovi_2503a_s3trc/ovi_2503a_s3trc/Tools/MinGW/include/c++/3.3.1/bits/vector.tcc ****       if (_M_finish != _M_end_of_storage)
 6331              	LM266:
 6332              	LBB74:
 6333              	LBB75:
 6334 003b 8B4508   		movl	8(%ebp), %eax
 6335 003e 8B5508   		movl	8(%ebp), %edx
 6336 0041 8B4004   		movl	4(%eax), %eax
 6337 0044 3B4208   		cmpl	8(%edx), %eax
 6338 0047 0F84AE00 		je	L246
 6338      0000
 225:d:/software/ovi_2503a_s3trc/ovi_2503a_s3trc/Tools/MinGW/include/c++/3.3.1/bits/vector.tcc ****       {
 226:d:/software/ovi_2503a_s3trc/ovi_2503a_s3trc/Tools/MinGW/include/c++/3.3.1/bits/vector.tcc ****         _Construct(_M_finish, *(_M_finish - 1));
 6340              	LM267:
 6341              	LBB76:
 6342 004d 8B4508   		movl	8(%ebp), %eax
 6343 0050 8B4004   		movl	4(%eax), %eax
 6344 0053 83E80C   		subl	$12, %eax
 6345 0056 89442404 		movl	%eax, 4(%esp)
 6346 005a 8B4508   		movl	8(%ebp), %eax
 6347 005d 8B4004   		movl	4(%eax), %eax
 6348 0060 890424   		movl	%eax, (%esp)
 6349 0063 E8000000 		call	__ZSt10_ConstructIN10ThreadPool10ThreadDataES1_EvPT_RKT0_
 6349      00
 227:d:/software/ovi_2503a_s3trc/ovi_2503a_s3trc/Tools/MinGW/include/c++/3.3.1/bits/vector.tcc ****         ++_M_finish;
 6351              	LM268:
 6352 0068 8B4508   		movl	8(%ebp), %eax
 6353 006b 8340040C 		addl	$12, 4(%eax)
 228:d:/software/ovi_2503a_s3trc/ovi_2503a_s3trc/Tools/MinGW/include/c++/3.3.1/bits/vector.tcc ****         _Tp __x_copy = __x;
 6355              	LM269:
 6356 006f 8B5510   		movl	16(%ebp), %edx
GAS LISTING d:/software/ovi_2503a_s3trc/ovi_2503a_s3trc/plutommi/Customer/ResGenerator/gcctmp/cci0baaa.s 			page 126


 6357 0072 8B02     		movl	(%edx), %eax
 6358 0074 8945D8   		movl	%eax, -40(%ebp)
 6359 0077 8B4204   		movl	4(%edx), %eax
 6360 007a 8945DC   		movl	%eax, -36(%ebp)
 6361 007d 8B4208   		movl	8(%edx), %eax
 6362 0080 8945E0   		movl	%eax, -32(%ebp)
 229:d:/software/ovi_2503a_s3trc/ovi_2503a_s3trc/Tools/MinGW/include/c++/3.3.1/bits/vector.tcc ****         copy_backward(__position, iterator(_M_finish-2), iterator(_M_finish-1));
 6364              	LM270:
 6365 0083 8B4508   		movl	8(%ebp), %eax
 6366 0086 8B4004   		movl	4(%eax), %eax
 6367 0089 83E80C   		subl	$12, %eax
 6368 008c 8945D0   		movl	%eax, -48(%ebp)
 6369 008f 8D45D0   		leal	-48(%ebp), %eax
 6370 0092 89442404 		movl	%eax, 4(%esp)
 6371 0096 8D45D4   		leal	-44(%ebp), %eax
 6372 0099 890424   		movl	%eax, (%esp)
 6373 009c E8000000 		call	__ZN9__gnu_cxx17__normal_iteratorIPN10ThreadPool10ThreadDataESt6vectorIS2_SaIS2_EEEC1ERKS3_
 6373      00
 6374 00a1 8B4508   		movl	8(%ebp), %eax
 6375 00a4 8B4004   		movl	4(%eax), %eax
 6376 00a7 83E818   		subl	$24, %eax
 6377 00aa 8945C8   		movl	%eax, -56(%ebp)
 6378 00ad 8D45C8   		leal	-56(%ebp), %eax
 6379 00b0 89442404 		movl	%eax, 4(%esp)
 6380 00b4 8D45CC   		leal	-52(%ebp), %eax
 6381 00b7 890424   		movl	%eax, (%esp)
 6382 00ba E8000000 		call	__ZN9__gnu_cxx17__normal_iteratorIPN10ThreadPool10ThreadDataESt6vectorIS2_SaIS2_EEEC1ERKS3_
 6382      00
 6383 00bf 8B45D4   		movl	-44(%ebp), %eax
 6384 00c2 89442408 		movl	%eax, 8(%esp)
 6385 00c6 8B45CC   		movl	-52(%ebp), %eax
 6386 00c9 89442404 		movl	%eax, 4(%esp)
 6387 00cd 8B450C   		movl	12(%ebp), %eax
 6388 00d0 890424   		movl	%eax, (%esp)
 6389 00d3 E8000000 		call	__ZSt13copy_backwardIN9__gnu_cxx17__normal_iteratorIPN10ThreadPool10ThreadDataESt6vectorIS3_S
 6389      00
 230:d:/software/ovi_2503a_s3trc/ovi_2503a_s3trc/Tools/MinGW/include/c++/3.3.1/bits/vector.tcc ****         *__position = __x_copy;
 6391              	LM271:
 6392 00d8 8D450C   		leal	12(%ebp), %eax
 6393 00db 890424   		movl	%eax, (%esp)
 6394 00de E8000000 		call	__ZNK9__gnu_cxx17__normal_iteratorIPN10ThreadPool10ThreadDataESt6vectorIS2_SaIS2_EEEdeEv
 6394      00
 6395 00e3 89C2     		movl	%eax, %edx
 6396 00e5 8B45D8   		movl	-40(%ebp), %eax
 6397 00e8 8902     		movl	%eax, (%edx)
 6398 00ea 8B45DC   		movl	-36(%ebp), %eax
 6399 00ed 894204   		movl	%eax, 4(%edx)
 6400 00f0 8B45E0   		movl	-32(%ebp), %eax
 6401 00f3 894208   		movl	%eax, 8(%edx)
 6402              	LBE76:
 6403 00f6 E98B0200 		jmp	L245
 6403      00
 6404              	L246:
 231:d:/software/ovi_2503a_s3trc/ovi_2503a_s3trc/Tools/MinGW/include/c++/3.3.1/bits/vector.tcc ****       }
 232:d:/software/ovi_2503a_s3trc/ovi_2503a_s3trc/Tools/MinGW/include/c++/3.3.1/bits/vector.tcc ****       else
 233:d:/software/ovi_2503a_s3trc/ovi_2503a_s3trc/Tools/MinGW/include/c++/3.3.1/bits/vector.tcc ****       {
 234:d:/software/ovi_2503a_s3trc/ovi_2503a_s3trc/Tools/MinGW/include/c++/3.3.1/bits/vector.tcc ****         const size_type __old_size = size();
GAS LISTING d:/software/ovi_2503a_s3trc/ovi_2503a_s3trc/plutommi/Customer/ResGenerator/gcctmp/cci0baaa.s 			page 127


 6406              	LM272:
 6407              	LBB77:
 6408 00fb 8B4508   		movl	8(%ebp), %eax
 6409 00fe 890424   		movl	%eax, (%esp)
 6410 0101 E8000000 		call	__ZNKSt6vectorIN10ThreadPool10ThreadDataESaIS1_EE4sizeEv
 6410      00
 6411 0106 8945C4   		movl	%eax, -60(%ebp)
 235:d:/software/ovi_2503a_s3trc/ovi_2503a_s3trc/Tools/MinGW/include/c++/3.3.1/bits/vector.tcc ****         const size_type __len = __old_size != 0 ? 2 * __old_size : 1;
 6413              	LM273:
 6414 0109 837DC400 		cmpl	$0, -60(%ebp)
 6415 010d 740D     		je	L248
 6416 010f 8B45C4   		movl	-60(%ebp), %eax
 6417 0112 01C0     		addl	%eax, %eax
 6418 0114 89856CFF 		movl	%eax, -148(%ebp)
 6418      FFFF
 6419 011a EB0A     		jmp	L249
 6420              	L248:
 6421 011c C7856CFF 		movl	$1, -148(%ebp)
 6421      FFFF0100 
 6421      0000
 6422              	L249:
 6423 0126 8B856CFF 		movl	-148(%ebp), %eax
 6423      FFFF
 6424 012c 8945C0   		movl	%eax, -64(%ebp)
 236:d:/software/ovi_2503a_s3trc/ovi_2503a_s3trc/Tools/MinGW/include/c++/3.3.1/bits/vector.tcc ****         iterator __new_start(_M_allocate(__len));
 6426              	LM274:
 6427 012f 8B45C0   		movl	-64(%ebp), %eax
 6428 0132 89442404 		movl	%eax, 4(%esp)
 6429 0136 8B4508   		movl	8(%ebp), %eax
 6430 0139 890424   		movl	%eax, (%esp)
 6431 013c C78574FF 		movl	$-1, -140(%ebp)
 6431      FFFFFFFF 
 6431      FFFF
 6432 0146 E8000000 		call	__ZNSt18_Vector_alloc_baseIN10ThreadPool10ThreadDataESaIS1_ELb1EE11_M_allocateEj
 6432      00
 6433 014b 8945B8   		movl	%eax, -72(%ebp)
 6434 014e 8D45B8   		leal	-72(%ebp), %eax
 6435 0151 89442404 		movl	%eax, 4(%esp)
 6436 0155 8D45BC   		leal	-68(%ebp), %eax
 6437 0158 890424   		movl	%eax, (%esp)
 6438 015b E8000000 		call	__ZN9__gnu_cxx17__normal_iteratorIPN10ThreadPool10ThreadDataESt6vectorIS2_SaIS2_EEEC1ERKS3_
 6438      00
 237:d:/software/ovi_2503a_s3trc/ovi_2503a_s3trc/Tools/MinGW/include/c++/3.3.1/bits/vector.tcc ****         iterator __new_finish(__new_start);
 6440              	LM275:
 6441 0160 8B45BC   		movl	-68(%ebp), %eax
 6442 0163 8945B4   		movl	%eax, -76(%ebp)
 238:d:/software/ovi_2503a_s3trc/ovi_2503a_s3trc/Tools/MinGW/include/c++/3.3.1/bits/vector.tcc ****         try
 239:d:/software/ovi_2503a_s3trc/ovi_2503a_s3trc/Tools/MinGW/include/c++/3.3.1/bits/vector.tcc ****           {
 240:d:/software/ovi_2503a_s3trc/ovi_2503a_s3trc/Tools/MinGW/include/c++/3.3.1/bits/vector.tcc ****             __new_finish = uninitialized_copy(iterator(_M_start), __position,
 6444              	LM276:
 6445 0166 8B4508   		movl	8(%ebp), %eax
 6446 0169 89442404 		movl	%eax, 4(%esp)
 6447 016d 8D45AC   		leal	-84(%ebp), %eax
 6448 0170 890424   		movl	%eax, (%esp)
 6449 0173 E8000000 		call	__ZN9__gnu_cxx17__normal_iteratorIPN10ThreadPool10ThreadDataESt6vectorIS2_SaIS2_EEEC1ERKS3_
 6449      00
 6450 0178 8B45BC   		movl	-68(%ebp), %eax
GAS LISTING d:/software/ovi_2503a_s3trc/ovi_2503a_s3trc/plutommi/Customer/ResGenerator/gcctmp/cci0baaa.s 			page 128


 6451 017b 89442408 		movl	%eax, 8(%esp)
 6452 017f 8B450C   		movl	12(%ebp), %eax
 6453 0182 89442404 		movl	%eax, 4(%esp)
 6454 0186 8B45AC   		movl	-84(%ebp), %eax
 6455 0189 890424   		movl	%eax, (%esp)
 6456 018c C78574FF 		movl	$2, -140(%ebp)
 6456      FFFF0200 
 6456      0000
 6457 0196 E8000000 		call	__ZSt18uninitialized_copyIN9__gnu_cxx17__normal_iteratorIPN10ThreadPool10ThreadDataESt6vector
 6457      00
 6458 019b 8945B0   		movl	%eax, -80(%ebp)
 6459 019e 8B45B0   		movl	-80(%ebp), %eax
 6460 01a1 8945B4   		movl	%eax, -76(%ebp)
 241:d:/software/ovi_2503a_s3trc/ovi_2503a_s3trc/Tools/MinGW/include/c++/3.3.1/bits/vector.tcc ****                                               __new_start);
 242:d:/software/ovi_2503a_s3trc/ovi_2503a_s3trc/Tools/MinGW/include/c++/3.3.1/bits/vector.tcc ****             _Construct(__new_finish.base(), __x);
 6462              	LM277:
 6463 01a4 8D45B4   		leal	-76(%ebp), %eax
 6464 01a7 890424   		movl	%eax, (%esp)
 6465 01aa E8000000 		call	__ZNK9__gnu_cxx17__normal_iteratorIPN10ThreadPool10ThreadDataESt6vectorIS2_SaIS2_EEE4baseEv
 6465      00
 6466 01af 89C2     		movl	%eax, %edx
 6467 01b1 8B4510   		movl	16(%ebp), %eax
 6468 01b4 89442404 		movl	%eax, 4(%esp)
 6469 01b8 8B02     		movl	(%edx), %eax
 6470 01ba 890424   		movl	%eax, (%esp)
 6471 01bd E8000000 		call	__ZSt10_ConstructIN10ThreadPool10ThreadDataES1_EvPT_RKT0_
 6471      00
 243:d:/software/ovi_2503a_s3trc/ovi_2503a_s3trc/Tools/MinGW/include/c++/3.3.1/bits/vector.tcc ****             ++__new_finish;
 6473              	LM278:
 6474 01c2 8D45B4   		leal	-76(%ebp), %eax
 6475 01c5 890424   		movl	%eax, (%esp)
 6476 01c8 E8000000 		call	__ZN9__gnu_cxx17__normal_iteratorIPN10ThreadPool10ThreadDataESt6vectorIS2_SaIS2_EEEppEv
 6476      00
 244:d:/software/ovi_2503a_s3trc/ovi_2503a_s3trc/Tools/MinGW/include/c++/3.3.1/bits/vector.tcc ****             __new_finish = uninitialized_copy(__position, iterator(_M_finish),
 6478              	LM279:
 6479 01cd 8B4508   		movl	8(%ebp), %eax
 6480 01d0 83C004   		addl	$4, %eax
 6481 01d3 89442404 		movl	%eax, 4(%esp)
 6482 01d7 8D45A4   		leal	-92(%ebp), %eax
 6483 01da 890424   		movl	%eax, (%esp)
 6484 01dd E8000000 		call	__ZN9__gnu_cxx17__normal_iteratorIPN10ThreadPool10ThreadDataESt6vectorIS2_SaIS2_EEEC1ERKS3_
 6484      00
 6485 01e2 8B45B4   		movl	-76(%ebp), %eax
 6486 01e5 89442408 		movl	%eax, 8(%esp)
 6487 01e9 8B45A4   		movl	-92(%ebp), %eax
 6488 01ec 89442404 		movl	%eax, 4(%esp)
 6489 01f0 8B450C   		movl	12(%ebp), %eax
 6490 01f3 890424   		movl	%eax, (%esp)
 6491 01f6 E8000000 		call	__ZSt18uninitialized_copyIN9__gnu_cxx17__normal_iteratorIPN10ThreadPool10ThreadDataESt6vector
 6491      00
 6492 01fb 8945A8   		movl	%eax, -88(%ebp)
 6493 01fe 8B45A8   		movl	-88(%ebp), %eax
 6494 0201 8945B4   		movl	%eax, -76(%ebp)
 6495 0204 E9AD0000 		jmp	L250
 6495      00
 245:d:/software/ovi_2503a_s3trc/ovi_2503a_s3trc/Tools/MinGW/include/c++/3.3.1/bits/vector.tcc ****                                               __new_finish);
 246:d:/software/ovi_2503a_s3trc/ovi_2503a_s3trc/Tools/MinGW/include/c++/3.3.1/bits/vector.tcc ****           }
GAS LISTING d:/software/ovi_2503a_s3trc/ovi_2503a_s3trc/plutommi/Customer/ResGenerator/gcctmp/cci0baaa.s 			page 129


 247:d:/software/ovi_2503a_s3trc/ovi_2503a_s3trc/Tools/MinGW/include/c++/3.3.1/bits/vector.tcc ****         catch(...)
 6497              	LM280:
 6498              	L256:
 6499              	L251:
 6500 0209 8B9568FF 		movl	-152(%ebp), %edx
 6500      FFFF
 6501 020f 891424   		movl	%edx, (%esp)
 6502 0212 E8000000 		call	___cxa_begin_catch
 6502      00
 248:d:/software/ovi_2503a_s3trc/ovi_2503a_s3trc/Tools/MinGW/include/c++/3.3.1/bits/vector.tcc ****           {
 249:d:/software/ovi_2503a_s3trc/ovi_2503a_s3trc/Tools/MinGW/include/c++/3.3.1/bits/vector.tcc ****             _Destroy(__new_start,__new_finish);
 6504              	LM281:
 6505 0217 8B45B4   		movl	-76(%ebp), %eax
 6506 021a 89442404 		movl	%eax, 4(%esp)
 6507 021e 8B45BC   		movl	-68(%ebp), %eax
 6508 0221 890424   		movl	%eax, (%esp)
 6509 0224 E8000000 		call	__ZSt8_DestroyIN9__gnu_cxx17__normal_iteratorIPN10ThreadPool10ThreadDataESt6vectorIS3_SaIS3_E
 6509      00
 250:d:/software/ovi_2503a_s3trc/ovi_2503a_s3trc/Tools/MinGW/include/c++/3.3.1/bits/vector.tcc ****             _M_deallocate(__new_start.base(),__len);
 6511              	LM282:
 6512 0229 8D45BC   		leal	-68(%ebp), %eax
 6513 022c 890424   		movl	%eax, (%esp)
 6514 022f E8000000 		call	__ZNK9__gnu_cxx17__normal_iteratorIPN10ThreadPool10ThreadDataESt6vectorIS2_SaIS2_EEE4baseEv
 6514      00
 6515 0234 89C2     		movl	%eax, %edx
 6516 0236 8B45C0   		movl	-64(%ebp), %eax
 6517 0239 89442408 		movl	%eax, 8(%esp)
 6518 023d 8B02     		movl	(%edx), %eax
 6519 023f 89442404 		movl	%eax, 4(%esp)
 6520 0243 8B4508   		movl	8(%ebp), %eax
 6521 0246 890424   		movl	%eax, (%esp)
 6522 0249 C78574FF 		movl	$1, -140(%ebp)
 6522      FFFF0100 
 6522      0000
 6523 0253 E8000000 		call	__ZNSt18_Vector_alloc_baseIN10ThreadPool10ThreadDataESaIS1_ELb1EE13_M_deallocateEPS1_j
 6523      00
 251:d:/software/ovi_2503a_s3trc/ovi_2503a_s3trc/Tools/MinGW/include/c++/3.3.1/bits/vector.tcc ****             __throw_exception_again;
 6525              	LM283:
 6526 0258 E8000000 		call	___cxa_rethrow
 6526      00
 6527              	L257:
 6528 025d 8D6D18   		leal	24(%ebp), %ebp
 6529 0260 8B8574FF 		movl	-140(%ebp), %eax
 6529      FFFF
 6530 0266 8B9578FF 		movl	-136(%ebp), %edx
 6530      FFFF
 6531 026c 899568FF 		movl	%edx, -152(%ebp)
 6531      FFFF
 6532 0272 83F801   		cmpl	$1, %eax
 6533 0275 7492     		je	L256
 6534              	L252:
 6535 0277 8B8568FF 		movl	-152(%ebp), %eax
 6535      FFFF
 6536 027d 898564FF 		movl	%eax, -156(%ebp)
 6536      FFFF
 6537 0283 C78574FF 		movl	$0, -140(%ebp)
 6537      FFFF0000 
GAS LISTING d:/software/ovi_2503a_s3trc/ovi_2503a_s3trc/plutommi/Customer/ResGenerator/gcctmp/cci0baaa.s 			page 130


 6537      0000
 6538 028d E8000000 		call	___cxa_end_catch
 6538      00
 6539 0292 8B9564FF 		movl	-156(%ebp), %edx
 6539      FFFF
 6540 0298 899568FF 		movl	%edx, -152(%ebp)
 6540      FFFF
 6541              	L254:
 6542 029e 8B8568FF 		movl	-152(%ebp), %eax
 6542      FFFF
 6543 02a4 890424   		movl	%eax, (%esp)
 6544 02a7 C78574FF 		movl	$-1, -140(%ebp)
 6544      FFFFFFFF 
 6544      FFFF
 6545 02b1 E8000000 		call	__Unwind_SjLj_Resume
 6545      00
 6546              	L250:
 252:d:/software/ovi_2503a_s3trc/ovi_2503a_s3trc/Tools/MinGW/include/c++/3.3.1/bits/vector.tcc ****           }
 253:d:/software/ovi_2503a_s3trc/ovi_2503a_s3trc/Tools/MinGW/include/c++/3.3.1/bits/vector.tcc ****         _Destroy(begin(), end());
 6548              	LM284:
 6549 02b6 8B4508   		movl	8(%ebp), %eax
 6550 02b9 890424   		movl	%eax, (%esp)
 6551 02bc E8000000 		call	__ZNSt6vectorIN10ThreadPool10ThreadDataESaIS1_EE3endEv
 6551      00
 6552 02c1 8945A0   		movl	%eax, -96(%ebp)
 6553 02c4 8B4508   		movl	8(%ebp), %eax
 6554 02c7 890424   		movl	%eax, (%esp)
 6555 02ca E8000000 		call	__ZNSt6vectorIN10ThreadPool10ThreadDataESaIS1_EE5beginEv
 6555      00
 6556 02cf 89459C   		movl	%eax, -100(%ebp)
 6557 02d2 8B45A0   		movl	-96(%ebp), %eax
 6558 02d5 89442404 		movl	%eax, 4(%esp)
 6559 02d9 8B459C   		movl	-100(%ebp), %eax
 6560 02dc 890424   		movl	%eax, (%esp)
 6561 02df E8000000 		call	__ZSt8_DestroyIN9__gnu_cxx17__normal_iteratorIPN10ThreadPool10ThreadDataESt6vectorIS3_SaIS3_E
 6561      00
 254:d:/software/ovi_2503a_s3trc/ovi_2503a_s3trc/Tools/MinGW/include/c++/3.3.1/bits/vector.tcc ****         _M_deallocate(_M_start, _M_end_of_storage - _M_start);
 6563              	LM285:
 6564 02e4 8B4D08   		movl	8(%ebp), %ecx
 6565 02e7 8B4508   		movl	8(%ebp), %eax
 6566 02ea 8B10     		movl	(%eax), %edx
 6567 02ec 8B4108   		movl	8(%ecx), %eax
 6568 02ef 29D0     		subl	%edx, %eax
 6569 02f1 C1F802   		sarl	$2, %eax
 6570 02f4 69C0ABAA 		imull	$-1431655765, %eax, %eax
 6570      AAAA
 6571 02fa 89442408 		movl	%eax, 8(%esp)
 6572 02fe 8B4508   		movl	8(%ebp), %eax
 6573 0301 8B00     		movl	(%eax), %eax
 6574 0303 89442404 		movl	%eax, 4(%esp)
 6575 0307 8B4508   		movl	8(%ebp), %eax
 6576 030a 890424   		movl	%eax, (%esp)
 6577 030d C78574FF 		movl	$-1, -140(%ebp)
 6577      FFFFFFFF 
 6577      FFFF
 6578 0317 E8000000 		call	__ZNSt18_Vector_alloc_baseIN10ThreadPool10ThreadDataESaIS1_ELb1EE13_M_deallocateEPS1_j
 6578      00
GAS LISTING d:/software/ovi_2503a_s3trc/ovi_2503a_s3trc/plutommi/Customer/ResGenerator/gcctmp/cci0baaa.s 			page 131


 255:d:/software/ovi_2503a_s3trc/ovi_2503a_s3trc/Tools/MinGW/include/c++/3.3.1/bits/vector.tcc ****         _M_start = __new_start.base();
 6580              	LM286:
 6581 031c 8B5508   		movl	8(%ebp), %edx
 6582 031f 899560FF 		movl	%edx, -160(%ebp)
 6582      FFFF
 6583 0325 8D45BC   		leal	-68(%ebp), %eax
 6584 0328 890424   		movl	%eax, (%esp)
 6585 032b E8000000 		call	__ZNK9__gnu_cxx17__normal_iteratorIPN10ThreadPool10ThreadDataESt6vectorIS2_SaIS2_EEE4baseEv
 6585      00
 6586 0330 8B00     		movl	(%eax), %eax
 6587 0332 8B9560FF 		movl	-160(%ebp), %edx
 6587      FFFF
 6588 0338 8902     		movl	%eax, (%edx)
 256:d:/software/ovi_2503a_s3trc/ovi_2503a_s3trc/Tools/MinGW/include/c++/3.3.1/bits/vector.tcc ****         _M_finish = __new_finish.base();
 6590              	LM287:
 6591 033a 8B4508   		movl	8(%ebp), %eax
 6592 033d 89855CFF 		movl	%eax, -164(%ebp)
 6592      FFFF
 6593 0343 8D45B4   		leal	-76(%ebp), %eax
 6594 0346 890424   		movl	%eax, (%esp)
 6595 0349 E8000000 		call	__ZNK9__gnu_cxx17__normal_iteratorIPN10ThreadPool10ThreadDataESt6vectorIS2_SaIS2_EEE4baseEv
 6595      00
 6596 034e 8B00     		movl	(%eax), %eax
 6597 0350 8B955CFF 		movl	-164(%ebp), %edx
 6597      FFFF
 6598 0356 894204   		movl	%eax, 4(%edx)
 257:d:/software/ovi_2503a_s3trc/ovi_2503a_s3trc/Tools/MinGW/include/c++/3.3.1/bits/vector.tcc ****         _M_end_of_storage = __new_start.base() + __len;
 6600              	LM288:
 6601 0359 8B4508   		movl	8(%ebp), %eax
 6602 035c 898558FF 		movl	%eax, -168(%ebp)
 6602      FFFF
 6603 0362 8D45BC   		leal	-68(%ebp), %eax
 6604 0365 890424   		movl	%eax, (%esp)
 6605 0368 E8000000 		call	__ZNK9__gnu_cxx17__normal_iteratorIPN10ThreadPool10ThreadDataESt6vectorIS2_SaIS2_EEE4baseEv
 6605      00
 6606 036d 89C1     		movl	%eax, %ecx
 6607 036f 8B55C0   		movl	-64(%ebp), %edx
 6608 0372 89D0     		movl	%edx, %eax
 6609 0374 01C0     		addl	%eax, %eax
 6610 0376 01D0     		addl	%edx, %eax
 6611 0378 C1E002   		sall	$2, %eax
 6612 037b 0301     		addl	(%ecx), %eax
 6613 037d 8B9558FF 		movl	-168(%ebp), %edx
 6613      FFFF
 6614 0383 894208   		movl	%eax, 8(%edx)
 6615              	L245:
 6616 0386 8D8570FF 		leal	-144(%ebp), %eax
 6616      FFFF
 6617 038c 890424   		movl	%eax, (%esp)
 6618 038f E8000000 		call	__Unwind_SjLj_Unregister
 6618      00
 6619 0394 81C4AC00 		addl	$172, %esp
 6619      0000
 6620 039a 5B       		popl	%ebx
 6621 039b 5E       		popl	%esi
 6622 039c 5F       		popl	%edi
 6623 039d 5D       		popl	%ebp
GAS LISTING d:/software/ovi_2503a_s3trc/ovi_2503a_s3trc/plutommi/Customer/ResGenerator/gcctmp/cci0baaa.s 			page 132


 6624 039e C3       		ret
 6625              	LBE77:
 6626              	LBE75:
 6627              	LBE74:
 6628              		.section	.gcc_except_table,""
 6629 0032 0000     		.align 4
 6630              	LLSDA819:
 6631 0034 FF       		.byte	0xff
 6632 0035 00       		.byte	0x0
 6633 0036 0D       		.uleb128 LLSDATT819-LLSDATTD819
 6634              	LLSDATTD819:
 6635 0037 01       		.byte	0x1
 6636 0038 04       		.uleb128 LLSDACSE819-LLSDACSB819
 6637              	LLSDACSB819:
 6638 0039 00       		.uleb128 0x0
 6639 003a 00       		.uleb128 0x0
 6640 003b 01       		.uleb128 0x1
 6641 003c 01       		.uleb128 0x1
 6642              	LLSDACSE819:
 6643 003d 01       		.byte	0x1
 6644 003e 00       		.byte	0x0
 6645 003f 00       		.align 4
 6646 0040 00000000 		.long	0
 6647              	LLSDATT819:
 6648              		.section	.text$_ZNSt6vectorIN10ThreadPool10ThreadDataESaIS1_EE13_M_insert_auxEN9__gnu_cxx17__norma
 6649              		.linkonce discard
 6659              	Lscope56:
 6661 039f 90       		.section	.text$_ZNSt14_List_iteratorIN10ThreadPool7JobDataERS1_PS1_EC1EPSt10_List_nodeIS1_E,"x"
 6662              		.linkonce discard
 6663              		.align 2
 6667              	.globl __ZNSt14_List_iteratorIN10ThreadPool7JobDataERS1_PS1_EC1EPSt10_List_nodeIS1_E
 6669              	__ZNSt14_List_iteratorIN10ThreadPool7JobDataERS1_PS1_EC1EPSt10_List_nodeIS1_E:
 6671              	Ltext23:
 6673              	LM289:
 6674 0000 55       		pushl	%ebp
 6675 0001 89E5     		movl	%esp, %ebp
 6676 0003 83EC08   		subl	$8, %esp
 6678              	LM290:
 6679              	LBB78:
 6680 0006 8B450C   		movl	12(%ebp), %eax
 6681 0009 89442404 		movl	%eax, 4(%esp)
 6682 000d 8B4508   		movl	8(%ebp), %eax
 6683 0010 890424   		movl	%eax, (%esp)
 6684 0013 E8000000 		call	__ZNSt19_List_iterator_baseC2EPSt15_List_node_base
 6684      00
 6685 0018 C9       		leave
 6686 0019 C3       		ret
 6687              	LBE78:
 6688              	Lscope57:
 6690 001a 9090     		.section	.text$_ZNKSt14_List_iteratorIN10ThreadPool7JobDataERS1_PS1_EdeEv,"x"
 6691              		.linkonce discard
 6692              		.align 2
 6695              	.globl __ZNKSt14_List_iteratorIN10ThreadPool7JobDataERS1_PS1_EdeEv
 6697              	__ZNKSt14_List_iteratorIN10ThreadPool7JobDataERS1_PS1_EdeEv:
 6699              	LM291:
 6700 0000 55       		pushl	%ebp
 6701 0001 89E5     		movl	%esp, %ebp
GAS LISTING d:/software/ovi_2503a_s3trc/ovi_2503a_s3trc/plutommi/Customer/ResGenerator/gcctmp/cci0baaa.s 			page 133


 6703              	LM292:
 6704              	LBB79:
 6705 0003 8B4508   		movl	8(%ebp), %eax
 6706 0006 8B00     		movl	(%eax), %eax
 6707 0008 83C008   		addl	$8, %eax
 6708 000b 5D       		popl	%ebp
 6709 000c C3       		ret
 6710              	LBE79:
 6711              	Lscope58:
 6713 000d 909090   		.section	.text$_ZSt8_DestroyIN9__gnu_cxx17__normal_iteratorIPN10ThreadPool10ThreadDataESt6vectorIS
 6714              		.linkonce discard
 6715              		.align 2
 6719              	.globl __ZSt8_DestroyIN9__gnu_cxx17__normal_iteratorIPN10ThreadPool10ThreadDataESt6vectorIS3_SaIS3_
 6721              	__ZSt8_DestroyIN9__gnu_cxx17__normal_iteratorIPN10ThreadPool10ThreadDataESt6vectorIS3_SaIS3_EEEEEvT
 6723              	Ltext24:
 6725              	LM293:
 6726 0000 55       		pushl	%ebp
 6727 0001 89E5     		movl	%esp, %ebp
 6728 0003 83EC18   		subl	$24, %esp
 6730              	LM294:
 6731              	LBB80:
 6732 0006 C6442408 		movb	$0, 8(%esp)
 6732      00
 6733 000b 8B450C   		movl	12(%ebp), %eax
 6734 000e 89442404 		movl	%eax, 4(%esp)
 6735 0012 8B4508   		movl	8(%ebp), %eax
 6736 0015 890424   		movl	%eax, (%esp)
 6737 0018 E8000000 		call	__ZSt13__destroy_auxIN9__gnu_cxx17__normal_iteratorIPN10ThreadPool10ThreadDataESt6vectorIS3_S
 6737      00
 6738 001d C9       		leave
 6739 001e C3       		ret
 6740              	LBE80:
 6741              	Lscope59:
 6743 001f 90       		.section	.text$_ZNSt6vectorIN10ThreadPool10ThreadDataESaIS1_EE5eraseEN9__gnu_cxx17__normal_iterato
 6744              		.linkonce discard
 6745              		.align 2
 6750              	.globl __ZNSt6vectorIN10ThreadPool10ThreadDataESaIS1_EE5eraseEN9__gnu_cxx17__normal_iteratorIPS1_S3
 6752              	__ZNSt6vectorIN10ThreadPool10ThreadDataESaIS1_EE5eraseEN9__gnu_cxx17__normal_iteratorIPS1_S3_EES7_:
 6754              	Ltext25:
 6756              	LM295:
 6757 0000 55       		pushl	%ebp
 6758 0001 89E5     		movl	%esp, %ebp
 6759 0003 56       		pushl	%esi
 6760 0004 53       		pushl	%ebx
 6761 0005 83EC20   		subl	$32, %esp
 6763              	LM296:
 6764              	LBB81:
 6765 0008 8B4508   		movl	8(%ebp), %eax
 6766 000b 890424   		movl	%eax, (%esp)
 6767 000e E8000000 		call	__ZNSt6vectorIN10ThreadPool10ThreadDataESaIS1_EE3endEv
 6767      00
 6768 0013 8945F0   		movl	%eax, -16(%ebp)
 6769 0016 8B450C   		movl	12(%ebp), %eax
 6770 0019 89442408 		movl	%eax, 8(%esp)
 6771 001d 8B45F0   		movl	-16(%ebp), %eax
 6772 0020 89442404 		movl	%eax, 4(%esp)
 6773 0024 8B4510   		movl	16(%ebp), %eax
GAS LISTING d:/software/ovi_2503a_s3trc/ovi_2503a_s3trc/plutommi/Customer/ResGenerator/gcctmp/cci0baaa.s 			page 134


 6774 0027 890424   		movl	%eax, (%esp)
 6775 002a E8000000 		call	__ZSt4copyIN9__gnu_cxx17__normal_iteratorIPN10ThreadPool10ThreadDataESt6vectorIS3_SaIS3_EEEES
 6775      00
 6776 002f 8945F4   		movl	%eax, -12(%ebp)
 6778              	LM297:
 6779 0032 8B4508   		movl	8(%ebp), %eax
 6780 0035 890424   		movl	%eax, (%esp)
 6781 0038 E8000000 		call	__ZNSt6vectorIN10ThreadPool10ThreadDataESaIS1_EE3endEv
 6781      00
 6782 003d 8945EC   		movl	%eax, -20(%ebp)
 6783 0040 8B45EC   		movl	-20(%ebp), %eax
 6784 0043 89442404 		movl	%eax, 4(%esp)
 6785 0047 8B45F4   		movl	-12(%ebp), %eax
 6786 004a 890424   		movl	%eax, (%esp)
 6787 004d E8000000 		call	__ZSt8_DestroyIN9__gnu_cxx17__normal_iteratorIPN10ThreadPool10ThreadDataESt6vectorIS3_SaIS3_E
 6787      00
 6789              	LM298:
 6790 0052 8B5D08   		movl	8(%ebp), %ebx
 6791 0055 8B7508   		movl	8(%ebp), %esi
 6792 0058 8D450C   		leal	12(%ebp), %eax
 6793 005b 89442404 		movl	%eax, 4(%esp)
 6794 005f 8D4510   		leal	16(%ebp), %eax
 6795 0062 890424   		movl	%eax, (%esp)
 6796 0065 E8000000 		call	__ZN9__gnu_cxxmiIPN10ThreadPool10ThreadDataES3_St6vectorIS2_SaIS2_EEEENS_17__normal_iteratorI
 6796      00
 6797 006a 89C2     		movl	%eax, %edx
 6798 006c 89D0     		movl	%edx, %eax
 6799 006e 01C0     		addl	%eax, %eax
 6800 0070 01D0     		addl	%edx, %eax
 6801 0072 8D148500 		leal	0(,%eax,4), %edx
 6801      000000
 6802 0079 8B4604   		movl	4(%esi), %eax
 6803 007c 29D0     		subl	%edx, %eax
 6804 007e 894304   		movl	%eax, 4(%ebx)
 6806              	LM299:
 6807 0081 8B450C   		movl	12(%ebp), %eax
 6808 0084 83C420   		addl	$32, %esp
 6809 0087 5B       		popl	%ebx
 6810 0088 5E       		popl	%esi
 6811 0089 5D       		popl	%ebp
 6812 008a C3       		ret
 6813              	LBE81:
 6817              	Lscope60:
 6819 008b 90       		.section	.text$_ZNSt4listIN10ThreadPool7JobDataESaIS1_EE6insertESt14_List_iteratorIS1_RS1_PS1_ERKS
 6820              		.linkonce discard
 6821              		.align 2
 6826              	.globl __ZNSt4listIN10ThreadPool7JobDataESaIS1_EE6insertESt14_List_iteratorIS1_RS1_PS1_ERKS1_
 6828              	__ZNSt4listIN10ThreadPool7JobDataESaIS1_EE6insertESt14_List_iteratorIS1_RS1_PS1_ERKS1_:
 6830              	Ltext26:
  82:d:/software/ovi_2503a_s3trc/ovi_2503a_s3trc/Tools/MinGW/include/c++/3.3.1/bits/list.tcc ****     }
  83:d:/software/ovi_2503a_s3trc/ovi_2503a_s3trc/Tools/MinGW/include/c++/3.3.1/bits/list.tcc ****   
  84:d:/software/ovi_2503a_s3trc/ovi_2503a_s3trc/Tools/MinGW/include/c++/3.3.1/bits/list.tcc ****   template<typename _Tp, typename _Alloc>
  85:d:/software/ovi_2503a_s3trc/ovi_2503a_s3trc/Tools/MinGW/include/c++/3.3.1/bits/list.tcc ****     typename list<_Tp,_Alloc>::iterator
  86:d:/software/ovi_2503a_s3trc/ovi_2503a_s3trc/Tools/MinGW/include/c++/3.3.1/bits/list.tcc ****     list<_Tp,_Alloc>::
  87:d:/software/ovi_2503a_s3trc/ovi_2503a_s3trc/Tools/MinGW/include/c++/3.3.1/bits/list.tcc ****     insert(iterator __position, const value_type& __x)
  88:d:/software/ovi_2503a_s3trc/ovi_2503a_s3trc/Tools/MinGW/include/c++/3.3.1/bits/list.tcc ****     {
 6832              	LM300:
GAS LISTING d:/software/ovi_2503a_s3trc/ovi_2503a_s3trc/plutommi/Customer/ResGenerator/gcctmp/cci0baaa.s 			page 135


 6833 0000 55       		pushl	%ebp
 6834 0001 89E5     		movl	%esp, %ebp
 6835 0003 56       		pushl	%esi
 6836 0004 53       		pushl	%ebx
 6837 0005 83EC10   		subl	$16, %esp
 6838 0008 8B7508   		movl	8(%ebp), %esi
 6839 000b 8B5D10   		movl	16(%ebp), %ebx
  89:d:/software/ovi_2503a_s3trc/ovi_2503a_s3trc/Tools/MinGW/include/c++/3.3.1/bits/list.tcc ****       _Node* __tmp = _M_create_node(__x);
 6841              	LM301:
 6842              	LBB82:
 6843 000e 8B4514   		movl	20(%ebp), %eax
 6844 0011 89442404 		movl	%eax, 4(%esp)
 6845 0015 8B450C   		movl	12(%ebp), %eax
 6846 0018 890424   		movl	%eax, (%esp)
 6847 001b E8000000 		call	__ZNSt4listIN10ThreadPool7JobDataESaIS1_EE14_M_create_nodeERKS1_
 6847      00
 6848 0020 8945F4   		movl	%eax, -12(%ebp)
  90:d:/software/ovi_2503a_s3trc/ovi_2503a_s3trc/Tools/MinGW/include/c++/3.3.1/bits/list.tcc ****       __tmp->_M_next = __position._M_node;
 6850              	LM302:
 6851 0023 8B55F4   		movl	-12(%ebp), %edx
 6852 0026 8B03     		movl	(%ebx), %eax
 6853 0028 8902     		movl	%eax, (%edx)
  91:d:/software/ovi_2503a_s3trc/ovi_2503a_s3trc/Tools/MinGW/include/c++/3.3.1/bits/list.tcc ****       __tmp->_M_prev = __position._M_node->_M_prev;
 6855              	LM303:
 6856 002a 8B55F4   		movl	-12(%ebp), %edx
 6857 002d 8B03     		movl	(%ebx), %eax
 6858 002f 8B4004   		movl	4(%eax), %eax
 6859 0032 894204   		movl	%eax, 4(%edx)
  92:d:/software/ovi_2503a_s3trc/ovi_2503a_s3trc/Tools/MinGW/include/c++/3.3.1/bits/list.tcc ****       __position._M_node->_M_prev->_M_next = __tmp;
 6861              	LM304:
 6862 0035 8B03     		movl	(%ebx), %eax
 6863 0037 8B5004   		movl	4(%eax), %edx
 6864 003a 8B45F4   		movl	-12(%ebp), %eax
 6865 003d 8902     		movl	%eax, (%edx)
  93:d:/software/ovi_2503a_s3trc/ovi_2503a_s3trc/Tools/MinGW/include/c++/3.3.1/bits/list.tcc ****       __position._M_node->_M_prev = __tmp;
 6867              	LM305:
 6868 003f 8B13     		movl	(%ebx), %edx
 6869 0041 8B45F4   		movl	-12(%ebp), %eax
 6870 0044 894204   		movl	%eax, 4(%edx)
  94:d:/software/ovi_2503a_s3trc/ovi_2503a_s3trc/Tools/MinGW/include/c++/3.3.1/bits/list.tcc ****       return __tmp;
 6872              	LM306:
 6873 0047 8B45F4   		movl	-12(%ebp), %eax
 6874 004a 89442404 		movl	%eax, 4(%esp)
 6875 004e 893424   		movl	%esi, (%esp)
 6876 0051 E8000000 		call	__ZNSt14_List_iteratorIN10ThreadPool7JobDataERS1_PS1_EC1EPSt10_List_nodeIS1_E
 6876      00
 6877              	LBE82:
 6878 0056 89F0     		movl	%esi, %eax
 6879 0058 83C410   		addl	$16, %esp
 6880 005b 5B       		popl	%ebx
 6881 005c 5E       		popl	%esi
 6882 005d 5D       		popl	%ebp
 6883 005e C20400   		ret	$4
 6888              	Lscope61:
 6890 0061 909090   		.section	.text$_ZNSt4listIN10ThreadPool7JobDataESaIS1_EE5eraseESt14_List_iteratorIS1_RS1_PS1_E,"x"
 6891              		.linkonce discard
 6892              		.align 2
GAS LISTING d:/software/ovi_2503a_s3trc/ovi_2503a_s3trc/plutommi/Customer/ResGenerator/gcctmp/cci0baaa.s 			page 136


 6896              	.globl __ZNSt4listIN10ThreadPool7JobDataESaIS1_EE5eraseESt14_List_iteratorIS1_RS1_PS1_E
 6898              	__ZNSt4listIN10ThreadPool7JobDataESaIS1_EE5eraseESt14_List_iteratorIS1_RS1_PS1_E:
  95:d:/software/ovi_2503a_s3trc/ovi_2503a_s3trc/Tools/MinGW/include/c++/3.3.1/bits/list.tcc ****     }
  96:d:/software/ovi_2503a_s3trc/ovi_2503a_s3trc/Tools/MinGW/include/c++/3.3.1/bits/list.tcc ****   
  97:d:/software/ovi_2503a_s3trc/ovi_2503a_s3trc/Tools/MinGW/include/c++/3.3.1/bits/list.tcc ****   template<typename _Tp, typename _Alloc>
  98:d:/software/ovi_2503a_s3trc/ovi_2503a_s3trc/Tools/MinGW/include/c++/3.3.1/bits/list.tcc ****     typename list<_Tp,_Alloc>::iterator
  99:d:/software/ovi_2503a_s3trc/ovi_2503a_s3trc/Tools/MinGW/include/c++/3.3.1/bits/list.tcc ****     list<_Tp,_Alloc>::
 100:d:/software/ovi_2503a_s3trc/ovi_2503a_s3trc/Tools/MinGW/include/c++/3.3.1/bits/list.tcc ****     erase(iterator __position)
 101:d:/software/ovi_2503a_s3trc/ovi_2503a_s3trc/Tools/MinGW/include/c++/3.3.1/bits/list.tcc ****     {
 6900              	LM307:
 6901 0000 55       		pushl	%ebp
 6902 0001 89E5     		movl	%esp, %ebp
 6903 0003 53       		pushl	%ebx
 6904 0004 83EC14   		subl	$20, %esp
 6905 0007 8B5D08   		movl	8(%ebp), %ebx
 6906 000a 8B5510   		movl	16(%ebp), %edx
 102:d:/software/ovi_2503a_s3trc/ovi_2503a_s3trc/Tools/MinGW/include/c++/3.3.1/bits/list.tcc ****       _List_node_base* __next_node = __position._M_node->_M_next;
 6908              	LM308:
 6909              	LBB83:
 6910 000d 8B02     		movl	(%edx), %eax
 6911 000f 8B00     		movl	(%eax), %eax
 6912 0011 8945F8   		movl	%eax, -8(%ebp)
 103:d:/software/ovi_2503a_s3trc/ovi_2503a_s3trc/Tools/MinGW/include/c++/3.3.1/bits/list.tcc ****       _List_node_base* __prev_node = __position._M_node->_M_prev;
 6914              	LM309:
 6915 0014 8B02     		movl	(%edx), %eax
 6916 0016 8B4004   		movl	4(%eax), %eax
 6917 0019 8945F4   		movl	%eax, -12(%ebp)
 104:d:/software/ovi_2503a_s3trc/ovi_2503a_s3trc/Tools/MinGW/include/c++/3.3.1/bits/list.tcc ****       _Node* __n = static_cast<_Node*>(__position._M_node);
 6919              	LM310:
 6920 001c 8B02     		movl	(%edx), %eax
 6921 001e 8945F0   		movl	%eax, -16(%ebp)
 105:d:/software/ovi_2503a_s3trc/ovi_2503a_s3trc/Tools/MinGW/include/c++/3.3.1/bits/list.tcc ****       __prev_node->_M_next = __next_node;
 6923              	LM311:
 6924 0021 8B55F4   		movl	-12(%ebp), %edx
 6925 0024 8B45F8   		movl	-8(%ebp), %eax
 6926 0027 8902     		movl	%eax, (%edx)
 106:d:/software/ovi_2503a_s3trc/ovi_2503a_s3trc/Tools/MinGW/include/c++/3.3.1/bits/list.tcc ****       __next_node->_M_prev = __prev_node;
 6928              	LM312:
 6929 0029 8B55F8   		movl	-8(%ebp), %edx
 6930 002c 8B45F4   		movl	-12(%ebp), %eax
 6931 002f 894204   		movl	%eax, 4(%edx)
 107:d:/software/ovi_2503a_s3trc/ovi_2503a_s3trc/Tools/MinGW/include/c++/3.3.1/bits/list.tcc ****       _Destroy(&__n->_M_data);
 6933              	LM313:
 6934 0032 8B45F0   		movl	-16(%ebp), %eax
 6935 0035 83C008   		addl	$8, %eax
 6936 0038 890424   		movl	%eax, (%esp)
 6937 003b E8000000 		call	__ZSt8_DestroyIN10ThreadPool7JobDataEEvPT_
 6937      00
 108:d:/software/ovi_2503a_s3trc/ovi_2503a_s3trc/Tools/MinGW/include/c++/3.3.1/bits/list.tcc ****       _M_put_node(__n);
 6939              	LM314:
 6940 0040 8B45F0   		movl	-16(%ebp), %eax
 6941 0043 89442404 		movl	%eax, 4(%esp)
 6942 0047 8B450C   		movl	12(%ebp), %eax
 6943 004a 890424   		movl	%eax, (%esp)
 6944 004d E8000000 		call	__ZNSt16_List_alloc_baseIN10ThreadPool7JobDataESaIS1_ELb1EE11_M_put_nodeEPSt10_List_nodeIS1_E
 6944      00
 109:d:/software/ovi_2503a_s3trc/ovi_2503a_s3trc/Tools/MinGW/include/c++/3.3.1/bits/list.tcc ****       return iterator(static_cast<_Node*>(__next_node));
GAS LISTING d:/software/ovi_2503a_s3trc/ovi_2503a_s3trc/plutommi/Customer/ResGenerator/gcctmp/cci0baaa.s 			page 137


 6946              	LM315:
 6947 0052 8B45F8   		movl	-8(%ebp), %eax
 6948 0055 89442404 		movl	%eax, 4(%esp)
 6949 0059 891C24   		movl	%ebx, (%esp)
 6950 005c E8000000 		call	__ZNSt14_List_iteratorIN10ThreadPool7JobDataERS1_PS1_EC1EPSt10_List_nodeIS1_E
 6950      00
 6951              	LBE83:
 6952 0061 89D8     		movl	%ebx, %eax
 6953 0063 83C414   		addl	$20, %esp
 6954 0066 5B       		popl	%ebx
 6955 0067 5D       		popl	%ebp
 6956 0068 C20400   		ret	$4
 6963              	Lscope62:
 6965 006b 90       		.section	.text$_ZSt13__destroy_auxIPN10ThreadPool10ThreadDataEEvT_S3_12__false_type,"x"
 6966              		.linkonce discard
 6967              		.align 2
 6971              	.globl __ZSt13__destroy_auxIPN10ThreadPool10ThreadDataEEvT_S3_12__false_type
 6973              	__ZSt13__destroy_auxIPN10ThreadPool10ThreadDataEEvT_S3_12__false_type:
 6975              	Ltext27:
 6977              	LM316:
 6978 0000 55       		pushl	%ebp
 6979 0001 89E5     		movl	%esp, %ebp
 6980 0003 83EC08   		subl	$8, %esp
 6982              	LM317:
 6983              	LBB84:
 6984 0006 90       		nop
 6985              	L265:
 6986 0007 8B4508   		movl	8(%ebp), %eax
 6987 000a 3B450C   		cmpl	12(%ebp), %eax
 6988 000d 7502     		jne	L268
 6989 000f EB11     		jmp	L264
 6990              	L268:
 6991 0011 8B4508   		movl	8(%ebp), %eax
 6992 0014 890424   		movl	%eax, (%esp)
 6993 0017 E8000000 		call	__ZSt8_DestroyIN10ThreadPool10ThreadDataEEvPT_
 6993      00
 6994 001c 8345080C 		addl	$12, 8(%ebp)
 6995 0020 EBE5     		jmp	L265
 6996              	L264:
 6997 0022 C9       		leave
 6998 0023 C3       		ret
 6999              	LBE84:
 7000              	Lscope63:
 7002              		.section	.text$_ZSt18uninitialized_copyIN9__gnu_cxx17__normal_iteratorIPN10ThreadPool10ThreadDataE
 7003              		.linkonce discard
 7004              		.align 2
 7009              	.globl __ZSt18uninitialized_copyIN9__gnu_cxx17__normal_iteratorIPN10ThreadPool10ThreadDataESt6vecto
 7011              	__ZSt18uninitialized_copyIN9__gnu_cxx17__normal_iteratorIPN10ThreadPool10ThreadDataESt6vectorIS3_Sa
 7013              	Ltext28:
   1:d:/software/ovi_2503a_s3trc/ovi_2503a_s3trc/Tools/MinGW/include/c++/3.3.1/bits/stl_uninitialized.h **** // Raw memory manipulators -*- C++ -*-
   2:d:/software/ovi_2503a_s3trc/ovi_2503a_s3trc/Tools/MinGW/include/c++/3.3.1/bits/stl_uninitialized.h **** 
   3:d:/software/ovi_2503a_s3trc/ovi_2503a_s3trc/Tools/MinGW/include/c++/3.3.1/bits/stl_uninitialized.h **** // Copyright (C) 2001 Free Software Foundation, Inc.
   4:d:/software/ovi_2503a_s3trc/ovi_2503a_s3trc/Tools/MinGW/include/c++/3.3.1/bits/stl_uninitialized.h **** //
   5:d:/software/ovi_2503a_s3trc/ovi_2503a_s3trc/Tools/MinGW/include/c++/3.3.1/bits/stl_uninitialized.h **** // This file is part of the GNU ISO C++ Library.  This library is free
   6:d:/software/ovi_2503a_s3trc/ovi_2503a_s3trc/Tools/MinGW/include/c++/3.3.1/bits/stl_uninitialized.h **** // software; you can redistribute it and/or modify it under the
   7:d:/software/ovi_2503a_s3trc/ovi_2503a_s3trc/Tools/MinGW/include/c++/3.3.1/bits/stl_uninitialized.h **** // terms of the GNU General Public License as published by the
   8:d:/software/ovi_2503a_s3trc/ovi_2503a_s3trc/Tools/MinGW/include/c++/3.3.1/bits/stl_uninitialized.h **** // Free Software Foundation; either version 2, or (at your option)
GAS LISTING d:/software/ovi_2503a_s3trc/ovi_2503a_s3trc/plutommi/Customer/ResGenerator/gcctmp/cci0baaa.s 			page 138


   9:d:/software/ovi_2503a_s3trc/ovi_2503a_s3trc/Tools/MinGW/include/c++/3.3.1/bits/stl_uninitialized.h **** // any later version.
  10:d:/software/ovi_2503a_s3trc/ovi_2503a_s3trc/Tools/MinGW/include/c++/3.3.1/bits/stl_uninitialized.h **** 
  11:d:/software/ovi_2503a_s3trc/ovi_2503a_s3trc/Tools/MinGW/include/c++/3.3.1/bits/stl_uninitialized.h **** // This library is distributed in the hope that it will be useful,
  12:d:/software/ovi_2503a_s3trc/ovi_2503a_s3trc/Tools/MinGW/include/c++/3.3.1/bits/stl_uninitialized.h **** // but WITHOUT ANY WARRANTY; without even the implied warranty of
  13:d:/software/ovi_2503a_s3trc/ovi_2503a_s3trc/Tools/MinGW/include/c++/3.3.1/bits/stl_uninitialized.h **** // MERCHANTABILITY or FITNESS FOR A PARTICULAR PURPOSE.  See the
  14:d:/software/ovi_2503a_s3trc/ovi_2503a_s3trc/Tools/MinGW/include/c++/3.3.1/bits/stl_uninitialized.h **** // GNU General Public License for more details.
  15:d:/software/ovi_2503a_s3trc/ovi_2503a_s3trc/Tools/MinGW/include/c++/3.3.1/bits/stl_uninitialized.h **** 
  16:d:/software/ovi_2503a_s3trc/ovi_2503a_s3trc/Tools/MinGW/include/c++/3.3.1/bits/stl_uninitialized.h **** // You should have received a copy of the GNU General Public License along
  17:d:/software/ovi_2503a_s3trc/ovi_2503a_s3trc/Tools/MinGW/include/c++/3.3.1/bits/stl_uninitialized.h **** // with this library; see the file COPYING.  If not, write to the Free
  18:d:/software/ovi_2503a_s3trc/ovi_2503a_s3trc/Tools/MinGW/include/c++/3.3.1/bits/stl_uninitialized.h **** // Software Foundation, 59 Temple Place - Suite 330, Boston, MA 02111-1307,
  19:d:/software/ovi_2503a_s3trc/ovi_2503a_s3trc/Tools/MinGW/include/c++/3.3.1/bits/stl_uninitialized.h **** // USA.
  20:d:/software/ovi_2503a_s3trc/ovi_2503a_s3trc/Tools/MinGW/include/c++/3.3.1/bits/stl_uninitialized.h **** 
  21:d:/software/ovi_2503a_s3trc/ovi_2503a_s3trc/Tools/MinGW/include/c++/3.3.1/bits/stl_uninitialized.h **** // As a special exception, you may use this file as part of a free software
  22:d:/software/ovi_2503a_s3trc/ovi_2503a_s3trc/Tools/MinGW/include/c++/3.3.1/bits/stl_uninitialized.h **** // library without restriction.  Specifically, if other files instantiate
  23:d:/software/ovi_2503a_s3trc/ovi_2503a_s3trc/Tools/MinGW/include/c++/3.3.1/bits/stl_uninitialized.h **** // templates or use macros or inline functions from this file, or you compile
  24:d:/software/ovi_2503a_s3trc/ovi_2503a_s3trc/Tools/MinGW/include/c++/3.3.1/bits/stl_uninitialized.h **** // this file and link it with other files to produce an executable, this
  25:d:/software/ovi_2503a_s3trc/ovi_2503a_s3trc/Tools/MinGW/include/c++/3.3.1/bits/stl_uninitialized.h **** // file does not by itself cause the resulting executable to be covered by
  26:d:/software/ovi_2503a_s3trc/ovi_2503a_s3trc/Tools/MinGW/include/c++/3.3.1/bits/stl_uninitialized.h **** // the GNU General Public License.  This exception does not however
  27:d:/software/ovi_2503a_s3trc/ovi_2503a_s3trc/Tools/MinGW/include/c++/3.3.1/bits/stl_uninitialized.h **** // invalidate any other reasons why the executable file might be covered by
  28:d:/software/ovi_2503a_s3trc/ovi_2503a_s3trc/Tools/MinGW/include/c++/3.3.1/bits/stl_uninitialized.h **** // the GNU General Public License.
  29:d:/software/ovi_2503a_s3trc/ovi_2503a_s3trc/Tools/MinGW/include/c++/3.3.1/bits/stl_uninitialized.h **** 
  30:d:/software/ovi_2503a_s3trc/ovi_2503a_s3trc/Tools/MinGW/include/c++/3.3.1/bits/stl_uninitialized.h **** /*
  31:d:/software/ovi_2503a_s3trc/ovi_2503a_s3trc/Tools/MinGW/include/c++/3.3.1/bits/stl_uninitialized.h ****  *
  32:d:/software/ovi_2503a_s3trc/ovi_2503a_s3trc/Tools/MinGW/include/c++/3.3.1/bits/stl_uninitialized.h ****  * Copyright (c) 1994
  33:d:/software/ovi_2503a_s3trc/ovi_2503a_s3trc/Tools/MinGW/include/c++/3.3.1/bits/stl_uninitialized.h ****  * Hewlett-Packard Company
  34:d:/software/ovi_2503a_s3trc/ovi_2503a_s3trc/Tools/MinGW/include/c++/3.3.1/bits/stl_uninitialized.h ****  *
  35:d:/software/ovi_2503a_s3trc/ovi_2503a_s3trc/Tools/MinGW/include/c++/3.3.1/bits/stl_uninitialized.h ****  * Permission to use, copy, modify, distribute and sell this software
  36:d:/software/ovi_2503a_s3trc/ovi_2503a_s3trc/Tools/MinGW/include/c++/3.3.1/bits/stl_uninitialized.h ****  * and its documentation for any purpose is hereby granted without fee,
  37:d:/software/ovi_2503a_s3trc/ovi_2503a_s3trc/Tools/MinGW/include/c++/3.3.1/bits/stl_uninitialized.h ****  * provided that the above copyright notice appear in all copies and
  38:d:/software/ovi_2503a_s3trc/ovi_2503a_s3trc/Tools/MinGW/include/c++/3.3.1/bits/stl_uninitialized.h ****  * that both that copyright notice and this permission notice appear
  39:d:/software/ovi_2503a_s3trc/ovi_2503a_s3trc/Tools/MinGW/include/c++/3.3.1/bits/stl_uninitialized.h ****  * in supporting documentation.  Hewlett-Packard Company makes no
  40:d:/software/ovi_2503a_s3trc/ovi_2503a_s3trc/Tools/MinGW/include/c++/3.3.1/bits/stl_uninitialized.h ****  * representations about the suitability of this software for any
  41:d:/software/ovi_2503a_s3trc/ovi_2503a_s3trc/Tools/MinGW/include/c++/3.3.1/bits/stl_uninitialized.h ****  * purpose.  It is provided "as is" without express or implied warranty.
  42:d:/software/ovi_2503a_s3trc/ovi_2503a_s3trc/Tools/MinGW/include/c++/3.3.1/bits/stl_uninitialized.h ****  *
  43:d:/software/ovi_2503a_s3trc/ovi_2503a_s3trc/Tools/MinGW/include/c++/3.3.1/bits/stl_uninitialized.h ****  *
  44:d:/software/ovi_2503a_s3trc/ovi_2503a_s3trc/Tools/MinGW/include/c++/3.3.1/bits/stl_uninitialized.h ****  * Copyright (c) 1996,1997
  45:d:/software/ovi_2503a_s3trc/ovi_2503a_s3trc/Tools/MinGW/include/c++/3.3.1/bits/stl_uninitialized.h ****  * Silicon Graphics Computer Systems, Inc.
  46:d:/software/ovi_2503a_s3trc/ovi_2503a_s3trc/Tools/MinGW/include/c++/3.3.1/bits/stl_uninitialized.h ****  *
  47:d:/software/ovi_2503a_s3trc/ovi_2503a_s3trc/Tools/MinGW/include/c++/3.3.1/bits/stl_uninitialized.h ****  * Permission to use, copy, modify, distribute and sell this software
  48:d:/software/ovi_2503a_s3trc/ovi_2503a_s3trc/Tools/MinGW/include/c++/3.3.1/bits/stl_uninitialized.h ****  * and its documentation for any purpose is hereby granted without fee,
  49:d:/software/ovi_2503a_s3trc/ovi_2503a_s3trc/Tools/MinGW/include/c++/3.3.1/bits/stl_uninitialized.h ****  * provided that the above copyright notice appear in all copies and
  50:d:/software/ovi_2503a_s3trc/ovi_2503a_s3trc/Tools/MinGW/include/c++/3.3.1/bits/stl_uninitialized.h ****  * that both that copyright notice and this permission notice appear
  51:d:/software/ovi_2503a_s3trc/ovi_2503a_s3trc/Tools/MinGW/include/c++/3.3.1/bits/stl_uninitialized.h ****  * in supporting documentation.  Silicon Graphics makes no
  52:d:/software/ovi_2503a_s3trc/ovi_2503a_s3trc/Tools/MinGW/include/c++/3.3.1/bits/stl_uninitialized.h ****  * representations about the suitability of this software for any
  53:d:/software/ovi_2503a_s3trc/ovi_2503a_s3trc/Tools/MinGW/include/c++/3.3.1/bits/stl_uninitialized.h ****  * purpose.  It is provided "as is" without express or implied warranty.
  54:d:/software/ovi_2503a_s3trc/ovi_2503a_s3trc/Tools/MinGW/include/c++/3.3.1/bits/stl_uninitialized.h ****  */
  55:d:/software/ovi_2503a_s3trc/ovi_2503a_s3trc/Tools/MinGW/include/c++/3.3.1/bits/stl_uninitialized.h **** 
  56:d:/software/ovi_2503a_s3trc/ovi_2503a_s3trc/Tools/MinGW/include/c++/3.3.1/bits/stl_uninitialized.h **** /** @file stl_uninitialized.h
  57:d:/software/ovi_2503a_s3trc/ovi_2503a_s3trc/Tools/MinGW/include/c++/3.3.1/bits/stl_uninitialized.h ****  *  This is an internal header file, included by other library headers.
  58:d:/software/ovi_2503a_s3trc/ovi_2503a_s3trc/Tools/MinGW/include/c++/3.3.1/bits/stl_uninitialized.h ****  *  You should not attempt to use it directly.
  59:d:/software/ovi_2503a_s3trc/ovi_2503a_s3trc/Tools/MinGW/include/c++/3.3.1/bits/stl_uninitialized.h ****  */
  60:d:/software/ovi_2503a_s3trc/ovi_2503a_s3trc/Tools/MinGW/include/c++/3.3.1/bits/stl_uninitialized.h **** 
  61:d:/software/ovi_2503a_s3trc/ovi_2503a_s3trc/Tools/MinGW/include/c++/3.3.1/bits/stl_uninitialized.h **** #ifndef _CPP_BITS_STL_UNINITIALIZED_H
  62:d:/software/ovi_2503a_s3trc/ovi_2503a_s3trc/Tools/MinGW/include/c++/3.3.1/bits/stl_uninitialized.h **** #define _CPP_BITS_STL_UNINITIALIZED_H 1
  63:d:/software/ovi_2503a_s3trc/ovi_2503a_s3trc/Tools/MinGW/include/c++/3.3.1/bits/stl_uninitialized.h **** 
  64:d:/software/ovi_2503a_s3trc/ovi_2503a_s3trc/Tools/MinGW/include/c++/3.3.1/bits/stl_uninitialized.h **** #include <cstring>
  65:d:/software/ovi_2503a_s3trc/ovi_2503a_s3trc/Tools/MinGW/include/c++/3.3.1/bits/stl_uninitialized.h **** 
GAS LISTING d:/software/ovi_2503a_s3trc/ovi_2503a_s3trc/plutommi/Customer/ResGenerator/gcctmp/cci0baaa.s 			page 139


  66:d:/software/ovi_2503a_s3trc/ovi_2503a_s3trc/Tools/MinGW/include/c++/3.3.1/bits/stl_uninitialized.h **** namespace std
  67:d:/software/ovi_2503a_s3trc/ovi_2503a_s3trc/Tools/MinGW/include/c++/3.3.1/bits/stl_uninitialized.h **** {
  68:d:/software/ovi_2503a_s3trc/ovi_2503a_s3trc/Tools/MinGW/include/c++/3.3.1/bits/stl_uninitialized.h **** 
  69:d:/software/ovi_2503a_s3trc/ovi_2503a_s3trc/Tools/MinGW/include/c++/3.3.1/bits/stl_uninitialized.h ****   // uninitialized_copy
  70:d:/software/ovi_2503a_s3trc/ovi_2503a_s3trc/Tools/MinGW/include/c++/3.3.1/bits/stl_uninitialized.h **** 
  71:d:/software/ovi_2503a_s3trc/ovi_2503a_s3trc/Tools/MinGW/include/c++/3.3.1/bits/stl_uninitialized.h ****   template<typename _InputIter, typename _ForwardIter>
  72:d:/software/ovi_2503a_s3trc/ovi_2503a_s3trc/Tools/MinGW/include/c++/3.3.1/bits/stl_uninitialized.h ****     inline _ForwardIter 
  73:d:/software/ovi_2503a_s3trc/ovi_2503a_s3trc/Tools/MinGW/include/c++/3.3.1/bits/stl_uninitialized.h ****     __uninitialized_copy_aux(_InputIter __first, _InputIter __last,
  74:d:/software/ovi_2503a_s3trc/ovi_2503a_s3trc/Tools/MinGW/include/c++/3.3.1/bits/stl_uninitialized.h **** 			     _ForwardIter __result,
  75:d:/software/ovi_2503a_s3trc/ovi_2503a_s3trc/Tools/MinGW/include/c++/3.3.1/bits/stl_uninitialized.h **** 			     __true_type)
  76:d:/software/ovi_2503a_s3trc/ovi_2503a_s3trc/Tools/MinGW/include/c++/3.3.1/bits/stl_uninitialized.h ****     { return copy(__first, __last, __result); }
  77:d:/software/ovi_2503a_s3trc/ovi_2503a_s3trc/Tools/MinGW/include/c++/3.3.1/bits/stl_uninitialized.h **** 
  78:d:/software/ovi_2503a_s3trc/ovi_2503a_s3trc/Tools/MinGW/include/c++/3.3.1/bits/stl_uninitialized.h ****   template<typename _InputIter, typename _ForwardIter>
  79:d:/software/ovi_2503a_s3trc/ovi_2503a_s3trc/Tools/MinGW/include/c++/3.3.1/bits/stl_uninitialized.h ****     _ForwardIter 
  80:d:/software/ovi_2503a_s3trc/ovi_2503a_s3trc/Tools/MinGW/include/c++/3.3.1/bits/stl_uninitialized.h ****     __uninitialized_copy_aux(_InputIter __first, _InputIter __last,
  81:d:/software/ovi_2503a_s3trc/ovi_2503a_s3trc/Tools/MinGW/include/c++/3.3.1/bits/stl_uninitialized.h **** 			     _ForwardIter __result,
  82:d:/software/ovi_2503a_s3trc/ovi_2503a_s3trc/Tools/MinGW/include/c++/3.3.1/bits/stl_uninitialized.h **** 			     __false_type)
  83:d:/software/ovi_2503a_s3trc/ovi_2503a_s3trc/Tools/MinGW/include/c++/3.3.1/bits/stl_uninitialized.h ****     {
  84:d:/software/ovi_2503a_s3trc/ovi_2503a_s3trc/Tools/MinGW/include/c++/3.3.1/bits/stl_uninitialized.h ****       _ForwardIter __cur = __result;
  85:d:/software/ovi_2503a_s3trc/ovi_2503a_s3trc/Tools/MinGW/include/c++/3.3.1/bits/stl_uninitialized.h ****       try {
  86:d:/software/ovi_2503a_s3trc/ovi_2503a_s3trc/Tools/MinGW/include/c++/3.3.1/bits/stl_uninitialized.h **** 	for ( ; __first != __last; ++__first, ++__cur)
  87:d:/software/ovi_2503a_s3trc/ovi_2503a_s3trc/Tools/MinGW/include/c++/3.3.1/bits/stl_uninitialized.h **** 	  _Construct(&*__cur, *__first);
  88:d:/software/ovi_2503a_s3trc/ovi_2503a_s3trc/Tools/MinGW/include/c++/3.3.1/bits/stl_uninitialized.h **** 	return __cur;
  89:d:/software/ovi_2503a_s3trc/ovi_2503a_s3trc/Tools/MinGW/include/c++/3.3.1/bits/stl_uninitialized.h ****       }
  90:d:/software/ovi_2503a_s3trc/ovi_2503a_s3trc/Tools/MinGW/include/c++/3.3.1/bits/stl_uninitialized.h ****       catch(...)
  91:d:/software/ovi_2503a_s3trc/ovi_2503a_s3trc/Tools/MinGW/include/c++/3.3.1/bits/stl_uninitialized.h **** 	{
  92:d:/software/ovi_2503a_s3trc/ovi_2503a_s3trc/Tools/MinGW/include/c++/3.3.1/bits/stl_uninitialized.h **** 	  _Destroy(__result, __cur);
  93:d:/software/ovi_2503a_s3trc/ovi_2503a_s3trc/Tools/MinGW/include/c++/3.3.1/bits/stl_uninitialized.h **** 	  __throw_exception_again; 
  94:d:/software/ovi_2503a_s3trc/ovi_2503a_s3trc/Tools/MinGW/include/c++/3.3.1/bits/stl_uninitialized.h **** 	}
  95:d:/software/ovi_2503a_s3trc/ovi_2503a_s3trc/Tools/MinGW/include/c++/3.3.1/bits/stl_uninitialized.h ****     }
  96:d:/software/ovi_2503a_s3trc/ovi_2503a_s3trc/Tools/MinGW/include/c++/3.3.1/bits/stl_uninitialized.h **** 
  97:d:/software/ovi_2503a_s3trc/ovi_2503a_s3trc/Tools/MinGW/include/c++/3.3.1/bits/stl_uninitialized.h ****   /**
  98:d:/software/ovi_2503a_s3trc/ovi_2503a_s3trc/Tools/MinGW/include/c++/3.3.1/bits/stl_uninitialized.h ****    *  @brief Copies the range [first,last) into result.
  99:d:/software/ovi_2503a_s3trc/ovi_2503a_s3trc/Tools/MinGW/include/c++/3.3.1/bits/stl_uninitialized.h ****    *  @param  first  An input iterator.
 100:d:/software/ovi_2503a_s3trc/ovi_2503a_s3trc/Tools/MinGW/include/c++/3.3.1/bits/stl_uninitialized.h ****    *  @param  last   An input iterator.
 101:d:/software/ovi_2503a_s3trc/ovi_2503a_s3trc/Tools/MinGW/include/c++/3.3.1/bits/stl_uninitialized.h ****    *  @param  result An output iterator.
 102:d:/software/ovi_2503a_s3trc/ovi_2503a_s3trc/Tools/MinGW/include/c++/3.3.1/bits/stl_uninitialized.h ****    *  @return   result + (first - last)
 103:d:/software/ovi_2503a_s3trc/ovi_2503a_s3trc/Tools/MinGW/include/c++/3.3.1/bits/stl_uninitialized.h ****    *
 104:d:/software/ovi_2503a_s3trc/ovi_2503a_s3trc/Tools/MinGW/include/c++/3.3.1/bits/stl_uninitialized.h ****    *  Like copy(), but does not require an initialized output range.
 105:d:/software/ovi_2503a_s3trc/ovi_2503a_s3trc/Tools/MinGW/include/c++/3.3.1/bits/stl_uninitialized.h ****   */
 106:d:/software/ovi_2503a_s3trc/ovi_2503a_s3trc/Tools/MinGW/include/c++/3.3.1/bits/stl_uninitialized.h ****   template<typename _InputIter, typename _ForwardIter>
 107:d:/software/ovi_2503a_s3trc/ovi_2503a_s3trc/Tools/MinGW/include/c++/3.3.1/bits/stl_uninitialized.h ****     inline _ForwardIter
 108:d:/software/ovi_2503a_s3trc/ovi_2503a_s3trc/Tools/MinGW/include/c++/3.3.1/bits/stl_uninitialized.h ****     uninitialized_copy(_InputIter __first, _InputIter __last, _ForwardIter __result)
 109:d:/software/ovi_2503a_s3trc/ovi_2503a_s3trc/Tools/MinGW/include/c++/3.3.1/bits/stl_uninitialized.h ****     {
 7015              	LM318:
 7016 0000 55       		pushl	%ebp
 7017 0001 89E5     		movl	%esp, %ebp
 7018 0003 83EC18   		subl	$24, %esp
 110:d:/software/ovi_2503a_s3trc/ovi_2503a_s3trc/Tools/MinGW/include/c++/3.3.1/bits/stl_uninitialized.h ****       typedef typename iterator_traits<_ForwardIter>::value_type _ValueType;
 111:d:/software/ovi_2503a_s3trc/ovi_2503a_s3trc/Tools/MinGW/include/c++/3.3.1/bits/stl_uninitialized.h ****       typedef typename __type_traits<_ValueType>::is_POD_type _Is_POD;
 112:d:/software/ovi_2503a_s3trc/ovi_2503a_s3trc/Tools/MinGW/include/c++/3.3.1/bits/stl_uninitialized.h ****       return __uninitialized_copy_aux(__first, __last, __result, _Is_POD());
 7020              	LM319:
 7021              	LBB85:
 7022 0006 C644240C 		movb	$0, 12(%esp)
 7022      00
 7023 000b 8B4510   		movl	16(%ebp), %eax
 7024 000e 89442408 		movl	%eax, 8(%esp)
GAS LISTING d:/software/ovi_2503a_s3trc/ovi_2503a_s3trc/plutommi/Customer/ResGenerator/gcctmp/cci0baaa.s 			page 140


 7025 0012 8B450C   		movl	12(%ebp), %eax
 7026 0015 89442404 		movl	%eax, 4(%esp)
 7027 0019 8B4508   		movl	8(%ebp), %eax
 7028 001c 890424   		movl	%eax, (%esp)
 7029 001f E8000000 		call	__ZSt24__uninitialized_copy_auxIN9__gnu_cxx17__normal_iteratorIPN10ThreadPool10ThreadDataESt6
 7029      00
 7030 0024 8945FC   		movl	%eax, -4(%ebp)
 7031 0027 8B45FC   		movl	-4(%ebp), %eax
 7032 002a C9       		leave
 7033 002b C3       		ret
 7034              	LBE85:
 7035              	Lscope64:
 7037              	.globl __ZTI10ThreadPool
 7038              		.section	.rdata$_ZTI10ThreadPool,""
 7039              		.linkonce same_size
 7040              		.align 4
 7041              	__ZTI10ThreadPool:
 7042 0000 08000000 		.long	__ZTVN10__cxxabiv117__class_type_infoE+8
 7043 0004 00000000 		.long	__ZTS10ThreadPool
 7044              	.globl __ZTS10ThreadPool
 7045              		.section	.rdata$_ZTS10ThreadPool,""
 7046              		.linkonce same_size
 7047              	__ZTS10ThreadPool:
 7048 0000 31305468 		.ascii "10ThreadPool\0"
 7048      72656164 
 7048      506F6F6C 
 7048      00
 7049 000d 000000   		.section	.text$_ZnwjPv,"x"
 7050              		.linkonce discard
 7051              		.align 2
 7054              	.globl __ZnwjPv
 7056              	__ZnwjPv:
 7058              	Ltext29:
   1:d:/software/ovi_2503a_s3trc/ovi_2503a_s3trc/Tools/MinGW/include/c++/3.3.1/new **** // The -*- C++ -*- dynamic memory management header.
   2:d:/software/ovi_2503a_s3trc/ovi_2503a_s3trc/Tools/MinGW/include/c++/3.3.1/new **** 
   3:d:/software/ovi_2503a_s3trc/ovi_2503a_s3trc/Tools/MinGW/include/c++/3.3.1/new **** // Copyright (C) 1994, 1996, 1997, 1998, 2000, 2001, 2002
   4:d:/software/ovi_2503a_s3trc/ovi_2503a_s3trc/Tools/MinGW/include/c++/3.3.1/new **** // Free Software Foundation
   5:d:/software/ovi_2503a_s3trc/ovi_2503a_s3trc/Tools/MinGW/include/c++/3.3.1/new **** 
   6:d:/software/ovi_2503a_s3trc/ovi_2503a_s3trc/Tools/MinGW/include/c++/3.3.1/new **** // This file is part of GNU CC.
   7:d:/software/ovi_2503a_s3trc/ovi_2503a_s3trc/Tools/MinGW/include/c++/3.3.1/new **** //
   8:d:/software/ovi_2503a_s3trc/ovi_2503a_s3trc/Tools/MinGW/include/c++/3.3.1/new **** // GNU CC is free software; you can redistribute it and/or modify
   9:d:/software/ovi_2503a_s3trc/ovi_2503a_s3trc/Tools/MinGW/include/c++/3.3.1/new **** // it under the terms of the GNU General Public License as published by
  10:d:/software/ovi_2503a_s3trc/ovi_2503a_s3trc/Tools/MinGW/include/c++/3.3.1/new **** // the Free Software Foundation; either version 2, or (at your option)
  11:d:/software/ovi_2503a_s3trc/ovi_2503a_s3trc/Tools/MinGW/include/c++/3.3.1/new **** // any later version.
  12:d:/software/ovi_2503a_s3trc/ovi_2503a_s3trc/Tools/MinGW/include/c++/3.3.1/new **** // 
  13:d:/software/ovi_2503a_s3trc/ovi_2503a_s3trc/Tools/MinGW/include/c++/3.3.1/new **** // GNU CC is distributed in the hope that it will be useful,
  14:d:/software/ovi_2503a_s3trc/ovi_2503a_s3trc/Tools/MinGW/include/c++/3.3.1/new **** // but WITHOUT ANY WARRANTY; without even the implied warranty of
  15:d:/software/ovi_2503a_s3trc/ovi_2503a_s3trc/Tools/MinGW/include/c++/3.3.1/new **** // MERCHANTABILITY or FITNESS FOR A PARTICULAR PURPOSE.  See the
  16:d:/software/ovi_2503a_s3trc/ovi_2503a_s3trc/Tools/MinGW/include/c++/3.3.1/new **** // GNU General Public License for more details.
  17:d:/software/ovi_2503a_s3trc/ovi_2503a_s3trc/Tools/MinGW/include/c++/3.3.1/new **** // 
  18:d:/software/ovi_2503a_s3trc/ovi_2503a_s3trc/Tools/MinGW/include/c++/3.3.1/new **** // You should have received a copy of the GNU General Public License
  19:d:/software/ovi_2503a_s3trc/ovi_2503a_s3trc/Tools/MinGW/include/c++/3.3.1/new **** // along with GNU CC; see the file COPYING.  If not, write to
  20:d:/software/ovi_2503a_s3trc/ovi_2503a_s3trc/Tools/MinGW/include/c++/3.3.1/new **** // the Free Software Foundation, 59 Temple Place - Suite 330,
  21:d:/software/ovi_2503a_s3trc/ovi_2503a_s3trc/Tools/MinGW/include/c++/3.3.1/new **** // Boston, MA 02111-1307, USA.
  22:d:/software/ovi_2503a_s3trc/ovi_2503a_s3trc/Tools/MinGW/include/c++/3.3.1/new **** 
  23:d:/software/ovi_2503a_s3trc/ovi_2503a_s3trc/Tools/MinGW/include/c++/3.3.1/new **** // As a special exception, you may use this file as part of a free software
  24:d:/software/ovi_2503a_s3trc/ovi_2503a_s3trc/Tools/MinGW/include/c++/3.3.1/new **** // library without restriction.  Specifically, if other files instantiate
GAS LISTING d:/software/ovi_2503a_s3trc/ovi_2503a_s3trc/plutommi/Customer/ResGenerator/gcctmp/cci0baaa.s 			page 141


  25:d:/software/ovi_2503a_s3trc/ovi_2503a_s3trc/Tools/MinGW/include/c++/3.3.1/new **** // templates or use macros or inline functions from this file, or you compile
  26:d:/software/ovi_2503a_s3trc/ovi_2503a_s3trc/Tools/MinGW/include/c++/3.3.1/new **** // this file and link it with other files to produce an executable, this
  27:d:/software/ovi_2503a_s3trc/ovi_2503a_s3trc/Tools/MinGW/include/c++/3.3.1/new **** // file does not by itself cause the resulting executable to be covered by
  28:d:/software/ovi_2503a_s3trc/ovi_2503a_s3trc/Tools/MinGW/include/c++/3.3.1/new **** // the GNU General Public License.  This exception does not however
  29:d:/software/ovi_2503a_s3trc/ovi_2503a_s3trc/Tools/MinGW/include/c++/3.3.1/new **** // invalidate any other reasons why the executable file might be covered by
  30:d:/software/ovi_2503a_s3trc/ovi_2503a_s3trc/Tools/MinGW/include/c++/3.3.1/new **** // the GNU General Public License.
  31:d:/software/ovi_2503a_s3trc/ovi_2503a_s3trc/Tools/MinGW/include/c++/3.3.1/new **** 
  32:d:/software/ovi_2503a_s3trc/ovi_2503a_s3trc/Tools/MinGW/include/c++/3.3.1/new **** /** @file new
  33:d:/software/ovi_2503a_s3trc/ovi_2503a_s3trc/Tools/MinGW/include/c++/3.3.1/new ****  *  The header @c new defines several functions to manage dynamic memory and
  34:d:/software/ovi_2503a_s3trc/ovi_2503a_s3trc/Tools/MinGW/include/c++/3.3.1/new ****  *  handling memory allocation errors; see
  35:d:/software/ovi_2503a_s3trc/ovi_2503a_s3trc/Tools/MinGW/include/c++/3.3.1/new ****  *  http://gcc.gnu.org/onlinedocs/libstdc++/18_support/howto.html#4 for more.
  36:d:/software/ovi_2503a_s3trc/ovi_2503a_s3trc/Tools/MinGW/include/c++/3.3.1/new ****  */
  37:d:/software/ovi_2503a_s3trc/ovi_2503a_s3trc/Tools/MinGW/include/c++/3.3.1/new **** 
  38:d:/software/ovi_2503a_s3trc/ovi_2503a_s3trc/Tools/MinGW/include/c++/3.3.1/new **** #ifndef __NEW__
  39:d:/software/ovi_2503a_s3trc/ovi_2503a_s3trc/Tools/MinGW/include/c++/3.3.1/new **** #define __NEW__
  40:d:/software/ovi_2503a_s3trc/ovi_2503a_s3trc/Tools/MinGW/include/c++/3.3.1/new **** 
  41:d:/software/ovi_2503a_s3trc/ovi_2503a_s3trc/Tools/MinGW/include/c++/3.3.1/new **** #include <cstddef>
  42:d:/software/ovi_2503a_s3trc/ovi_2503a_s3trc/Tools/MinGW/include/c++/3.3.1/new **** #include <exception>
  43:d:/software/ovi_2503a_s3trc/ovi_2503a_s3trc/Tools/MinGW/include/c++/3.3.1/new **** 
  44:d:/software/ovi_2503a_s3trc/ovi_2503a_s3trc/Tools/MinGW/include/c++/3.3.1/new **** extern "C++" {
  45:d:/software/ovi_2503a_s3trc/ovi_2503a_s3trc/Tools/MinGW/include/c++/3.3.1/new **** 
  46:d:/software/ovi_2503a_s3trc/ovi_2503a_s3trc/Tools/MinGW/include/c++/3.3.1/new **** namespace std 
  47:d:/software/ovi_2503a_s3trc/ovi_2503a_s3trc/Tools/MinGW/include/c++/3.3.1/new **** {
  48:d:/software/ovi_2503a_s3trc/ovi_2503a_s3trc/Tools/MinGW/include/c++/3.3.1/new ****   /**
  49:d:/software/ovi_2503a_s3trc/ovi_2503a_s3trc/Tools/MinGW/include/c++/3.3.1/new ****    *  @brief  Exception possibly thrown by @c new.
  50:d:/software/ovi_2503a_s3trc/ovi_2503a_s3trc/Tools/MinGW/include/c++/3.3.1/new ****    *
  51:d:/software/ovi_2503a_s3trc/ovi_2503a_s3trc/Tools/MinGW/include/c++/3.3.1/new ****    *  @c bad_alloc (or classes derived from it) is used to report allocation
  52:d:/software/ovi_2503a_s3trc/ovi_2503a_s3trc/Tools/MinGW/include/c++/3.3.1/new ****    *  errors from the throwing forms of @c new.  */
  53:d:/software/ovi_2503a_s3trc/ovi_2503a_s3trc/Tools/MinGW/include/c++/3.3.1/new ****   class bad_alloc : public exception 
  54:d:/software/ovi_2503a_s3trc/ovi_2503a_s3trc/Tools/MinGW/include/c++/3.3.1/new ****   {
  55:d:/software/ovi_2503a_s3trc/ovi_2503a_s3trc/Tools/MinGW/include/c++/3.3.1/new ****   public:
  56:d:/software/ovi_2503a_s3trc/ovi_2503a_s3trc/Tools/MinGW/include/c++/3.3.1/new ****     bad_alloc() throw() { }
  57:d:/software/ovi_2503a_s3trc/ovi_2503a_s3trc/Tools/MinGW/include/c++/3.3.1/new ****     // This declaration is not useless:
  58:d:/software/ovi_2503a_s3trc/ovi_2503a_s3trc/Tools/MinGW/include/c++/3.3.1/new ****     // http://gcc.gnu.org/onlinedocs/gcc-3.0.2/gcc_6.html#SEC118
  59:d:/software/ovi_2503a_s3trc/ovi_2503a_s3trc/Tools/MinGW/include/c++/3.3.1/new ****     virtual ~bad_alloc() throw();
  60:d:/software/ovi_2503a_s3trc/ovi_2503a_s3trc/Tools/MinGW/include/c++/3.3.1/new ****   };
  61:d:/software/ovi_2503a_s3trc/ovi_2503a_s3trc/Tools/MinGW/include/c++/3.3.1/new **** 
  62:d:/software/ovi_2503a_s3trc/ovi_2503a_s3trc/Tools/MinGW/include/c++/3.3.1/new ****   struct nothrow_t { };
  63:d:/software/ovi_2503a_s3trc/ovi_2503a_s3trc/Tools/MinGW/include/c++/3.3.1/new ****   extern const nothrow_t nothrow;
  64:d:/software/ovi_2503a_s3trc/ovi_2503a_s3trc/Tools/MinGW/include/c++/3.3.1/new ****   /** If you write your own error handler to be called by @c new, it must
  65:d:/software/ovi_2503a_s3trc/ovi_2503a_s3trc/Tools/MinGW/include/c++/3.3.1/new ****    *  be of this type.  */
  66:d:/software/ovi_2503a_s3trc/ovi_2503a_s3trc/Tools/MinGW/include/c++/3.3.1/new ****   typedef void (*new_handler)();
  67:d:/software/ovi_2503a_s3trc/ovi_2503a_s3trc/Tools/MinGW/include/c++/3.3.1/new ****   /// Takes a replacement handler as the argument, returns the previous handler.
  68:d:/software/ovi_2503a_s3trc/ovi_2503a_s3trc/Tools/MinGW/include/c++/3.3.1/new ****   new_handler set_new_handler(new_handler) throw();
  69:d:/software/ovi_2503a_s3trc/ovi_2503a_s3trc/Tools/MinGW/include/c++/3.3.1/new **** } // namespace std
  70:d:/software/ovi_2503a_s3trc/ovi_2503a_s3trc/Tools/MinGW/include/c++/3.3.1/new **** 
  71:d:/software/ovi_2503a_s3trc/ovi_2503a_s3trc/Tools/MinGW/include/c++/3.3.1/new **** //@{
  72:d:/software/ovi_2503a_s3trc/ovi_2503a_s3trc/Tools/MinGW/include/c++/3.3.1/new **** /** These are replaceable signatures:
  73:d:/software/ovi_2503a_s3trc/ovi_2503a_s3trc/Tools/MinGW/include/c++/3.3.1/new ****  *  - normal single new and delete (no arguments, throw @c bad_alloc on error)
  74:d:/software/ovi_2503a_s3trc/ovi_2503a_s3trc/Tools/MinGW/include/c++/3.3.1/new ****  *  - normal array new and delete (same)
  75:d:/software/ovi_2503a_s3trc/ovi_2503a_s3trc/Tools/MinGW/include/c++/3.3.1/new ****  *  - @c nothrow single new and delete (take a @c nothrow argument, return
  76:d:/software/ovi_2503a_s3trc/ovi_2503a_s3trc/Tools/MinGW/include/c++/3.3.1/new ****  *    @c NULL on error)
  77:d:/software/ovi_2503a_s3trc/ovi_2503a_s3trc/Tools/MinGW/include/c++/3.3.1/new ****  *  - @c nothrow array new and delete (same)
  78:d:/software/ovi_2503a_s3trc/ovi_2503a_s3trc/Tools/MinGW/include/c++/3.3.1/new ****  *
  79:d:/software/ovi_2503a_s3trc/ovi_2503a_s3trc/Tools/MinGW/include/c++/3.3.1/new ****  *  Placement new and delete signatures (take a memory address argument,
  80:d:/software/ovi_2503a_s3trc/ovi_2503a_s3trc/Tools/MinGW/include/c++/3.3.1/new ****  *  does nothing) may not be replaced by a user's program.
  81:d:/software/ovi_2503a_s3trc/ovi_2503a_s3trc/Tools/MinGW/include/c++/3.3.1/new **** */
GAS LISTING d:/software/ovi_2503a_s3trc/ovi_2503a_s3trc/plutommi/Customer/ResGenerator/gcctmp/cci0baaa.s 			page 142


  82:d:/software/ovi_2503a_s3trc/ovi_2503a_s3trc/Tools/MinGW/include/c++/3.3.1/new **** void* operator new(std::size_t) throw (std::bad_alloc);
  83:d:/software/ovi_2503a_s3trc/ovi_2503a_s3trc/Tools/MinGW/include/c++/3.3.1/new **** void* operator new[](std::size_t) throw (std::bad_alloc);
  84:d:/software/ovi_2503a_s3trc/ovi_2503a_s3trc/Tools/MinGW/include/c++/3.3.1/new **** void operator delete(void*) throw();
  85:d:/software/ovi_2503a_s3trc/ovi_2503a_s3trc/Tools/MinGW/include/c++/3.3.1/new **** void operator delete[](void*) throw();
  86:d:/software/ovi_2503a_s3trc/ovi_2503a_s3trc/Tools/MinGW/include/c++/3.3.1/new **** void* operator new(std::size_t, const std::nothrow_t&) throw();
  87:d:/software/ovi_2503a_s3trc/ovi_2503a_s3trc/Tools/MinGW/include/c++/3.3.1/new **** void* operator new[](std::size_t, const std::nothrow_t&) throw();
  88:d:/software/ovi_2503a_s3trc/ovi_2503a_s3trc/Tools/MinGW/include/c++/3.3.1/new **** void operator delete(void*, const std::nothrow_t&) throw();
  89:d:/software/ovi_2503a_s3trc/ovi_2503a_s3trc/Tools/MinGW/include/c++/3.3.1/new **** void operator delete[](void*, const std::nothrow_t&) throw();
  90:d:/software/ovi_2503a_s3trc/ovi_2503a_s3trc/Tools/MinGW/include/c++/3.3.1/new **** 
  91:d:/software/ovi_2503a_s3trc/ovi_2503a_s3trc/Tools/MinGW/include/c++/3.3.1/new **** // Default placement versions of operator new.
  92:d:/software/ovi_2503a_s3trc/ovi_2503a_s3trc/Tools/MinGW/include/c++/3.3.1/new **** inline void* operator new(std::size_t, void* __p) throw() { return __p; }
 7060              	LM320:
 7061 0000 55       		pushl	%ebp
 7062 0001 89E5     		movl	%esp, %ebp
 7064              	LM321:
 7065              	LBB86:
 7066 0003 8B450C   		movl	12(%ebp), %eax
 7067              	L271:
 7068              	L270:
 7069 0006 5D       		popl	%ebp
 7070 0007 C3       		ret
 7071              	LBE86:
 7072              	Lscope65:
 7074              		.section	.text$_ZNSt19_List_iterator_baseC2EPSt15_List_node_base,"x"
 7075              		.linkonce discard
 7076              		.align 2
 7080              	.globl __ZNSt19_List_iterator_baseC2EPSt15_List_node_base
 7082              	__ZNSt19_List_iterator_baseC2EPSt15_List_node_base:
 7084              	Ltext30:
 7086              	LM322:
 7087 0000 55       		pushl	%ebp
 7088 0001 89E5     		movl	%esp, %ebp
 7090              	LM323:
 7091              	LBB87:
 7092 0003 8B5508   		movl	8(%ebp), %edx
 7093 0006 8B450C   		movl	12(%ebp), %eax
 7094 0009 8902     		movl	%eax, (%edx)
 7095 000b 5D       		popl	%ebp
 7096 000c C3       		ret
 7097              	LBE87:
 7098              	Lscope66:
 7100 000d 909090   		.section	.text$_ZNKSt6vectorIN10ThreadPool10ThreadDataESaIS1_EE4sizeEv,"x"
 7101              		.linkonce discard
 7102              		.align 2
 7105              	.globl __ZNKSt6vectorIN10ThreadPool10ThreadDataESaIS1_EE4sizeEv
 7107              	__ZNKSt6vectorIN10ThreadPool10ThreadDataESaIS1_EE4sizeEv:
 7109              	Ltext31:
 7111              	LM324:
 7112 0000 55       		pushl	%ebp
 7113 0001 89E5     		movl	%esp, %ebp
 7114 0003 53       		pushl	%ebx
 7115 0004 83EC14   		subl	$20, %esp
 7117              	LM325:
 7118              	LBB88:
 7119 0007 8B4508   		movl	8(%ebp), %eax
 7120 000a 890424   		movl	%eax, (%esp)
 7121 000d E8000000 		call	__ZNKSt6vectorIN10ThreadPool10ThreadDataESaIS1_EE5beginEv
GAS LISTING d:/software/ovi_2503a_s3trc/ovi_2503a_s3trc/plutommi/Customer/ResGenerator/gcctmp/cci0baaa.s 			page 143


 7121      00
 7122 0012 8945F8   		movl	%eax, -8(%ebp)
 7123 0015 8D5DF8   		leal	-8(%ebp), %ebx
 7124 0018 8B4508   		movl	8(%ebp), %eax
 7125 001b 890424   		movl	%eax, (%esp)
 7126 001e E8000000 		call	__ZNKSt6vectorIN10ThreadPool10ThreadDataESaIS1_EE3endEv
 7126      00
 7127 0023 8945F4   		movl	%eax, -12(%ebp)
 7128 0026 8D45F4   		leal	-12(%ebp), %eax
 7129 0029 895C2404 		movl	%ebx, 4(%esp)
 7130 002d 890424   		movl	%eax, (%esp)
 7131 0030 E8000000 		call	__ZN9__gnu_cxxmiIPKN10ThreadPool10ThreadDataES4_St6vectorIS2_SaIS2_EEEENS_17__normal_iterator
 7131      00
 7132 0035 83C414   		addl	$20, %esp
 7133 0038 5B       		popl	%ebx
 7134 0039 5D       		popl	%ebp
 7135 003a C3       		ret
 7136              	LBE88:
 7137              	Lscope67:
 7139 003b 90       		.section	.text$_ZNKSt6vectorIN10ThreadPool10ThreadDataESaIS1_EE5beginEv,"x"
 7140              		.linkonce discard
 7141              		.align 2
 7144              	.globl __ZNKSt6vectorIN10ThreadPool10ThreadDataESaIS1_EE5beginEv
 7146              	__ZNKSt6vectorIN10ThreadPool10ThreadDataESaIS1_EE5beginEv:
 7148              	LM326:
 7149 0000 55       		pushl	%ebp
 7150 0001 89E5     		movl	%esp, %ebp
 7151 0003 83EC18   		subl	$24, %esp
 7153              	LM327:
 7154              	LBB89:
 7155 0006 8B4508   		movl	8(%ebp), %eax
 7156 0009 8B00     		movl	(%eax), %eax
 7157 000b 8945F8   		movl	%eax, -8(%ebp)
 7158 000e 8D45F8   		leal	-8(%ebp), %eax
 7159 0011 89442404 		movl	%eax, 4(%esp)
 7160 0015 8D45FC   		leal	-4(%ebp), %eax
 7161 0018 890424   		movl	%eax, (%esp)
 7162 001b E8000000 		call	__ZN9__gnu_cxx17__normal_iteratorIPKN10ThreadPool10ThreadDataESt6vectorIS2_SaIS2_EEEC1ERKS4_
 7162      00
 7163 0020 8B45FC   		movl	-4(%ebp), %eax
 7164 0023 C9       		leave
 7165 0024 C3       		ret
 7166              	LBE89:
 7167              	Lscope68:
 7169 0025 909090   		.section	.text$_ZN9__gnu_cxx17__normal_iteratorIPKN10ThreadPool10ThreadDataESt6vectorIS2_SaIS2_EEE
 7170              		.linkonce discard
 7171              		.align 2
 7175              	.globl __ZN9__gnu_cxx17__normal_iteratorIPKN10ThreadPool10ThreadDataESt6vectorIS2_SaIS2_EEEC1ERKS4_
 7177              	__ZN9__gnu_cxx17__normal_iteratorIPKN10ThreadPool10ThreadDataESt6vectorIS2_SaIS2_EEEC1ERKS4_:
 7179              	Ltext32:
 7181              	LM328:
 7182 0000 55       		pushl	%ebp
 7183 0001 89E5     		movl	%esp, %ebp
 7184 0003 83EC08   		subl	$8, %esp
 7186              	LM329:
 7187              	LBB90:
 7188 0006 8B4508   		movl	8(%ebp), %eax
GAS LISTING d:/software/ovi_2503a_s3trc/ovi_2503a_s3trc/plutommi/Customer/ResGenerator/gcctmp/cci0baaa.s 			page 144


 7189 0009 890424   		movl	%eax, (%esp)
 7190 000c E8000000 		call	__ZNSt8iteratorISt26random_access_iterator_tagN10ThreadPool10ThreadDataEiPKS2_RS3_EC2Ev
 7190      00
 7191 0011 8B5508   		movl	8(%ebp), %edx
 7192 0014 8B450C   		movl	12(%ebp), %eax
 7193 0017 8B00     		movl	(%eax), %eax
 7194 0019 8902     		movl	%eax, (%edx)
 7195 001b C9       		leave
 7196 001c C3       		ret
 7197              	LBE90:
 7198              	Lscope69:
 7200 001d 909090   		.section	.text$_ZNKSt6vectorIN10ThreadPool10ThreadDataESaIS1_EE3endEv,"x"
 7201              		.linkonce discard
 7202              		.align 2
 7205              	.globl __ZNKSt6vectorIN10ThreadPool10ThreadDataESaIS1_EE3endEv
 7207              	__ZNKSt6vectorIN10ThreadPool10ThreadDataESaIS1_EE3endEv:
 7209              	Ltext33:
 7211              	LM330:
 7212 0000 55       		pushl	%ebp
 7213 0001 89E5     		movl	%esp, %ebp
 7214 0003 83EC18   		subl	$24, %esp
 7216              	LM331:
 7217              	LBB91:
 7218 0006 8B4508   		movl	8(%ebp), %eax
 7219 0009 8B4004   		movl	4(%eax), %eax
 7220 000c 8945F8   		movl	%eax, -8(%ebp)
 7221 000f 8D45F8   		leal	-8(%ebp), %eax
 7222 0012 89442404 		movl	%eax, 4(%esp)
 7223 0016 8D45FC   		leal	-4(%ebp), %eax
 7224 0019 890424   		movl	%eax, (%esp)
 7225 001c E8000000 		call	__ZN9__gnu_cxx17__normal_iteratorIPKN10ThreadPool10ThreadDataESt6vectorIS2_SaIS2_EEEC1ERKS4_
 7225      00
 7226 0021 8B45FC   		movl	-4(%ebp), %eax
 7227 0024 C9       		leave
 7228 0025 C3       		ret
 7229              	LBE91:
 7230              	Lscope70:
 7232 0026 9090     		.section	.text$_ZN9__gnu_cxxmiIPKN10ThreadPool10ThreadDataES4_St6vectorIS2_SaIS2_EEEENS_17__normal
 7233              		.linkonce discard
 7234              		.align 2
 7238              	.globl __ZN9__gnu_cxxmiIPKN10ThreadPool10ThreadDataES4_St6vectorIS2_SaIS2_EEEENS_17__normal_iterato
 7240              	__ZN9__gnu_cxxmiIPKN10ThreadPool10ThreadDataES4_St6vectorIS2_SaIS2_EEEENS_17__normal_iteratorIT_T1_
 7242              	Ltext34:
 677:d:/software/ovi_2503a_s3trc/ovi_2503a_s3trc/Tools/MinGW/include/c++/3.3.1/bits/stl_iterator.h **** 
 678:d:/software/ovi_2503a_s3trc/ovi_2503a_s3trc/Tools/MinGW/include/c++/3.3.1/bits/stl_iterator.h ****   // Random access iterator requirements
 679:d:/software/ovi_2503a_s3trc/ovi_2503a_s3trc/Tools/MinGW/include/c++/3.3.1/bits/stl_iterator.h ****   template<typename _IteratorL, typename _IteratorR, typename _Container>
 680:d:/software/ovi_2503a_s3trc/ovi_2503a_s3trc/Tools/MinGW/include/c++/3.3.1/bits/stl_iterator.h ****   inline bool 
 681:d:/software/ovi_2503a_s3trc/ovi_2503a_s3trc/Tools/MinGW/include/c++/3.3.1/bits/stl_iterator.h ****   operator<(const __normal_iterator<_IteratorL, _Container>& __lhs,
 682:d:/software/ovi_2503a_s3trc/ovi_2503a_s3trc/Tools/MinGW/include/c++/3.3.1/bits/stl_iterator.h **** 	    const __normal_iterator<_IteratorR, _Container>& __rhs)
 683:d:/software/ovi_2503a_s3trc/ovi_2503a_s3trc/Tools/MinGW/include/c++/3.3.1/bits/stl_iterator.h ****   { return __lhs.base() < __rhs.base(); }
 684:d:/software/ovi_2503a_s3trc/ovi_2503a_s3trc/Tools/MinGW/include/c++/3.3.1/bits/stl_iterator.h **** 
 685:d:/software/ovi_2503a_s3trc/ovi_2503a_s3trc/Tools/MinGW/include/c++/3.3.1/bits/stl_iterator.h ****   template<typename _Iterator, typename _Container>
 686:d:/software/ovi_2503a_s3trc/ovi_2503a_s3trc/Tools/MinGW/include/c++/3.3.1/bits/stl_iterator.h ****   inline bool
 687:d:/software/ovi_2503a_s3trc/ovi_2503a_s3trc/Tools/MinGW/include/c++/3.3.1/bits/stl_iterator.h ****   operator<(const __normal_iterator<_Iterator, _Container>& __lhs,
 688:d:/software/ovi_2503a_s3trc/ovi_2503a_s3trc/Tools/MinGW/include/c++/3.3.1/bits/stl_iterator.h ****              const __normal_iterator<_Iterator, _Container>& __rhs)
 689:d:/software/ovi_2503a_s3trc/ovi_2503a_s3trc/Tools/MinGW/include/c++/3.3.1/bits/stl_iterator.h ****   { return __lhs.base() < __rhs.base(); }
 690:d:/software/ovi_2503a_s3trc/ovi_2503a_s3trc/Tools/MinGW/include/c++/3.3.1/bits/stl_iterator.h **** 
GAS LISTING d:/software/ovi_2503a_s3trc/ovi_2503a_s3trc/plutommi/Customer/ResGenerator/gcctmp/cci0baaa.s 			page 145


 691:d:/software/ovi_2503a_s3trc/ovi_2503a_s3trc/Tools/MinGW/include/c++/3.3.1/bits/stl_iterator.h ****   template<typename _IteratorL, typename _IteratorR, typename _Container>
 692:d:/software/ovi_2503a_s3trc/ovi_2503a_s3trc/Tools/MinGW/include/c++/3.3.1/bits/stl_iterator.h ****   inline bool
 693:d:/software/ovi_2503a_s3trc/ovi_2503a_s3trc/Tools/MinGW/include/c++/3.3.1/bits/stl_iterator.h ****   operator>(const __normal_iterator<_IteratorL, _Container>& __lhs,
 694:d:/software/ovi_2503a_s3trc/ovi_2503a_s3trc/Tools/MinGW/include/c++/3.3.1/bits/stl_iterator.h **** 	    const __normal_iterator<_IteratorR, _Container>& __rhs)
 695:d:/software/ovi_2503a_s3trc/ovi_2503a_s3trc/Tools/MinGW/include/c++/3.3.1/bits/stl_iterator.h ****   { return __lhs.base() > __rhs.base(); }
 696:d:/software/ovi_2503a_s3trc/ovi_2503a_s3trc/Tools/MinGW/include/c++/3.3.1/bits/stl_iterator.h **** 
 697:d:/software/ovi_2503a_s3trc/ovi_2503a_s3trc/Tools/MinGW/include/c++/3.3.1/bits/stl_iterator.h ****   template<typename _Iterator, typename _Container>
 698:d:/software/ovi_2503a_s3trc/ovi_2503a_s3trc/Tools/MinGW/include/c++/3.3.1/bits/stl_iterator.h ****   inline bool
 699:d:/software/ovi_2503a_s3trc/ovi_2503a_s3trc/Tools/MinGW/include/c++/3.3.1/bits/stl_iterator.h ****   operator>(const __normal_iterator<_Iterator, _Container>& __lhs,
 700:d:/software/ovi_2503a_s3trc/ovi_2503a_s3trc/Tools/MinGW/include/c++/3.3.1/bits/stl_iterator.h **** 	    const __normal_iterator<_Iterator, _Container>& __rhs)
 701:d:/software/ovi_2503a_s3trc/ovi_2503a_s3trc/Tools/MinGW/include/c++/3.3.1/bits/stl_iterator.h ****   { return __lhs.base() > __rhs.base(); }
 702:d:/software/ovi_2503a_s3trc/ovi_2503a_s3trc/Tools/MinGW/include/c++/3.3.1/bits/stl_iterator.h **** 
 703:d:/software/ovi_2503a_s3trc/ovi_2503a_s3trc/Tools/MinGW/include/c++/3.3.1/bits/stl_iterator.h ****   template<typename _IteratorL, typename _IteratorR, typename _Container>
 704:d:/software/ovi_2503a_s3trc/ovi_2503a_s3trc/Tools/MinGW/include/c++/3.3.1/bits/stl_iterator.h ****   inline bool
 705:d:/software/ovi_2503a_s3trc/ovi_2503a_s3trc/Tools/MinGW/include/c++/3.3.1/bits/stl_iterator.h ****   operator<=(const __normal_iterator<_IteratorL, _Container>& __lhs,
 706:d:/software/ovi_2503a_s3trc/ovi_2503a_s3trc/Tools/MinGW/include/c++/3.3.1/bits/stl_iterator.h **** 	     const __normal_iterator<_IteratorR, _Container>& __rhs)
 707:d:/software/ovi_2503a_s3trc/ovi_2503a_s3trc/Tools/MinGW/include/c++/3.3.1/bits/stl_iterator.h ****   { return __lhs.base() <= __rhs.base(); }
 708:d:/software/ovi_2503a_s3trc/ovi_2503a_s3trc/Tools/MinGW/include/c++/3.3.1/bits/stl_iterator.h **** 
 709:d:/software/ovi_2503a_s3trc/ovi_2503a_s3trc/Tools/MinGW/include/c++/3.3.1/bits/stl_iterator.h ****   template<typename _Iterator, typename _Container>
 710:d:/software/ovi_2503a_s3trc/ovi_2503a_s3trc/Tools/MinGW/include/c++/3.3.1/bits/stl_iterator.h ****   inline bool
 711:d:/software/ovi_2503a_s3trc/ovi_2503a_s3trc/Tools/MinGW/include/c++/3.3.1/bits/stl_iterator.h ****   operator<=(const __normal_iterator<_Iterator, _Container>& __lhs,
 712:d:/software/ovi_2503a_s3trc/ovi_2503a_s3trc/Tools/MinGW/include/c++/3.3.1/bits/stl_iterator.h **** 	     const __normal_iterator<_Iterator, _Container>& __rhs)
 713:d:/software/ovi_2503a_s3trc/ovi_2503a_s3trc/Tools/MinGW/include/c++/3.3.1/bits/stl_iterator.h ****   { return __lhs.base() <= __rhs.base(); }
 714:d:/software/ovi_2503a_s3trc/ovi_2503a_s3trc/Tools/MinGW/include/c++/3.3.1/bits/stl_iterator.h **** 
 715:d:/software/ovi_2503a_s3trc/ovi_2503a_s3trc/Tools/MinGW/include/c++/3.3.1/bits/stl_iterator.h ****   template<typename _IteratorL, typename _IteratorR, typename _Container>
 716:d:/software/ovi_2503a_s3trc/ovi_2503a_s3trc/Tools/MinGW/include/c++/3.3.1/bits/stl_iterator.h ****   inline bool
 717:d:/software/ovi_2503a_s3trc/ovi_2503a_s3trc/Tools/MinGW/include/c++/3.3.1/bits/stl_iterator.h ****   operator>=(const __normal_iterator<_IteratorL, _Container>& __lhs,
 718:d:/software/ovi_2503a_s3trc/ovi_2503a_s3trc/Tools/MinGW/include/c++/3.3.1/bits/stl_iterator.h **** 	     const __normal_iterator<_IteratorR, _Container>& __rhs)
 719:d:/software/ovi_2503a_s3trc/ovi_2503a_s3trc/Tools/MinGW/include/c++/3.3.1/bits/stl_iterator.h ****   { return __lhs.base() >= __rhs.base(); }
 720:d:/software/ovi_2503a_s3trc/ovi_2503a_s3trc/Tools/MinGW/include/c++/3.3.1/bits/stl_iterator.h **** 
 721:d:/software/ovi_2503a_s3trc/ovi_2503a_s3trc/Tools/MinGW/include/c++/3.3.1/bits/stl_iterator.h ****   template<typename _Iterator, typename _Container>
 722:d:/software/ovi_2503a_s3trc/ovi_2503a_s3trc/Tools/MinGW/include/c++/3.3.1/bits/stl_iterator.h ****   inline bool
 723:d:/software/ovi_2503a_s3trc/ovi_2503a_s3trc/Tools/MinGW/include/c++/3.3.1/bits/stl_iterator.h ****   operator>=(const __normal_iterator<_Iterator, _Container>& __lhs,
 724:d:/software/ovi_2503a_s3trc/ovi_2503a_s3trc/Tools/MinGW/include/c++/3.3.1/bits/stl_iterator.h **** 	     const __normal_iterator<_Iterator, _Container>& __rhs)
 725:d:/software/ovi_2503a_s3trc/ovi_2503a_s3trc/Tools/MinGW/include/c++/3.3.1/bits/stl_iterator.h ****   { return __lhs.base() >= __rhs.base(); }
 726:d:/software/ovi_2503a_s3trc/ovi_2503a_s3trc/Tools/MinGW/include/c++/3.3.1/bits/stl_iterator.h **** 
 727:d:/software/ovi_2503a_s3trc/ovi_2503a_s3trc/Tools/MinGW/include/c++/3.3.1/bits/stl_iterator.h ****   // _GLIBCPP_RESOLVE_LIB_DEFECTS
 728:d:/software/ovi_2503a_s3trc/ovi_2503a_s3trc/Tools/MinGW/include/c++/3.3.1/bits/stl_iterator.h ****   // According to the resolution of DR179 not only the various comparison
 729:d:/software/ovi_2503a_s3trc/ovi_2503a_s3trc/Tools/MinGW/include/c++/3.3.1/bits/stl_iterator.h ****   // operators but also operator- must accept mixed iterator/const_iterator
 730:d:/software/ovi_2503a_s3trc/ovi_2503a_s3trc/Tools/MinGW/include/c++/3.3.1/bits/stl_iterator.h ****   // parameters.
 731:d:/software/ovi_2503a_s3trc/ovi_2503a_s3trc/Tools/MinGW/include/c++/3.3.1/bits/stl_iterator.h ****   template<typename _IteratorL, typename _IteratorR, typename _Container>
 732:d:/software/ovi_2503a_s3trc/ovi_2503a_s3trc/Tools/MinGW/include/c++/3.3.1/bits/stl_iterator.h ****   inline typename __normal_iterator<_IteratorL, _Container>::difference_type
 733:d:/software/ovi_2503a_s3trc/ovi_2503a_s3trc/Tools/MinGW/include/c++/3.3.1/bits/stl_iterator.h ****   operator-(const __normal_iterator<_IteratorL, _Container>& __lhs,
 734:d:/software/ovi_2503a_s3trc/ovi_2503a_s3trc/Tools/MinGW/include/c++/3.3.1/bits/stl_iterator.h **** 	     const __normal_iterator<_IteratorR, _Container>& __rhs)
 735:d:/software/ovi_2503a_s3trc/ovi_2503a_s3trc/Tools/MinGW/include/c++/3.3.1/bits/stl_iterator.h ****   { return __lhs.base() - __rhs.base(); }
 7244              	LM332:
 7245 0000 55       		pushl	%ebp
 7246 0001 89E5     		movl	%esp, %ebp
 7247 0003 53       		pushl	%ebx
 7248 0004 83EC04   		subl	$4, %esp
 7250              	LM333:
 7251              	LBB92:
 7252 0007 8B4508   		movl	8(%ebp), %eax
 7253 000a 890424   		movl	%eax, (%esp)
 7254 000d E8000000 		call	__ZNK9__gnu_cxx17__normal_iteratorIPKN10ThreadPool10ThreadDataESt6vectorIS2_SaIS2_EEE4baseEv
 7254      00
 7255 0012 89C3     		movl	%eax, %ebx
GAS LISTING d:/software/ovi_2503a_s3trc/ovi_2503a_s3trc/plutommi/Customer/ResGenerator/gcctmp/cci0baaa.s 			page 146


 7256 0014 8B450C   		movl	12(%ebp), %eax
 7257 0017 890424   		movl	%eax, (%esp)
 7258 001a E8000000 		call	__ZNK9__gnu_cxx17__normal_iteratorIPKN10ThreadPool10ThreadDataESt6vectorIS2_SaIS2_EEE4baseEv
 7258      00
 7259 001f 8B10     		movl	(%eax), %edx
 7260 0021 8B03     		movl	(%ebx), %eax
 7261 0023 29D0     		subl	%edx, %eax
 7262 0025 C1F802   		sarl	$2, %eax
 7263 0028 69C0ABAA 		imull	$-1431655765, %eax, %eax
 7263      AAAA
 7264 002e 83C404   		addl	$4, %esp
 7265 0031 5B       		popl	%ebx
 7266 0032 5D       		popl	%ebp
 7267 0033 C3       		ret
 7268              	LBE92:
 7269              	Lscope71:
 7271              		.section	.text$_ZNK9__gnu_cxx17__normal_iteratorIPKN10ThreadPool10ThreadDataESt6vectorIS2_SaIS2_EE
 7272              		.linkonce discard
 7273              		.align 2
 7276              	.globl __ZNK9__gnu_cxx17__normal_iteratorIPKN10ThreadPool10ThreadDataESt6vectorIS2_SaIS2_EEE4baseEv
 7278              	__ZNK9__gnu_cxx17__normal_iteratorIPKN10ThreadPool10ThreadDataESt6vectorIS2_SaIS2_EEE4baseEv:
 7280              	LM334:
 7281 0000 55       		pushl	%ebp
 7282 0001 89E5     		movl	%esp, %ebp
 7284              	LM335:
 7285              	LBB93:
 7286 0003 8B4508   		movl	8(%ebp), %eax
 7287 0006 5D       		popl	%ebp
 7288 0007 C3       		ret
 7289              	LBE93:
 7290              	Lscope72:
 7292              		.section	.text$_ZSt8_DestroyIN10ThreadPool7JobDataEEvPT_,"x"
 7293              		.linkonce discard
 7294              		.align 2
 7297              	.globl __ZSt8_DestroyIN10ThreadPool7JobDataEEvPT_
 7299              	__ZSt8_DestroyIN10ThreadPool7JobDataEEvPT_:
 7301              	Ltext35:
 7303              	LM336:
 7304 0000 55       		pushl	%ebp
 7305 0001 89E5     		movl	%esp, %ebp
 7307              	LM337:
 7308 0003 5D       		popl	%ebp
 7309 0004 C3       		ret
 7310              	Lscope73:
 7312 0005 909090   		.section	.text$_ZNSt8iteratorISt26random_access_iterator_tagN10ThreadPool10ThreadDataEiPS2_RS2_EC2
 7313              		.linkonce discard
 7314              		.align 2
 7317              	.globl __ZNSt8iteratorISt26random_access_iterator_tagN10ThreadPool10ThreadDataEiPS2_RS2_EC2Ev
 7319              	__ZNSt8iteratorISt26random_access_iterator_tagN10ThreadPool10ThreadDataEiPS2_RS2_EC2Ev:
 7321              	Ltext36:
 7323              	LM338:
 7324              	L282:
 7325              	L281:
 7326 0000 55       		pushl	%ebp
 7327 0001 89E5     		movl	%esp, %ebp
 7329              	LM339:
 7330 0003 5D       		popl	%ebp
GAS LISTING d:/software/ovi_2503a_s3trc/ovi_2503a_s3trc/plutommi/Customer/ResGenerator/gcctmp/cci0baaa.s 			page 147


 7331 0004 C3       		ret
 7332              	Lscope74:
 7334 0005 909090   		.section	.text$_ZSt13copy_backwardIN9__gnu_cxx17__normal_iteratorIPN10ThreadPool10ThreadDataESt6ve
 7335              		.linkonce discard
 7336              		.align 2
 7341              	.globl __ZSt13copy_backwardIN9__gnu_cxx17__normal_iteratorIPN10ThreadPool10ThreadDataESt6vectorIS3_
 7343              	__ZSt13copy_backwardIN9__gnu_cxx17__normal_iteratorIPN10ThreadPool10ThreadDataESt6vectorIS3_SaIS3_E
 7345              	Ltext37:
   1:d:/software/ovi_2503a_s3trc/ovi_2503a_s3trc/Tools/MinGW/include/c++/3.3.1/bits/stl_algobase.h **** // Bits and pieces used in algorithms -*- C++ -*-
   2:d:/software/ovi_2503a_s3trc/ovi_2503a_s3trc/Tools/MinGW/include/c++/3.3.1/bits/stl_algobase.h **** 
   3:d:/software/ovi_2503a_s3trc/ovi_2503a_s3trc/Tools/MinGW/include/c++/3.3.1/bits/stl_algobase.h **** // Copyright (C) 2001, 2002 Free Software Foundation, Inc.
   4:d:/software/ovi_2503a_s3trc/ovi_2503a_s3trc/Tools/MinGW/include/c++/3.3.1/bits/stl_algobase.h **** //
   5:d:/software/ovi_2503a_s3trc/ovi_2503a_s3trc/Tools/MinGW/include/c++/3.3.1/bits/stl_algobase.h **** // This file is part of the GNU ISO C++ Library.  This library is free
   6:d:/software/ovi_2503a_s3trc/ovi_2503a_s3trc/Tools/MinGW/include/c++/3.3.1/bits/stl_algobase.h **** // software; you can redistribute it and/or modify it under the
   7:d:/software/ovi_2503a_s3trc/ovi_2503a_s3trc/Tools/MinGW/include/c++/3.3.1/bits/stl_algobase.h **** // terms of the GNU General Public License as published by the
   8:d:/software/ovi_2503a_s3trc/ovi_2503a_s3trc/Tools/MinGW/include/c++/3.3.1/bits/stl_algobase.h **** // Free Software Foundation; either version 2, or (at your option)
   9:d:/software/ovi_2503a_s3trc/ovi_2503a_s3trc/Tools/MinGW/include/c++/3.3.1/bits/stl_algobase.h **** // any later version.
  10:d:/software/ovi_2503a_s3trc/ovi_2503a_s3trc/Tools/MinGW/include/c++/3.3.1/bits/stl_algobase.h **** 
  11:d:/software/ovi_2503a_s3trc/ovi_2503a_s3trc/Tools/MinGW/include/c++/3.3.1/bits/stl_algobase.h **** // This library is distributed in the hope that it will be useful,
  12:d:/software/ovi_2503a_s3trc/ovi_2503a_s3trc/Tools/MinGW/include/c++/3.3.1/bits/stl_algobase.h **** // but WITHOUT ANY WARRANTY; without even the implied warranty of
  13:d:/software/ovi_2503a_s3trc/ovi_2503a_s3trc/Tools/MinGW/include/c++/3.3.1/bits/stl_algobase.h **** // MERCHANTABILITY or FITNESS FOR A PARTICULAR PURPOSE.  See the
  14:d:/software/ovi_2503a_s3trc/ovi_2503a_s3trc/Tools/MinGW/include/c++/3.3.1/bits/stl_algobase.h **** // GNU General Public License for more details.
  15:d:/software/ovi_2503a_s3trc/ovi_2503a_s3trc/Tools/MinGW/include/c++/3.3.1/bits/stl_algobase.h **** 
  16:d:/software/ovi_2503a_s3trc/ovi_2503a_s3trc/Tools/MinGW/include/c++/3.3.1/bits/stl_algobase.h **** // You should have received a copy of the GNU General Public License along
  17:d:/software/ovi_2503a_s3trc/ovi_2503a_s3trc/Tools/MinGW/include/c++/3.3.1/bits/stl_algobase.h **** // with this library; see the file COPYING.  If not, write to the Free
  18:d:/software/ovi_2503a_s3trc/ovi_2503a_s3trc/Tools/MinGW/include/c++/3.3.1/bits/stl_algobase.h **** // Software Foundation, 59 Temple Place - Suite 330, Boston, MA 02111-1307,
  19:d:/software/ovi_2503a_s3trc/ovi_2503a_s3trc/Tools/MinGW/include/c++/3.3.1/bits/stl_algobase.h **** // USA.
  20:d:/software/ovi_2503a_s3trc/ovi_2503a_s3trc/Tools/MinGW/include/c++/3.3.1/bits/stl_algobase.h **** 
  21:d:/software/ovi_2503a_s3trc/ovi_2503a_s3trc/Tools/MinGW/include/c++/3.3.1/bits/stl_algobase.h **** // As a special exception, you may use this file as part of a free software
  22:d:/software/ovi_2503a_s3trc/ovi_2503a_s3trc/Tools/MinGW/include/c++/3.3.1/bits/stl_algobase.h **** // library without restriction.  Specifically, if other files instantiate
  23:d:/software/ovi_2503a_s3trc/ovi_2503a_s3trc/Tools/MinGW/include/c++/3.3.1/bits/stl_algobase.h **** // templates or use macros or inline functions from this file, or you compile
  24:d:/software/ovi_2503a_s3trc/ovi_2503a_s3trc/Tools/MinGW/include/c++/3.3.1/bits/stl_algobase.h **** // this file and link it with other files to produce an executable, this
  25:d:/software/ovi_2503a_s3trc/ovi_2503a_s3trc/Tools/MinGW/include/c++/3.3.1/bits/stl_algobase.h **** // file does not by itself cause the resulting executable to be covered by
  26:d:/software/ovi_2503a_s3trc/ovi_2503a_s3trc/Tools/MinGW/include/c++/3.3.1/bits/stl_algobase.h **** // the GNU General Public License.  This exception does not however
  27:d:/software/ovi_2503a_s3trc/ovi_2503a_s3trc/Tools/MinGW/include/c++/3.3.1/bits/stl_algobase.h **** // invalidate any other reasons why the executable file might be covered by
  28:d:/software/ovi_2503a_s3trc/ovi_2503a_s3trc/Tools/MinGW/include/c++/3.3.1/bits/stl_algobase.h **** // the GNU General Public License.
  29:d:/software/ovi_2503a_s3trc/ovi_2503a_s3trc/Tools/MinGW/include/c++/3.3.1/bits/stl_algobase.h **** 
  30:d:/software/ovi_2503a_s3trc/ovi_2503a_s3trc/Tools/MinGW/include/c++/3.3.1/bits/stl_algobase.h **** /*
  31:d:/software/ovi_2503a_s3trc/ovi_2503a_s3trc/Tools/MinGW/include/c++/3.3.1/bits/stl_algobase.h ****  *
  32:d:/software/ovi_2503a_s3trc/ovi_2503a_s3trc/Tools/MinGW/include/c++/3.3.1/bits/stl_algobase.h ****  * Copyright (c) 1994
  33:d:/software/ovi_2503a_s3trc/ovi_2503a_s3trc/Tools/MinGW/include/c++/3.3.1/bits/stl_algobase.h ****  * Hewlett-Packard Company
  34:d:/software/ovi_2503a_s3trc/ovi_2503a_s3trc/Tools/MinGW/include/c++/3.3.1/bits/stl_algobase.h ****  *
  35:d:/software/ovi_2503a_s3trc/ovi_2503a_s3trc/Tools/MinGW/include/c++/3.3.1/bits/stl_algobase.h ****  * Permission to use, copy, modify, distribute and sell this software
  36:d:/software/ovi_2503a_s3trc/ovi_2503a_s3trc/Tools/MinGW/include/c++/3.3.1/bits/stl_algobase.h ****  * and its documentation for any purpose is hereby granted without fee,
  37:d:/software/ovi_2503a_s3trc/ovi_2503a_s3trc/Tools/MinGW/include/c++/3.3.1/bits/stl_algobase.h ****  * provided that the above copyright notice appear in all copies and
  38:d:/software/ovi_2503a_s3trc/ovi_2503a_s3trc/Tools/MinGW/include/c++/3.3.1/bits/stl_algobase.h ****  * that both that copyright notice and this permission notice appear
  39:d:/software/ovi_2503a_s3trc/ovi_2503a_s3trc/Tools/MinGW/include/c++/3.3.1/bits/stl_algobase.h ****  * in supporting documentation.  Hewlett-Packard Company makes no
  40:d:/software/ovi_2503a_s3trc/ovi_2503a_s3trc/Tools/MinGW/include/c++/3.3.1/bits/stl_algobase.h ****  * representations about the suitability of this software for any
  41:d:/software/ovi_2503a_s3trc/ovi_2503a_s3trc/Tools/MinGW/include/c++/3.3.1/bits/stl_algobase.h ****  * purpose.  It is provided "as is" without express or implied warranty.
  42:d:/software/ovi_2503a_s3trc/ovi_2503a_s3trc/Tools/MinGW/include/c++/3.3.1/bits/stl_algobase.h ****  *
  43:d:/software/ovi_2503a_s3trc/ovi_2503a_s3trc/Tools/MinGW/include/c++/3.3.1/bits/stl_algobase.h ****  *
  44:d:/software/ovi_2503a_s3trc/ovi_2503a_s3trc/Tools/MinGW/include/c++/3.3.1/bits/stl_algobase.h ****  * Copyright (c) 1996-1998
  45:d:/software/ovi_2503a_s3trc/ovi_2503a_s3trc/Tools/MinGW/include/c++/3.3.1/bits/stl_algobase.h ****  * Silicon Graphics Computer Systems, Inc.
  46:d:/software/ovi_2503a_s3trc/ovi_2503a_s3trc/Tools/MinGW/include/c++/3.3.1/bits/stl_algobase.h ****  *
  47:d:/software/ovi_2503a_s3trc/ovi_2503a_s3trc/Tools/MinGW/include/c++/3.3.1/bits/stl_algobase.h ****  * Permission to use, copy, modify, distribute and sell this software
  48:d:/software/ovi_2503a_s3trc/ovi_2503a_s3trc/Tools/MinGW/include/c++/3.3.1/bits/stl_algobase.h ****  * and its documentation for any purpose is hereby granted without fee,
  49:d:/software/ovi_2503a_s3trc/ovi_2503a_s3trc/Tools/MinGW/include/c++/3.3.1/bits/stl_algobase.h ****  * provided that the above copyright notice appear in all copies and
GAS LISTING d:/software/ovi_2503a_s3trc/ovi_2503a_s3trc/plutommi/Customer/ResGenerator/gcctmp/cci0baaa.s 			page 148


  50:d:/software/ovi_2503a_s3trc/ovi_2503a_s3trc/Tools/MinGW/include/c++/3.3.1/bits/stl_algobase.h ****  * that both that copyright notice and this permission notice appear
  51:d:/software/ovi_2503a_s3trc/ovi_2503a_s3trc/Tools/MinGW/include/c++/3.3.1/bits/stl_algobase.h ****  * in supporting documentation.  Silicon Graphics makes no
  52:d:/software/ovi_2503a_s3trc/ovi_2503a_s3trc/Tools/MinGW/include/c++/3.3.1/bits/stl_algobase.h ****  * representations about the suitability of this software for any
  53:d:/software/ovi_2503a_s3trc/ovi_2503a_s3trc/Tools/MinGW/include/c++/3.3.1/bits/stl_algobase.h ****  * purpose.  It is provided "as is" without express or implied warranty.
  54:d:/software/ovi_2503a_s3trc/ovi_2503a_s3trc/Tools/MinGW/include/c++/3.3.1/bits/stl_algobase.h ****  */
  55:d:/software/ovi_2503a_s3trc/ovi_2503a_s3trc/Tools/MinGW/include/c++/3.3.1/bits/stl_algobase.h **** 
  56:d:/software/ovi_2503a_s3trc/ovi_2503a_s3trc/Tools/MinGW/include/c++/3.3.1/bits/stl_algobase.h **** /** @file stl_algobase.h
  57:d:/software/ovi_2503a_s3trc/ovi_2503a_s3trc/Tools/MinGW/include/c++/3.3.1/bits/stl_algobase.h ****  *  This is an internal header file, included by other library headers.
  58:d:/software/ovi_2503a_s3trc/ovi_2503a_s3trc/Tools/MinGW/include/c++/3.3.1/bits/stl_algobase.h ****  *  You should not attempt to use it directly.
  59:d:/software/ovi_2503a_s3trc/ovi_2503a_s3trc/Tools/MinGW/include/c++/3.3.1/bits/stl_algobase.h ****  */
  60:d:/software/ovi_2503a_s3trc/ovi_2503a_s3trc/Tools/MinGW/include/c++/3.3.1/bits/stl_algobase.h **** 
  61:d:/software/ovi_2503a_s3trc/ovi_2503a_s3trc/Tools/MinGW/include/c++/3.3.1/bits/stl_algobase.h **** #ifndef __GLIBCPP_INTERNAL_ALGOBASE_H
  62:d:/software/ovi_2503a_s3trc/ovi_2503a_s3trc/Tools/MinGW/include/c++/3.3.1/bits/stl_algobase.h **** #define __GLIBCPP_INTERNAL_ALGOBASE_H
  63:d:/software/ovi_2503a_s3trc/ovi_2503a_s3trc/Tools/MinGW/include/c++/3.3.1/bits/stl_algobase.h **** 
  64:d:/software/ovi_2503a_s3trc/ovi_2503a_s3trc/Tools/MinGW/include/c++/3.3.1/bits/stl_algobase.h **** #include <bits/c++config.h>
  65:d:/software/ovi_2503a_s3trc/ovi_2503a_s3trc/Tools/MinGW/include/c++/3.3.1/bits/stl_algobase.h **** #include <cstring>
  66:d:/software/ovi_2503a_s3trc/ovi_2503a_s3trc/Tools/MinGW/include/c++/3.3.1/bits/stl_algobase.h **** #include <climits>
  67:d:/software/ovi_2503a_s3trc/ovi_2503a_s3trc/Tools/MinGW/include/c++/3.3.1/bits/stl_algobase.h **** #include <cstdlib>
  68:d:/software/ovi_2503a_s3trc/ovi_2503a_s3trc/Tools/MinGW/include/c++/3.3.1/bits/stl_algobase.h **** #include <cstddef>
  69:d:/software/ovi_2503a_s3trc/ovi_2503a_s3trc/Tools/MinGW/include/c++/3.3.1/bits/stl_algobase.h **** #include <new>
  70:d:/software/ovi_2503a_s3trc/ovi_2503a_s3trc/Tools/MinGW/include/c++/3.3.1/bits/stl_algobase.h **** #include <iosfwd>
  71:d:/software/ovi_2503a_s3trc/ovi_2503a_s3trc/Tools/MinGW/include/c++/3.3.1/bits/stl_algobase.h **** #include <bits/stl_pair.h>
  72:d:/software/ovi_2503a_s3trc/ovi_2503a_s3trc/Tools/MinGW/include/c++/3.3.1/bits/stl_algobase.h **** #include <bits/type_traits.h>
  73:d:/software/ovi_2503a_s3trc/ovi_2503a_s3trc/Tools/MinGW/include/c++/3.3.1/bits/stl_algobase.h **** #include <bits/stl_iterator_base_types.h>
  74:d:/software/ovi_2503a_s3trc/ovi_2503a_s3trc/Tools/MinGW/include/c++/3.3.1/bits/stl_algobase.h **** #include <bits/stl_iterator_base_funcs.h>
  75:d:/software/ovi_2503a_s3trc/ovi_2503a_s3trc/Tools/MinGW/include/c++/3.3.1/bits/stl_algobase.h **** #include <bits/stl_iterator.h>
  76:d:/software/ovi_2503a_s3trc/ovi_2503a_s3trc/Tools/MinGW/include/c++/3.3.1/bits/stl_algobase.h **** #include <bits/concept_check.h>
  77:d:/software/ovi_2503a_s3trc/ovi_2503a_s3trc/Tools/MinGW/include/c++/3.3.1/bits/stl_algobase.h **** 
  78:d:/software/ovi_2503a_s3trc/ovi_2503a_s3trc/Tools/MinGW/include/c++/3.3.1/bits/stl_algobase.h **** namespace std
  79:d:/software/ovi_2503a_s3trc/ovi_2503a_s3trc/Tools/MinGW/include/c++/3.3.1/bits/stl_algobase.h **** {
  80:d:/software/ovi_2503a_s3trc/ovi_2503a_s3trc/Tools/MinGW/include/c++/3.3.1/bits/stl_algobase.h ****   // swap and iter_swap
  81:d:/software/ovi_2503a_s3trc/ovi_2503a_s3trc/Tools/MinGW/include/c++/3.3.1/bits/stl_algobase.h **** 
  82:d:/software/ovi_2503a_s3trc/ovi_2503a_s3trc/Tools/MinGW/include/c++/3.3.1/bits/stl_algobase.h ****   /**
  83:d:/software/ovi_2503a_s3trc/ovi_2503a_s3trc/Tools/MinGW/include/c++/3.3.1/bits/stl_algobase.h ****    *  @brief Swaps the contents of two iterators.
  84:d:/software/ovi_2503a_s3trc/ovi_2503a_s3trc/Tools/MinGW/include/c++/3.3.1/bits/stl_algobase.h ****    *  @param  a  An iterator.
  85:d:/software/ovi_2503a_s3trc/ovi_2503a_s3trc/Tools/MinGW/include/c++/3.3.1/bits/stl_algobase.h ****    *  @param  b  Another iterator.
  86:d:/software/ovi_2503a_s3trc/ovi_2503a_s3trc/Tools/MinGW/include/c++/3.3.1/bits/stl_algobase.h ****    *  @return   Nothing.
  87:d:/software/ovi_2503a_s3trc/ovi_2503a_s3trc/Tools/MinGW/include/c++/3.3.1/bits/stl_algobase.h ****    *
  88:d:/software/ovi_2503a_s3trc/ovi_2503a_s3trc/Tools/MinGW/include/c++/3.3.1/bits/stl_algobase.h ****    *  This function swaps the values pointed to by two iterators, not the
  89:d:/software/ovi_2503a_s3trc/ovi_2503a_s3trc/Tools/MinGW/include/c++/3.3.1/bits/stl_algobase.h ****    *  iterators themselves.
  90:d:/software/ovi_2503a_s3trc/ovi_2503a_s3trc/Tools/MinGW/include/c++/3.3.1/bits/stl_algobase.h ****   */
  91:d:/software/ovi_2503a_s3trc/ovi_2503a_s3trc/Tools/MinGW/include/c++/3.3.1/bits/stl_algobase.h ****   template<typename _ForwardIter1, typename _ForwardIter2>
  92:d:/software/ovi_2503a_s3trc/ovi_2503a_s3trc/Tools/MinGW/include/c++/3.3.1/bits/stl_algobase.h ****     inline void
  93:d:/software/ovi_2503a_s3trc/ovi_2503a_s3trc/Tools/MinGW/include/c++/3.3.1/bits/stl_algobase.h ****     iter_swap(_ForwardIter1 __a, _ForwardIter2 __b)
  94:d:/software/ovi_2503a_s3trc/ovi_2503a_s3trc/Tools/MinGW/include/c++/3.3.1/bits/stl_algobase.h ****     {
  95:d:/software/ovi_2503a_s3trc/ovi_2503a_s3trc/Tools/MinGW/include/c++/3.3.1/bits/stl_algobase.h ****       typedef typename iterator_traits<_ForwardIter1>::value_type _ValueType1;
  96:d:/software/ovi_2503a_s3trc/ovi_2503a_s3trc/Tools/MinGW/include/c++/3.3.1/bits/stl_algobase.h ****       typedef typename iterator_traits<_ForwardIter2>::value_type _ValueType2;
  97:d:/software/ovi_2503a_s3trc/ovi_2503a_s3trc/Tools/MinGW/include/c++/3.3.1/bits/stl_algobase.h **** 
  98:d:/software/ovi_2503a_s3trc/ovi_2503a_s3trc/Tools/MinGW/include/c++/3.3.1/bits/stl_algobase.h ****       // concept requirements
  99:d:/software/ovi_2503a_s3trc/ovi_2503a_s3trc/Tools/MinGW/include/c++/3.3.1/bits/stl_algobase.h ****       __glibcpp_function_requires(_Mutable_ForwardIteratorConcept<_ForwardIter1>)
 100:d:/software/ovi_2503a_s3trc/ovi_2503a_s3trc/Tools/MinGW/include/c++/3.3.1/bits/stl_algobase.h ****       __glibcpp_function_requires(_Mutable_ForwardIteratorConcept<_ForwardIter2>)
 101:d:/software/ovi_2503a_s3trc/ovi_2503a_s3trc/Tools/MinGW/include/c++/3.3.1/bits/stl_algobase.h ****       __glibcpp_function_requires(_ConvertibleConcept<_ValueType1, _ValueType2>)
 102:d:/software/ovi_2503a_s3trc/ovi_2503a_s3trc/Tools/MinGW/include/c++/3.3.1/bits/stl_algobase.h ****       __glibcpp_function_requires(_ConvertibleConcept<_ValueType2, _ValueType1>)
 103:d:/software/ovi_2503a_s3trc/ovi_2503a_s3trc/Tools/MinGW/include/c++/3.3.1/bits/stl_algobase.h **** 
 104:d:/software/ovi_2503a_s3trc/ovi_2503a_s3trc/Tools/MinGW/include/c++/3.3.1/bits/stl_algobase.h ****       _ValueType1 __tmp = *__a;
 105:d:/software/ovi_2503a_s3trc/ovi_2503a_s3trc/Tools/MinGW/include/c++/3.3.1/bits/stl_algobase.h ****       *__a = *__b;
 106:d:/software/ovi_2503a_s3trc/ovi_2503a_s3trc/Tools/MinGW/include/c++/3.3.1/bits/stl_algobase.h ****       *__b = __tmp;
GAS LISTING d:/software/ovi_2503a_s3trc/ovi_2503a_s3trc/plutommi/Customer/ResGenerator/gcctmp/cci0baaa.s 			page 149


 107:d:/software/ovi_2503a_s3trc/ovi_2503a_s3trc/Tools/MinGW/include/c++/3.3.1/bits/stl_algobase.h ****     }
 108:d:/software/ovi_2503a_s3trc/ovi_2503a_s3trc/Tools/MinGW/include/c++/3.3.1/bits/stl_algobase.h **** 
 109:d:/software/ovi_2503a_s3trc/ovi_2503a_s3trc/Tools/MinGW/include/c++/3.3.1/bits/stl_algobase.h ****   /**
 110:d:/software/ovi_2503a_s3trc/ovi_2503a_s3trc/Tools/MinGW/include/c++/3.3.1/bits/stl_algobase.h ****    *  @brief Swaps two values.
 111:d:/software/ovi_2503a_s3trc/ovi_2503a_s3trc/Tools/MinGW/include/c++/3.3.1/bits/stl_algobase.h ****    *  @param  a  A thing of arbitrary type.
 112:d:/software/ovi_2503a_s3trc/ovi_2503a_s3trc/Tools/MinGW/include/c++/3.3.1/bits/stl_algobase.h ****    *  @param  b  Another thing of arbitrary type.
 113:d:/software/ovi_2503a_s3trc/ovi_2503a_s3trc/Tools/MinGW/include/c++/3.3.1/bits/stl_algobase.h ****    *  @return   Nothing.
 114:d:/software/ovi_2503a_s3trc/ovi_2503a_s3trc/Tools/MinGW/include/c++/3.3.1/bits/stl_algobase.h ****    *
 115:d:/software/ovi_2503a_s3trc/ovi_2503a_s3trc/Tools/MinGW/include/c++/3.3.1/bits/stl_algobase.h ****    *  This is the simple classic generic implementation.  It will work on
 116:d:/software/ovi_2503a_s3trc/ovi_2503a_s3trc/Tools/MinGW/include/c++/3.3.1/bits/stl_algobase.h ****    *  any type which has a copy constructor and an assignment operator.
 117:d:/software/ovi_2503a_s3trc/ovi_2503a_s3trc/Tools/MinGW/include/c++/3.3.1/bits/stl_algobase.h ****   */
 118:d:/software/ovi_2503a_s3trc/ovi_2503a_s3trc/Tools/MinGW/include/c++/3.3.1/bits/stl_algobase.h ****   template<typename _Tp>
 119:d:/software/ovi_2503a_s3trc/ovi_2503a_s3trc/Tools/MinGW/include/c++/3.3.1/bits/stl_algobase.h ****     inline void
 120:d:/software/ovi_2503a_s3trc/ovi_2503a_s3trc/Tools/MinGW/include/c++/3.3.1/bits/stl_algobase.h ****     swap(_Tp& __a, _Tp& __b)
 121:d:/software/ovi_2503a_s3trc/ovi_2503a_s3trc/Tools/MinGW/include/c++/3.3.1/bits/stl_algobase.h ****     {
 122:d:/software/ovi_2503a_s3trc/ovi_2503a_s3trc/Tools/MinGW/include/c++/3.3.1/bits/stl_algobase.h ****       // concept requirements
 123:d:/software/ovi_2503a_s3trc/ovi_2503a_s3trc/Tools/MinGW/include/c++/3.3.1/bits/stl_algobase.h ****       __glibcpp_function_requires(_SGIAssignableConcept<_Tp>)
 124:d:/software/ovi_2503a_s3trc/ovi_2503a_s3trc/Tools/MinGW/include/c++/3.3.1/bits/stl_algobase.h ****       
 125:d:/software/ovi_2503a_s3trc/ovi_2503a_s3trc/Tools/MinGW/include/c++/3.3.1/bits/stl_algobase.h ****       _Tp __tmp = __a;
 126:d:/software/ovi_2503a_s3trc/ovi_2503a_s3trc/Tools/MinGW/include/c++/3.3.1/bits/stl_algobase.h ****       __a = __b;
 127:d:/software/ovi_2503a_s3trc/ovi_2503a_s3trc/Tools/MinGW/include/c++/3.3.1/bits/stl_algobase.h ****       __b = __tmp;
 128:d:/software/ovi_2503a_s3trc/ovi_2503a_s3trc/Tools/MinGW/include/c++/3.3.1/bits/stl_algobase.h ****     }
 129:d:/software/ovi_2503a_s3trc/ovi_2503a_s3trc/Tools/MinGW/include/c++/3.3.1/bits/stl_algobase.h **** 
 130:d:/software/ovi_2503a_s3trc/ovi_2503a_s3trc/Tools/MinGW/include/c++/3.3.1/bits/stl_algobase.h ****   //--------------------------------------------------
 131:d:/software/ovi_2503a_s3trc/ovi_2503a_s3trc/Tools/MinGW/include/c++/3.3.1/bits/stl_algobase.h ****   // min and max
 132:d:/software/ovi_2503a_s3trc/ovi_2503a_s3trc/Tools/MinGW/include/c++/3.3.1/bits/stl_algobase.h **** 
 133:d:/software/ovi_2503a_s3trc/ovi_2503a_s3trc/Tools/MinGW/include/c++/3.3.1/bits/stl_algobase.h ****   #undef min
 134:d:/software/ovi_2503a_s3trc/ovi_2503a_s3trc/Tools/MinGW/include/c++/3.3.1/bits/stl_algobase.h ****   #undef max
 135:d:/software/ovi_2503a_s3trc/ovi_2503a_s3trc/Tools/MinGW/include/c++/3.3.1/bits/stl_algobase.h **** 
 136:d:/software/ovi_2503a_s3trc/ovi_2503a_s3trc/Tools/MinGW/include/c++/3.3.1/bits/stl_algobase.h ****   /**
 137:d:/software/ovi_2503a_s3trc/ovi_2503a_s3trc/Tools/MinGW/include/c++/3.3.1/bits/stl_algobase.h ****    *  @brief This does what you think it does.
 138:d:/software/ovi_2503a_s3trc/ovi_2503a_s3trc/Tools/MinGW/include/c++/3.3.1/bits/stl_algobase.h ****    *  @param  a  A thing of arbitrary type.
 139:d:/software/ovi_2503a_s3trc/ovi_2503a_s3trc/Tools/MinGW/include/c++/3.3.1/bits/stl_algobase.h ****    *  @param  b  Another thing of arbitrary type.
 140:d:/software/ovi_2503a_s3trc/ovi_2503a_s3trc/Tools/MinGW/include/c++/3.3.1/bits/stl_algobase.h ****    *  @return   The lesser of the parameters.
 141:d:/software/ovi_2503a_s3trc/ovi_2503a_s3trc/Tools/MinGW/include/c++/3.3.1/bits/stl_algobase.h ****    *
 142:d:/software/ovi_2503a_s3trc/ovi_2503a_s3trc/Tools/MinGW/include/c++/3.3.1/bits/stl_algobase.h ****    *  This is the simple classic generic implementation.  It will work on
 143:d:/software/ovi_2503a_s3trc/ovi_2503a_s3trc/Tools/MinGW/include/c++/3.3.1/bits/stl_algobase.h ****    *  temporary expressions, since they are only evaluated once, unlike a
 144:d:/software/ovi_2503a_s3trc/ovi_2503a_s3trc/Tools/MinGW/include/c++/3.3.1/bits/stl_algobase.h ****    *  preprocessor macro.
 145:d:/software/ovi_2503a_s3trc/ovi_2503a_s3trc/Tools/MinGW/include/c++/3.3.1/bits/stl_algobase.h ****   */
 146:d:/software/ovi_2503a_s3trc/ovi_2503a_s3trc/Tools/MinGW/include/c++/3.3.1/bits/stl_algobase.h ****   template<typename _Tp>
 147:d:/software/ovi_2503a_s3trc/ovi_2503a_s3trc/Tools/MinGW/include/c++/3.3.1/bits/stl_algobase.h ****     inline const _Tp&
 148:d:/software/ovi_2503a_s3trc/ovi_2503a_s3trc/Tools/MinGW/include/c++/3.3.1/bits/stl_algobase.h ****     min(const _Tp& __a, const _Tp& __b)
 149:d:/software/ovi_2503a_s3trc/ovi_2503a_s3trc/Tools/MinGW/include/c++/3.3.1/bits/stl_algobase.h ****     {
 150:d:/software/ovi_2503a_s3trc/ovi_2503a_s3trc/Tools/MinGW/include/c++/3.3.1/bits/stl_algobase.h ****       // concept requirements
 151:d:/software/ovi_2503a_s3trc/ovi_2503a_s3trc/Tools/MinGW/include/c++/3.3.1/bits/stl_algobase.h ****       __glibcpp_function_requires(_LessThanComparableConcept<_Tp>)
 152:d:/software/ovi_2503a_s3trc/ovi_2503a_s3trc/Tools/MinGW/include/c++/3.3.1/bits/stl_algobase.h ****       //return __b < __a ? __b : __a;
 153:d:/software/ovi_2503a_s3trc/ovi_2503a_s3trc/Tools/MinGW/include/c++/3.3.1/bits/stl_algobase.h ****       if (__b < __a) return __b; return __a;
 154:d:/software/ovi_2503a_s3trc/ovi_2503a_s3trc/Tools/MinGW/include/c++/3.3.1/bits/stl_algobase.h ****     }
 155:d:/software/ovi_2503a_s3trc/ovi_2503a_s3trc/Tools/MinGW/include/c++/3.3.1/bits/stl_algobase.h **** 
 156:d:/software/ovi_2503a_s3trc/ovi_2503a_s3trc/Tools/MinGW/include/c++/3.3.1/bits/stl_algobase.h ****   /**
 157:d:/software/ovi_2503a_s3trc/ovi_2503a_s3trc/Tools/MinGW/include/c++/3.3.1/bits/stl_algobase.h ****    *  @brief This does what you think it does.
 158:d:/software/ovi_2503a_s3trc/ovi_2503a_s3trc/Tools/MinGW/include/c++/3.3.1/bits/stl_algobase.h ****    *  @param  a  A thing of arbitrary type.
 159:d:/software/ovi_2503a_s3trc/ovi_2503a_s3trc/Tools/MinGW/include/c++/3.3.1/bits/stl_algobase.h ****    *  @param  b  Another thing of arbitrary type.
 160:d:/software/ovi_2503a_s3trc/ovi_2503a_s3trc/Tools/MinGW/include/c++/3.3.1/bits/stl_algobase.h ****    *  @return   The greater of the parameters.
 161:d:/software/ovi_2503a_s3trc/ovi_2503a_s3trc/Tools/MinGW/include/c++/3.3.1/bits/stl_algobase.h ****    *
 162:d:/software/ovi_2503a_s3trc/ovi_2503a_s3trc/Tools/MinGW/include/c++/3.3.1/bits/stl_algobase.h ****    *  This is the simple classic generic implementation.  It will work on
 163:d:/software/ovi_2503a_s3trc/ovi_2503a_s3trc/Tools/MinGW/include/c++/3.3.1/bits/stl_algobase.h ****    *  temporary expressions, since they are only evaluated once, unlike a
GAS LISTING d:/software/ovi_2503a_s3trc/ovi_2503a_s3trc/plutommi/Customer/ResGenerator/gcctmp/cci0baaa.s 			page 150


 164:d:/software/ovi_2503a_s3trc/ovi_2503a_s3trc/Tools/MinGW/include/c++/3.3.1/bits/stl_algobase.h ****    *  preprocessor macro.
 165:d:/software/ovi_2503a_s3trc/ovi_2503a_s3trc/Tools/MinGW/include/c++/3.3.1/bits/stl_algobase.h ****   */
 166:d:/software/ovi_2503a_s3trc/ovi_2503a_s3trc/Tools/MinGW/include/c++/3.3.1/bits/stl_algobase.h ****   template<typename _Tp>
 167:d:/software/ovi_2503a_s3trc/ovi_2503a_s3trc/Tools/MinGW/include/c++/3.3.1/bits/stl_algobase.h ****     inline const _Tp&
 168:d:/software/ovi_2503a_s3trc/ovi_2503a_s3trc/Tools/MinGW/include/c++/3.3.1/bits/stl_algobase.h ****     max(const _Tp& __a, const _Tp& __b) 
 169:d:/software/ovi_2503a_s3trc/ovi_2503a_s3trc/Tools/MinGW/include/c++/3.3.1/bits/stl_algobase.h ****     {
 170:d:/software/ovi_2503a_s3trc/ovi_2503a_s3trc/Tools/MinGW/include/c++/3.3.1/bits/stl_algobase.h ****       // concept requirements
 171:d:/software/ovi_2503a_s3trc/ovi_2503a_s3trc/Tools/MinGW/include/c++/3.3.1/bits/stl_algobase.h ****       __glibcpp_function_requires(_LessThanComparableConcept<_Tp>)
 172:d:/software/ovi_2503a_s3trc/ovi_2503a_s3trc/Tools/MinGW/include/c++/3.3.1/bits/stl_algobase.h ****       //return  __a < __b ? __b : __a;
 173:d:/software/ovi_2503a_s3trc/ovi_2503a_s3trc/Tools/MinGW/include/c++/3.3.1/bits/stl_algobase.h ****       if (__a < __b) return __b; return __a;
 174:d:/software/ovi_2503a_s3trc/ovi_2503a_s3trc/Tools/MinGW/include/c++/3.3.1/bits/stl_algobase.h ****     }
 175:d:/software/ovi_2503a_s3trc/ovi_2503a_s3trc/Tools/MinGW/include/c++/3.3.1/bits/stl_algobase.h **** 
 176:d:/software/ovi_2503a_s3trc/ovi_2503a_s3trc/Tools/MinGW/include/c++/3.3.1/bits/stl_algobase.h ****   /**
 177:d:/software/ovi_2503a_s3trc/ovi_2503a_s3trc/Tools/MinGW/include/c++/3.3.1/bits/stl_algobase.h ****    *  @brief This does what you think it does.
 178:d:/software/ovi_2503a_s3trc/ovi_2503a_s3trc/Tools/MinGW/include/c++/3.3.1/bits/stl_algobase.h ****    *  @param  a  A thing of arbitrary type.
 179:d:/software/ovi_2503a_s3trc/ovi_2503a_s3trc/Tools/MinGW/include/c++/3.3.1/bits/stl_algobase.h ****    *  @param  b  Another thing of arbitrary type.
 180:d:/software/ovi_2503a_s3trc/ovi_2503a_s3trc/Tools/MinGW/include/c++/3.3.1/bits/stl_algobase.h ****    *  @param  comp  A @link s20_3_3_comparisons comparison functor@endlink.
 181:d:/software/ovi_2503a_s3trc/ovi_2503a_s3trc/Tools/MinGW/include/c++/3.3.1/bits/stl_algobase.h ****    *  @return   The lesser of the parameters.
 182:d:/software/ovi_2503a_s3trc/ovi_2503a_s3trc/Tools/MinGW/include/c++/3.3.1/bits/stl_algobase.h ****    *
 183:d:/software/ovi_2503a_s3trc/ovi_2503a_s3trc/Tools/MinGW/include/c++/3.3.1/bits/stl_algobase.h ****    *  This will work on temporary expressions, since they are only evaluated
 184:d:/software/ovi_2503a_s3trc/ovi_2503a_s3trc/Tools/MinGW/include/c++/3.3.1/bits/stl_algobase.h ****    *  once, unlike a preprocessor macro.
 185:d:/software/ovi_2503a_s3trc/ovi_2503a_s3trc/Tools/MinGW/include/c++/3.3.1/bits/stl_algobase.h ****   */
 186:d:/software/ovi_2503a_s3trc/ovi_2503a_s3trc/Tools/MinGW/include/c++/3.3.1/bits/stl_algobase.h ****   template<typename _Tp, typename _Compare>
 187:d:/software/ovi_2503a_s3trc/ovi_2503a_s3trc/Tools/MinGW/include/c++/3.3.1/bits/stl_algobase.h ****     inline const _Tp&
 188:d:/software/ovi_2503a_s3trc/ovi_2503a_s3trc/Tools/MinGW/include/c++/3.3.1/bits/stl_algobase.h ****     min(const _Tp& __a, const _Tp& __b, _Compare __comp)
 189:d:/software/ovi_2503a_s3trc/ovi_2503a_s3trc/Tools/MinGW/include/c++/3.3.1/bits/stl_algobase.h ****     {
 190:d:/software/ovi_2503a_s3trc/ovi_2503a_s3trc/Tools/MinGW/include/c++/3.3.1/bits/stl_algobase.h ****       //return __comp(__b, __a) ? __b : __a;
 191:d:/software/ovi_2503a_s3trc/ovi_2503a_s3trc/Tools/MinGW/include/c++/3.3.1/bits/stl_algobase.h ****       if (__comp(__b, __a)) return __b; return __a;
 192:d:/software/ovi_2503a_s3trc/ovi_2503a_s3trc/Tools/MinGW/include/c++/3.3.1/bits/stl_algobase.h ****     }
 193:d:/software/ovi_2503a_s3trc/ovi_2503a_s3trc/Tools/MinGW/include/c++/3.3.1/bits/stl_algobase.h **** 
 194:d:/software/ovi_2503a_s3trc/ovi_2503a_s3trc/Tools/MinGW/include/c++/3.3.1/bits/stl_algobase.h ****   /**
 195:d:/software/ovi_2503a_s3trc/ovi_2503a_s3trc/Tools/MinGW/include/c++/3.3.1/bits/stl_algobase.h ****    *  @brief This does what you think it does.
 196:d:/software/ovi_2503a_s3trc/ovi_2503a_s3trc/Tools/MinGW/include/c++/3.3.1/bits/stl_algobase.h ****    *  @param  a  A thing of arbitrary type.
 197:d:/software/ovi_2503a_s3trc/ovi_2503a_s3trc/Tools/MinGW/include/c++/3.3.1/bits/stl_algobase.h ****    *  @param  b  Another thing of arbitrary type.
 198:d:/software/ovi_2503a_s3trc/ovi_2503a_s3trc/Tools/MinGW/include/c++/3.3.1/bits/stl_algobase.h ****    *  @param  comp  A @link s20_3_3_comparisons comparison functor@endlink.
 199:d:/software/ovi_2503a_s3trc/ovi_2503a_s3trc/Tools/MinGW/include/c++/3.3.1/bits/stl_algobase.h ****    *  @return   The greater of the parameters.
 200:d:/software/ovi_2503a_s3trc/ovi_2503a_s3trc/Tools/MinGW/include/c++/3.3.1/bits/stl_algobase.h ****    *
 201:d:/software/ovi_2503a_s3trc/ovi_2503a_s3trc/Tools/MinGW/include/c++/3.3.1/bits/stl_algobase.h ****    *  This will work on temporary expressions, since they are only evaluated
 202:d:/software/ovi_2503a_s3trc/ovi_2503a_s3trc/Tools/MinGW/include/c++/3.3.1/bits/stl_algobase.h ****    *  once, unlike a preprocessor macro.
 203:d:/software/ovi_2503a_s3trc/ovi_2503a_s3trc/Tools/MinGW/include/c++/3.3.1/bits/stl_algobase.h ****   */
 204:d:/software/ovi_2503a_s3trc/ovi_2503a_s3trc/Tools/MinGW/include/c++/3.3.1/bits/stl_algobase.h ****   template<typename _Tp, typename _Compare>
 205:d:/software/ovi_2503a_s3trc/ovi_2503a_s3trc/Tools/MinGW/include/c++/3.3.1/bits/stl_algobase.h ****     inline const _Tp&
 206:d:/software/ovi_2503a_s3trc/ovi_2503a_s3trc/Tools/MinGW/include/c++/3.3.1/bits/stl_algobase.h ****     max(const _Tp& __a, const _Tp& __b, _Compare __comp)
 207:d:/software/ovi_2503a_s3trc/ovi_2503a_s3trc/Tools/MinGW/include/c++/3.3.1/bits/stl_algobase.h ****     {
 208:d:/software/ovi_2503a_s3trc/ovi_2503a_s3trc/Tools/MinGW/include/c++/3.3.1/bits/stl_algobase.h ****       //return __comp(__a, __b) ? __b : __a;
 209:d:/software/ovi_2503a_s3trc/ovi_2503a_s3trc/Tools/MinGW/include/c++/3.3.1/bits/stl_algobase.h ****       if (__comp(__a, __b)) return __b; return __a;
 210:d:/software/ovi_2503a_s3trc/ovi_2503a_s3trc/Tools/MinGW/include/c++/3.3.1/bits/stl_algobase.h ****     }
 211:d:/software/ovi_2503a_s3trc/ovi_2503a_s3trc/Tools/MinGW/include/c++/3.3.1/bits/stl_algobase.h **** 
 212:d:/software/ovi_2503a_s3trc/ovi_2503a_s3trc/Tools/MinGW/include/c++/3.3.1/bits/stl_algobase.h ****   //--------------------------------------------------
 213:d:/software/ovi_2503a_s3trc/ovi_2503a_s3trc/Tools/MinGW/include/c++/3.3.1/bits/stl_algobase.h ****   // copy
 214:d:/software/ovi_2503a_s3trc/ovi_2503a_s3trc/Tools/MinGW/include/c++/3.3.1/bits/stl_algobase.h **** 
 215:d:/software/ovi_2503a_s3trc/ovi_2503a_s3trc/Tools/MinGW/include/c++/3.3.1/bits/stl_algobase.h ****   // All of these auxiliary functions serve two purposes.  (1) Replace
 216:d:/software/ovi_2503a_s3trc/ovi_2503a_s3trc/Tools/MinGW/include/c++/3.3.1/bits/stl_algobase.h ****   // calls to copy with memmove whenever possible.  (Memmove, not memcpy,
 217:d:/software/ovi_2503a_s3trc/ovi_2503a_s3trc/Tools/MinGW/include/c++/3.3.1/bits/stl_algobase.h ****   // because the input and output ranges are permitted to overlap.)
 218:d:/software/ovi_2503a_s3trc/ovi_2503a_s3trc/Tools/MinGW/include/c++/3.3.1/bits/stl_algobase.h ****   // (2) If we're using random access iterators, then write the loop as
 219:d:/software/ovi_2503a_s3trc/ovi_2503a_s3trc/Tools/MinGW/include/c++/3.3.1/bits/stl_algobase.h ****   // a for loop with an explicit count.
 220:d:/software/ovi_2503a_s3trc/ovi_2503a_s3trc/Tools/MinGW/include/c++/3.3.1/bits/stl_algobase.h **** 
GAS LISTING d:/software/ovi_2503a_s3trc/ovi_2503a_s3trc/plutommi/Customer/ResGenerator/gcctmp/cci0baaa.s 			page 151


 221:d:/software/ovi_2503a_s3trc/ovi_2503a_s3trc/Tools/MinGW/include/c++/3.3.1/bits/stl_algobase.h ****   template<typename _InputIter, typename _OutputIter>
 222:d:/software/ovi_2503a_s3trc/ovi_2503a_s3trc/Tools/MinGW/include/c++/3.3.1/bits/stl_algobase.h ****     inline _OutputIter
 223:d:/software/ovi_2503a_s3trc/ovi_2503a_s3trc/Tools/MinGW/include/c++/3.3.1/bits/stl_algobase.h ****     __copy(_InputIter __first, _InputIter __last,
 224:d:/software/ovi_2503a_s3trc/ovi_2503a_s3trc/Tools/MinGW/include/c++/3.3.1/bits/stl_algobase.h **** 	   _OutputIter __result,
 225:d:/software/ovi_2503a_s3trc/ovi_2503a_s3trc/Tools/MinGW/include/c++/3.3.1/bits/stl_algobase.h **** 	   input_iterator_tag)
 226:d:/software/ovi_2503a_s3trc/ovi_2503a_s3trc/Tools/MinGW/include/c++/3.3.1/bits/stl_algobase.h ****     {
 227:d:/software/ovi_2503a_s3trc/ovi_2503a_s3trc/Tools/MinGW/include/c++/3.3.1/bits/stl_algobase.h ****       for ( ; __first != __last; ++__result, ++__first)
 228:d:/software/ovi_2503a_s3trc/ovi_2503a_s3trc/Tools/MinGW/include/c++/3.3.1/bits/stl_algobase.h **** 	*__result = *__first;
 229:d:/software/ovi_2503a_s3trc/ovi_2503a_s3trc/Tools/MinGW/include/c++/3.3.1/bits/stl_algobase.h ****       return __result;
 230:d:/software/ovi_2503a_s3trc/ovi_2503a_s3trc/Tools/MinGW/include/c++/3.3.1/bits/stl_algobase.h ****     }
 231:d:/software/ovi_2503a_s3trc/ovi_2503a_s3trc/Tools/MinGW/include/c++/3.3.1/bits/stl_algobase.h **** 
 232:d:/software/ovi_2503a_s3trc/ovi_2503a_s3trc/Tools/MinGW/include/c++/3.3.1/bits/stl_algobase.h ****   template<typename _RandomAccessIter, typename _OutputIter>
 233:d:/software/ovi_2503a_s3trc/ovi_2503a_s3trc/Tools/MinGW/include/c++/3.3.1/bits/stl_algobase.h ****     inline _OutputIter
 234:d:/software/ovi_2503a_s3trc/ovi_2503a_s3trc/Tools/MinGW/include/c++/3.3.1/bits/stl_algobase.h ****     __copy(_RandomAccessIter __first, _RandomAccessIter __last,
 235:d:/software/ovi_2503a_s3trc/ovi_2503a_s3trc/Tools/MinGW/include/c++/3.3.1/bits/stl_algobase.h **** 	   _OutputIter __result,
 236:d:/software/ovi_2503a_s3trc/ovi_2503a_s3trc/Tools/MinGW/include/c++/3.3.1/bits/stl_algobase.h **** 	   random_access_iterator_tag)
 237:d:/software/ovi_2503a_s3trc/ovi_2503a_s3trc/Tools/MinGW/include/c++/3.3.1/bits/stl_algobase.h ****     {
 238:d:/software/ovi_2503a_s3trc/ovi_2503a_s3trc/Tools/MinGW/include/c++/3.3.1/bits/stl_algobase.h ****       typedef typename iterator_traits<_RandomAccessIter>::difference_type
 239:d:/software/ovi_2503a_s3trc/ovi_2503a_s3trc/Tools/MinGW/include/c++/3.3.1/bits/stl_algobase.h ****           _Distance;
 240:d:/software/ovi_2503a_s3trc/ovi_2503a_s3trc/Tools/MinGW/include/c++/3.3.1/bits/stl_algobase.h ****       for (_Distance __n = __last - __first; __n > 0; --__n) {
 241:d:/software/ovi_2503a_s3trc/ovi_2503a_s3trc/Tools/MinGW/include/c++/3.3.1/bits/stl_algobase.h **** 	*__result = *__first;
 242:d:/software/ovi_2503a_s3trc/ovi_2503a_s3trc/Tools/MinGW/include/c++/3.3.1/bits/stl_algobase.h **** 	++__first;
 243:d:/software/ovi_2503a_s3trc/ovi_2503a_s3trc/Tools/MinGW/include/c++/3.3.1/bits/stl_algobase.h **** 	++__result;
 244:d:/software/ovi_2503a_s3trc/ovi_2503a_s3trc/Tools/MinGW/include/c++/3.3.1/bits/stl_algobase.h ****       }
 245:d:/software/ovi_2503a_s3trc/ovi_2503a_s3trc/Tools/MinGW/include/c++/3.3.1/bits/stl_algobase.h ****       return __result;
 246:d:/software/ovi_2503a_s3trc/ovi_2503a_s3trc/Tools/MinGW/include/c++/3.3.1/bits/stl_algobase.h ****     }
 247:d:/software/ovi_2503a_s3trc/ovi_2503a_s3trc/Tools/MinGW/include/c++/3.3.1/bits/stl_algobase.h **** 
 248:d:/software/ovi_2503a_s3trc/ovi_2503a_s3trc/Tools/MinGW/include/c++/3.3.1/bits/stl_algobase.h ****   template<typename _Tp>
 249:d:/software/ovi_2503a_s3trc/ovi_2503a_s3trc/Tools/MinGW/include/c++/3.3.1/bits/stl_algobase.h ****     inline _Tp*
 250:d:/software/ovi_2503a_s3trc/ovi_2503a_s3trc/Tools/MinGW/include/c++/3.3.1/bits/stl_algobase.h ****     __copy_trivial(const _Tp* __first, const _Tp* __last, _Tp* __result)
 251:d:/software/ovi_2503a_s3trc/ovi_2503a_s3trc/Tools/MinGW/include/c++/3.3.1/bits/stl_algobase.h ****     {
 252:d:/software/ovi_2503a_s3trc/ovi_2503a_s3trc/Tools/MinGW/include/c++/3.3.1/bits/stl_algobase.h ****       memmove(__result, __first, sizeof(_Tp) * (__last - __first));
 253:d:/software/ovi_2503a_s3trc/ovi_2503a_s3trc/Tools/MinGW/include/c++/3.3.1/bits/stl_algobase.h ****       return __result + (__last - __first);
 254:d:/software/ovi_2503a_s3trc/ovi_2503a_s3trc/Tools/MinGW/include/c++/3.3.1/bits/stl_algobase.h ****     }
 255:d:/software/ovi_2503a_s3trc/ovi_2503a_s3trc/Tools/MinGW/include/c++/3.3.1/bits/stl_algobase.h **** 
 256:d:/software/ovi_2503a_s3trc/ovi_2503a_s3trc/Tools/MinGW/include/c++/3.3.1/bits/stl_algobase.h ****   template<typename _InputIter, typename _OutputIter>
 257:d:/software/ovi_2503a_s3trc/ovi_2503a_s3trc/Tools/MinGW/include/c++/3.3.1/bits/stl_algobase.h ****     inline _OutputIter
 258:d:/software/ovi_2503a_s3trc/ovi_2503a_s3trc/Tools/MinGW/include/c++/3.3.1/bits/stl_algobase.h ****     __copy_aux2(_InputIter __first, _InputIter __last,
 259:d:/software/ovi_2503a_s3trc/ovi_2503a_s3trc/Tools/MinGW/include/c++/3.3.1/bits/stl_algobase.h **** 		_OutputIter __result, __false_type)
 260:d:/software/ovi_2503a_s3trc/ovi_2503a_s3trc/Tools/MinGW/include/c++/3.3.1/bits/stl_algobase.h ****     { return __copy(__first, __last, __result, __iterator_category(__first)); }
 261:d:/software/ovi_2503a_s3trc/ovi_2503a_s3trc/Tools/MinGW/include/c++/3.3.1/bits/stl_algobase.h **** 
 262:d:/software/ovi_2503a_s3trc/ovi_2503a_s3trc/Tools/MinGW/include/c++/3.3.1/bits/stl_algobase.h ****   template<typename _InputIter, typename _OutputIter>
 263:d:/software/ovi_2503a_s3trc/ovi_2503a_s3trc/Tools/MinGW/include/c++/3.3.1/bits/stl_algobase.h ****     inline _OutputIter
 264:d:/software/ovi_2503a_s3trc/ovi_2503a_s3trc/Tools/MinGW/include/c++/3.3.1/bits/stl_algobase.h ****     __copy_aux2(_InputIter __first, _InputIter __last,
 265:d:/software/ovi_2503a_s3trc/ovi_2503a_s3trc/Tools/MinGW/include/c++/3.3.1/bits/stl_algobase.h **** 		_OutputIter __result, __true_type)
 266:d:/software/ovi_2503a_s3trc/ovi_2503a_s3trc/Tools/MinGW/include/c++/3.3.1/bits/stl_algobase.h ****     { return __copy(__first, __last, __result, __iterator_category(__first)); }
 267:d:/software/ovi_2503a_s3trc/ovi_2503a_s3trc/Tools/MinGW/include/c++/3.3.1/bits/stl_algobase.h **** 
 268:d:/software/ovi_2503a_s3trc/ovi_2503a_s3trc/Tools/MinGW/include/c++/3.3.1/bits/stl_algobase.h ****   template<typename _Tp>
 269:d:/software/ovi_2503a_s3trc/ovi_2503a_s3trc/Tools/MinGW/include/c++/3.3.1/bits/stl_algobase.h ****     inline _Tp*
 270:d:/software/ovi_2503a_s3trc/ovi_2503a_s3trc/Tools/MinGW/include/c++/3.3.1/bits/stl_algobase.h ****     __copy_aux2(_Tp* __first, _Tp* __last,
 271:d:/software/ovi_2503a_s3trc/ovi_2503a_s3trc/Tools/MinGW/include/c++/3.3.1/bits/stl_algobase.h **** 		_Tp* __result, __true_type)
 272:d:/software/ovi_2503a_s3trc/ovi_2503a_s3trc/Tools/MinGW/include/c++/3.3.1/bits/stl_algobase.h ****     { return __copy_trivial(__first, __last, __result); }
 273:d:/software/ovi_2503a_s3trc/ovi_2503a_s3trc/Tools/MinGW/include/c++/3.3.1/bits/stl_algobase.h **** 
 274:d:/software/ovi_2503a_s3trc/ovi_2503a_s3trc/Tools/MinGW/include/c++/3.3.1/bits/stl_algobase.h ****   template<typename _Tp>
 275:d:/software/ovi_2503a_s3trc/ovi_2503a_s3trc/Tools/MinGW/include/c++/3.3.1/bits/stl_algobase.h ****     inline _Tp*
 276:d:/software/ovi_2503a_s3trc/ovi_2503a_s3trc/Tools/MinGW/include/c++/3.3.1/bits/stl_algobase.h ****     __copy_aux2(const _Tp* __first, const _Tp* __last,
 277:d:/software/ovi_2503a_s3trc/ovi_2503a_s3trc/Tools/MinGW/include/c++/3.3.1/bits/stl_algobase.h **** 		_Tp* __result, __true_type)
GAS LISTING d:/software/ovi_2503a_s3trc/ovi_2503a_s3trc/plutommi/Customer/ResGenerator/gcctmp/cci0baaa.s 			page 152


 278:d:/software/ovi_2503a_s3trc/ovi_2503a_s3trc/Tools/MinGW/include/c++/3.3.1/bits/stl_algobase.h ****     { return __copy_trivial(__first, __last, __result); }
 279:d:/software/ovi_2503a_s3trc/ovi_2503a_s3trc/Tools/MinGW/include/c++/3.3.1/bits/stl_algobase.h **** 
 280:d:/software/ovi_2503a_s3trc/ovi_2503a_s3trc/Tools/MinGW/include/c++/3.3.1/bits/stl_algobase.h ****   template<typename _InputIter, typename _OutputIter>
 281:d:/software/ovi_2503a_s3trc/ovi_2503a_s3trc/Tools/MinGW/include/c++/3.3.1/bits/stl_algobase.h ****     inline _OutputIter
 282:d:/software/ovi_2503a_s3trc/ovi_2503a_s3trc/Tools/MinGW/include/c++/3.3.1/bits/stl_algobase.h ****     __copy_ni2(_InputIter __first, _InputIter __last,
 283:d:/software/ovi_2503a_s3trc/ovi_2503a_s3trc/Tools/MinGW/include/c++/3.3.1/bits/stl_algobase.h **** 	       _OutputIter __result, __true_type)
 284:d:/software/ovi_2503a_s3trc/ovi_2503a_s3trc/Tools/MinGW/include/c++/3.3.1/bits/stl_algobase.h ****     {
 285:d:/software/ovi_2503a_s3trc/ovi_2503a_s3trc/Tools/MinGW/include/c++/3.3.1/bits/stl_algobase.h ****       typedef typename iterator_traits<_InputIter>::value_type
 286:d:/software/ovi_2503a_s3trc/ovi_2503a_s3trc/Tools/MinGW/include/c++/3.3.1/bits/stl_algobase.h **** 	  _ValueType;
 287:d:/software/ovi_2503a_s3trc/ovi_2503a_s3trc/Tools/MinGW/include/c++/3.3.1/bits/stl_algobase.h ****       typedef typename __type_traits<_ValueType>::has_trivial_assignment_operator
 288:d:/software/ovi_2503a_s3trc/ovi_2503a_s3trc/Tools/MinGW/include/c++/3.3.1/bits/stl_algobase.h **** 	  _Trivial;
 289:d:/software/ovi_2503a_s3trc/ovi_2503a_s3trc/Tools/MinGW/include/c++/3.3.1/bits/stl_algobase.h ****       return _OutputIter(__copy_aux2(__first, __last,
 290:d:/software/ovi_2503a_s3trc/ovi_2503a_s3trc/Tools/MinGW/include/c++/3.3.1/bits/stl_algobase.h ****                                      __result.base(),
 291:d:/software/ovi_2503a_s3trc/ovi_2503a_s3trc/Tools/MinGW/include/c++/3.3.1/bits/stl_algobase.h **** 				     _Trivial()));
 292:d:/software/ovi_2503a_s3trc/ovi_2503a_s3trc/Tools/MinGW/include/c++/3.3.1/bits/stl_algobase.h ****     }
 293:d:/software/ovi_2503a_s3trc/ovi_2503a_s3trc/Tools/MinGW/include/c++/3.3.1/bits/stl_algobase.h **** 
 294:d:/software/ovi_2503a_s3trc/ovi_2503a_s3trc/Tools/MinGW/include/c++/3.3.1/bits/stl_algobase.h ****   template<typename _InputIter, typename _OutputIter>
 295:d:/software/ovi_2503a_s3trc/ovi_2503a_s3trc/Tools/MinGW/include/c++/3.3.1/bits/stl_algobase.h ****     inline _OutputIter
 296:d:/software/ovi_2503a_s3trc/ovi_2503a_s3trc/Tools/MinGW/include/c++/3.3.1/bits/stl_algobase.h ****     __copy_ni2(_InputIter __first, _InputIter __last,
 297:d:/software/ovi_2503a_s3trc/ovi_2503a_s3trc/Tools/MinGW/include/c++/3.3.1/bits/stl_algobase.h **** 	       _OutputIter __result, __false_type)
 298:d:/software/ovi_2503a_s3trc/ovi_2503a_s3trc/Tools/MinGW/include/c++/3.3.1/bits/stl_algobase.h ****     {
 299:d:/software/ovi_2503a_s3trc/ovi_2503a_s3trc/Tools/MinGW/include/c++/3.3.1/bits/stl_algobase.h ****       typedef typename iterator_traits<_InputIter>::value_type
 300:d:/software/ovi_2503a_s3trc/ovi_2503a_s3trc/Tools/MinGW/include/c++/3.3.1/bits/stl_algobase.h ****           _ValueType;
 301:d:/software/ovi_2503a_s3trc/ovi_2503a_s3trc/Tools/MinGW/include/c++/3.3.1/bits/stl_algobase.h ****       typedef typename __type_traits<_ValueType>::has_trivial_assignment_operator
 302:d:/software/ovi_2503a_s3trc/ovi_2503a_s3trc/Tools/MinGW/include/c++/3.3.1/bits/stl_algobase.h ****           _Trivial;
 303:d:/software/ovi_2503a_s3trc/ovi_2503a_s3trc/Tools/MinGW/include/c++/3.3.1/bits/stl_algobase.h ****       return __copy_aux2(__first, __last,
 304:d:/software/ovi_2503a_s3trc/ovi_2503a_s3trc/Tools/MinGW/include/c++/3.3.1/bits/stl_algobase.h ****                          __result,
 305:d:/software/ovi_2503a_s3trc/ovi_2503a_s3trc/Tools/MinGW/include/c++/3.3.1/bits/stl_algobase.h **** 			 _Trivial());
 306:d:/software/ovi_2503a_s3trc/ovi_2503a_s3trc/Tools/MinGW/include/c++/3.3.1/bits/stl_algobase.h ****     }
 307:d:/software/ovi_2503a_s3trc/ovi_2503a_s3trc/Tools/MinGW/include/c++/3.3.1/bits/stl_algobase.h **** 
 308:d:/software/ovi_2503a_s3trc/ovi_2503a_s3trc/Tools/MinGW/include/c++/3.3.1/bits/stl_algobase.h ****   template<typename _InputIter, typename _OutputIter>
 309:d:/software/ovi_2503a_s3trc/ovi_2503a_s3trc/Tools/MinGW/include/c++/3.3.1/bits/stl_algobase.h ****     inline _OutputIter
 310:d:/software/ovi_2503a_s3trc/ovi_2503a_s3trc/Tools/MinGW/include/c++/3.3.1/bits/stl_algobase.h ****     __copy_ni1(_InputIter __first, _InputIter __last,
 311:d:/software/ovi_2503a_s3trc/ovi_2503a_s3trc/Tools/MinGW/include/c++/3.3.1/bits/stl_algobase.h **** 	       _OutputIter __result, __true_type)
 312:d:/software/ovi_2503a_s3trc/ovi_2503a_s3trc/Tools/MinGW/include/c++/3.3.1/bits/stl_algobase.h ****     {
 313:d:/software/ovi_2503a_s3trc/ovi_2503a_s3trc/Tools/MinGW/include/c++/3.3.1/bits/stl_algobase.h ****       typedef typename _Is_normal_iterator<_OutputIter>::_Normal __Normal;
 314:d:/software/ovi_2503a_s3trc/ovi_2503a_s3trc/Tools/MinGW/include/c++/3.3.1/bits/stl_algobase.h ****       return __copy_ni2(__first.base(), __last.base(), __result, __Normal());
 315:d:/software/ovi_2503a_s3trc/ovi_2503a_s3trc/Tools/MinGW/include/c++/3.3.1/bits/stl_algobase.h ****     }
 316:d:/software/ovi_2503a_s3trc/ovi_2503a_s3trc/Tools/MinGW/include/c++/3.3.1/bits/stl_algobase.h **** 
 317:d:/software/ovi_2503a_s3trc/ovi_2503a_s3trc/Tools/MinGW/include/c++/3.3.1/bits/stl_algobase.h ****   template<typename _InputIter, typename _OutputIter>
 318:d:/software/ovi_2503a_s3trc/ovi_2503a_s3trc/Tools/MinGW/include/c++/3.3.1/bits/stl_algobase.h ****     inline _OutputIter
 319:d:/software/ovi_2503a_s3trc/ovi_2503a_s3trc/Tools/MinGW/include/c++/3.3.1/bits/stl_algobase.h ****     __copy_ni1(_InputIter __first, _InputIter __last,
 320:d:/software/ovi_2503a_s3trc/ovi_2503a_s3trc/Tools/MinGW/include/c++/3.3.1/bits/stl_algobase.h **** 	       _OutputIter __result, __false_type)
 321:d:/software/ovi_2503a_s3trc/ovi_2503a_s3trc/Tools/MinGW/include/c++/3.3.1/bits/stl_algobase.h ****     {
 322:d:/software/ovi_2503a_s3trc/ovi_2503a_s3trc/Tools/MinGW/include/c++/3.3.1/bits/stl_algobase.h ****       typedef typename _Is_normal_iterator<_OutputIter>::_Normal __Normal;
 323:d:/software/ovi_2503a_s3trc/ovi_2503a_s3trc/Tools/MinGW/include/c++/3.3.1/bits/stl_algobase.h ****       return __copy_ni2(__first, __last, __result, __Normal());
 324:d:/software/ovi_2503a_s3trc/ovi_2503a_s3trc/Tools/MinGW/include/c++/3.3.1/bits/stl_algobase.h ****     }
 325:d:/software/ovi_2503a_s3trc/ovi_2503a_s3trc/Tools/MinGW/include/c++/3.3.1/bits/stl_algobase.h **** 
 326:d:/software/ovi_2503a_s3trc/ovi_2503a_s3trc/Tools/MinGW/include/c++/3.3.1/bits/stl_algobase.h ****   /**
 327:d:/software/ovi_2503a_s3trc/ovi_2503a_s3trc/Tools/MinGW/include/c++/3.3.1/bits/stl_algobase.h ****    *  @brief Copies the range [first,last) into result.
 328:d:/software/ovi_2503a_s3trc/ovi_2503a_s3trc/Tools/MinGW/include/c++/3.3.1/bits/stl_algobase.h ****    *  @param  first  An input iterator.
 329:d:/software/ovi_2503a_s3trc/ovi_2503a_s3trc/Tools/MinGW/include/c++/3.3.1/bits/stl_algobase.h ****    *  @param  last   An input iterator.
 330:d:/software/ovi_2503a_s3trc/ovi_2503a_s3trc/Tools/MinGW/include/c++/3.3.1/bits/stl_algobase.h ****    *  @param  result An output iterator.
 331:d:/software/ovi_2503a_s3trc/ovi_2503a_s3trc/Tools/MinGW/include/c++/3.3.1/bits/stl_algobase.h ****    *  @return   result + (first - last)
 332:d:/software/ovi_2503a_s3trc/ovi_2503a_s3trc/Tools/MinGW/include/c++/3.3.1/bits/stl_algobase.h ****    *
 333:d:/software/ovi_2503a_s3trc/ovi_2503a_s3trc/Tools/MinGW/include/c++/3.3.1/bits/stl_algobase.h ****    *  This inline function will boil down to a call to @c memmove whenever
 334:d:/software/ovi_2503a_s3trc/ovi_2503a_s3trc/Tools/MinGW/include/c++/3.3.1/bits/stl_algobase.h ****    *  possible.  Failing that, if random access iterators are passed, then the
GAS LISTING d:/software/ovi_2503a_s3trc/ovi_2503a_s3trc/plutommi/Customer/ResGenerator/gcctmp/cci0baaa.s 			page 153


 335:d:/software/ovi_2503a_s3trc/ovi_2503a_s3trc/Tools/MinGW/include/c++/3.3.1/bits/stl_algobase.h ****    *  loop count will be known (and therefore a candidate for compiler
 336:d:/software/ovi_2503a_s3trc/ovi_2503a_s3trc/Tools/MinGW/include/c++/3.3.1/bits/stl_algobase.h ****    *  optimizations such as unrolling).  If the input range and the output
 337:d:/software/ovi_2503a_s3trc/ovi_2503a_s3trc/Tools/MinGW/include/c++/3.3.1/bits/stl_algobase.h ****    *  range overlap, then the copy_backward function should be used instead.
 338:d:/software/ovi_2503a_s3trc/ovi_2503a_s3trc/Tools/MinGW/include/c++/3.3.1/bits/stl_algobase.h ****   */
 339:d:/software/ovi_2503a_s3trc/ovi_2503a_s3trc/Tools/MinGW/include/c++/3.3.1/bits/stl_algobase.h ****   template<typename _InputIter, typename _OutputIter>
 340:d:/software/ovi_2503a_s3trc/ovi_2503a_s3trc/Tools/MinGW/include/c++/3.3.1/bits/stl_algobase.h ****     inline _OutputIter
 341:d:/software/ovi_2503a_s3trc/ovi_2503a_s3trc/Tools/MinGW/include/c++/3.3.1/bits/stl_algobase.h ****     copy(_InputIter __first, _InputIter __last, _OutputIter __result)
 342:d:/software/ovi_2503a_s3trc/ovi_2503a_s3trc/Tools/MinGW/include/c++/3.3.1/bits/stl_algobase.h ****     {
 343:d:/software/ovi_2503a_s3trc/ovi_2503a_s3trc/Tools/MinGW/include/c++/3.3.1/bits/stl_algobase.h ****       // concept requirements
 344:d:/software/ovi_2503a_s3trc/ovi_2503a_s3trc/Tools/MinGW/include/c++/3.3.1/bits/stl_algobase.h ****       __glibcpp_function_requires(_InputIteratorConcept<_InputIter>)
 345:d:/software/ovi_2503a_s3trc/ovi_2503a_s3trc/Tools/MinGW/include/c++/3.3.1/bits/stl_algobase.h ****       __glibcpp_function_requires(_OutputIteratorConcept<_OutputIter,
 346:d:/software/ovi_2503a_s3trc/ovi_2503a_s3trc/Tools/MinGW/include/c++/3.3.1/bits/stl_algobase.h **** 	    typename iterator_traits<_InputIter>::value_type>)
 347:d:/software/ovi_2503a_s3trc/ovi_2503a_s3trc/Tools/MinGW/include/c++/3.3.1/bits/stl_algobase.h **** 
 348:d:/software/ovi_2503a_s3trc/ovi_2503a_s3trc/Tools/MinGW/include/c++/3.3.1/bits/stl_algobase.h ****        typedef typename _Is_normal_iterator<_InputIter>::_Normal __Normal;
 349:d:/software/ovi_2503a_s3trc/ovi_2503a_s3trc/Tools/MinGW/include/c++/3.3.1/bits/stl_algobase.h ****        return __copy_ni1(__first, __last, __result, __Normal());
 350:d:/software/ovi_2503a_s3trc/ovi_2503a_s3trc/Tools/MinGW/include/c++/3.3.1/bits/stl_algobase.h ****     }
 351:d:/software/ovi_2503a_s3trc/ovi_2503a_s3trc/Tools/MinGW/include/c++/3.3.1/bits/stl_algobase.h **** 
 352:d:/software/ovi_2503a_s3trc/ovi_2503a_s3trc/Tools/MinGW/include/c++/3.3.1/bits/stl_algobase.h ****   //--------------------------------------------------
 353:d:/software/ovi_2503a_s3trc/ovi_2503a_s3trc/Tools/MinGW/include/c++/3.3.1/bits/stl_algobase.h ****   // copy_backward
 354:d:/software/ovi_2503a_s3trc/ovi_2503a_s3trc/Tools/MinGW/include/c++/3.3.1/bits/stl_algobase.h **** 
 355:d:/software/ovi_2503a_s3trc/ovi_2503a_s3trc/Tools/MinGW/include/c++/3.3.1/bits/stl_algobase.h ****   template<typename _BidirectionalIter1, typename _BidirectionalIter2>
 356:d:/software/ovi_2503a_s3trc/ovi_2503a_s3trc/Tools/MinGW/include/c++/3.3.1/bits/stl_algobase.h ****     inline _BidirectionalIter2
 357:d:/software/ovi_2503a_s3trc/ovi_2503a_s3trc/Tools/MinGW/include/c++/3.3.1/bits/stl_algobase.h ****     __copy_backward(_BidirectionalIter1 __first, _BidirectionalIter1 __last, 
 358:d:/software/ovi_2503a_s3trc/ovi_2503a_s3trc/Tools/MinGW/include/c++/3.3.1/bits/stl_algobase.h **** 		    _BidirectionalIter2 __result,
 359:d:/software/ovi_2503a_s3trc/ovi_2503a_s3trc/Tools/MinGW/include/c++/3.3.1/bits/stl_algobase.h **** 		    bidirectional_iterator_tag)
 360:d:/software/ovi_2503a_s3trc/ovi_2503a_s3trc/Tools/MinGW/include/c++/3.3.1/bits/stl_algobase.h ****     {
 361:d:/software/ovi_2503a_s3trc/ovi_2503a_s3trc/Tools/MinGW/include/c++/3.3.1/bits/stl_algobase.h ****       while (__first != __last)
 362:d:/software/ovi_2503a_s3trc/ovi_2503a_s3trc/Tools/MinGW/include/c++/3.3.1/bits/stl_algobase.h ****         *--__result = *--__last;
 363:d:/software/ovi_2503a_s3trc/ovi_2503a_s3trc/Tools/MinGW/include/c++/3.3.1/bits/stl_algobase.h ****       return __result;
 364:d:/software/ovi_2503a_s3trc/ovi_2503a_s3trc/Tools/MinGW/include/c++/3.3.1/bits/stl_algobase.h ****     }
 365:d:/software/ovi_2503a_s3trc/ovi_2503a_s3trc/Tools/MinGW/include/c++/3.3.1/bits/stl_algobase.h **** 
 366:d:/software/ovi_2503a_s3trc/ovi_2503a_s3trc/Tools/MinGW/include/c++/3.3.1/bits/stl_algobase.h ****   template<typename _RandomAccessIter, typename _BidirectionalIter>
 367:d:/software/ovi_2503a_s3trc/ovi_2503a_s3trc/Tools/MinGW/include/c++/3.3.1/bits/stl_algobase.h ****     inline _BidirectionalIter
 368:d:/software/ovi_2503a_s3trc/ovi_2503a_s3trc/Tools/MinGW/include/c++/3.3.1/bits/stl_algobase.h ****     __copy_backward(_RandomAccessIter __first, _RandomAccessIter __last, 
 369:d:/software/ovi_2503a_s3trc/ovi_2503a_s3trc/Tools/MinGW/include/c++/3.3.1/bits/stl_algobase.h **** 		    _BidirectionalIter __result,
 370:d:/software/ovi_2503a_s3trc/ovi_2503a_s3trc/Tools/MinGW/include/c++/3.3.1/bits/stl_algobase.h **** 		    random_access_iterator_tag)
 371:d:/software/ovi_2503a_s3trc/ovi_2503a_s3trc/Tools/MinGW/include/c++/3.3.1/bits/stl_algobase.h ****     {
 372:d:/software/ovi_2503a_s3trc/ovi_2503a_s3trc/Tools/MinGW/include/c++/3.3.1/bits/stl_algobase.h ****       typename iterator_traits<_RandomAccessIter>::difference_type __n;
 373:d:/software/ovi_2503a_s3trc/ovi_2503a_s3trc/Tools/MinGW/include/c++/3.3.1/bits/stl_algobase.h ****       for (__n = __last - __first; __n > 0; --__n)
 374:d:/software/ovi_2503a_s3trc/ovi_2503a_s3trc/Tools/MinGW/include/c++/3.3.1/bits/stl_algobase.h ****         *--__result = *--__last;
 375:d:/software/ovi_2503a_s3trc/ovi_2503a_s3trc/Tools/MinGW/include/c++/3.3.1/bits/stl_algobase.h ****       return __result;
 376:d:/software/ovi_2503a_s3trc/ovi_2503a_s3trc/Tools/MinGW/include/c++/3.3.1/bits/stl_algobase.h ****     }
 377:d:/software/ovi_2503a_s3trc/ovi_2503a_s3trc/Tools/MinGW/include/c++/3.3.1/bits/stl_algobase.h **** 
 378:d:/software/ovi_2503a_s3trc/ovi_2503a_s3trc/Tools/MinGW/include/c++/3.3.1/bits/stl_algobase.h **** 
 379:d:/software/ovi_2503a_s3trc/ovi_2503a_s3trc/Tools/MinGW/include/c++/3.3.1/bits/stl_algobase.h ****   // This dispatch class is a workaround for compilers that do not 
 380:d:/software/ovi_2503a_s3trc/ovi_2503a_s3trc/Tools/MinGW/include/c++/3.3.1/bits/stl_algobase.h ****   // have partial ordering of function templates.  All we're doing is
 381:d:/software/ovi_2503a_s3trc/ovi_2503a_s3trc/Tools/MinGW/include/c++/3.3.1/bits/stl_algobase.h ****   // creating a specialization so that we can turn a call to copy_backward
 382:d:/software/ovi_2503a_s3trc/ovi_2503a_s3trc/Tools/MinGW/include/c++/3.3.1/bits/stl_algobase.h ****   // into a memmove whenever possible.
 383:d:/software/ovi_2503a_s3trc/ovi_2503a_s3trc/Tools/MinGW/include/c++/3.3.1/bits/stl_algobase.h **** 
 384:d:/software/ovi_2503a_s3trc/ovi_2503a_s3trc/Tools/MinGW/include/c++/3.3.1/bits/stl_algobase.h ****   template<typename _BidirectionalIter1, typename _BidirectionalIter2,
 385:d:/software/ovi_2503a_s3trc/ovi_2503a_s3trc/Tools/MinGW/include/c++/3.3.1/bits/stl_algobase.h ****            typename _BoolType>
 386:d:/software/ovi_2503a_s3trc/ovi_2503a_s3trc/Tools/MinGW/include/c++/3.3.1/bits/stl_algobase.h ****     struct __copy_backward_dispatch
 387:d:/software/ovi_2503a_s3trc/ovi_2503a_s3trc/Tools/MinGW/include/c++/3.3.1/bits/stl_algobase.h ****     {
 388:d:/software/ovi_2503a_s3trc/ovi_2503a_s3trc/Tools/MinGW/include/c++/3.3.1/bits/stl_algobase.h ****       static _BidirectionalIter2
 389:d:/software/ovi_2503a_s3trc/ovi_2503a_s3trc/Tools/MinGW/include/c++/3.3.1/bits/stl_algobase.h ****       copy(_BidirectionalIter1 __first, _BidirectionalIter1 __last, 
 390:d:/software/ovi_2503a_s3trc/ovi_2503a_s3trc/Tools/MinGW/include/c++/3.3.1/bits/stl_algobase.h **** 	   _BidirectionalIter2 __result)
 391:d:/software/ovi_2503a_s3trc/ovi_2503a_s3trc/Tools/MinGW/include/c++/3.3.1/bits/stl_algobase.h ****       {
GAS LISTING d:/software/ovi_2503a_s3trc/ovi_2503a_s3trc/plutommi/Customer/ResGenerator/gcctmp/cci0baaa.s 			page 154


 392:d:/software/ovi_2503a_s3trc/ovi_2503a_s3trc/Tools/MinGW/include/c++/3.3.1/bits/stl_algobase.h ****         return __copy_backward(__first, __last,
 393:d:/software/ovi_2503a_s3trc/ovi_2503a_s3trc/Tools/MinGW/include/c++/3.3.1/bits/stl_algobase.h **** 	                       __result,
 394:d:/software/ovi_2503a_s3trc/ovi_2503a_s3trc/Tools/MinGW/include/c++/3.3.1/bits/stl_algobase.h **** 			       __iterator_category(__first));
 395:d:/software/ovi_2503a_s3trc/ovi_2503a_s3trc/Tools/MinGW/include/c++/3.3.1/bits/stl_algobase.h ****       }
 396:d:/software/ovi_2503a_s3trc/ovi_2503a_s3trc/Tools/MinGW/include/c++/3.3.1/bits/stl_algobase.h ****     };
 397:d:/software/ovi_2503a_s3trc/ovi_2503a_s3trc/Tools/MinGW/include/c++/3.3.1/bits/stl_algobase.h **** 
 398:d:/software/ovi_2503a_s3trc/ovi_2503a_s3trc/Tools/MinGW/include/c++/3.3.1/bits/stl_algobase.h ****   template<typename _Tp>
 399:d:/software/ovi_2503a_s3trc/ovi_2503a_s3trc/Tools/MinGW/include/c++/3.3.1/bits/stl_algobase.h ****     struct __copy_backward_dispatch<_Tp*, _Tp*, __true_type>
 400:d:/software/ovi_2503a_s3trc/ovi_2503a_s3trc/Tools/MinGW/include/c++/3.3.1/bits/stl_algobase.h ****     {
 401:d:/software/ovi_2503a_s3trc/ovi_2503a_s3trc/Tools/MinGW/include/c++/3.3.1/bits/stl_algobase.h ****       static _Tp*
 402:d:/software/ovi_2503a_s3trc/ovi_2503a_s3trc/Tools/MinGW/include/c++/3.3.1/bits/stl_algobase.h ****       copy(const _Tp* __first, const _Tp* __last, _Tp* __result)
 403:d:/software/ovi_2503a_s3trc/ovi_2503a_s3trc/Tools/MinGW/include/c++/3.3.1/bits/stl_algobase.h ****       {
 404:d:/software/ovi_2503a_s3trc/ovi_2503a_s3trc/Tools/MinGW/include/c++/3.3.1/bits/stl_algobase.h **** 	const ptrdiff_t _Num = __last - __first;
 405:d:/software/ovi_2503a_s3trc/ovi_2503a_s3trc/Tools/MinGW/include/c++/3.3.1/bits/stl_algobase.h **** 	memmove(__result - _Num, __first, sizeof(_Tp) * _Num);
 406:d:/software/ovi_2503a_s3trc/ovi_2503a_s3trc/Tools/MinGW/include/c++/3.3.1/bits/stl_algobase.h **** 	return __result - _Num;
 407:d:/software/ovi_2503a_s3trc/ovi_2503a_s3trc/Tools/MinGW/include/c++/3.3.1/bits/stl_algobase.h ****       }
 408:d:/software/ovi_2503a_s3trc/ovi_2503a_s3trc/Tools/MinGW/include/c++/3.3.1/bits/stl_algobase.h ****     };
 409:d:/software/ovi_2503a_s3trc/ovi_2503a_s3trc/Tools/MinGW/include/c++/3.3.1/bits/stl_algobase.h **** 
 410:d:/software/ovi_2503a_s3trc/ovi_2503a_s3trc/Tools/MinGW/include/c++/3.3.1/bits/stl_algobase.h ****   template<typename _Tp>
 411:d:/software/ovi_2503a_s3trc/ovi_2503a_s3trc/Tools/MinGW/include/c++/3.3.1/bits/stl_algobase.h ****     struct __copy_backward_dispatch<const _Tp*, _Tp*, __true_type>
 412:d:/software/ovi_2503a_s3trc/ovi_2503a_s3trc/Tools/MinGW/include/c++/3.3.1/bits/stl_algobase.h ****     {
 413:d:/software/ovi_2503a_s3trc/ovi_2503a_s3trc/Tools/MinGW/include/c++/3.3.1/bits/stl_algobase.h ****       static _Tp*
 414:d:/software/ovi_2503a_s3trc/ovi_2503a_s3trc/Tools/MinGW/include/c++/3.3.1/bits/stl_algobase.h ****       copy(const _Tp* __first, const _Tp* __last, _Tp* __result)
 415:d:/software/ovi_2503a_s3trc/ovi_2503a_s3trc/Tools/MinGW/include/c++/3.3.1/bits/stl_algobase.h ****       {
 416:d:/software/ovi_2503a_s3trc/ovi_2503a_s3trc/Tools/MinGW/include/c++/3.3.1/bits/stl_algobase.h **** 	return  __copy_backward_dispatch<_Tp*, _Tp*, __true_type>
 417:d:/software/ovi_2503a_s3trc/ovi_2503a_s3trc/Tools/MinGW/include/c++/3.3.1/bits/stl_algobase.h **** 	  ::copy(__first, __last, __result);
 418:d:/software/ovi_2503a_s3trc/ovi_2503a_s3trc/Tools/MinGW/include/c++/3.3.1/bits/stl_algobase.h ****       }
 419:d:/software/ovi_2503a_s3trc/ovi_2503a_s3trc/Tools/MinGW/include/c++/3.3.1/bits/stl_algobase.h ****     };
 420:d:/software/ovi_2503a_s3trc/ovi_2503a_s3trc/Tools/MinGW/include/c++/3.3.1/bits/stl_algobase.h **** 
 421:d:/software/ovi_2503a_s3trc/ovi_2503a_s3trc/Tools/MinGW/include/c++/3.3.1/bits/stl_algobase.h ****   template<typename _BI1, typename _BI2>
 422:d:/software/ovi_2503a_s3trc/ovi_2503a_s3trc/Tools/MinGW/include/c++/3.3.1/bits/stl_algobase.h ****     inline _BI2
 423:d:/software/ovi_2503a_s3trc/ovi_2503a_s3trc/Tools/MinGW/include/c++/3.3.1/bits/stl_algobase.h ****     __copy_backward_aux(_BI1 __first, _BI1 __last, _BI2 __result)
 424:d:/software/ovi_2503a_s3trc/ovi_2503a_s3trc/Tools/MinGW/include/c++/3.3.1/bits/stl_algobase.h ****     {
 425:d:/software/ovi_2503a_s3trc/ovi_2503a_s3trc/Tools/MinGW/include/c++/3.3.1/bits/stl_algobase.h ****       typedef typename __type_traits<typename iterator_traits<_BI2>::value_type>
 426:d:/software/ovi_2503a_s3trc/ovi_2503a_s3trc/Tools/MinGW/include/c++/3.3.1/bits/stl_algobase.h **** 			    ::has_trivial_assignment_operator _Trivial;
 427:d:/software/ovi_2503a_s3trc/ovi_2503a_s3trc/Tools/MinGW/include/c++/3.3.1/bits/stl_algobase.h ****       return __copy_backward_dispatch<_BI1, _BI2, _Trivial>
 428:d:/software/ovi_2503a_s3trc/ovi_2503a_s3trc/Tools/MinGW/include/c++/3.3.1/bits/stl_algobase.h **** 		  ::copy(__first, __last, __result);
 429:d:/software/ovi_2503a_s3trc/ovi_2503a_s3trc/Tools/MinGW/include/c++/3.3.1/bits/stl_algobase.h ****     }
 430:d:/software/ovi_2503a_s3trc/ovi_2503a_s3trc/Tools/MinGW/include/c++/3.3.1/bits/stl_algobase.h **** 
 431:d:/software/ovi_2503a_s3trc/ovi_2503a_s3trc/Tools/MinGW/include/c++/3.3.1/bits/stl_algobase.h ****   template <typename _BI1, typename _BI2>
 432:d:/software/ovi_2503a_s3trc/ovi_2503a_s3trc/Tools/MinGW/include/c++/3.3.1/bits/stl_algobase.h ****     inline _BI2
 433:d:/software/ovi_2503a_s3trc/ovi_2503a_s3trc/Tools/MinGW/include/c++/3.3.1/bits/stl_algobase.h ****     __copy_backward_output_normal_iterator(_BI1 __first, _BI1 __last,
 434:d:/software/ovi_2503a_s3trc/ovi_2503a_s3trc/Tools/MinGW/include/c++/3.3.1/bits/stl_algobase.h **** 					   _BI2 __result, __true_type)
 435:d:/software/ovi_2503a_s3trc/ovi_2503a_s3trc/Tools/MinGW/include/c++/3.3.1/bits/stl_algobase.h ****     { return _BI2(__copy_backward_aux(__first, __last, __result.base())); }
 436:d:/software/ovi_2503a_s3trc/ovi_2503a_s3trc/Tools/MinGW/include/c++/3.3.1/bits/stl_algobase.h **** 
 437:d:/software/ovi_2503a_s3trc/ovi_2503a_s3trc/Tools/MinGW/include/c++/3.3.1/bits/stl_algobase.h ****   template <typename _BI1, typename _BI2>
 438:d:/software/ovi_2503a_s3trc/ovi_2503a_s3trc/Tools/MinGW/include/c++/3.3.1/bits/stl_algobase.h ****     inline _BI2
 439:d:/software/ovi_2503a_s3trc/ovi_2503a_s3trc/Tools/MinGW/include/c++/3.3.1/bits/stl_algobase.h ****     __copy_backward_output_normal_iterator(_BI1 __first, _BI1 __last,
 440:d:/software/ovi_2503a_s3trc/ovi_2503a_s3trc/Tools/MinGW/include/c++/3.3.1/bits/stl_algobase.h **** 					   _BI2 __result, __false_type)
 441:d:/software/ovi_2503a_s3trc/ovi_2503a_s3trc/Tools/MinGW/include/c++/3.3.1/bits/stl_algobase.h ****     { return __copy_backward_aux(__first, __last, __result); }
 442:d:/software/ovi_2503a_s3trc/ovi_2503a_s3trc/Tools/MinGW/include/c++/3.3.1/bits/stl_algobase.h **** 
 443:d:/software/ovi_2503a_s3trc/ovi_2503a_s3trc/Tools/MinGW/include/c++/3.3.1/bits/stl_algobase.h ****   template <typename _BI1, typename _BI2>
 444:d:/software/ovi_2503a_s3trc/ovi_2503a_s3trc/Tools/MinGW/include/c++/3.3.1/bits/stl_algobase.h ****     inline _BI2
 445:d:/software/ovi_2503a_s3trc/ovi_2503a_s3trc/Tools/MinGW/include/c++/3.3.1/bits/stl_algobase.h ****     __copy_backward_input_normal_iterator(_BI1 __first, _BI1 __last,
 446:d:/software/ovi_2503a_s3trc/ovi_2503a_s3trc/Tools/MinGW/include/c++/3.3.1/bits/stl_algobase.h **** 					  _BI2 __result, __true_type)
 447:d:/software/ovi_2503a_s3trc/ovi_2503a_s3trc/Tools/MinGW/include/c++/3.3.1/bits/stl_algobase.h ****     {
 448:d:/software/ovi_2503a_s3trc/ovi_2503a_s3trc/Tools/MinGW/include/c++/3.3.1/bits/stl_algobase.h ****       typedef typename _Is_normal_iterator<_BI2>::_Normal __Normal;
GAS LISTING d:/software/ovi_2503a_s3trc/ovi_2503a_s3trc/plutommi/Customer/ResGenerator/gcctmp/cci0baaa.s 			page 155


 449:d:/software/ovi_2503a_s3trc/ovi_2503a_s3trc/Tools/MinGW/include/c++/3.3.1/bits/stl_algobase.h ****       return __copy_backward_output_normal_iterator(__first.base(), __last.base(),
 450:d:/software/ovi_2503a_s3trc/ovi_2503a_s3trc/Tools/MinGW/include/c++/3.3.1/bits/stl_algobase.h **** 						    __result, __Normal());
 451:d:/software/ovi_2503a_s3trc/ovi_2503a_s3trc/Tools/MinGW/include/c++/3.3.1/bits/stl_algobase.h ****     }
 452:d:/software/ovi_2503a_s3trc/ovi_2503a_s3trc/Tools/MinGW/include/c++/3.3.1/bits/stl_algobase.h **** 
 453:d:/software/ovi_2503a_s3trc/ovi_2503a_s3trc/Tools/MinGW/include/c++/3.3.1/bits/stl_algobase.h ****   template <typename _BI1, typename _BI2>
 454:d:/software/ovi_2503a_s3trc/ovi_2503a_s3trc/Tools/MinGW/include/c++/3.3.1/bits/stl_algobase.h ****     inline _BI2
 455:d:/software/ovi_2503a_s3trc/ovi_2503a_s3trc/Tools/MinGW/include/c++/3.3.1/bits/stl_algobase.h ****     __copy_backward_input_normal_iterator(_BI1 __first, _BI1 __last,
 456:d:/software/ovi_2503a_s3trc/ovi_2503a_s3trc/Tools/MinGW/include/c++/3.3.1/bits/stl_algobase.h **** 					  _BI2 __result, __false_type)
 457:d:/software/ovi_2503a_s3trc/ovi_2503a_s3trc/Tools/MinGW/include/c++/3.3.1/bits/stl_algobase.h ****     {
 458:d:/software/ovi_2503a_s3trc/ovi_2503a_s3trc/Tools/MinGW/include/c++/3.3.1/bits/stl_algobase.h ****       typedef typename _Is_normal_iterator<_BI2>::_Normal __Normal;
 459:d:/software/ovi_2503a_s3trc/ovi_2503a_s3trc/Tools/MinGW/include/c++/3.3.1/bits/stl_algobase.h ****       return __copy_backward_output_normal_iterator(__first, __last, __result,
 460:d:/software/ovi_2503a_s3trc/ovi_2503a_s3trc/Tools/MinGW/include/c++/3.3.1/bits/stl_algobase.h **** 						    __Normal());
 461:d:/software/ovi_2503a_s3trc/ovi_2503a_s3trc/Tools/MinGW/include/c++/3.3.1/bits/stl_algobase.h ****     }
 462:d:/software/ovi_2503a_s3trc/ovi_2503a_s3trc/Tools/MinGW/include/c++/3.3.1/bits/stl_algobase.h **** 
 463:d:/software/ovi_2503a_s3trc/ovi_2503a_s3trc/Tools/MinGW/include/c++/3.3.1/bits/stl_algobase.h ****   /**
 464:d:/software/ovi_2503a_s3trc/ovi_2503a_s3trc/Tools/MinGW/include/c++/3.3.1/bits/stl_algobase.h ****    *  @brief Copies the range [first,last) into result.
 465:d:/software/ovi_2503a_s3trc/ovi_2503a_s3trc/Tools/MinGW/include/c++/3.3.1/bits/stl_algobase.h ****    *  @param  first  An input iterator.
 466:d:/software/ovi_2503a_s3trc/ovi_2503a_s3trc/Tools/MinGW/include/c++/3.3.1/bits/stl_algobase.h ****    *  @param  last   An input iterator.
 467:d:/software/ovi_2503a_s3trc/ovi_2503a_s3trc/Tools/MinGW/include/c++/3.3.1/bits/stl_algobase.h ****    *  @param  result An output iterator.
 468:d:/software/ovi_2503a_s3trc/ovi_2503a_s3trc/Tools/MinGW/include/c++/3.3.1/bits/stl_algobase.h ****    *  @return   result - (first - last)
 469:d:/software/ovi_2503a_s3trc/ovi_2503a_s3trc/Tools/MinGW/include/c++/3.3.1/bits/stl_algobase.h ****    *
 470:d:/software/ovi_2503a_s3trc/ovi_2503a_s3trc/Tools/MinGW/include/c++/3.3.1/bits/stl_algobase.h ****    *  The function has the same effect as copy, but starts at the end of the
 471:d:/software/ovi_2503a_s3trc/ovi_2503a_s3trc/Tools/MinGW/include/c++/3.3.1/bits/stl_algobase.h ****    *  range and works its way to the start, returning the start of the result.
 472:d:/software/ovi_2503a_s3trc/ovi_2503a_s3trc/Tools/MinGW/include/c++/3.3.1/bits/stl_algobase.h ****    *  This inline function will boil down to a call to @c memmove whenever
 473:d:/software/ovi_2503a_s3trc/ovi_2503a_s3trc/Tools/MinGW/include/c++/3.3.1/bits/stl_algobase.h ****    *  possible.  Failing that, if random access iterators are passed, then the
 474:d:/software/ovi_2503a_s3trc/ovi_2503a_s3trc/Tools/MinGW/include/c++/3.3.1/bits/stl_algobase.h ****    *  loop count will be known (and therefore a candidate for compiler
 475:d:/software/ovi_2503a_s3trc/ovi_2503a_s3trc/Tools/MinGW/include/c++/3.3.1/bits/stl_algobase.h ****    *  optimizations such as unrolling).
 476:d:/software/ovi_2503a_s3trc/ovi_2503a_s3trc/Tools/MinGW/include/c++/3.3.1/bits/stl_algobase.h ****   */
 477:d:/software/ovi_2503a_s3trc/ovi_2503a_s3trc/Tools/MinGW/include/c++/3.3.1/bits/stl_algobase.h ****   template <typename _BI1, typename _BI2>
 478:d:/software/ovi_2503a_s3trc/ovi_2503a_s3trc/Tools/MinGW/include/c++/3.3.1/bits/stl_algobase.h ****     inline _BI2
 479:d:/software/ovi_2503a_s3trc/ovi_2503a_s3trc/Tools/MinGW/include/c++/3.3.1/bits/stl_algobase.h ****     copy_backward(_BI1 __first, _BI1 __last, _BI2 __result)
 480:d:/software/ovi_2503a_s3trc/ovi_2503a_s3trc/Tools/MinGW/include/c++/3.3.1/bits/stl_algobase.h ****     {
 7347              	LM340:
 7348 0000 55       		pushl	%ebp
 7349 0001 89E5     		movl	%esp, %ebp
 7350 0003 83EC18   		subl	$24, %esp
 481:d:/software/ovi_2503a_s3trc/ovi_2503a_s3trc/Tools/MinGW/include/c++/3.3.1/bits/stl_algobase.h ****       // concept requirements
 482:d:/software/ovi_2503a_s3trc/ovi_2503a_s3trc/Tools/MinGW/include/c++/3.3.1/bits/stl_algobase.h ****       __glibcpp_function_requires(_BidirectionalIteratorConcept<_BI1>)
 483:d:/software/ovi_2503a_s3trc/ovi_2503a_s3trc/Tools/MinGW/include/c++/3.3.1/bits/stl_algobase.h ****       __glibcpp_function_requires(_Mutable_BidirectionalIteratorConcept<_BI2>)
 484:d:/software/ovi_2503a_s3trc/ovi_2503a_s3trc/Tools/MinGW/include/c++/3.3.1/bits/stl_algobase.h ****       __glibcpp_function_requires(_ConvertibleConcept<
 485:d:/software/ovi_2503a_s3trc/ovi_2503a_s3trc/Tools/MinGW/include/c++/3.3.1/bits/stl_algobase.h **** 	    typename iterator_traits<_BI1>::value_type,
 486:d:/software/ovi_2503a_s3trc/ovi_2503a_s3trc/Tools/MinGW/include/c++/3.3.1/bits/stl_algobase.h **** 	    typename iterator_traits<_BI2>::value_type>)
 487:d:/software/ovi_2503a_s3trc/ovi_2503a_s3trc/Tools/MinGW/include/c++/3.3.1/bits/stl_algobase.h **** 
 488:d:/software/ovi_2503a_s3trc/ovi_2503a_s3trc/Tools/MinGW/include/c++/3.3.1/bits/stl_algobase.h ****       typedef typename _Is_normal_iterator<_BI1>::_Normal __Normal;
 489:d:/software/ovi_2503a_s3trc/ovi_2503a_s3trc/Tools/MinGW/include/c++/3.3.1/bits/stl_algobase.h ****       return __copy_backward_input_normal_iterator(__first, __last, __result,
 7352              	LM341:
 7353              	LBB94:
 7354 0006 C644240C 		movb	$0, 12(%esp)
 7354      00
 7355 000b 8B4510   		movl	16(%ebp), %eax
 7356 000e 89442408 		movl	%eax, 8(%esp)
 7357 0012 8B450C   		movl	12(%ebp), %eax
 7358 0015 89442404 		movl	%eax, 4(%esp)
 7359 0019 8B4508   		movl	8(%ebp), %eax
 7360 001c 890424   		movl	%eax, (%esp)
 7361 001f E8000000 		call	__ZSt37__copy_backward_input_normal_iteratorIN9__gnu_cxx17__normal_iteratorIPN10ThreadPool10T
 7361      00
GAS LISTING d:/software/ovi_2503a_s3trc/ovi_2503a_s3trc/plutommi/Customer/ResGenerator/gcctmp/cci0baaa.s 			page 156


 7362 0024 8945FC   		movl	%eax, -4(%ebp)
 7363 0027 8B45FC   		movl	-4(%ebp), %eax
 7364 002a C9       		leave
 7365 002b C3       		ret
 7366              	LBE94:
 7367              	Lscope75:
 7369              		.section	.text$_ZSt37__copy_backward_input_normal_iteratorIN9__gnu_cxx17__normal_iteratorIPN10Thre
 7370              		.linkonce discard
 7371              		.align 2
 7376              	.globl __ZSt37__copy_backward_input_normal_iteratorIN9__gnu_cxx17__normal_iteratorIPN10ThreadPool10
 7378              	__ZSt37__copy_backward_input_normal_iteratorIN9__gnu_cxx17__normal_iteratorIPN10ThreadPool10ThreadD
 7380              	LM342:
 7381 0000 55       		pushl	%ebp
 7382 0001 89E5     		movl	%esp, %ebp
 7383 0003 53       		pushl	%ebx
 7384 0004 83EC24   		subl	$36, %esp
 7386              	LM343:
 7387              	LBB95:
 7388 0007 8D450C   		leal	12(%ebp), %eax
 7389 000a 890424   		movl	%eax, (%esp)
 7390 000d E8000000 		call	__ZNK9__gnu_cxx17__normal_iteratorIPN10ThreadPool10ThreadDataESt6vectorIS2_SaIS2_EEE4baseEv
 7390      00
 7391 0012 89C3     		movl	%eax, %ebx
 7392 0014 8D4508   		leal	8(%ebp), %eax
 7393 0017 890424   		movl	%eax, (%esp)
 7394 001a E8000000 		call	__ZNK9__gnu_cxx17__normal_iteratorIPN10ThreadPool10ThreadDataESt6vectorIS2_SaIS2_EEE4baseEv
 7394      00
 7395 001f 89C2     		movl	%eax, %edx
 7396 0021 C644240C 		movb	$0, 12(%esp)
 7396      00
 7397 0026 8B4510   		movl	16(%ebp), %eax
 7398 0029 89442408 		movl	%eax, 8(%esp)
 7399 002d 8B03     		movl	(%ebx), %eax
 7400 002f 89442404 		movl	%eax, 4(%esp)
 7401 0033 8B02     		movl	(%edx), %eax
 7402 0035 890424   		movl	%eax, (%esp)
 7403 0038 E8000000 		call	__ZSt38__copy_backward_output_normal_iteratorIPN10ThreadPool10ThreadDataEN9__gnu_cxx17__norma
 7403      00
 7404 003d 8945F8   		movl	%eax, -8(%ebp)
 7405 0040 8B45F8   		movl	-8(%ebp), %eax
 7406 0043 83C424   		addl	$36, %esp
 7407 0046 5B       		popl	%ebx
 7408 0047 5D       		popl	%ebp
 7409 0048 C3       		ret
 7410              	LBE95:
 7411              	Lscope76:
 7413 0049 909090   		.section	.text$_ZSt38__copy_backward_output_normal_iteratorIPN10ThreadPool10ThreadDataEN9__gnu_cxx
 7414              		.linkonce discard
 7415              		.align 2
 7420              	.globl __ZSt38__copy_backward_output_normal_iteratorIPN10ThreadPool10ThreadDataEN9__gnu_cxx17__norm
 7422              	__ZSt38__copy_backward_output_normal_iteratorIPN10ThreadPool10ThreadDataEN9__gnu_cxx17__normal_iter
 7424              	LM344:
 7425 0000 55       		pushl	%ebp
 7426 0001 89E5     		movl	%esp, %ebp
 7427 0003 83EC18   		subl	$24, %esp
 7429              	LM345:
 7430              	LBB96:
GAS LISTING d:/software/ovi_2503a_s3trc/ovi_2503a_s3trc/plutommi/Customer/ResGenerator/gcctmp/cci0baaa.s 			page 157


 7431 0006 8D4510   		leal	16(%ebp), %eax
 7432 0009 890424   		movl	%eax, (%esp)
 7433 000c E8000000 		call	__ZNK9__gnu_cxx17__normal_iteratorIPN10ThreadPool10ThreadDataESt6vectorIS2_SaIS2_EEE4baseEv
 7433      00
 7434 0011 8B00     		movl	(%eax), %eax
 7435 0013 89442408 		movl	%eax, 8(%esp)
 7436 0017 8B450C   		movl	12(%ebp), %eax
 7437 001a 89442404 		movl	%eax, 4(%esp)
 7438 001e 8B4508   		movl	8(%ebp), %eax
 7439 0021 890424   		movl	%eax, (%esp)
 7440 0024 E8000000 		call	__ZSt19__copy_backward_auxIPN10ThreadPool10ThreadDataES2_ET0_T_S4_S3_
 7440      00
 7441 0029 8945F8   		movl	%eax, -8(%ebp)
 7442 002c 8D45F8   		leal	-8(%ebp), %eax
 7443 002f 89442404 		movl	%eax, 4(%esp)
 7444 0033 8D45FC   		leal	-4(%ebp), %eax
 7445 0036 890424   		movl	%eax, (%esp)
 7446 0039 E8000000 		call	__ZN9__gnu_cxx17__normal_iteratorIPN10ThreadPool10ThreadDataESt6vectorIS2_SaIS2_EEEC1ERKS3_
 7446      00
 7447 003e 8B45FC   		movl	-4(%ebp), %eax
 7448 0041 C9       		leave
 7449 0042 C3       		ret
 7450              	LBE96:
 7451              	Lscope77:
 7453 0043 90       		.section	.text$_ZSt19__copy_backward_auxIPN10ThreadPool10ThreadDataES2_ET0_T_S4_S3_,"x"
 7454              		.linkonce discard
 7455              		.align 2
 7460              	.globl __ZSt19__copy_backward_auxIPN10ThreadPool10ThreadDataES2_ET0_T_S4_S3_
 7462              	__ZSt19__copy_backward_auxIPN10ThreadPool10ThreadDataES2_ET0_T_S4_S3_:
 7464              	LM346:
 7465 0000 55       		pushl	%ebp
 7466 0001 89E5     		movl	%esp, %ebp
 7467 0003 83EC18   		subl	$24, %esp
 7469              	LM347:
 7470              	LBB97:
 7471 0006 8B4510   		movl	16(%ebp), %eax
 7472 0009 89442408 		movl	%eax, 8(%esp)
 7473 000d 8B450C   		movl	12(%ebp), %eax
 7474 0010 89442404 		movl	%eax, 4(%esp)
 7475 0014 8B4508   		movl	8(%ebp), %eax
 7476 0017 890424   		movl	%eax, (%esp)
 7477 001a E8000000 		call	__ZNSt24__copy_backward_dispatchIPN10ThreadPool10ThreadDataES2_12__false_typeE4copyES2_S2_S2_
 7477      00
 7478 001f C9       		leave
 7479 0020 C3       		ret
 7480              	LBE97:
 7481              	Lscope78:
 7483 0021 909090   		.section	.text$_ZNSt24__copy_backward_dispatchIPN10ThreadPool10ThreadDataES2_12__false_typeE4copyE
 7484              		.linkonce discard
 7485              		.align 2
 7490              	.globl __ZNSt24__copy_backward_dispatchIPN10ThreadPool10ThreadDataES2_12__false_typeE4copyES2_S2_S2
 7492              	__ZNSt24__copy_backward_dispatchIPN10ThreadPool10ThreadDataES2_12__false_typeE4copyES2_S2_S2_:
 7494              	LM348:
 7495 0000 55       		pushl	%ebp
 7496 0001 89E5     		movl	%esp, %ebp
 7497 0003 83EC18   		subl	$24, %esp
 7499              	LM349:
GAS LISTING d:/software/ovi_2503a_s3trc/ovi_2503a_s3trc/plutommi/Customer/ResGenerator/gcctmp/cci0baaa.s 			page 158


 7500 0006 8D4508   		leal	8(%ebp), %eax
 7501              	LBB98:
 7502 0009 890424   		movl	%eax, (%esp)
 7503 000c E8000000 		call	__ZSt19__iterator_categoryIPN10ThreadPool10ThreadDataEENSt15iterator_traitsIT_E17iterator_cat
 7503      00
 7504 0011 8845FF   		movb	%al, -1(%ebp)
 7505 0014 C644240C 		movb	$0, 12(%esp)
 7505      00
 7506 0019 8B4510   		movl	16(%ebp), %eax
 7507 001c 89442408 		movl	%eax, 8(%esp)
 7508 0020 8B450C   		movl	12(%ebp), %eax
 7509 0023 89442404 		movl	%eax, 4(%esp)
 7510 0027 8B4508   		movl	8(%ebp), %eax
 7511 002a 890424   		movl	%eax, (%esp)
 7512 002d E8000000 		call	__ZSt15__copy_backwardIPN10ThreadPool10ThreadDataES2_ET0_T_S4_S3_St26random_access_iterator_t
 7512      00
 7513 0032 C9       		leave
 7514 0033 C3       		ret
 7515              	LBE98:
 7516              	Lscope79:
 7518              		.section	.text$_ZSt19__iterator_categoryIPN10ThreadPool10ThreadDataEENSt15iterator_traitsIT_E17ite
 7519              		.linkonce discard
 7520              		.align 2
 7522              	.globl __ZSt19__iterator_categoryIPN10ThreadPool10ThreadDataEENSt15iterator_traitsIT_E17iterator_ca
 7524              	__ZSt19__iterator_categoryIPN10ThreadPool10ThreadDataEENSt15iterator_traitsIT_E17iterator_categoryE
 7526              	Ltext38:
   1:d:/software/ovi_2503a_s3trc/ovi_2503a_s3trc/Tools/MinGW/include/c++/3.3.1/bits/stl_iterator_base_types.h **** // Types used in iterator implementation -*- C++ -*-
   2:d:/software/ovi_2503a_s3trc/ovi_2503a_s3trc/Tools/MinGW/include/c++/3.3.1/bits/stl_iterator_base_types.h **** 
   3:d:/software/ovi_2503a_s3trc/ovi_2503a_s3trc/Tools/MinGW/include/c++/3.3.1/bits/stl_iterator_base_types.h **** // Copyright (C) 2001, 2002 Free Software Foundation, Inc.
   4:d:/software/ovi_2503a_s3trc/ovi_2503a_s3trc/Tools/MinGW/include/c++/3.3.1/bits/stl_iterator_base_types.h **** //
   5:d:/software/ovi_2503a_s3trc/ovi_2503a_s3trc/Tools/MinGW/include/c++/3.3.1/bits/stl_iterator_base_types.h **** // This file is part of the GNU ISO C++ Library.  This library is free
   6:d:/software/ovi_2503a_s3trc/ovi_2503a_s3trc/Tools/MinGW/include/c++/3.3.1/bits/stl_iterator_base_types.h **** // software; you can redistribute it and/or modify it under the
   7:d:/software/ovi_2503a_s3trc/ovi_2503a_s3trc/Tools/MinGW/include/c++/3.3.1/bits/stl_iterator_base_types.h **** // terms of the GNU General Public License as published by the
   8:d:/software/ovi_2503a_s3trc/ovi_2503a_s3trc/Tools/MinGW/include/c++/3.3.1/bits/stl_iterator_base_types.h **** // Free Software Foundation; either version 2, or (at your option)
   9:d:/software/ovi_2503a_s3trc/ovi_2503a_s3trc/Tools/MinGW/include/c++/3.3.1/bits/stl_iterator_base_types.h **** // any later version.
  10:d:/software/ovi_2503a_s3trc/ovi_2503a_s3trc/Tools/MinGW/include/c++/3.3.1/bits/stl_iterator_base_types.h **** 
  11:d:/software/ovi_2503a_s3trc/ovi_2503a_s3trc/Tools/MinGW/include/c++/3.3.1/bits/stl_iterator_base_types.h **** // This library is distributed in the hope that it will be useful,
  12:d:/software/ovi_2503a_s3trc/ovi_2503a_s3trc/Tools/MinGW/include/c++/3.3.1/bits/stl_iterator_base_types.h **** // but WITHOUT ANY WARRANTY; without even the implied warranty of
  13:d:/software/ovi_2503a_s3trc/ovi_2503a_s3trc/Tools/MinGW/include/c++/3.3.1/bits/stl_iterator_base_types.h **** // MERCHANTABILITY or FITNESS FOR A PARTICULAR PURPOSE.  See the
  14:d:/software/ovi_2503a_s3trc/ovi_2503a_s3trc/Tools/MinGW/include/c++/3.3.1/bits/stl_iterator_base_types.h **** // GNU General Public License for more details.
  15:d:/software/ovi_2503a_s3trc/ovi_2503a_s3trc/Tools/MinGW/include/c++/3.3.1/bits/stl_iterator_base_types.h **** 
  16:d:/software/ovi_2503a_s3trc/ovi_2503a_s3trc/Tools/MinGW/include/c++/3.3.1/bits/stl_iterator_base_types.h **** // You should have received a copy of the GNU General Public License along
  17:d:/software/ovi_2503a_s3trc/ovi_2503a_s3trc/Tools/MinGW/include/c++/3.3.1/bits/stl_iterator_base_types.h **** // with this library; see the file COPYING.  If not, write to the Free
  18:d:/software/ovi_2503a_s3trc/ovi_2503a_s3trc/Tools/MinGW/include/c++/3.3.1/bits/stl_iterator_base_types.h **** // Software Foundation, 59 Temple Place - Suite 330, Boston, MA 02111-1307,
  19:d:/software/ovi_2503a_s3trc/ovi_2503a_s3trc/Tools/MinGW/include/c++/3.3.1/bits/stl_iterator_base_types.h **** // USA.
  20:d:/software/ovi_2503a_s3trc/ovi_2503a_s3trc/Tools/MinGW/include/c++/3.3.1/bits/stl_iterator_base_types.h **** 
  21:d:/software/ovi_2503a_s3trc/ovi_2503a_s3trc/Tools/MinGW/include/c++/3.3.1/bits/stl_iterator_base_types.h **** // As a special exception, you may use this file as part of a free software
  22:d:/software/ovi_2503a_s3trc/ovi_2503a_s3trc/Tools/MinGW/include/c++/3.3.1/bits/stl_iterator_base_types.h **** // library without restriction.  Specifically, if other files instantiate
  23:d:/software/ovi_2503a_s3trc/ovi_2503a_s3trc/Tools/MinGW/include/c++/3.3.1/bits/stl_iterator_base_types.h **** // templates or use macros or inline functions from this file, or you compile
  24:d:/software/ovi_2503a_s3trc/ovi_2503a_s3trc/Tools/MinGW/include/c++/3.3.1/bits/stl_iterator_base_types.h **** // this file and link it with other files to produce an executable, this
  25:d:/software/ovi_2503a_s3trc/ovi_2503a_s3trc/Tools/MinGW/include/c++/3.3.1/bits/stl_iterator_base_types.h **** // file does not by itself cause the resulting executable to be covered by
  26:d:/software/ovi_2503a_s3trc/ovi_2503a_s3trc/Tools/MinGW/include/c++/3.3.1/bits/stl_iterator_base_types.h **** // the GNU General Public License.  This exception does not however
  27:d:/software/ovi_2503a_s3trc/ovi_2503a_s3trc/Tools/MinGW/include/c++/3.3.1/bits/stl_iterator_base_types.h **** // invalidate any other reasons why the executable file might be covered by
  28:d:/software/ovi_2503a_s3trc/ovi_2503a_s3trc/Tools/MinGW/include/c++/3.3.1/bits/stl_iterator_base_types.h **** // the GNU General Public License.
  29:d:/software/ovi_2503a_s3trc/ovi_2503a_s3trc/Tools/MinGW/include/c++/3.3.1/bits/stl_iterator_base_types.h **** 
  30:d:/software/ovi_2503a_s3trc/ovi_2503a_s3trc/Tools/MinGW/include/c++/3.3.1/bits/stl_iterator_base_types.h **** /*
  31:d:/software/ovi_2503a_s3trc/ovi_2503a_s3trc/Tools/MinGW/include/c++/3.3.1/bits/stl_iterator_base_types.h ****  *
GAS LISTING d:/software/ovi_2503a_s3trc/ovi_2503a_s3trc/plutommi/Customer/ResGenerator/gcctmp/cci0baaa.s 			page 159


  32:d:/software/ovi_2503a_s3trc/ovi_2503a_s3trc/Tools/MinGW/include/c++/3.3.1/bits/stl_iterator_base_types.h ****  * Copyright (c) 1994
  33:d:/software/ovi_2503a_s3trc/ovi_2503a_s3trc/Tools/MinGW/include/c++/3.3.1/bits/stl_iterator_base_types.h ****  * Hewlett-Packard Company
  34:d:/software/ovi_2503a_s3trc/ovi_2503a_s3trc/Tools/MinGW/include/c++/3.3.1/bits/stl_iterator_base_types.h ****  *
  35:d:/software/ovi_2503a_s3trc/ovi_2503a_s3trc/Tools/MinGW/include/c++/3.3.1/bits/stl_iterator_base_types.h ****  * Permission to use, copy, modify, distribute and sell this software
  36:d:/software/ovi_2503a_s3trc/ovi_2503a_s3trc/Tools/MinGW/include/c++/3.3.1/bits/stl_iterator_base_types.h ****  * and its documentation for any purpose is hereby granted without fee,
  37:d:/software/ovi_2503a_s3trc/ovi_2503a_s3trc/Tools/MinGW/include/c++/3.3.1/bits/stl_iterator_base_types.h ****  * provided that the above copyright notice appear in all copies and
  38:d:/software/ovi_2503a_s3trc/ovi_2503a_s3trc/Tools/MinGW/include/c++/3.3.1/bits/stl_iterator_base_types.h ****  * that both that copyright notice and this permission notice appear
  39:d:/software/ovi_2503a_s3trc/ovi_2503a_s3trc/Tools/MinGW/include/c++/3.3.1/bits/stl_iterator_base_types.h ****  * in supporting documentation.  Hewlett-Packard Company makes no
  40:d:/software/ovi_2503a_s3trc/ovi_2503a_s3trc/Tools/MinGW/include/c++/3.3.1/bits/stl_iterator_base_types.h ****  * representations about the suitability of this software for any
  41:d:/software/ovi_2503a_s3trc/ovi_2503a_s3trc/Tools/MinGW/include/c++/3.3.1/bits/stl_iterator_base_types.h ****  * purpose.  It is provided "as is" without express or implied warranty.
  42:d:/software/ovi_2503a_s3trc/ovi_2503a_s3trc/Tools/MinGW/include/c++/3.3.1/bits/stl_iterator_base_types.h ****  *
  43:d:/software/ovi_2503a_s3trc/ovi_2503a_s3trc/Tools/MinGW/include/c++/3.3.1/bits/stl_iterator_base_types.h ****  *
  44:d:/software/ovi_2503a_s3trc/ovi_2503a_s3trc/Tools/MinGW/include/c++/3.3.1/bits/stl_iterator_base_types.h ****  * Copyright (c) 1996-1998
  45:d:/software/ovi_2503a_s3trc/ovi_2503a_s3trc/Tools/MinGW/include/c++/3.3.1/bits/stl_iterator_base_types.h ****  * Silicon Graphics Computer Systems, Inc.
  46:d:/software/ovi_2503a_s3trc/ovi_2503a_s3trc/Tools/MinGW/include/c++/3.3.1/bits/stl_iterator_base_types.h ****  *
  47:d:/software/ovi_2503a_s3trc/ovi_2503a_s3trc/Tools/MinGW/include/c++/3.3.1/bits/stl_iterator_base_types.h ****  * Permission to use, copy, modify, distribute and sell this software
  48:d:/software/ovi_2503a_s3trc/ovi_2503a_s3trc/Tools/MinGW/include/c++/3.3.1/bits/stl_iterator_base_types.h ****  * and its documentation for any purpose is hereby granted without fee,
  49:d:/software/ovi_2503a_s3trc/ovi_2503a_s3trc/Tools/MinGW/include/c++/3.3.1/bits/stl_iterator_base_types.h ****  * provided that the above copyright notice appear in all copies and
  50:d:/software/ovi_2503a_s3trc/ovi_2503a_s3trc/Tools/MinGW/include/c++/3.3.1/bits/stl_iterator_base_types.h ****  * that both that copyright notice and this permission notice appear
  51:d:/software/ovi_2503a_s3trc/ovi_2503a_s3trc/Tools/MinGW/include/c++/3.3.1/bits/stl_iterator_base_types.h ****  * in supporting documentation.  Silicon Graphics makes no
  52:d:/software/ovi_2503a_s3trc/ovi_2503a_s3trc/Tools/MinGW/include/c++/3.3.1/bits/stl_iterator_base_types.h ****  * representations about the suitability of this software for any
  53:d:/software/ovi_2503a_s3trc/ovi_2503a_s3trc/Tools/MinGW/include/c++/3.3.1/bits/stl_iterator_base_types.h ****  * purpose.  It is provided "as is" without express or implied warranty.
  54:d:/software/ovi_2503a_s3trc/ovi_2503a_s3trc/Tools/MinGW/include/c++/3.3.1/bits/stl_iterator_base_types.h ****  */
  55:d:/software/ovi_2503a_s3trc/ovi_2503a_s3trc/Tools/MinGW/include/c++/3.3.1/bits/stl_iterator_base_types.h **** 
  56:d:/software/ovi_2503a_s3trc/ovi_2503a_s3trc/Tools/MinGW/include/c++/3.3.1/bits/stl_iterator_base_types.h **** /** @file stl_iterator_base_types.h
  57:d:/software/ovi_2503a_s3trc/ovi_2503a_s3trc/Tools/MinGW/include/c++/3.3.1/bits/stl_iterator_base_types.h ****  *  This is an internal header file, included by other library headers.
  58:d:/software/ovi_2503a_s3trc/ovi_2503a_s3trc/Tools/MinGW/include/c++/3.3.1/bits/stl_iterator_base_types.h ****  *  You should not attempt to use it directly.
  59:d:/software/ovi_2503a_s3trc/ovi_2503a_s3trc/Tools/MinGW/include/c++/3.3.1/bits/stl_iterator_base_types.h ****  *
  60:d:/software/ovi_2503a_s3trc/ovi_2503a_s3trc/Tools/MinGW/include/c++/3.3.1/bits/stl_iterator_base_types.h ****  *  This file contains all of the general iterator-related utility types,
  61:d:/software/ovi_2503a_s3trc/ovi_2503a_s3trc/Tools/MinGW/include/c++/3.3.1/bits/stl_iterator_base_types.h ****  *  such as iterator_traits and struct iterator.
  62:d:/software/ovi_2503a_s3trc/ovi_2503a_s3trc/Tools/MinGW/include/c++/3.3.1/bits/stl_iterator_base_types.h ****  */
  63:d:/software/ovi_2503a_s3trc/ovi_2503a_s3trc/Tools/MinGW/include/c++/3.3.1/bits/stl_iterator_base_types.h **** 
  64:d:/software/ovi_2503a_s3trc/ovi_2503a_s3trc/Tools/MinGW/include/c++/3.3.1/bits/stl_iterator_base_types.h **** #ifndef __GLIBCPP_INTERNAL_ITERATOR_BASE_TYPES_H
  65:d:/software/ovi_2503a_s3trc/ovi_2503a_s3trc/Tools/MinGW/include/c++/3.3.1/bits/stl_iterator_base_types.h **** #define __GLIBCPP_INTERNAL_ITERATOR_BASE_TYPES_H
  66:d:/software/ovi_2503a_s3trc/ovi_2503a_s3trc/Tools/MinGW/include/c++/3.3.1/bits/stl_iterator_base_types.h **** 
  67:d:/software/ovi_2503a_s3trc/ovi_2503a_s3trc/Tools/MinGW/include/c++/3.3.1/bits/stl_iterator_base_types.h **** #pragma GCC system_header
  68:d:/software/ovi_2503a_s3trc/ovi_2503a_s3trc/Tools/MinGW/include/c++/3.3.1/bits/stl_iterator_base_types.h **** 
  69:d:/software/ovi_2503a_s3trc/ovi_2503a_s3trc/Tools/MinGW/include/c++/3.3.1/bits/stl_iterator_base_types.h **** namespace std
  70:d:/software/ovi_2503a_s3trc/ovi_2503a_s3trc/Tools/MinGW/include/c++/3.3.1/bits/stl_iterator_base_types.h **** {
  71:d:/software/ovi_2503a_s3trc/ovi_2503a_s3trc/Tools/MinGW/include/c++/3.3.1/bits/stl_iterator_base_types.h ****   //@{
  72:d:/software/ovi_2503a_s3trc/ovi_2503a_s3trc/Tools/MinGW/include/c++/3.3.1/bits/stl_iterator_base_types.h ****   /**
  73:d:/software/ovi_2503a_s3trc/ovi_2503a_s3trc/Tools/MinGW/include/c++/3.3.1/bits/stl_iterator_base_types.h ****    *  @defgroup iterator_tags Iterator Tags
  74:d:/software/ovi_2503a_s3trc/ovi_2503a_s3trc/Tools/MinGW/include/c++/3.3.1/bits/stl_iterator_base_types.h ****    *  These are empty types, used to distinguish different iterators.  The
  75:d:/software/ovi_2503a_s3trc/ovi_2503a_s3trc/Tools/MinGW/include/c++/3.3.1/bits/stl_iterator_base_types.h ****    *  distinction is not made by what they contain, but simply by what they
  76:d:/software/ovi_2503a_s3trc/ovi_2503a_s3trc/Tools/MinGW/include/c++/3.3.1/bits/stl_iterator_base_types.h ****    *  are.  Different underlying algorithms can then be used based on the
  77:d:/software/ovi_2503a_s3trc/ovi_2503a_s3trc/Tools/MinGW/include/c++/3.3.1/bits/stl_iterator_base_types.h ****    *  different operations supporetd by different iterator types.
  78:d:/software/ovi_2503a_s3trc/ovi_2503a_s3trc/Tools/MinGW/include/c++/3.3.1/bits/stl_iterator_base_types.h ****   */
  79:d:/software/ovi_2503a_s3trc/ovi_2503a_s3trc/Tools/MinGW/include/c++/3.3.1/bits/stl_iterator_base_types.h ****   ///  Marking input iterators.
  80:d:/software/ovi_2503a_s3trc/ovi_2503a_s3trc/Tools/MinGW/include/c++/3.3.1/bits/stl_iterator_base_types.h ****   struct input_iterator_tag {};
  81:d:/software/ovi_2503a_s3trc/ovi_2503a_s3trc/Tools/MinGW/include/c++/3.3.1/bits/stl_iterator_base_types.h ****   ///  Marking output iterators.
  82:d:/software/ovi_2503a_s3trc/ovi_2503a_s3trc/Tools/MinGW/include/c++/3.3.1/bits/stl_iterator_base_types.h ****   struct output_iterator_tag {};
  83:d:/software/ovi_2503a_s3trc/ovi_2503a_s3trc/Tools/MinGW/include/c++/3.3.1/bits/stl_iterator_base_types.h ****   /// Forward iterators support a superset of input iterator operations.
  84:d:/software/ovi_2503a_s3trc/ovi_2503a_s3trc/Tools/MinGW/include/c++/3.3.1/bits/stl_iterator_base_types.h ****   struct forward_iterator_tag : public input_iterator_tag {};
  85:d:/software/ovi_2503a_s3trc/ovi_2503a_s3trc/Tools/MinGW/include/c++/3.3.1/bits/stl_iterator_base_types.h ****   /// Bidirectional iterators support a superset of forward iterator operations.
  86:d:/software/ovi_2503a_s3trc/ovi_2503a_s3trc/Tools/MinGW/include/c++/3.3.1/bits/stl_iterator_base_types.h ****   struct bidirectional_iterator_tag : public forward_iterator_tag {};
  87:d:/software/ovi_2503a_s3trc/ovi_2503a_s3trc/Tools/MinGW/include/c++/3.3.1/bits/stl_iterator_base_types.h ****   /// Random-access iterators support a superset of bidirectional iterator operations.
  88:d:/software/ovi_2503a_s3trc/ovi_2503a_s3trc/Tools/MinGW/include/c++/3.3.1/bits/stl_iterator_base_types.h ****   struct random_access_iterator_tag : public bidirectional_iterator_tag {};
GAS LISTING d:/software/ovi_2503a_s3trc/ovi_2503a_s3trc/plutommi/Customer/ResGenerator/gcctmp/cci0baaa.s 			page 160


  89:d:/software/ovi_2503a_s3trc/ovi_2503a_s3trc/Tools/MinGW/include/c++/3.3.1/bits/stl_iterator_base_types.h ****   //@}
  90:d:/software/ovi_2503a_s3trc/ovi_2503a_s3trc/Tools/MinGW/include/c++/3.3.1/bits/stl_iterator_base_types.h **** 
  91:d:/software/ovi_2503a_s3trc/ovi_2503a_s3trc/Tools/MinGW/include/c++/3.3.1/bits/stl_iterator_base_types.h **** 
  92:d:/software/ovi_2503a_s3trc/ovi_2503a_s3trc/Tools/MinGW/include/c++/3.3.1/bits/stl_iterator_base_types.h ****   /**
  93:d:/software/ovi_2503a_s3trc/ovi_2503a_s3trc/Tools/MinGW/include/c++/3.3.1/bits/stl_iterator_base_types.h ****    *  @brief  Common %iterator class.
  94:d:/software/ovi_2503a_s3trc/ovi_2503a_s3trc/Tools/MinGW/include/c++/3.3.1/bits/stl_iterator_base_types.h ****    *
  95:d:/software/ovi_2503a_s3trc/ovi_2503a_s3trc/Tools/MinGW/include/c++/3.3.1/bits/stl_iterator_base_types.h ****    *  This class does nothing but define nested typedefs.  %Iterator classes
  96:d:/software/ovi_2503a_s3trc/ovi_2503a_s3trc/Tools/MinGW/include/c++/3.3.1/bits/stl_iterator_base_types.h ****    *  can inherit from this class to save some work.  The typedefs are then
  97:d:/software/ovi_2503a_s3trc/ovi_2503a_s3trc/Tools/MinGW/include/c++/3.3.1/bits/stl_iterator_base_types.h ****    *  used in specializations and overloading.
  98:d:/software/ovi_2503a_s3trc/ovi_2503a_s3trc/Tools/MinGW/include/c++/3.3.1/bits/stl_iterator_base_types.h ****    *
  99:d:/software/ovi_2503a_s3trc/ovi_2503a_s3trc/Tools/MinGW/include/c++/3.3.1/bits/stl_iterator_base_types.h ****    *  In particular, there are no default implementations of requirements
 100:d:/software/ovi_2503a_s3trc/ovi_2503a_s3trc/Tools/MinGW/include/c++/3.3.1/bits/stl_iterator_base_types.h ****    *  such as @c operator++ and the like.  (How could there be?)
 101:d:/software/ovi_2503a_s3trc/ovi_2503a_s3trc/Tools/MinGW/include/c++/3.3.1/bits/stl_iterator_base_types.h ****   */
 102:d:/software/ovi_2503a_s3trc/ovi_2503a_s3trc/Tools/MinGW/include/c++/3.3.1/bits/stl_iterator_base_types.h ****   template<typename _Category, typename _Tp, typename _Distance = ptrdiff_t,
 103:d:/software/ovi_2503a_s3trc/ovi_2503a_s3trc/Tools/MinGW/include/c++/3.3.1/bits/stl_iterator_base_types.h ****            typename _Pointer = _Tp*, typename _Reference = _Tp&>
 104:d:/software/ovi_2503a_s3trc/ovi_2503a_s3trc/Tools/MinGW/include/c++/3.3.1/bits/stl_iterator_base_types.h ****     struct iterator
 105:d:/software/ovi_2503a_s3trc/ovi_2503a_s3trc/Tools/MinGW/include/c++/3.3.1/bits/stl_iterator_base_types.h ****     {
 106:d:/software/ovi_2503a_s3trc/ovi_2503a_s3trc/Tools/MinGW/include/c++/3.3.1/bits/stl_iterator_base_types.h ****       /// One of the @link iterator_tags tag types@endlink.
 107:d:/software/ovi_2503a_s3trc/ovi_2503a_s3trc/Tools/MinGW/include/c++/3.3.1/bits/stl_iterator_base_types.h ****       typedef _Category  iterator_category;
 108:d:/software/ovi_2503a_s3trc/ovi_2503a_s3trc/Tools/MinGW/include/c++/3.3.1/bits/stl_iterator_base_types.h ****       /// The type "pointed to" by the iterator.
 109:d:/software/ovi_2503a_s3trc/ovi_2503a_s3trc/Tools/MinGW/include/c++/3.3.1/bits/stl_iterator_base_types.h ****       typedef _Tp        value_type;
 110:d:/software/ovi_2503a_s3trc/ovi_2503a_s3trc/Tools/MinGW/include/c++/3.3.1/bits/stl_iterator_base_types.h ****       /// Distance between iterators is represented as this type.
 111:d:/software/ovi_2503a_s3trc/ovi_2503a_s3trc/Tools/MinGW/include/c++/3.3.1/bits/stl_iterator_base_types.h ****       typedef _Distance  difference_type;
 112:d:/software/ovi_2503a_s3trc/ovi_2503a_s3trc/Tools/MinGW/include/c++/3.3.1/bits/stl_iterator_base_types.h ****       /// This type represents a pointer-to-value_type.
 113:d:/software/ovi_2503a_s3trc/ovi_2503a_s3trc/Tools/MinGW/include/c++/3.3.1/bits/stl_iterator_base_types.h ****       typedef _Pointer   pointer;
 114:d:/software/ovi_2503a_s3trc/ovi_2503a_s3trc/Tools/MinGW/include/c++/3.3.1/bits/stl_iterator_base_types.h ****       /// This type represents a reference-to-value_type.
 115:d:/software/ovi_2503a_s3trc/ovi_2503a_s3trc/Tools/MinGW/include/c++/3.3.1/bits/stl_iterator_base_types.h ****       typedef _Reference reference;
 116:d:/software/ovi_2503a_s3trc/ovi_2503a_s3trc/Tools/MinGW/include/c++/3.3.1/bits/stl_iterator_base_types.h ****     };
 117:d:/software/ovi_2503a_s3trc/ovi_2503a_s3trc/Tools/MinGW/include/c++/3.3.1/bits/stl_iterator_base_types.h **** 
 118:d:/software/ovi_2503a_s3trc/ovi_2503a_s3trc/Tools/MinGW/include/c++/3.3.1/bits/stl_iterator_base_types.h ****   /**
 119:d:/software/ovi_2503a_s3trc/ovi_2503a_s3trc/Tools/MinGW/include/c++/3.3.1/bits/stl_iterator_base_types.h ****    *  This class does nothing but define nested typedefs.  The general
 120:d:/software/ovi_2503a_s3trc/ovi_2503a_s3trc/Tools/MinGW/include/c++/3.3.1/bits/stl_iterator_base_types.h ****    *  version simply "forwards" the nested typedefs from the Iterator
 121:d:/software/ovi_2503a_s3trc/ovi_2503a_s3trc/Tools/MinGW/include/c++/3.3.1/bits/stl_iterator_base_types.h ****    *  argument.  Specialized versions for pointers and pointers-to-const
 122:d:/software/ovi_2503a_s3trc/ovi_2503a_s3trc/Tools/MinGW/include/c++/3.3.1/bits/stl_iterator_base_types.h ****    *  provide tighter, more correct semantics.
 123:d:/software/ovi_2503a_s3trc/ovi_2503a_s3trc/Tools/MinGW/include/c++/3.3.1/bits/stl_iterator_base_types.h ****   */
 124:d:/software/ovi_2503a_s3trc/ovi_2503a_s3trc/Tools/MinGW/include/c++/3.3.1/bits/stl_iterator_base_types.h ****   template<typename _Iterator>
 125:d:/software/ovi_2503a_s3trc/ovi_2503a_s3trc/Tools/MinGW/include/c++/3.3.1/bits/stl_iterator_base_types.h ****     struct iterator_traits {
 126:d:/software/ovi_2503a_s3trc/ovi_2503a_s3trc/Tools/MinGW/include/c++/3.3.1/bits/stl_iterator_base_types.h ****       typedef typename _Iterator::iterator_category iterator_category;
 127:d:/software/ovi_2503a_s3trc/ovi_2503a_s3trc/Tools/MinGW/include/c++/3.3.1/bits/stl_iterator_base_types.h ****       typedef typename _Iterator::value_type        value_type;
 128:d:/software/ovi_2503a_s3trc/ovi_2503a_s3trc/Tools/MinGW/include/c++/3.3.1/bits/stl_iterator_base_types.h ****       typedef typename _Iterator::difference_type   difference_type;
 129:d:/software/ovi_2503a_s3trc/ovi_2503a_s3trc/Tools/MinGW/include/c++/3.3.1/bits/stl_iterator_base_types.h ****       typedef typename _Iterator::pointer           pointer;
 130:d:/software/ovi_2503a_s3trc/ovi_2503a_s3trc/Tools/MinGW/include/c++/3.3.1/bits/stl_iterator_base_types.h ****       typedef typename _Iterator::reference         reference;
 131:d:/software/ovi_2503a_s3trc/ovi_2503a_s3trc/Tools/MinGW/include/c++/3.3.1/bits/stl_iterator_base_types.h ****     };
 132:d:/software/ovi_2503a_s3trc/ovi_2503a_s3trc/Tools/MinGW/include/c++/3.3.1/bits/stl_iterator_base_types.h **** 
 133:d:/software/ovi_2503a_s3trc/ovi_2503a_s3trc/Tools/MinGW/include/c++/3.3.1/bits/stl_iterator_base_types.h ****   template<typename _Tp>
 134:d:/software/ovi_2503a_s3trc/ovi_2503a_s3trc/Tools/MinGW/include/c++/3.3.1/bits/stl_iterator_base_types.h ****     struct iterator_traits<_Tp*> {
 135:d:/software/ovi_2503a_s3trc/ovi_2503a_s3trc/Tools/MinGW/include/c++/3.3.1/bits/stl_iterator_base_types.h ****       typedef random_access_iterator_tag iterator_category;
 136:d:/software/ovi_2503a_s3trc/ovi_2503a_s3trc/Tools/MinGW/include/c++/3.3.1/bits/stl_iterator_base_types.h ****       typedef _Tp                         value_type;
 137:d:/software/ovi_2503a_s3trc/ovi_2503a_s3trc/Tools/MinGW/include/c++/3.3.1/bits/stl_iterator_base_types.h ****       typedef ptrdiff_t                   difference_type;
 138:d:/software/ovi_2503a_s3trc/ovi_2503a_s3trc/Tools/MinGW/include/c++/3.3.1/bits/stl_iterator_base_types.h ****       typedef _Tp*                        pointer;
 139:d:/software/ovi_2503a_s3trc/ovi_2503a_s3trc/Tools/MinGW/include/c++/3.3.1/bits/stl_iterator_base_types.h ****       typedef _Tp&                        reference;
 140:d:/software/ovi_2503a_s3trc/ovi_2503a_s3trc/Tools/MinGW/include/c++/3.3.1/bits/stl_iterator_base_types.h ****     };
 141:d:/software/ovi_2503a_s3trc/ovi_2503a_s3trc/Tools/MinGW/include/c++/3.3.1/bits/stl_iterator_base_types.h **** 
 142:d:/software/ovi_2503a_s3trc/ovi_2503a_s3trc/Tools/MinGW/include/c++/3.3.1/bits/stl_iterator_base_types.h ****   template<typename _Tp>
 143:d:/software/ovi_2503a_s3trc/ovi_2503a_s3trc/Tools/MinGW/include/c++/3.3.1/bits/stl_iterator_base_types.h ****     struct iterator_traits<const _Tp*> {
 144:d:/software/ovi_2503a_s3trc/ovi_2503a_s3trc/Tools/MinGW/include/c++/3.3.1/bits/stl_iterator_base_types.h ****       typedef random_access_iterator_tag iterator_category;
 145:d:/software/ovi_2503a_s3trc/ovi_2503a_s3trc/Tools/MinGW/include/c++/3.3.1/bits/stl_iterator_base_types.h ****       typedef _Tp                         value_type;
GAS LISTING d:/software/ovi_2503a_s3trc/ovi_2503a_s3trc/plutommi/Customer/ResGenerator/gcctmp/cci0baaa.s 			page 161


 146:d:/software/ovi_2503a_s3trc/ovi_2503a_s3trc/Tools/MinGW/include/c++/3.3.1/bits/stl_iterator_base_types.h ****       typedef ptrdiff_t                   difference_type;
 147:d:/software/ovi_2503a_s3trc/ovi_2503a_s3trc/Tools/MinGW/include/c++/3.3.1/bits/stl_iterator_base_types.h ****       typedef const _Tp*                  pointer;
 148:d:/software/ovi_2503a_s3trc/ovi_2503a_s3trc/Tools/MinGW/include/c++/3.3.1/bits/stl_iterator_base_types.h ****       typedef const _Tp&                  reference;
 149:d:/software/ovi_2503a_s3trc/ovi_2503a_s3trc/Tools/MinGW/include/c++/3.3.1/bits/stl_iterator_base_types.h ****     };
 150:d:/software/ovi_2503a_s3trc/ovi_2503a_s3trc/Tools/MinGW/include/c++/3.3.1/bits/stl_iterator_base_types.h **** 
 151:d:/software/ovi_2503a_s3trc/ovi_2503a_s3trc/Tools/MinGW/include/c++/3.3.1/bits/stl_iterator_base_types.h ****   /**
 152:d:/software/ovi_2503a_s3trc/ovi_2503a_s3trc/Tools/MinGW/include/c++/3.3.1/bits/stl_iterator_base_types.h ****    *  @if maint
 153:d:/software/ovi_2503a_s3trc/ovi_2503a_s3trc/Tools/MinGW/include/c++/3.3.1/bits/stl_iterator_base_types.h ****    *  This function is not a part of the C++ standard but is syntactic
 154:d:/software/ovi_2503a_s3trc/ovi_2503a_s3trc/Tools/MinGW/include/c++/3.3.1/bits/stl_iterator_base_types.h ****    *  sugar for internal library use only.
 155:d:/software/ovi_2503a_s3trc/ovi_2503a_s3trc/Tools/MinGW/include/c++/3.3.1/bits/stl_iterator_base_types.h ****    *  @endif
 156:d:/software/ovi_2503a_s3trc/ovi_2503a_s3trc/Tools/MinGW/include/c++/3.3.1/bits/stl_iterator_base_types.h ****   */
 157:d:/software/ovi_2503a_s3trc/ovi_2503a_s3trc/Tools/MinGW/include/c++/3.3.1/bits/stl_iterator_base_types.h ****   template<typename _Iter>
 158:d:/software/ovi_2503a_s3trc/ovi_2503a_s3trc/Tools/MinGW/include/c++/3.3.1/bits/stl_iterator_base_types.h ****     inline typename iterator_traits<_Iter>::iterator_category
 159:d:/software/ovi_2503a_s3trc/ovi_2503a_s3trc/Tools/MinGW/include/c++/3.3.1/bits/stl_iterator_base_types.h ****     __iterator_category(const _Iter&)
 160:d:/software/ovi_2503a_s3trc/ovi_2503a_s3trc/Tools/MinGW/include/c++/3.3.1/bits/stl_iterator_base_types.h ****     { return typename iterator_traits<_Iter>::iterator_category(); }
 7528              	LM350:
 7529 0000 55       		pushl	%ebp
 7530 0001 89E5     		movl	%esp, %ebp
 7531 0003 83EC04   		subl	$4, %esp
 7533              	LM351:
 7534              	LBB99:
 7535 0006 0FB645FF 		movzbl	-1(%ebp), %eax
 7536 000a C9       		leave
 7537 000b C3       		ret
 7538              	LBE99:
 7539              	Lscope80:
 7541              		.section	.text$_ZSt15__copy_backwardIPN10ThreadPool10ThreadDataES2_ET0_T_S4_S3_St26random_access_i
 7542              		.linkonce discard
 7543              		.align 2
 7548              	.globl __ZSt15__copy_backwardIPN10ThreadPool10ThreadDataES2_ET0_T_S4_S3_St26random_access_iterator_
 7550              	__ZSt15__copy_backwardIPN10ThreadPool10ThreadDataES2_ET0_T_S4_S3_St26random_access_iterator_tag:
 7552              	Ltext39:
 7554              	LM352:
 7555 0000 55       		pushl	%ebp
 7556 0001 89E5     		movl	%esp, %ebp
 7557 0003 83EC04   		subl	$4, %esp
 7559              	LM353:
 7560              	LBB100:
 7561 0006 8B5508   		movl	8(%ebp), %edx
 7562 0009 8B450C   		movl	12(%ebp), %eax
 7563 000c 29D0     		subl	%edx, %eax
 7564 000e C1F802   		sarl	$2, %eax
 7565 0011 69C0ABAA 		imull	$-1431655765, %eax, %eax
 7565      AAAA
 7566 0017 8945FC   		movl	%eax, -4(%ebp)
 7567              	L291:
 7568 001a 837DFC00 		cmpl	$0, -4(%ebp)
 7569 001e 7F02     		jg	L294
 7570 0020 EB29     		jmp	L292
 7571              	L294:
 7573              	LM354:
 7574 0022 8D4510   		leal	16(%ebp), %eax
 7575 0025 83280C   		subl	$12, (%eax)
 7576 0028 8B4D10   		movl	16(%ebp), %ecx
 7577 002b 8D450C   		leal	12(%ebp), %eax
 7578 002e 83280C   		subl	$12, (%eax)
 7579 0031 8B550C   		movl	12(%ebp), %edx
GAS LISTING d:/software/ovi_2503a_s3trc/ovi_2503a_s3trc/plutommi/Customer/ResGenerator/gcctmp/cci0baaa.s 			page 162


 7580 0034 8B02     		movl	(%edx), %eax
 7581 0036 8901     		movl	%eax, (%ecx)
 7582 0038 8B4204   		movl	4(%edx), %eax
 7583 003b 894104   		movl	%eax, 4(%ecx)
 7584 003e 8B4208   		movl	8(%edx), %eax
 7585 0041 894108   		movl	%eax, 8(%ecx)
 7587              	LM355:
 7588 0044 8D45FC   		leal	-4(%ebp), %eax
 7589 0047 FF08     		decl	(%eax)
 7590 0049 EBCF     		jmp	L291
 7591              	L292:
 7593              	LM356:
 7594 004b 8B4510   		movl	16(%ebp), %eax
 7595 004e C9       		leave
 7596 004f C3       		ret
 7597              	LBE100:
 7601              	Lscope81:
 7603              		.section	.text$_ZNK9__gnu_cxx17__normal_iteratorIPN10ThreadPool10ThreadDataESt6vectorIS2_SaIS2_EEE
 7604              		.linkonce discard
 7605              		.align 2
 7608              	.globl __ZNK9__gnu_cxx17__normal_iteratorIPN10ThreadPool10ThreadDataESt6vectorIS2_SaIS2_EEEdeEv
 7610              	__ZNK9__gnu_cxx17__normal_iteratorIPN10ThreadPool10ThreadDataESt6vectorIS2_SaIS2_EEEdeEv:
 7612              	Ltext40:
 7614              	LM357:
 7615 0000 55       		pushl	%ebp
 7616 0001 89E5     		movl	%esp, %ebp
 7618              	LM358:
 7619              	LBB101:
 7620 0003 8B4508   		movl	8(%ebp), %eax
 7621 0006 8B00     		movl	(%eax), %eax
 7622 0008 5D       		popl	%ebp
 7623 0009 C3       		ret
 7624              	LBE101:
 7625              	Lscope82:
 7627 000a 9090     		.section	.text$_ZNSt18_Vector_alloc_baseIN10ThreadPool10ThreadDataESaIS1_ELb1EE11_M_allocateEj,"x"
 7628              		.linkonce discard
 7629              		.align 2
 7633              	.globl __ZNSt18_Vector_alloc_baseIN10ThreadPool10ThreadDataESaIS1_ELb1EE11_M_allocateEj
 7635              	__ZNSt18_Vector_alloc_baseIN10ThreadPool10ThreadDataESaIS1_ELb1EE11_M_allocateEj:
 7637              	Ltext41:
 7639              	LM359:
 7640 0000 55       		pushl	%ebp
 7641 0001 89E5     		movl	%esp, %ebp
 7642 0003 83EC08   		subl	$8, %esp
 7644              	LM360:
 7645              	LBB102:
 7646 0006 8B450C   		movl	12(%ebp), %eax
 7647 0009 890424   		movl	%eax, (%esp)
 7648 000c E8000000 		call	__ZNSt14__simple_allocIN10ThreadPool10ThreadDataESt24__default_alloc_templateILb1ELi0EEE8allo
 7648      00
 7649 0011 C9       		leave
 7650 0012 C3       		ret
 7651              	LBE102:
 7652              	Lscope83:
 7654 0013 90       		.section	.text$_ZNSt14__simple_allocIN10ThreadPool10ThreadDataESt24__default_alloc_templateILb1ELi
 7655              		.linkonce discard
 7656              		.align 2
GAS LISTING d:/software/ovi_2503a_s3trc/ovi_2503a_s3trc/plutommi/Customer/ResGenerator/gcctmp/cci0baaa.s 			page 163


 7659              	.globl __ZNSt14__simple_allocIN10ThreadPool10ThreadDataESt24__default_alloc_templateILb1ELi0EEE8all
 7661              	__ZNSt14__simple_allocIN10ThreadPool10ThreadDataESt24__default_alloc_templateILb1ELi0EEE8allocateEj
 7663              	Ltext42:
 7665              	LM361:
 7666 0000 55       		pushl	%ebp
 7667 0001 89E5     		movl	%esp, %ebp
 7668 0003 83EC08   		subl	$8, %esp
 7670              	LM362:
 7671              	LBB103:
 7672 0006 C745FC00 		movl	$0, -4(%ebp)
 7672      000000
 7674              	LM363:
 7675 000d 837D0800 		cmpl	$0, 8(%ebp)
 7676 0011 741B     		je	L298
 7678              	LM364:
 7679 0013 8B4508   		movl	8(%ebp), %eax
 7680 0016 89C2     		movl	%eax, %edx
 7681 0018 01D2     		addl	%edx, %edx
 7682 001a 01C2     		addl	%eax, %edx
 7683 001c 8D049500 		leal	0(,%edx,4), %eax
 7683      000000
 7684 0023 890424   		movl	%eax, (%esp)
 7685 0026 E8000000 		call	__ZNSt24__default_alloc_templateILb1ELi0EE8allocateEj
 7685      00
 7686 002b 8945FC   		movl	%eax, -4(%ebp)
 7687              	L298:
 7689              	LM365:
 7690 002e 8B45FC   		movl	-4(%ebp), %eax
 7691 0031 C9       		leave
 7692 0032 C3       		ret
 7693              	LBE103:
 7697              	Lscope84:
 7699 0033 90       		.section	.text$_ZSt4copyIN9__gnu_cxx17__normal_iteratorIPN10ThreadPool10ThreadDataESt6vectorIS3_Sa
 7700              		.linkonce discard
 7701              		.align 2
 7706              	.globl __ZSt4copyIN9__gnu_cxx17__normal_iteratorIPN10ThreadPool10ThreadDataESt6vectorIS3_SaIS3_EEEE
 7708              	__ZSt4copyIN9__gnu_cxx17__normal_iteratorIPN10ThreadPool10ThreadDataESt6vectorIS3_SaIS3_EEEES8_ET0_
 7710              	Ltext43:
 7712              	LM366:
 7713 0000 55       		pushl	%ebp
 7714 0001 89E5     		movl	%esp, %ebp
 7715 0003 83EC18   		subl	$24, %esp
 7717              	LM367:
 7718              	LBB104:
 7719 0006 C644240C 		movb	$0, 12(%esp)
 7719      00
 7720 000b 8B4510   		movl	16(%ebp), %eax
 7721 000e 89442408 		movl	%eax, 8(%esp)
 7722 0012 8B450C   		movl	12(%ebp), %eax
 7723 0015 89442404 		movl	%eax, 4(%esp)
 7724 0019 8B4508   		movl	8(%ebp), %eax
 7725 001c 890424   		movl	%eax, (%esp)
 7726 001f E8000000 		call	__ZSt10__copy_ni1IN9__gnu_cxx17__normal_iteratorIPN10ThreadPool10ThreadDataESt6vectorIS3_SaIS
 7726      00
 7727 0024 8945FC   		movl	%eax, -4(%ebp)
 7728 0027 8B45FC   		movl	-4(%ebp), %eax
 7729 002a C9       		leave
GAS LISTING d:/software/ovi_2503a_s3trc/ovi_2503a_s3trc/plutommi/Customer/ResGenerator/gcctmp/cci0baaa.s 			page 164


 7730 002b C3       		ret
 7731              	LBE104:
 7732              	Lscope85:
 7734              		.section	.text$_ZSt10__copy_ni1IN9__gnu_cxx17__normal_iteratorIPN10ThreadPool10ThreadDataESt6vecto
 7735              		.linkonce discard
 7736              		.align 2
 7741              	.globl __ZSt10__copy_ni1IN9__gnu_cxx17__normal_iteratorIPN10ThreadPool10ThreadDataESt6vectorIS3_SaI
 7743              	__ZSt10__copy_ni1IN9__gnu_cxx17__normal_iteratorIPN10ThreadPool10ThreadDataESt6vectorIS3_SaIS3_EEEE
 7745              	LM368:
 7746 0000 55       		pushl	%ebp
 7747 0001 89E5     		movl	%esp, %ebp
 7748 0003 53       		pushl	%ebx
 7749 0004 83EC24   		subl	$36, %esp
 7751              	LM369:
 7752              	LBB105:
 7753 0007 8D450C   		leal	12(%ebp), %eax
 7754 000a 890424   		movl	%eax, (%esp)
 7755 000d E8000000 		call	__ZNK9__gnu_cxx17__normal_iteratorIPN10ThreadPool10ThreadDataESt6vectorIS2_SaIS2_EEE4baseEv
 7755      00
 7756 0012 89C3     		movl	%eax, %ebx
 7757 0014 8D4508   		leal	8(%ebp), %eax
 7758 0017 890424   		movl	%eax, (%esp)
 7759 001a E8000000 		call	__ZNK9__gnu_cxx17__normal_iteratorIPN10ThreadPool10ThreadDataESt6vectorIS2_SaIS2_EEE4baseEv
 7759      00
 7760 001f 89C2     		movl	%eax, %edx
 7761 0021 C644240C 		movb	$0, 12(%esp)
 7761      00
 7762 0026 8B4510   		movl	16(%ebp), %eax
 7763 0029 89442408 		movl	%eax, 8(%esp)
 7764 002d 8B03     		movl	(%ebx), %eax
 7765 002f 89442404 		movl	%eax, 4(%esp)
 7766 0033 8B02     		movl	(%edx), %eax
 7767 0035 890424   		movl	%eax, (%esp)
 7768 0038 E8000000 		call	__ZSt10__copy_ni2IPN10ThreadPool10ThreadDataEN9__gnu_cxx17__normal_iteratorIS2_St6vectorIS1_S
 7768      00
 7769 003d 8945F8   		movl	%eax, -8(%ebp)
 7770 0040 8B45F8   		movl	-8(%ebp), %eax
 7771 0043 83C424   		addl	$36, %esp
 7772 0046 5B       		popl	%ebx
 7773 0047 5D       		popl	%ebp
 7774 0048 C3       		ret
 7775              	LBE105:
 7776              	Lscope86:
 7778 0049 909090   		.section	.text$_ZSt10__copy_ni2IPN10ThreadPool10ThreadDataEN9__gnu_cxx17__normal_iteratorIS2_St6ve
 7779              		.linkonce discard
 7780              		.align 2
 7785              	.globl __ZSt10__copy_ni2IPN10ThreadPool10ThreadDataEN9__gnu_cxx17__normal_iteratorIS2_St6vectorIS1_
 7787              	__ZSt10__copy_ni2IPN10ThreadPool10ThreadDataEN9__gnu_cxx17__normal_iteratorIS2_St6vectorIS1_SaIS1_E
 7789              	LM370:
 7790 0000 55       		pushl	%ebp
 7791 0001 89E5     		movl	%esp, %ebp
 7792 0003 83EC28   		subl	$40, %esp
 7794              	LM371:
 7795              	LBB106:
 7796 0006 8D4510   		leal	16(%ebp), %eax
 7797 0009 890424   		movl	%eax, (%esp)
 7798 000c E8000000 		call	__ZNK9__gnu_cxx17__normal_iteratorIPN10ThreadPool10ThreadDataESt6vectorIS2_SaIS2_EEE4baseEv
GAS LISTING d:/software/ovi_2503a_s3trc/ovi_2503a_s3trc/plutommi/Customer/ResGenerator/gcctmp/cci0baaa.s 			page 165


 7798      00
 7799 0011 C644240C 		movb	$0, 12(%esp)
 7799      00
 7800 0016 8B00     		movl	(%eax), %eax
 7801 0018 89442408 		movl	%eax, 8(%esp)
 7802 001c 8B450C   		movl	12(%ebp), %eax
 7803 001f 89442404 		movl	%eax, 4(%esp)
 7804 0023 8B4508   		movl	8(%ebp), %eax
 7805 0026 890424   		movl	%eax, (%esp)
 7806 0029 E8000000 		call	__ZSt11__copy_aux2IPN10ThreadPool10ThreadDataES2_ET0_T_S4_S3_12__false_type
 7806      00
 7807 002e 8945F8   		movl	%eax, -8(%ebp)
 7808 0031 8D45F8   		leal	-8(%ebp), %eax
 7809 0034 89442404 		movl	%eax, 4(%esp)
 7810 0038 8D45FC   		leal	-4(%ebp), %eax
 7811 003b 890424   		movl	%eax, (%esp)
 7812 003e E8000000 		call	__ZN9__gnu_cxx17__normal_iteratorIPN10ThreadPool10ThreadDataESt6vectorIS2_SaIS2_EEEC1ERKS3_
 7812      00
 7813 0043 8B45FC   		movl	-4(%ebp), %eax
 7814 0046 C9       		leave
 7815 0047 C3       		ret
 7816              	LBE106:
 7817              	Lscope87:
 7819              		.section	.text$_ZSt11__copy_aux2IPN10ThreadPool10ThreadDataES2_ET0_T_S4_S3_12__false_type,"x"
 7820              		.linkonce discard
 7821              		.align 2
 7826              	.globl __ZSt11__copy_aux2IPN10ThreadPool10ThreadDataES2_ET0_T_S4_S3_12__false_type
 7828              	__ZSt11__copy_aux2IPN10ThreadPool10ThreadDataES2_ET0_T_S4_S3_12__false_type:
 7830              	LM372:
 7831 0000 55       		pushl	%ebp
 7832 0001 89E5     		movl	%esp, %ebp
 7833 0003 83EC18   		subl	$24, %esp
 7835              	LM373:
 7836 0006 8D4508   		leal	8(%ebp), %eax
 7837              	LBB107:
 7838 0009 890424   		movl	%eax, (%esp)
 7839 000c E8000000 		call	__ZSt19__iterator_categoryIPN10ThreadPool10ThreadDataEENSt15iterator_traitsIT_E17iterator_cat
 7839      00
 7840 0011 8845FF   		movb	%al, -1(%ebp)
 7841 0014 C644240C 		movb	$0, 12(%esp)
 7841      00
 7842 0019 8B4510   		movl	16(%ebp), %eax
 7843 001c 89442408 		movl	%eax, 8(%esp)
 7844 0020 8B450C   		movl	12(%ebp), %eax
 7845 0023 89442404 		movl	%eax, 4(%esp)
 7846 0027 8B4508   		movl	8(%ebp), %eax
 7847 002a 890424   		movl	%eax, (%esp)
 7848 002d E8000000 		call	__ZSt6__copyIPN10ThreadPool10ThreadDataES2_ET0_T_S4_S3_St26random_access_iterator_tag
 7848      00
 7849 0032 C9       		leave
 7850 0033 C3       		ret
 7851              	LBE107:
 7852              	Lscope88:
 7854              		.section	.text$_ZSt6__copyIPN10ThreadPool10ThreadDataES2_ET0_T_S4_S3_St26random_access_iterator_ta
 7855              		.linkonce discard
 7856              		.align 2
 7861              	.globl __ZSt6__copyIPN10ThreadPool10ThreadDataES2_ET0_T_S4_S3_St26random_access_iterator_tag
GAS LISTING d:/software/ovi_2503a_s3trc/ovi_2503a_s3trc/plutommi/Customer/ResGenerator/gcctmp/cci0baaa.s 			page 166


 7863              	__ZSt6__copyIPN10ThreadPool10ThreadDataES2_ET0_T_S4_S3_St26random_access_iterator_tag:
 7865              	LM374:
 7866 0000 55       		pushl	%ebp
 7867 0001 89E5     		movl	%esp, %ebp
 7868 0003 83EC04   		subl	$4, %esp
 7870              	LM375:
 7871              	LBB108:
 7872              	LBB109:
 7873 0006 8B5508   		movl	8(%ebp), %edx
 7874 0009 8B450C   		movl	12(%ebp), %eax
 7875 000c 29D0     		subl	%edx, %eax
 7876 000e C1F802   		sarl	$2, %eax
 7877 0011 69C0ABAA 		imull	$-1431655765, %eax, %eax
 7877      AAAA
 7878 0017 8945FC   		movl	%eax, -4(%ebp)
 7879              	L304:
 7880 001a 837DFC00 		cmpl	$0, -4(%ebp)
 7881 001e 7F02     		jg	L307
 7882 0020 EB27     		jmp	L305
 7883              	L307:
 7885              	LM376:
 7886 0022 8B4D10   		movl	16(%ebp), %ecx
 7887 0025 8B5508   		movl	8(%ebp), %edx
 7888 0028 8B02     		movl	(%edx), %eax
 7889 002a 8901     		movl	%eax, (%ecx)
 7890 002c 8B4204   		movl	4(%edx), %eax
 7891 002f 894104   		movl	%eax, 4(%ecx)
 7892 0032 8B4208   		movl	8(%edx), %eax
 7893 0035 894108   		movl	%eax, 8(%ecx)
 7895              	LM377:
 7896 0038 8345080C 		addl	$12, 8(%ebp)
 7898              	LM378:
 7899 003c 8D4510   		leal	16(%ebp), %eax
 7900 003f 83000C   		addl	$12, (%eax)
 7902              	LM379:
 7903 0042 8D45FC   		leal	-4(%ebp), %eax
 7904 0045 FF08     		decl	(%eax)
 7905 0047 EBD1     		jmp	L304
 7906              	L305:
 7908              	LM380:
 7909              	LBE109:
 7910 0049 8B4510   		movl	16(%ebp), %eax
 7911 004c C9       		leave
 7912 004d C3       		ret
 7913              	LBE108:
 7917              	Lscope89:
 7919 004e 9090     		.section	.text$_ZSt13__destroy_auxIN9__gnu_cxx17__normal_iteratorIPN10ThreadPool10ThreadDataESt6ve
 7920              		.linkonce discard
 7921              		.align 2
 7925              	.globl __ZSt13__destroy_auxIN9__gnu_cxx17__normal_iteratorIPN10ThreadPool10ThreadDataESt6vectorIS3_
 7927              	__ZSt13__destroy_auxIN9__gnu_cxx17__normal_iteratorIPN10ThreadPool10ThreadDataESt6vectorIS3_SaIS3_E
 7929              	Ltext44:
 7931              	LM381:
 7932 0000 55       		pushl	%ebp
 7933 0001 89E5     		movl	%esp, %ebp
 7934 0003 83EC08   		subl	$8, %esp
 7936              	LM382:
GAS LISTING d:/software/ovi_2503a_s3trc/ovi_2503a_s3trc/plutommi/Customer/ResGenerator/gcctmp/cci0baaa.s 			page 167


 7937              	LBB110:
 7938 0006 90       		nop
 7939              	L309:
 7940 0007 8D450C   		leal	12(%ebp), %eax
 7941 000a 89442404 		movl	%eax, 4(%esp)
 7942 000e 8D4508   		leal	8(%ebp), %eax
 7943 0011 890424   		movl	%eax, (%esp)
 7944 0014 E8000000 		call	__ZN9__gnu_cxxneIPN10ThreadPool10ThreadDataESt6vectorIS2_SaIS2_EEEEbRKNS_17__normal_iteratorI
 7944      00
 7945 0019 84C0     		testb	%al, %al
 7946 001b 7502     		jne	L312
 7947 001d EB20     		jmp	L308
 7948              	L312:
 7949 001f 8D4508   		leal	8(%ebp), %eax
 7950 0022 890424   		movl	%eax, (%esp)
 7951 0025 E8000000 		call	__ZNK9__gnu_cxx17__normal_iteratorIPN10ThreadPool10ThreadDataESt6vectorIS2_SaIS2_EEEdeEv
 7951      00
 7952 002a 890424   		movl	%eax, (%esp)
 7953 002d E8000000 		call	__ZSt8_DestroyIN10ThreadPool10ThreadDataEEvPT_
 7953      00
 7954 0032 8D4508   		leal	8(%ebp), %eax
 7955 0035 890424   		movl	%eax, (%esp)
 7956 0038 E8000000 		call	__ZN9__gnu_cxx17__normal_iteratorIPN10ThreadPool10ThreadDataESt6vectorIS2_SaIS2_EEEppEv
 7956      00
 7957 003d EBC8     		jmp	L309
 7958              	L308:
 7959 003f C9       		leave
 7960 0040 C3       		ret
 7961              	LBE110:
 7962              	Lscope90:
 7964 0041 909090   		.section	.text$_ZSt8_DestroyIN10ThreadPool10ThreadDataEEvPT_,"x"
 7965              		.linkonce discard
 7966              		.align 2
 7969              	.globl __ZSt8_DestroyIN10ThreadPool10ThreadDataEEvPT_
 7971              	__ZSt8_DestroyIN10ThreadPool10ThreadDataEEvPT_:
 7973              	LM383:
 7974 0000 55       		pushl	%ebp
 7975 0001 89E5     		movl	%esp, %ebp
 7977              	LM384:
 7978 0003 5D       		popl	%ebp
 7979 0004 C3       		ret
 7980              	Lscope91:
 7982 0005 909090   		.section	.text$_ZN9__gnu_cxxmiIPN10ThreadPool10ThreadDataES3_St6vectorIS2_SaIS2_EEEENS_17__normal_
 7983              		.linkonce discard
 7984              		.align 2
 7988              	.globl __ZN9__gnu_cxxmiIPN10ThreadPool10ThreadDataES3_St6vectorIS2_SaIS2_EEEENS_17__normal_iterator
 7990              	__ZN9__gnu_cxxmiIPN10ThreadPool10ThreadDataES3_St6vectorIS2_SaIS2_EEEENS_17__normal_iteratorIT_T1_E
 7992              	Ltext45:
 7994              	LM385:
 7995 0000 55       		pushl	%ebp
 7996 0001 89E5     		movl	%esp, %ebp
 7997 0003 53       		pushl	%ebx
 7998 0004 83EC04   		subl	$4, %esp
 8000              	LM386:
 8001              	LBB111:
 8002 0007 8B4508   		movl	8(%ebp), %eax
 8003 000a 890424   		movl	%eax, (%esp)
GAS LISTING d:/software/ovi_2503a_s3trc/ovi_2503a_s3trc/plutommi/Customer/ResGenerator/gcctmp/cci0baaa.s 			page 168


 8004 000d E8000000 		call	__ZNK9__gnu_cxx17__normal_iteratorIPN10ThreadPool10ThreadDataESt6vectorIS2_SaIS2_EEE4baseEv
 8004      00
 8005 0012 89C3     		movl	%eax, %ebx
 8006 0014 8B450C   		movl	12(%ebp), %eax
 8007 0017 890424   		movl	%eax, (%esp)
 8008 001a E8000000 		call	__ZNK9__gnu_cxx17__normal_iteratorIPN10ThreadPool10ThreadDataESt6vectorIS2_SaIS2_EEE4baseEv
 8008      00
 8009 001f 8B10     		movl	(%eax), %edx
 8010 0021 8B03     		movl	(%ebx), %eax
 8011 0023 29D0     		subl	%edx, %eax
 8012 0025 C1F802   		sarl	$2, %eax
 8013 0028 69C0ABAA 		imull	$-1431655765, %eax, %eax
 8013      AAAA
 8014 002e 83C404   		addl	$4, %esp
 8015 0031 5B       		popl	%ebx
 8016 0032 5D       		popl	%ebp
 8017 0033 C3       		ret
 8018              	LBE111:
 8019              	Lscope92:
 8021              		.section	.text$_ZNSt4listIN10ThreadPool7JobDataESaIS1_EE14_M_create_nodeERKS1_,"x"
 8022              		.linkonce discard
 8023              		.align 2
 8027              	.globl __ZNSt4listIN10ThreadPool7JobDataESaIS1_EE14_M_create_nodeERKS1_
 8029              	__ZNSt4listIN10ThreadPool7JobDataESaIS1_EE14_M_create_nodeERKS1_:
 8031              	Ltext46:
 8033              	LM387:
 8034 0000 55       		pushl	%ebp
 8035 0001 89E5     		movl	%esp, %ebp
 8036 0003 83EC18   		subl	$24, %esp
 8038              	LM388:
 8039              	LBB112:
 8040 0006 8B4508   		movl	8(%ebp), %eax
 8041 0009 890424   		movl	%eax, (%esp)
 8042 000c E8000000 		call	__ZNSt16_List_alloc_baseIN10ThreadPool7JobDataESaIS1_ELb1EE11_M_get_nodeEv
 8042      00
 8043 0011 8945FC   		movl	%eax, -4(%ebp)
 8045              	LM389:
 8046 0014 8B450C   		movl	12(%ebp), %eax
 8047 0017 89442404 		movl	%eax, 4(%esp)
 8048 001b 8B45FC   		movl	-4(%ebp), %eax
 8049 001e 83C008   		addl	$8, %eax
 8050 0021 890424   		movl	%eax, (%esp)
 8051 0024 E8000000 		call	__ZSt10_ConstructIN10ThreadPool7JobDataES1_EvPT_RKT0_
 8051      00
 8052              	L317:
 8053              	L318:
 8054              	L320:
 8056              	LM390:
 8057 0029 8B45FC   		movl	-4(%ebp), %eax
 8058              	L315:
 8059 002c C9       		leave
 8060 002d C3       		ret
 8061              	LBE112:
 8065              	Lscope93:
 8067 002e 9090     		.section	.text$_ZSt10_ConstructIN10ThreadPool7JobDataES1_EvPT_RKT0_,"x"
 8068              		.linkonce discard
 8069              		.align 2
GAS LISTING d:/software/ovi_2503a_s3trc/ovi_2503a_s3trc/plutommi/Customer/ResGenerator/gcctmp/cci0baaa.s 			page 169


 8073              	.globl __ZSt10_ConstructIN10ThreadPool7JobDataES1_EvPT_RKT0_
 8075              	__ZSt10_ConstructIN10ThreadPool7JobDataES1_EvPT_RKT0_:
 8077              	Ltext47:
 8079              	LM391:
 8080 0000 55       		pushl	%ebp
 8081 0001 89E5     		movl	%esp, %ebp
 8082 0003 83EC18   		subl	$24, %esp
 8084              	LM392:
 8085              	LBB113:
 8086 0006 8B4508   		movl	8(%ebp), %eax
 8087 0009 89442404 		movl	%eax, 4(%esp)
 8088 000d C704240C 		movl	$12, (%esp)
 8088      000000
 8089 0014 E8000000 		call	__ZnwjPv
 8089      00
 8090 0019 8945FC   		movl	%eax, -4(%ebp)
 8091 001c 837DFC00 		cmpl	$0, -4(%ebp)
 8092 0020 741C     		je	L322
 8093 0022 8B550C   		movl	12(%ebp), %edx
 8094 0025 8B02     		movl	(%edx), %eax
 8095 0027 8B4DFC   		movl	-4(%ebp), %ecx
 8096 002a 8901     		movl	%eax, (%ecx)
 8097 002c 8B4204   		movl	4(%edx), %eax
 8098 002f 8B4DFC   		movl	-4(%ebp), %ecx
 8099 0032 894104   		movl	%eax, 4(%ecx)
 8100 0035 8B4208   		movl	8(%edx), %eax
 8101 0038 8B55FC   		movl	-4(%ebp), %edx
 8102 003b 894208   		movl	%eax, 8(%edx)
 8103              	L325:
 8104              	L322:
 8105 003e C9       		leave
 8106 003f C3       		ret
 8107              	LBE113:
 8108              	Lscope94:
 8110              		.section	.text$_ZSt24__uninitialized_copy_auxIN9__gnu_cxx17__normal_iteratorIPN10ThreadPool10Threa
 8111              		.linkonce discard
 8112              		.align 2
 8117              	.globl __ZSt24__uninitialized_copy_auxIN9__gnu_cxx17__normal_iteratorIPN10ThreadPool10ThreadDataESt
 8119              	__ZSt24__uninitialized_copy_auxIN9__gnu_cxx17__normal_iteratorIPN10ThreadPool10ThreadDataESt6vector
 8121              	Ltext48:
 8123              	LM393:
 8124 0000 55       		pushl	%ebp
 8125 0001 89E5     		movl	%esp, %ebp
 8126 0003 53       		pushl	%ebx
 8127 0004 83EC14   		subl	$20, %esp
 8129              	LM394:
 8130              	LBB114:
 8131 0007 8B4510   		movl	16(%ebp), %eax
 8132 000a 8945F8   		movl	%eax, -8(%ebp)
 8134              	LM395:
 8135              	L328:
 8136 000d 8D450C   		leal	12(%ebp), %eax
 8137 0010 89442404 		movl	%eax, 4(%esp)
 8138 0014 8D4508   		leal	8(%ebp), %eax
 8139 0017 890424   		movl	%eax, (%esp)
 8140 001a E8000000 		call	__ZN9__gnu_cxxneIPN10ThreadPool10ThreadDataESt6vectorIS2_SaIS2_EEEEbRKNS_17__normal_iteratorI
 8140      00
GAS LISTING d:/software/ovi_2503a_s3trc/ovi_2503a_s3trc/plutommi/Customer/ResGenerator/gcctmp/cci0baaa.s 			page 170


 8141 001f 84C0     		testb	%al, %al
 8142 0021 7502     		jne	L331
 8143 0023 EB3C     		jmp	L329
 8144              	L331:
 8146              	LM396:
 8147 0025 8D4508   		leal	8(%ebp), %eax
 8148 0028 890424   		movl	%eax, (%esp)
 8149 002b E8000000 		call	__ZNK9__gnu_cxx17__normal_iteratorIPN10ThreadPool10ThreadDataESt6vectorIS2_SaIS2_EEEdeEv
 8149      00
 8150 0030 89C3     		movl	%eax, %ebx
 8151 0032 8D45F8   		leal	-8(%ebp), %eax
 8152 0035 890424   		movl	%eax, (%esp)
 8153 0038 E8000000 		call	__ZNK9__gnu_cxx17__normal_iteratorIPN10ThreadPool10ThreadDataESt6vectorIS2_SaIS2_EEEdeEv
 8153      00
 8154 003d 895C2404 		movl	%ebx, 4(%esp)
 8155 0041 890424   		movl	%eax, (%esp)
 8156 0044 E8000000 		call	__ZSt10_ConstructIN10ThreadPool10ThreadDataES1_EvPT_RKT0_
 8156      00
 8158              	LM397:
 8159 0049 8D4508   		leal	8(%ebp), %eax
 8160 004c 890424   		movl	%eax, (%esp)
 8161 004f E8000000 		call	__ZN9__gnu_cxx17__normal_iteratorIPN10ThreadPool10ThreadDataESt6vectorIS2_SaIS2_EEEppEv
 8161      00
 8162 0054 8D45F8   		leal	-8(%ebp), %eax
 8163 0057 890424   		movl	%eax, (%esp)
 8164 005a E8000000 		call	__ZN9__gnu_cxx17__normal_iteratorIPN10ThreadPool10ThreadDataESt6vectorIS2_SaIS2_EEEppEv
 8164      00
 8165 005f EBAC     		jmp	L328
 8166              	L329:
 8168              	LM398:
 8169 0061 8B45F8   		movl	-8(%ebp), %eax
 8170              	L333:
 8172              	LM399:
 8173              	L334:
 8174              	L336:
 8175              	L327:
 8176 0064 83C414   		addl	$20, %esp
 8177 0067 5B       		popl	%ebx
 8178 0068 5D       		popl	%ebp
 8179 0069 C3       		ret
 8180              	LBE114:
 8184              	Lscope95:
 8186 006a 9090     		.section	.text$_ZNSt8iteratorISt26random_access_iterator_tagN10ThreadPool10ThreadDataEiPKS2_RS3_EC
 8187              		.linkonce discard
 8188              		.align 2
 8191              	.globl __ZNSt8iteratorISt26random_access_iterator_tagN10ThreadPool10ThreadDataEiPKS2_RS3_EC2Ev
 8193              	__ZNSt8iteratorISt26random_access_iterator_tagN10ThreadPool10ThreadDataEiPKS2_RS3_EC2Ev:
 8195              	Ltext49:
 8197              	LM400:
 8198              	L339:
 8199              	L338:
 8200 0000 55       		pushl	%ebp
 8201 0001 89E5     		movl	%esp, %ebp
 8203              	LM401:
 8204 0003 5D       		popl	%ebp
 8205 0004 C3       		ret
 8206              	Lscope96:
GAS LISTING d:/software/ovi_2503a_s3trc/ovi_2503a_s3trc/plutommi/Customer/ResGenerator/gcctmp/cci0baaa.s 			page 171


 8210 0005 909090   		.text
 8212              	Letext:
GAS LISTING d:/software/ovi_2503a_s3trc/ovi_2503a_s3trc/plutommi/Customer/ResGenerator/gcctmp/cci0baaa.s 			page 172


DEFINED SYMBOLS
                            *ABS*:00000000 ThreadPool.cpp
d:/software/ovi_2503a_s3trc/ovi_2503a_s3trc/plutommi/Customer/ResGenerator/gcctmp/cci0baaa.s:2863   .text:0000005c __ZN10ThreadPoolC2Eii
d:/software/ovi_2503a_s3trc/ovi_2503a_s3trc/plutommi/Customer/ResGenerator/gcctmp/cci0baaa.s:5550   .rdata$_ZTV10ThreadPool:00000000 __ZTV10ThreadPool
d:/software/ovi_2503a_s3trc/ovi_2503a_s3trc/plutommi/Customer/ResGenerator/gcctmp/cci0baaa.s:3058   .text:00000266 __ZN10ThreadPoolC1Eii
d:/software/ovi_2503a_s3trc/ovi_2503a_s3trc/plutommi/Customer/ResGenerator/gcctmp/cci0baaa.s:3281   .text:00000470 __ZN10ThreadPoolD2Ev
d:/software/ovi_2503a_s3trc/ovi_2503a_s3trc/plutommi/Customer/ResGenerator/gcctmp/cci0baaa.s:3409   .text:00000590 __ZN10ThreadPoolD1Ev
d:/software/ovi_2503a_s3trc/ovi_2503a_s3trc/plutommi/Customer/ResGenerator/gcctmp/cci0baaa.s:3535   .text:000006b0 __ZN10ThreadPoolD0Ev
d:/software/ovi_2503a_s3trc/ovi_2503a_s3trc/plutommi/Customer/ResGenerator/gcctmp/cci0baaa.s:4397   .text:00001002 __ZN10ThreadPool13GetWaitHandleEm
d:/software/ovi_2503a_s3trc/ovi_2503a_s3trc/plutommi/Customer/ResGenerator/gcctmp/cci0baaa.s:4495   .text:000010c0 __ZN10ThreadPool10ThreadProcEPv@4
d:/software/ovi_2503a_s3trc/ovi_2503a_s3trc/plutommi/Customer/ResGenerator/gcctmp/cci0baaa.s:7041   .rdata$_ZTI10ThreadPool:00000000 __ZTI10ThreadPool
d:/software/ovi_2503a_s3trc/ovi_2503a_s3trc/plutommi/Customer/ResGenerator/gcctmp/cci0baaa.s:7047   .rdata$_ZTS10ThreadPool:00000000 __ZTS10ThreadPool
d:/software/ovi_2503a_s3trc/ovi_2503a_s3trc/plutommi/Customer/ResGenerator/gcctmp/cci0baaa.s:8119   .text$_ZSt24__uninitialized_copy_auxIN9__gnu_cxx17__normal_iteratorIPN10ThreadPool10ThreadDataESt6vectorIS3_SaIS3_EEEES8_ET0_T_SA_S9_12__false_type:00000000 __ZSt24__uninitialized_copy_auxIN9__gnu_cxx17__normal_iteratorIPN10ThreadPool10ThreadDataESt6vectorIS3_SaIS3_EEEES8_ET0_T_SA_S9_12__false_type
d:/software/ovi_2503a_s3trc/ovi_2503a_s3trc/plutommi/Customer/ResGenerator/gcctmp/cci0baaa.s:6973   .text$_ZSt13__destroy_auxIPN10ThreadPool10ThreadDataEEvT_S3_12__false_type:00000000 __ZSt13__destroy_auxIPN10ThreadPool10ThreadDataEEvT_S3_12__false_type
d:/software/ovi_2503a_s3trc/ovi_2503a_s3trc/plutommi/Customer/ResGenerator/gcctmp/cci0baaa.s:6898   .text$_ZNSt4listIN10ThreadPool7JobDataESaIS1_EE5eraseESt14_List_iteratorIS1_RS1_PS1_E:00000000 __ZNSt4listIN10ThreadPool7JobDataESaIS1_EE5eraseESt14_List_iteratorIS1_RS1_PS1_E
d:/software/ovi_2503a_s3trc/ovi_2503a_s3trc/plutommi/Customer/ResGenerator/gcctmp/cci0baaa.s:8075   .text$_ZSt10_ConstructIN10ThreadPool7JobDataES1_EvPT_RKT0_:00000000 __ZSt10_ConstructIN10ThreadPool7JobDataES1_EvPT_RKT0_
d:/software/ovi_2503a_s3trc/ovi_2503a_s3trc/plutommi/Customer/ResGenerator/gcctmp/cci0baaa.s:8029   .text$_ZNSt4listIN10ThreadPool7JobDataESaIS1_EE14_M_create_nodeERKS1_:00000000 __ZNSt4listIN10ThreadPool7JobDataESaIS1_EE14_M_create_nodeERKS1_
d:/software/ovi_2503a_s3trc/ovi_2503a_s3trc/plutommi/Customer/ResGenerator/gcctmp/cci0baaa.s:6828   .text$_ZNSt4listIN10ThreadPool7JobDataESaIS1_EE6insertESt14_List_iteratorIS1_RS1_PS1_ERKS1_:00000000 __ZNSt4listIN10ThreadPool7JobDataESaIS1_EE6insertESt14_List_iteratorIS1_RS1_PS1_ERKS1_
d:/software/ovi_2503a_s3trc/ovi_2503a_s3trc/plutommi/Customer/ResGenerator/gcctmp/cci0baaa.s:7990   .text$_ZN9__gnu_cxxmiIPN10ThreadPool10ThreadDataES3_St6vectorIS2_SaIS2_EEEENS_17__normal_iteratorIT_T1_E15difference_typeERKSA_RKNS7_IT0_S9_EE:00000000 __ZN9__gnu_cxxmiIPN10ThreadPool10ThreadDataES3_St6vectorIS2_SaIS2_EEEENS_17__normal_iteratorIT_T1_E15difference_typeERKSA_RKNS7_IT0_S9_EE
d:/software/ovi_2503a_s3trc/ovi_2503a_s3trc/plutommi/Customer/ResGenerator/gcctmp/cci0baaa.s:7971   .text$_ZSt8_DestroyIN10ThreadPool10ThreadDataEEvPT_:00000000 __ZSt8_DestroyIN10ThreadPool10ThreadDataEEvPT_
d:/software/ovi_2503a_s3trc/ovi_2503a_s3trc/plutommi/Customer/ResGenerator/gcctmp/cci0baaa.s:7927   .text$_ZSt13__destroy_auxIN9__gnu_cxx17__normal_iteratorIPN10ThreadPool10ThreadDataESt6vectorIS3_SaIS3_EEEEEvT_S9_12__false_type:00000000 __ZSt13__destroy_auxIN9__gnu_cxx17__normal_iteratorIPN10ThreadPool10ThreadDataESt6vectorIS3_SaIS3_EEEEEvT_S9_12__false_type
d:/software/ovi_2503a_s3trc/ovi_2503a_s3trc/plutommi/Customer/ResGenerator/gcctmp/cci0baaa.s:7863   .text$_ZSt6__copyIPN10ThreadPool10ThreadDataES2_ET0_T_S4_S3_St26random_access_iterator_tag:00000000 __ZSt6__copyIPN10ThreadPool10ThreadDataES2_ET0_T_S4_S3_St26random_access_iterator_tag
d:/software/ovi_2503a_s3trc/ovi_2503a_s3trc/plutommi/Customer/ResGenerator/gcctmp/cci0baaa.s:7828   .text$_ZSt11__copy_aux2IPN10ThreadPool10ThreadDataES2_ET0_T_S4_S3_12__false_type:00000000 __ZSt11__copy_aux2IPN10ThreadPool10ThreadDataES2_ET0_T_S4_S3_12__false_type
d:/software/ovi_2503a_s3trc/ovi_2503a_s3trc/plutommi/Customer/ResGenerator/gcctmp/cci0baaa.s:7787   .text$_ZSt10__copy_ni2IPN10ThreadPool10ThreadDataEN9__gnu_cxx17__normal_iteratorIS2_St6vectorIS1_SaIS1_EEEEET0_T_SA_S9_11__true_type:00000000 __ZSt10__copy_ni2IPN10ThreadPool10ThreadDataEN9__gnu_cxx17__normal_iteratorIS2_St6vectorIS1_SaIS1_EEEEET0_T_SA_S9_11__true_type
d:/software/ovi_2503a_s3trc/ovi_2503a_s3trc/plutommi/Customer/ResGenerator/gcctmp/cci0baaa.s:7743   .text$_ZSt10__copy_ni1IN9__gnu_cxx17__normal_iteratorIPN10ThreadPool10ThreadDataESt6vectorIS3_SaIS3_EEEES8_ET0_T_SA_S9_11__true_type:00000000 __ZSt10__copy_ni1IN9__gnu_cxx17__normal_iteratorIPN10ThreadPool10ThreadDataESt6vectorIS3_SaIS3_EEEES8_ET0_T_SA_S9_11__true_type
d:/software/ovi_2503a_s3trc/ovi_2503a_s3trc/plutommi/Customer/ResGenerator/gcctmp/cci0baaa.s:7708   .text$_ZSt4copyIN9__gnu_cxx17__normal_iteratorIPN10ThreadPool10ThreadDataESt6vectorIS3_SaIS3_EEEES8_ET0_T_SA_S9_:00000000 __ZSt4copyIN9__gnu_cxx17__normal_iteratorIPN10ThreadPool10ThreadDataESt6vectorIS3_SaIS3_EEEES8_ET0_T_SA_S9_
d:/software/ovi_2503a_s3trc/ovi_2503a_s3trc/plutommi/Customer/ResGenerator/gcctmp/cci0baaa.s:6752   .text$_ZNSt6vectorIN10ThreadPool10ThreadDataESaIS1_EE5eraseEN9__gnu_cxx17__normal_iteratorIPS1_S3_EES7_:00000000 __ZNSt6vectorIN10ThreadPool10ThreadDataESaIS1_EE5eraseEN9__gnu_cxx17__normal_iteratorIPS1_S3_EES7_
d:/software/ovi_2503a_s3trc/ovi_2503a_s3trc/plutommi/Customer/ResGenerator/gcctmp/cci0baaa.s:6697   .text$_ZNKSt14_List_iteratorIN10ThreadPool7JobDataERS1_PS1_EdeEv:00000000 __ZNKSt14_List_iteratorIN10ThreadPool7JobDataERS1_PS1_EdeEv
d:/software/ovi_2503a_s3trc/ovi_2503a_s3trc/plutommi/Customer/ResGenerator/gcctmp/cci0baaa.s:5563   .text$_ZNSt19_List_iterator_base7_M_incrEv:00000000 __ZNSt19_List_iterator_base7_M_incrEv
d:/software/ovi_2503a_s3trc/ovi_2503a_s3trc/plutommi/Customer/ResGenerator/gcctmp/cci0baaa.s:7082   .text$_ZNSt19_List_iterator_baseC2EPSt15_List_node_base:00000000 __ZNSt19_List_iterator_baseC2EPSt15_List_node_base
d:/software/ovi_2503a_s3trc/ovi_2503a_s3trc/plutommi/Customer/ResGenerator/gcctmp/cci0baaa.s:6669   .text$_ZNSt14_List_iteratorIN10ThreadPool7JobDataERS1_PS1_EC1EPSt10_List_nodeIS1_E:00000000 __ZNSt14_List_iteratorIN10ThreadPool7JobDataERS1_PS1_EC1EPSt10_List_nodeIS1_E
d:/software/ovi_2503a_s3trc/ovi_2503a_s3trc/plutommi/Customer/ResGenerator/gcctmp/cci0baaa.s:6721   .text$_ZSt8_DestroyIN9__gnu_cxx17__normal_iteratorIPN10ThreadPool10ThreadDataESt6vectorIS3_SaIS3_EEEEEvT_S9_:00000000 __ZSt8_DestroyIN9__gnu_cxx17__normal_iteratorIPN10ThreadPool10ThreadDataESt6vectorIS3_SaIS3_EEEEEvT_S9_
d:/software/ovi_2503a_s3trc/ovi_2503a_s3trc/plutommi/Customer/ResGenerator/gcctmp/cci0baaa.s:7011   .text$_ZSt18uninitialized_copyIN9__gnu_cxx17__normal_iteratorIPN10ThreadPool10ThreadDataESt6vectorIS3_SaIS3_EEEES8_ET0_T_SA_S9_:00000000 __ZSt18uninitialized_copyIN9__gnu_cxx17__normal_iteratorIPN10ThreadPool10ThreadDataESt6vectorIS3_SaIS3_EEEES8_ET0_T_SA_S9_
d:/software/ovi_2503a_s3trc/ovi_2503a_s3trc/plutommi/Customer/ResGenerator/gcctmp/cci0baaa.s:7661   .text$_ZNSt14__simple_allocIN10ThreadPool10ThreadDataESt24__default_alloc_templateILb1ELi0EEE8allocateEj:00000000 __ZNSt14__simple_allocIN10ThreadPool10ThreadDataESt24__default_alloc_templateILb1ELi0EEE8allocateEj
d:/software/ovi_2503a_s3trc/ovi_2503a_s3trc/plutommi/Customer/ResGenerator/gcctmp/cci0baaa.s:7635   .text$_ZNSt18_Vector_alloc_baseIN10ThreadPool10ThreadDataESaIS1_ELb1EE11_M_allocateEj:00000000 __ZNSt18_Vector_alloc_baseIN10ThreadPool10ThreadDataESaIS1_ELb1EE11_M_allocateEj
d:/software/ovi_2503a_s3trc/ovi_2503a_s3trc/plutommi/Customer/ResGenerator/gcctmp/cci0baaa.s:7610   .text$_ZNK9__gnu_cxx17__normal_iteratorIPN10ThreadPool10ThreadDataESt6vectorIS2_SaIS2_EEEdeEv:00000000 __ZNK9__gnu_cxx17__normal_iteratorIPN10ThreadPool10ThreadDataESt6vectorIS2_SaIS2_EEEdeEv
d:/software/ovi_2503a_s3trc/ovi_2503a_s3trc/plutommi/Customer/ResGenerator/gcctmp/cci0baaa.s:7550   .text$_ZSt15__copy_backwardIPN10ThreadPool10ThreadDataES2_ET0_T_S4_S3_St26random_access_iterator_tag:00000000 __ZSt15__copy_backwardIPN10ThreadPool10ThreadDataES2_ET0_T_S4_S3_St26random_access_iterator_tag
d:/software/ovi_2503a_s3trc/ovi_2503a_s3trc/plutommi/Customer/ResGenerator/gcctmp/cci0baaa.s:7524   .text$_ZSt19__iterator_categoryIPN10ThreadPool10ThreadDataEENSt15iterator_traitsIT_E17iterator_categoryERKS4_:00000000 __ZSt19__iterator_categoryIPN10ThreadPool10ThreadDataEENSt15iterator_traitsIT_E17iterator_categoryERKS4_
d:/software/ovi_2503a_s3trc/ovi_2503a_s3trc/plutommi/Customer/ResGenerator/gcctmp/cci0baaa.s:7492   .text$_ZNSt24__copy_backward_dispatchIPN10ThreadPool10ThreadDataES2_12__false_typeE4copyES2_S2_S2_:00000000 __ZNSt24__copy_backward_dispatchIPN10ThreadPool10ThreadDataES2_12__false_typeE4copyES2_S2_S2_
d:/software/ovi_2503a_s3trc/ovi_2503a_s3trc/plutommi/Customer/ResGenerator/gcctmp/cci0baaa.s:7462   .text$_ZSt19__copy_backward_auxIPN10ThreadPool10ThreadDataES2_ET0_T_S4_S3_:00000000 __ZSt19__copy_backward_auxIPN10ThreadPool10ThreadDataES2_ET0_T_S4_S3_
d:/software/ovi_2503a_s3trc/ovi_2503a_s3trc/plutommi/Customer/ResGenerator/gcctmp/cci0baaa.s:7422   .text$_ZSt38__copy_backward_output_normal_iteratorIPN10ThreadPool10ThreadDataEN9__gnu_cxx17__normal_iteratorIS2_St6vectorIS1_SaIS1_EEEEET0_T_SA_S9_11__true_type:00000000 __ZSt38__copy_backward_output_normal_iteratorIPN10ThreadPool10ThreadDataEN9__gnu_cxx17__normal_iteratorIS2_St6vectorIS1_SaIS1_EEEEET0_T_SA_S9_11__true_type
d:/software/ovi_2503a_s3trc/ovi_2503a_s3trc/plutommi/Customer/ResGenerator/gcctmp/cci0baaa.s:6285   .text$_ZNK9__gnu_cxx17__normal_iteratorIPN10ThreadPool10ThreadDataESt6vectorIS2_SaIS2_EEE4baseEv:00000000 __ZNK9__gnu_cxx17__normal_iteratorIPN10ThreadPool10ThreadDataESt6vectorIS2_SaIS2_EEE4baseEv
d:/software/ovi_2503a_s3trc/ovi_2503a_s3trc/plutommi/Customer/ResGenerator/gcctmp/cci0baaa.s:7378   .text$_ZSt37__copy_backward_input_normal_iteratorIN9__gnu_cxx17__normal_iteratorIPN10ThreadPool10ThreadDataESt6vectorIS3_SaIS3_EEEES8_ET0_T_SA_S9_11__true_type:00000000 __ZSt37__copy_backward_input_normal_iteratorIN9__gnu_cxx17__normal_iteratorIPN10ThreadPool10ThreadDataESt6vectorIS3_SaIS3_EEEES8_ET0_T_SA_S9_11__true_type
d:/software/ovi_2503a_s3trc/ovi_2503a_s3trc/plutommi/Customer/ResGenerator/gcctmp/cci0baaa.s:7343   .text$_ZSt13copy_backwardIN9__gnu_cxx17__normal_iteratorIPN10ThreadPool10ThreadDataESt6vectorIS3_SaIS3_EEEES8_ET0_T_SA_S9_:00000000 __ZSt13copy_backwardIN9__gnu_cxx17__normal_iteratorIPN10ThreadPool10ThreadDataESt6vectorIS3_SaIS3_EEEES8_ET0_T_SA_S9_
d:/software/ovi_2503a_s3trc/ovi_2503a_s3trc/plutommi/Customer/ResGenerator/gcctmp/cci0baaa.s:6308   .text$_ZNSt6vectorIN10ThreadPool10ThreadDataESaIS1_EE13_M_insert_auxEN9__gnu_cxx17__normal_iteratorIPS1_S3_EERKS1_:00000000 __ZNSt6vectorIN10ThreadPool10ThreadDataESaIS1_EE13_M_insert_auxEN9__gnu_cxx17__normal_iteratorIPS1_S3_EERKS1_
d:/software/ovi_2503a_s3trc/ovi_2503a_s3trc/plutommi/Customer/ResGenerator/gcctmp/cci0baaa.s:7319   .text$_ZNSt8iteratorISt26random_access_iterator_tagN10ThreadPool10ThreadDataEiPS2_RS2_EC2Ev:00000000 __ZNSt8iteratorISt26random_access_iterator_tagN10ThreadPool10ThreadDataEiPS2_RS2_EC2Ev
d:/software/ovi_2503a_s3trc/ovi_2503a_s3trc/plutommi/Customer/ResGenerator/gcctmp/cci0baaa.s:6255   .text$_ZN9__gnu_cxx17__normal_iteratorIPN10ThreadPool10ThreadDataESt6vectorIS2_SaIS2_EEEC1ERKS3_:00000000 __ZN9__gnu_cxx17__normal_iteratorIPN10ThreadPool10ThreadDataESt6vectorIS2_SaIS2_EEEC1ERKS3_
d:/software/ovi_2503a_s3trc/ovi_2503a_s3trc/plutommi/Customer/ResGenerator/gcctmp/cci0baaa.s:7056   .text$_ZnwjPv:00000000 __ZnwjPv
d:/software/ovi_2503a_s3trc/ovi_2503a_s3trc/plutommi/Customer/ResGenerator/gcctmp/cci0baaa.s:6212   .text$_ZSt10_ConstructIN10ThreadPool10ThreadDataES1_EvPT_RKT0_:00000000 __ZSt10_ConstructIN10ThreadPool10ThreadDataES1_EvPT_RKT0_
d:/software/ovi_2503a_s3trc/ovi_2503a_s3trc/plutommi/Customer/ResGenerator/gcctmp/cci0baaa.s:5522   .text$_ZSt8_DestroyIPN10ThreadPool10ThreadDataEEvT_S3_:00000000 __ZSt8_DestroyIPN10ThreadPool10ThreadDataEEvT_S3_
d:/software/ovi_2503a_s3trc/ovi_2503a_s3trc/plutommi/Customer/ResGenerator/gcctmp/cci0baaa.s:6176   .text$_ZNSt14__simple_allocIN10ThreadPool10ThreadDataESt24__default_alloc_templateILb1ELi0EEE10deallocateEPS1_j:00000000 __ZNSt14__simple_allocIN10ThreadPool10ThreadDataESt24__default_alloc_templateILb1ELi0EEE10deallocateEPS1_j
d:/software/ovi_2503a_s3trc/ovi_2503a_s3trc/plutommi/Customer/ResGenerator/gcctmp/cci0baaa.s:6149   .text$_ZNSt18_Vector_alloc_baseIN10ThreadPool10ThreadDataESaIS1_ELb1EE13_M_deallocateEPS1_j:00000000 __ZNSt18_Vector_alloc_baseIN10ThreadPool10ThreadDataESaIS1_ELb1EE13_M_deallocateEPS1_j
d:/software/ovi_2503a_s3trc/ovi_2503a_s3trc/plutommi/Customer/ResGenerator/gcctmp/cci0baaa.s:6112   .text$_ZNSt12_Vector_baseIN10ThreadPool10ThreadDataESaIS1_EED2Ev:00000000 __ZNSt12_Vector_baseIN10ThreadPool10ThreadDataESaIS1_EED2Ev
d:/software/ovi_2503a_s3trc/ovi_2503a_s3trc/plutommi/Customer/ResGenerator/gcctmp/cci0baaa.s:6086   .text$_ZNSt18_Vector_alloc_baseIN10ThreadPool10ThreadDataESaIS1_ELb1EEC2ERKS2_:00000000 __ZNSt18_Vector_alloc_baseIN10ThreadPool10ThreadDataESaIS1_ELb1EEC2ERKS2_
d:/software/ovi_2503a_s3trc/ovi_2503a_s3trc/plutommi/Customer/ResGenerator/gcctmp/cci0baaa.s:6058   .text$_ZNSt12_Vector_baseIN10ThreadPool10ThreadDataESaIS1_EEC2ERKS2_:00000000 __ZNSt12_Vector_baseIN10ThreadPool10ThreadDataESaIS1_EEC2ERKS2_
d:/software/ovi_2503a_s3trc/ovi_2503a_s3trc/plutommi/Customer/ResGenerator/gcctmp/cci0baaa.s:5482   .text$_ZNSt4listIN10ThreadPool7JobDataESaIS1_EE9pop_frontEv:00000000 __ZNSt4listIN10ThreadPool7JobDataESaIS1_EE9pop_frontEv
d:/software/ovi_2503a_s3trc/ovi_2503a_s3trc/plutommi/Customer/ResGenerator/gcctmp/cci0baaa.s:5591   .text$_ZNKSt19_List_iterator_baseeqERKS_:00000000 __ZNKSt19_List_iterator_baseeqERKS_
GAS LISTING d:/software/ovi_2503a_s3trc/ovi_2503a_s3trc/plutommi/Customer/ResGenerator/gcctmp/cci0baaa.s 			page 173


d:/software/ovi_2503a_s3trc/ovi_2503a_s3trc/plutommi/Customer/ResGenerator/gcctmp/cci0baaa.s:5644   .text$_ZN10ThreadPool15CheckThreadStopEv:00000000 __ZN10ThreadPool15CheckThreadStopEv
d:/software/ovi_2503a_s3trc/ovi_2503a_s3trc/plutommi/Customer/ResGenerator/gcctmp/cci0baaa.s:5443   .text$_ZNSt4listIN10ThreadPool7JobDataESaIS1_EE10push_frontERKS1_:00000000 __ZNSt4listIN10ThreadPool7JobDataESaIS1_EE10push_frontERKS1_
d:/software/ovi_2503a_s3trc/ovi_2503a_s3trc/plutommi/Customer/ResGenerator/gcctmp/cci0baaa.s:5401   .text$_ZNSt4listIN10ThreadPool7JobDataESaIS1_EE9push_backERKS1_:00000000 __ZNSt4listIN10ThreadPool7JobDataESaIS1_EE9push_backERKS1_
d:/software/ovi_2503a_s3trc/ovi_2503a_s3trc/plutommi/Customer/ResGenerator/gcctmp/cci0baaa.s:5362   .text$_ZNSt6vectorIN10ThreadPool10ThreadDataESaIS1_EE5clearEv:00000000 __ZNSt6vectorIN10ThreadPool10ThreadDataESaIS1_EE5clearEv
d:/software/ovi_2503a_s3trc/ovi_2503a_s3trc/plutommi/Customer/ResGenerator/gcctmp/cci0baaa.s:5330   .text$_ZNSt4listIN10ThreadPool7JobDataESaIS1_EE5clearEv:00000000 __ZNSt4listIN10ThreadPool7JobDataESaIS1_EE5clearEv
d:/software/ovi_2503a_s3trc/ovi_2503a_s3trc/plutommi/Customer/ResGenerator/gcctmp/cci0baaa.s:5306   .text$_ZNKSt14_List_iteratorIN10ThreadPool7JobDataERS1_PS1_EptEv:00000000 __ZNKSt14_List_iteratorIN10ThreadPool7JobDataERS1_PS1_EptEv
d:/software/ovi_2503a_s3trc/ovi_2503a_s3trc/plutommi/Customer/ResGenerator/gcctmp/cci0baaa.s:5266   .text$_ZNSt14_List_iteratorIN10ThreadPool7JobDataERS1_PS1_EppEi:00000000 __ZNSt14_List_iteratorIN10ThreadPool7JobDataERS1_PS1_EppEi
d:/software/ovi_2503a_s3trc/ovi_2503a_s3trc/plutommi/Customer/ResGenerator/gcctmp/cci0baaa.s:5618   .text$_ZNKSt19_List_iterator_baseneERKS_:00000000 __ZNKSt19_List_iterator_baseneERKS_
d:/software/ovi_2503a_s3trc/ovi_2503a_s3trc/plutommi/Customer/ResGenerator/gcctmp/cci0baaa.s:5235   .text$_ZNSt4listIN10ThreadPool7JobDataESaIS1_EE3endEv:00000000 __ZNSt4listIN10ThreadPool7JobDataESaIS1_EE3endEv
d:/software/ovi_2503a_s3trc/ovi_2503a_s3trc/plutommi/Customer/ResGenerator/gcctmp/cci0baaa.s:6028   .text$_ZNSt14_List_iteratorIN10ThreadPool7JobDataERS1_PS1_EC1ERKS4_:00000000 __ZNSt14_List_iteratorIN10ThreadPool7JobDataERS1_PS1_EC1ERKS4_
d:/software/ovi_2503a_s3trc/ovi_2503a_s3trc/plutommi/Customer/ResGenerator/gcctmp/cci0baaa.s:5201   .text$_ZNSt4listIN10ThreadPool7JobDataESaIS1_EE5beginEv:00000000 __ZNSt4listIN10ThreadPool7JobDataESaIS1_EE5beginEv
d:/software/ovi_2503a_s3trc/ovi_2503a_s3trc/plutommi/Customer/ResGenerator/gcctmp/cci0baaa.s:5179   .text$_ZNK9__gnu_cxx17__normal_iteratorIPN10ThreadPool10ThreadDataESt6vectorIS2_SaIS2_EEEptEv:00000000 __ZNK9__gnu_cxx17__normal_iteratorIPN10ThreadPool10ThreadDataESt6vectorIS2_SaIS2_EEEptEv
d:/software/ovi_2503a_s3trc/ovi_2503a_s3trc/plutommi/Customer/ResGenerator/gcctmp/cci0baaa.s:5156   .text$_ZN9__gnu_cxx17__normal_iteratorIPN10ThreadPool10ThreadDataESt6vectorIS2_SaIS2_EEEppEv:00000000 __ZN9__gnu_cxx17__normal_iteratorIPN10ThreadPool10ThreadDataESt6vectorIS2_SaIS2_EEEppEv
d:/software/ovi_2503a_s3trc/ovi_2503a_s3trc/plutommi/Customer/ResGenerator/gcctmp/cci0baaa.s:5118   .text$_ZN9__gnu_cxxneIPN10ThreadPool10ThreadDataESt6vectorIS2_SaIS2_EEEEbRKNS_17__normal_iteratorIT_T0_EESC_:00000000 __ZN9__gnu_cxxneIPN10ThreadPool10ThreadDataESt6vectorIS2_SaIS2_EEEEbRKNS_17__normal_iteratorIT_T0_EESC_
d:/software/ovi_2503a_s3trc/ovi_2503a_s3trc/plutommi/Customer/ResGenerator/gcctmp/cci0baaa.s:5001   .text$_ZNSt6vectorIN10ThreadPool10ThreadDataESaIS1_EE3endEv:00000000 __ZNSt6vectorIN10ThreadPool10ThreadDataESaIS1_EE3endEv
d:/software/ovi_2503a_s3trc/ovi_2503a_s3trc/plutommi/Customer/ResGenerator/gcctmp/cci0baaa.s:5090   .text$_ZNSt6vectorIN10ThreadPool10ThreadDataESaIS1_EE5beginEv:00000000 __ZNSt6vectorIN10ThreadPool10ThreadDataESaIS1_EE5beginEv
d:/software/ovi_2503a_s3trc/ovi_2503a_s3trc/plutommi/Customer/ResGenerator/gcctmp/cci0baaa.s:4153   .text:00000e02 __ZN10ThreadPool21GetWorkingThreadCountEv
d:/software/ovi_2503a_s3trc/ovi_2503a_s3trc/plutommi/Customer/ResGenerator/gcctmp/cci0baaa.s:5036   .text$_ZNSt6vectorIN10ThreadPool10ThreadDataESaIS1_EE9push_backERKS1_:00000000 __ZNSt6vectorIN10ThreadPool10ThreadDataESaIS1_EE9push_backERKS1_
d:/software/ovi_2503a_s3trc/ovi_2503a_s3trc/plutommi/Customer/ResGenerator/gcctmp/cci0baaa.s:3874   .text:00000b4c __ZN10ThreadPool7DestroyEv
d:/software/ovi_2503a_s3trc/ovi_2503a_s3trc/plutommi/Customer/ResGenerator/gcctmp/cci0baaa.s:5908   .text$_ZNSt14__simple_allocISt10_List_nodeIN10ThreadPool7JobDataEESt24__default_alloc_templateILb1ELi0EEE10deallocateEPS3_j:00000000 __ZNSt14__simple_allocISt10_List_nodeIN10ThreadPool7JobDataEESt24__default_alloc_templateILb1ELi0EEE10deallocateEPS3_j
d:/software/ovi_2503a_s3trc/ovi_2503a_s3trc/plutommi/Customer/ResGenerator/gcctmp/cci0baaa.s:5882   .text$_ZNSt16_List_alloc_baseIN10ThreadPool7JobDataESaIS1_ELb1EE11_M_put_nodeEPSt10_List_nodeIS1_E:00000000 __ZNSt16_List_alloc_baseIN10ThreadPool7JobDataESaIS1_ELb1EE11_M_put_nodeEPSt10_List_nodeIS1_E
d:/software/ovi_2503a_s3trc/ovi_2503a_s3trc/plutommi/Customer/ResGenerator/gcctmp/cci0baaa.s:7299   .text$_ZSt8_DestroyIN10ThreadPool7JobDataEEvPT_:00000000 __ZSt8_DestroyIN10ThreadPool7JobDataEEvPT_
d:/software/ovi_2503a_s3trc/ovi_2503a_s3trc/plutommi/Customer/ResGenerator/gcctmp/cci0baaa.s:5943   .text$_ZNSt10_List_baseIN10ThreadPool7JobDataESaIS1_EE7__clearEv:00000000 __ZNSt10_List_baseIN10ThreadPool7JobDataESaIS1_EE7__clearEv
d:/software/ovi_2503a_s3trc/ovi_2503a_s3trc/plutommi/Customer/ResGenerator/gcctmp/cci0baaa.s:3675   .text:0000088a __ZN10ThreadPool6CreateEi
d:/software/ovi_2503a_s3trc/ovi_2503a_s3trc/plutommi/Customer/ResGenerator/gcctmp/cci0baaa.s:4914   .text$_ZNSt6vectorIN10ThreadPool10ThreadDataESaIS1_EED1Ev:00000000 __ZNSt6vectorIN10ThreadPool10ThreadDataESaIS1_EED1Ev
d:/software/ovi_2503a_s3trc/ovi_2503a_s3trc/plutommi/Customer/ResGenerator/gcctmp/cci0baaa.s:4884   .text$_ZNSt6vectorIN10ThreadPool10ThreadDataESaIS1_EEC1ERKS2_:00000000 __ZNSt6vectorIN10ThreadPool10ThreadDataESaIS1_EEC1ERKS2_
d:/software/ovi_2503a_s3trc/ovi_2503a_s3trc/plutommi/Customer/ResGenerator/gcctmp/cci0baaa.s:4862   .text$_ZNSaIN10ThreadPool10ThreadDataEED1Ev:00000000 __ZNSaIN10ThreadPool10ThreadDataEED1Ev
d:/software/ovi_2503a_s3trc/ovi_2503a_s3trc/plutommi/Customer/ResGenerator/gcctmp/cci0baaa.s:4842   .text$_ZNSaIN10ThreadPool10ThreadDataEEC1Ev:00000000 __ZNSaIN10ThreadPool10ThreadDataEEC1Ev
d:/software/ovi_2503a_s3trc/ovi_2503a_s3trc/plutommi/Customer/ResGenerator/gcctmp/cci0baaa.s:3254   .text$_ZNSt4listIN10ThreadPool7JobDataESaIS1_EED1Ev:00000000 __ZNSt4listIN10ThreadPool7JobDataESaIS1_EED1Ev
d:/software/ovi_2503a_s3trc/ovi_2503a_s3trc/plutommi/Customer/ResGenerator/gcctmp/cci0baaa.s:5847   .text$_ZNSt10_List_baseIN10ThreadPool7JobDataESaIS1_EED2Ev:00000000 __ZNSt10_List_baseIN10ThreadPool7JobDataESaIS1_EED2Ev
d:/software/ovi_2503a_s3trc/ovi_2503a_s3trc/plutommi/Customer/ResGenerator/gcctmp/cci0baaa.s:5802   .text$_ZNSt14__simple_allocISt10_List_nodeIN10ThreadPool7JobDataEESt24__default_alloc_templateILb1ELi0EEE8allocateEj:00000000 __ZNSt14__simple_allocISt10_List_nodeIN10ThreadPool7JobDataEESt24__default_alloc_templateILb1ELi0EEE8allocateEj
d:/software/ovi_2503a_s3trc/ovi_2503a_s3trc/plutommi/Customer/ResGenerator/gcctmp/cci0baaa.s:5779   .text$_ZNSt16_List_alloc_baseIN10ThreadPool7JobDataESaIS1_ELb1EE11_M_get_nodeEv:00000000 __ZNSt16_List_alloc_baseIN10ThreadPool7JobDataESaIS1_ELb1EE11_M_get_nodeEv
d:/software/ovi_2503a_s3trc/ovi_2503a_s3trc/plutommi/Customer/ResGenerator/gcctmp/cci0baaa.s:5761   .text$_ZNSt16_List_alloc_baseIN10ThreadPool7JobDataESaIS1_ELb1EEC2ERKS2_:00000000 __ZNSt16_List_alloc_baseIN10ThreadPool7JobDataESaIS1_ELb1EEC2ERKS2_
d:/software/ovi_2503a_s3trc/ovi_2503a_s3trc/plutommi/Customer/ResGenerator/gcctmp/cci0baaa.s:5711   .text$_ZNSt10_List_baseIN10ThreadPool7JobDataESaIS1_EEC2ERKS2_:00000000 __ZNSt10_List_baseIN10ThreadPool7JobDataESaIS1_EEC2ERKS2_
d:/software/ovi_2503a_s3trc/ovi_2503a_s3trc/plutommi/Customer/ResGenerator/gcctmp/cci0baaa.s:5680   .text$_ZNSt4listIN10ThreadPool7JobDataESaIS1_EEC1ERKS2_:00000000 __ZNSt4listIN10ThreadPool7JobDataESaIS1_EEC1ERKS2_
d:/software/ovi_2503a_s3trc/ovi_2503a_s3trc/plutommi/Customer/ResGenerator/gcctmp/cci0baaa.s:4822   .text$_ZNSaIN10ThreadPool7JobDataEED1Ev:00000000 __ZNSaIN10ThreadPool7JobDataEED1Ev
d:/software/ovi_2503a_s3trc/ovi_2503a_s3trc/plutommi/Customer/ResGenerator/gcctmp/cci0baaa.s:4800   .text$_ZNSaIN10ThreadPool7JobDataEEC1Ev:00000000 __ZNSaIN10ThreadPool7JobDataEEC1Ev
d:/software/ovi_2503a_s3trc/ovi_2503a_s3trc/plutommi/Customer/ResGenerator/gcctmp/cci0baaa.s:4253   .text:00000ee4 __ZN10ThreadPool13AddJobToQueueEPFmPvES0_PNS_10IRunObjectENS_14ThreadPriorityE
d:/software/ovi_2503a_s3trc/ovi_2503a_s3trc/plutommi/Customer/ResGenerator/gcctmp/cci0baaa.s:7278   .text$_ZNK9__gnu_cxx17__normal_iteratorIPKN10ThreadPool10ThreadDataESt6vectorIS2_SaIS2_EEE4baseEv:00000000 __ZNK9__gnu_cxx17__normal_iteratorIPKN10ThreadPool10ThreadDataESt6vectorIS2_SaIS2_EEE4baseEv
d:/software/ovi_2503a_s3trc/ovi_2503a_s3trc/plutommi/Customer/ResGenerator/gcctmp/cci0baaa.s:7240   .text$_ZN9__gnu_cxxmiIPKN10ThreadPool10ThreadDataES4_St6vectorIS2_SaIS2_EEEENS_17__normal_iteratorIT_T1_E15difference_typeERKSB_RKNS8_IT0_SA_EE:00000000 __ZN9__gnu_cxxmiIPKN10ThreadPool10ThreadDataES4_St6vectorIS2_SaIS2_EEEENS_17__normal_iteratorIT_T1_E15difference_typeERKSB_RKNS8_IT0_SA_EE
d:/software/ovi_2503a_s3trc/ovi_2503a_s3trc/plutommi/Customer/ResGenerator/gcctmp/cci0baaa.s:7207   .text$_ZNKSt6vectorIN10ThreadPool10ThreadDataESaIS1_EE3endEv:00000000 __ZNKSt6vectorIN10ThreadPool10ThreadDataESaIS1_EE3endEv
d:/software/ovi_2503a_s3trc/ovi_2503a_s3trc/plutommi/Customer/ResGenerator/gcctmp/cci0baaa.s:8193   .text$_ZNSt8iteratorISt26random_access_iterator_tagN10ThreadPool10ThreadDataEiPKS2_RS3_EC2Ev:00000000 __ZNSt8iteratorISt26random_access_iterator_tagN10ThreadPool10ThreadDataEiPKS2_RS3_EC2Ev
d:/software/ovi_2503a_s3trc/ovi_2503a_s3trc/plutommi/Customer/ResGenerator/gcctmp/cci0baaa.s:7177   .text$_ZN9__gnu_cxx17__normal_iteratorIPKN10ThreadPool10ThreadDataESt6vectorIS2_SaIS2_EEEC1ERKS4_:00000000 __ZN9__gnu_cxx17__normal_iteratorIPKN10ThreadPool10ThreadDataESt6vectorIS2_SaIS2_EEEC1ERKS4_
d:/software/ovi_2503a_s3trc/ovi_2503a_s3trc/plutommi/Customer/ResGenerator/gcctmp/cci0baaa.s:7146   .text$_ZNKSt6vectorIN10ThreadPool10ThreadDataESaIS1_EE5beginEv:00000000 __ZNKSt6vectorIN10ThreadPool10ThreadDataESaIS1_EE5beginEv
d:/software/ovi_2503a_s3trc/ovi_2503a_s3trc/plutommi/Customer/ResGenerator/gcctmp/cci0baaa.s:7107   .text$_ZNKSt6vectorIN10ThreadPool10ThreadDataESaIS1_EE4sizeEv:00000000 __ZNKSt6vectorIN10ThreadPool10ThreadDataESaIS1_EE4sizeEv

UNDEFINED SYMBOLS
__Unwind_SjLj_Resume
___gxx_personality_sj0
__Unwind_SjLj_Register
__Unwind_SjLj_Unregister
_InitializeCriticalSection@4
__ZTIPKc
_DeleteCriticalSection@4
_CreateEventA@16
_ResumeThread@4
_SetEvent@4
GAS LISTING d:/software/ovi_2503a_s3trc/ovi_2503a_s3trc/plutommi/Customer/ResGenerator/gcctmp/cci0baaa.s 			page 174


_Sleep@4
_CloseHandle@4
_GetLastError@0
_EnterCriticalSection@4
_WaitForSingleObject@8
_LeaveCriticalSection@4
_GetCurrentThreadId@0
_WaitForMultipleObjects@16
_ResetEvent@4
__ZTVN10__cxxabiv117__class_type_infoE
___cxa_rethrow
___cxa_end_catch
___cxa_begin_catch
__beginthreadex
__assert
__ZNSt24__default_alloc_templateILb1ELi0EE10deallocateEPvj
___cxa_throw
___cxa_allocate_exception
_reslog_adaptor_log
__ZNSt24__default_alloc_templateILb1ELi0EE8allocateEj
__ZdlPv
