GAS LISTING d:/software/ovi_2503a_s3trc/ovi_2503a_s3trc/plutommi/Customer/ResGenerator/gcctmp/ccuadaaa.s 			page 1


   1              		.file	"WriteProcess.cpp"
   4              		.text
   5              	Ltext0:
 2780              	.lcomm __ZSt8__ioinit,16
 2829              		.align 32
 2830              	LC0:
 2831 0000 2E2E2F2E 		.ascii "../../MMI/Resource/WriteProcess.cpp\0"
 2831      2E2F4D4D 
 2831      492F5265 
 2831      736F7572 
 2831      63652F57 
 2832              	LC1:
 2833 0024 66616C73 		.ascii "false\0"
 2833      6500
 2834              	LC2:
 2835 002a 00       		.ascii "\0"
 2836 002b 90       		.align 2
 2839              	.globl _initImageProcessData
 2841              	_initImageProcessData:
   1:../../MMI/Resource/WriteProcess.cpp **** /*****************************************************************************
   2:../../MMI/Resource/WriteProcess.cpp **** *  Copyright Statement:
   3:../../MMI/Resource/WriteProcess.cpp **** *  --------------------
   4:../../MMI/Resource/WriteProcess.cpp **** *  This software is protected by Copyright and the information contained
   5:../../MMI/Resource/WriteProcess.cpp **** *  herein is confidential. The software may not be copied and the information
   6:../../MMI/Resource/WriteProcess.cpp **** *  contained herein may not be used or disclosed except with the written
   7:../../MMI/Resource/WriteProcess.cpp **** *  permission of MediaTek Inc. (C) 2005
   8:../../MMI/Resource/WriteProcess.cpp **** *
   9:../../MMI/Resource/WriteProcess.cpp **** *  BY OPENING THIS FILE, BUYER HEREBY UNEQUIVOCALLY ACKNOWLEDGES AND AGREES
  10:../../MMI/Resource/WriteProcess.cpp **** *  THAT THE SOFTWARE/FIRMWARE AND ITS DOCUMENTATIONS ("MEDIATEK SOFTWARE")
  11:../../MMI/Resource/WriteProcess.cpp **** *  RECEIVED FROM MEDIATEK AND/OR ITS REPRESENTATIVES ARE PROVIDED TO BUYER ON
  12:../../MMI/Resource/WriteProcess.cpp **** *  AN "AS-IS" BASIS ONLY. MEDIATEK EXPRESSLY DISCLAIMS ANY AND ALL WARRANTIES,
  13:../../MMI/Resource/WriteProcess.cpp **** *  EXPRESS OR IMPLIED, INCLUDING BUT NOT LIMITED TO THE IMPLIED WARRANTIES OF
  14:../../MMI/Resource/WriteProcess.cpp **** *  MERCHANTABILITY, FITNESS FOR A PARTICULAR PURPOSE OR NONINFRINGEMENT.
  15:../../MMI/Resource/WriteProcess.cpp **** *  NEITHER DOES MEDIATEK PROVIDE ANY WARRANTY WHATSOEVER WITH RESPECT TO THE
  16:../../MMI/Resource/WriteProcess.cpp **** *  SOFTWARE OF ANY THIRD PARTY WHICH MAY BE USED BY, INCORPORATED IN, OR
  17:../../MMI/Resource/WriteProcess.cpp **** *  SUPPLIED WITH THE MEDIATEK SOFTWARE, AND BUYER AGREES TO LOOK ONLY TO SUCH
  18:../../MMI/Resource/WriteProcess.cpp **** *  THIRD PARTY FOR ANY WARRANTY CLAIM RELATING THERETO. MEDIATEK SHALL ALSO
  19:../../MMI/Resource/WriteProcess.cpp **** *  NOT BE RESPONSIBLE FOR ANY MEDIATEK SOFTWARE RELEASES MADE TO BUYER'S
  20:../../MMI/Resource/WriteProcess.cpp **** *  SPECIFICATION OR TO CONFORM TO A PARTICULAR STANDARD OR OPEN FORUM.
  21:../../MMI/Resource/WriteProcess.cpp **** *
  22:../../MMI/Resource/WriteProcess.cpp **** *  BUYER'S SOLE AND EXCLUSIVE REMEDY AND MEDIATEK'S ENTIRE AND CUMULATIVE
  23:../../MMI/Resource/WriteProcess.cpp **** *  LIABILITY WITH RESPECT TO THE MEDIATEK SOFTWARE RELEASED HEREUNDER WILL BE,
  24:../../MMI/Resource/WriteProcess.cpp **** *  AT MEDIATEK'S OPTION, TO REVISE OR REPLACE THE MEDIATEK SOFTWARE AT ISSUE,
  25:../../MMI/Resource/WriteProcess.cpp **** *  OR REFUND ANY SOFTWARE LICENSE FEES OR SERVICE CHARGE PAID BY BUYER TO
  26:../../MMI/Resource/WriteProcess.cpp **** *  MEDIATEK FOR SUCH MEDIATEK SOFTWARE AT ISSUE.
  27:../../MMI/Resource/WriteProcess.cpp **** *
  28:../../MMI/Resource/WriteProcess.cpp **** *  THE TRANSACTION CONTEMPLATED HEREUNDER SHALL BE CONSTRUED IN ACCORDANCE
  29:../../MMI/Resource/WriteProcess.cpp **** *  WITH THE LAWS OF THE STATE OF CALIFORNIA, USA, EXCLUDING ITS CONFLICT OF
  30:../../MMI/Resource/WriteProcess.cpp **** *  LAWS PRINCIPLES.  ANY DISPUTES, CONTROVERSIES OR CLAIMS ARISING THEREOF AND
  31:../../MMI/Resource/WriteProcess.cpp **** *  RELATED THERETO SHALL BE SETTLED BY ARBITRATION IN SAN FRANCISCO, CA, UNDER
  32:../../MMI/Resource/WriteProcess.cpp **** *  THE RULES OF THE INTERNATIONAL CHAMBER OF COMMERCE (ICC).
  33:../../MMI/Resource/WriteProcess.cpp **** *
  34:../../MMI/Resource/WriteProcess.cpp **** *****************************************************************************/
  35:../../MMI/Resource/WriteProcess.cpp **** 
  36:../../MMI/Resource/WriteProcess.cpp **** /*****************************************************************************
  37:../../MMI/Resource/WriteProcess.cpp ****  *
  38:../../MMI/Resource/WriteProcess.cpp ****  * Filename:
GAS LISTING d:/software/ovi_2503a_s3trc/ovi_2503a_s3trc/plutommi/Customer/ResGenerator/gcctmp/ccuadaaa.s 			page 2


  39:../../MMI/Resource/WriteProcess.cpp ****  * ---------
  40:../../MMI/Resource/WriteProcess.cpp ****  *   WriteProcess.c
  41:../../MMI/Resource/WriteProcess.cpp ****  *
  42:../../MMI/Resource/WriteProcess.cpp ****  * Project:
  43:../../MMI/Resource/WriteProcess.cpp ****  * --------
  44:../../MMI/Resource/WriteProcess.cpp ****  *   MAUI
  45:../../MMI/Resource/WriteProcess.cpp ****  *
  46:../../MMI/Resource/WriteProcess.cpp ****  * Description:
  47:../../MMI/Resource/WriteProcess.cpp ****  * ------------
  48:../../MMI/Resource/WriteProcess.cpp ****  *
  49:../../MMI/Resource/WriteProcess.cpp ****  *
  50:../../MMI/Resource/WriteProcess.cpp ****  * Author:
  51:../../MMI/Resource/WriteProcess.cpp ****  * -------
  52:../../MMI/Resource/WriteProcess.cpp ****  * -------
  53:../../MMI/Resource/WriteProcess.cpp ****  *
  54:../../MMI/Resource/WriteProcess.cpp ****  *============================================================================
  55:../../MMI/Resource/WriteProcess.cpp ****  *             HISTORY
  56:../../MMI/Resource/WriteProcess.cpp ****  * Below this line, this part is controlled by PVCS VM. DO NOT MODIFY!!
  57:../../MMI/Resource/WriteProcess.cpp ****  *------------------------------------------------------------------------------
  58:../../MMI/Resource/WriteProcess.cpp ****  * removed!
  59:../../MMI/Resource/WriteProcess.cpp ****  *
  60:../../MMI/Resource/WriteProcess.cpp ****  * removed!
  61:../../MMI/Resource/WriteProcess.cpp ****  * removed!
  62:../../MMI/Resource/WriteProcess.cpp ****  * removed!
  63:../../MMI/Resource/WriteProcess.cpp ****  *
  64:../../MMI/Resource/WriteProcess.cpp ****  * removed!
  65:../../MMI/Resource/WriteProcess.cpp ****  * removed!
  66:../../MMI/Resource/WriteProcess.cpp ****  * removed!
  67:../../MMI/Resource/WriteProcess.cpp ****  *
  68:../../MMI/Resource/WriteProcess.cpp ****  * removed!
  69:../../MMI/Resource/WriteProcess.cpp ****  * removed!
  70:../../MMI/Resource/WriteProcess.cpp ****  * removed!
  71:../../MMI/Resource/WriteProcess.cpp ****  *
  72:../../MMI/Resource/WriteProcess.cpp ****  * removed!
  73:../../MMI/Resource/WriteProcess.cpp ****  * removed!
  74:../../MMI/Resource/WriteProcess.cpp ****  * removed!
  75:../../MMI/Resource/WriteProcess.cpp ****  *
  76:../../MMI/Resource/WriteProcess.cpp ****  * removed!
  77:../../MMI/Resource/WriteProcess.cpp ****  * removed!
  78:../../MMI/Resource/WriteProcess.cpp ****  * removed!
  79:../../MMI/Resource/WriteProcess.cpp ****  *
  80:../../MMI/Resource/WriteProcess.cpp ****  * removed!
  81:../../MMI/Resource/WriteProcess.cpp ****  * removed!
  82:../../MMI/Resource/WriteProcess.cpp ****  * removed!
  83:../../MMI/Resource/WriteProcess.cpp ****  *
  84:../../MMI/Resource/WriteProcess.cpp ****  * removed!
  85:../../MMI/Resource/WriteProcess.cpp ****  * removed!
  86:../../MMI/Resource/WriteProcess.cpp ****  * removed!
  87:../../MMI/Resource/WriteProcess.cpp ****  *
  88:../../MMI/Resource/WriteProcess.cpp ****  * removed!
  89:../../MMI/Resource/WriteProcess.cpp ****  * removed!
  90:../../MMI/Resource/WriteProcess.cpp ****  * removed!
  91:../../MMI/Resource/WriteProcess.cpp ****  *
  92:../../MMI/Resource/WriteProcess.cpp ****  * removed!
  93:../../MMI/Resource/WriteProcess.cpp ****  * removed!
  94:../../MMI/Resource/WriteProcess.cpp ****  * removed!
  95:../../MMI/Resource/WriteProcess.cpp ****  *
GAS LISTING d:/software/ovi_2503a_s3trc/ovi_2503a_s3trc/plutommi/Customer/ResGenerator/gcctmp/ccuadaaa.s 			page 3


  96:../../MMI/Resource/WriteProcess.cpp ****  * removed!
  97:../../MMI/Resource/WriteProcess.cpp ****  * removed!
  98:../../MMI/Resource/WriteProcess.cpp ****  * removed!
  99:../../MMI/Resource/WriteProcess.cpp ****  *
 100:../../MMI/Resource/WriteProcess.cpp ****  * removed!
 101:../../MMI/Resource/WriteProcess.cpp ****  * removed!
 102:../../MMI/Resource/WriteProcess.cpp ****  * removed!
 103:../../MMI/Resource/WriteProcess.cpp ****  *
 104:../../MMI/Resource/WriteProcess.cpp ****  * removed!
 105:../../MMI/Resource/WriteProcess.cpp ****  * removed!
 106:../../MMI/Resource/WriteProcess.cpp ****  * removed!
 107:../../MMI/Resource/WriteProcess.cpp ****  *
 108:../../MMI/Resource/WriteProcess.cpp ****  * removed!
 109:../../MMI/Resource/WriteProcess.cpp ****  * removed!
 110:../../MMI/Resource/WriteProcess.cpp ****  * removed!
 111:../../MMI/Resource/WriteProcess.cpp ****  *
 112:../../MMI/Resource/WriteProcess.cpp ****  * removed!
 113:../../MMI/Resource/WriteProcess.cpp ****  * removed!
 114:../../MMI/Resource/WriteProcess.cpp ****  * removed!
 115:../../MMI/Resource/WriteProcess.cpp ****  *
 116:../../MMI/Resource/WriteProcess.cpp ****  * removed!
 117:../../MMI/Resource/WriteProcess.cpp ****  * removed!
 118:../../MMI/Resource/WriteProcess.cpp ****  * removed!
 119:../../MMI/Resource/WriteProcess.cpp ****  *
 120:../../MMI/Resource/WriteProcess.cpp ****  * removed!
 121:../../MMI/Resource/WriteProcess.cpp ****  * removed!
 122:../../MMI/Resource/WriteProcess.cpp ****  * removed!
 123:../../MMI/Resource/WriteProcess.cpp ****  *
 124:../../MMI/Resource/WriteProcess.cpp ****  * removed!
 125:../../MMI/Resource/WriteProcess.cpp ****  * removed!
 126:../../MMI/Resource/WriteProcess.cpp ****  * removed!
 127:../../MMI/Resource/WriteProcess.cpp ****  *
 128:../../MMI/Resource/WriteProcess.cpp ****  * removed!
 129:../../MMI/Resource/WriteProcess.cpp ****  * removed!
 130:../../MMI/Resource/WriteProcess.cpp ****  * removed!
 131:../../MMI/Resource/WriteProcess.cpp ****  *
 132:../../MMI/Resource/WriteProcess.cpp ****  * removed!
 133:../../MMI/Resource/WriteProcess.cpp ****  * removed!
 134:../../MMI/Resource/WriteProcess.cpp ****  * removed!
 135:../../MMI/Resource/WriteProcess.cpp ****  * removed!
 136:../../MMI/Resource/WriteProcess.cpp ****  * removed!
 137:../../MMI/Resource/WriteProcess.cpp ****  *
 138:../../MMI/Resource/WriteProcess.cpp ****  * removed!
 139:../../MMI/Resource/WriteProcess.cpp ****  * removed!
 140:../../MMI/Resource/WriteProcess.cpp ****  * removed!
 141:../../MMI/Resource/WriteProcess.cpp ****  *
 142:../../MMI/Resource/WriteProcess.cpp ****  * removed!
 143:../../MMI/Resource/WriteProcess.cpp ****  * removed!
 144:../../MMI/Resource/WriteProcess.cpp ****  * removed!
 145:../../MMI/Resource/WriteProcess.cpp ****  *
 146:../../MMI/Resource/WriteProcess.cpp ****  * removed!
 147:../../MMI/Resource/WriteProcess.cpp ****  * removed!
 148:../../MMI/Resource/WriteProcess.cpp ****  * removed!
 149:../../MMI/Resource/WriteProcess.cpp ****  *
 150:../../MMI/Resource/WriteProcess.cpp ****  * removed!
 151:../../MMI/Resource/WriteProcess.cpp ****  * removed!
 152:../../MMI/Resource/WriteProcess.cpp ****  * removed!
GAS LISTING d:/software/ovi_2503a_s3trc/ovi_2503a_s3trc/plutommi/Customer/ResGenerator/gcctmp/ccuadaaa.s 			page 4


 153:../../MMI/Resource/WriteProcess.cpp ****  *
 154:../../MMI/Resource/WriteProcess.cpp ****  * removed!
 155:../../MMI/Resource/WriteProcess.cpp ****  * removed!
 156:../../MMI/Resource/WriteProcess.cpp ****  * removed!
 157:../../MMI/Resource/WriteProcess.cpp ****  *
 158:../../MMI/Resource/WriteProcess.cpp ****  * removed!
 159:../../MMI/Resource/WriteProcess.cpp ****  * removed!
 160:../../MMI/Resource/WriteProcess.cpp ****  * removed!
 161:../../MMI/Resource/WriteProcess.cpp ****  *
 162:../../MMI/Resource/WriteProcess.cpp ****  * removed!
 163:../../MMI/Resource/WriteProcess.cpp ****  * removed!
 164:../../MMI/Resource/WriteProcess.cpp ****  * removed!
 165:../../MMI/Resource/WriteProcess.cpp ****  *
 166:../../MMI/Resource/WriteProcess.cpp ****  * removed!
 167:../../MMI/Resource/WriteProcess.cpp ****  * removed!
 168:../../MMI/Resource/WriteProcess.cpp ****  * removed!
 169:../../MMI/Resource/WriteProcess.cpp ****  *
 170:../../MMI/Resource/WriteProcess.cpp ****  * removed!
 171:../../MMI/Resource/WriteProcess.cpp ****  * removed!
 172:../../MMI/Resource/WriteProcess.cpp ****  * removed!
 173:../../MMI/Resource/WriteProcess.cpp ****  *
 174:../../MMI/Resource/WriteProcess.cpp ****  * removed!
 175:../../MMI/Resource/WriteProcess.cpp ****  * removed!
 176:../../MMI/Resource/WriteProcess.cpp ****  * removed!
 177:../../MMI/Resource/WriteProcess.cpp ****  *
 178:../../MMI/Resource/WriteProcess.cpp ****  *
 179:../../MMI/Resource/WriteProcess.cpp ****  *
 180:../../MMI/Resource/WriteProcess.cpp ****  *------------------------------------------------------------------------------
 181:../../MMI/Resource/WriteProcess.cpp ****  * Upper this line, this part is controlled by PVCS VM. DO NOT MODIFY!!
 182:../../MMI/Resource/WriteProcess.cpp ****  *============================================================================
 183:../../MMI/Resource/WriteProcess.cpp ****  *******************************************************************************/
 184:../../MMI/Resource/WriteProcess.cpp **** 
 185:../../MMI/Resource/WriteProcess.cpp **** //#include "mmi_features.h"
 186:../../MMI/Resource/WriteProcess.cpp **** extern "C"
 187:../../MMI/Resource/WriteProcess.cpp **** {
 188:../../MMI/Resource/WriteProcess.cpp **** #include "CustDataRes.h"
 189:../../MMI/Resource/WriteProcess.cpp **** #include "CustDataProts.h" // for AUTO_TYPE
 190:../../MMI/Resource/WriteProcess.cpp **** #include "WriteResUtil.h"
 191:../../MMI/Resource/WriteProcess.cpp **** #include "ExternalCMDManagerCAPI.h"
 192:../../MMI/Resource/WriteProcess.cpp **** #include "ResgenLogCAPI.h"
 193:../../MMI/Resource/WriteProcess.cpp **** #include "ResgenConfiguratorCAPI.h"
 194:../../MMI/Resource/WriteProcess.cpp **** }
 195:../../MMI/Resource/WriteProcess.cpp **** 
 196:../../MMI/Resource/WriteProcess.cpp **** #include <string>
 197:../../MMI/Resource/WriteProcess.cpp **** //#include <cctype>
 198:../../MMI/Resource/WriteProcess.cpp **** #include <vector>
 199:../../MMI/Resource/WriteProcess.cpp **** #include <list>
 200:../../MMI/Resource/WriteProcess.cpp **** #include <assert.h>
 201:../../MMI/Resource/WriteProcess.cpp **** 
 202:../../MMI/Resource/WriteProcess.cpp **** #define WIN32_LEAN_AND_MEAN
 203:../../MMI/Resource/WriteProcess.cpp **** #include "windows.h"
 204:../../MMI/Resource/WriteProcess.cpp **** 
 205:../../MMI/Resource/WriteProcess.cpp **** #include "ThreadPool.h"
 206:../../MMI/Resource/WriteProcess.cpp **** #include "OfflineResParam.h"
 207:../../MMI/Resource/WriteProcess.cpp **** 
 208:../../MMI/Resource/WriteProcess.cpp **** #include "ImageGroupCreator.h"
 209:../../MMI/Resource/WriteProcess.cpp **** using namespace std;
GAS LISTING d:/software/ovi_2503a_s3trc/ovi_2503a_s3trc/plutommi/Customer/ResGenerator/gcctmp/ccuadaaa.s 			page 5


 210:../../MMI/Resource/WriteProcess.cpp **** 
 211:../../MMI/Resource/WriteProcess.cpp **** 
 212:../../MMI/Resource/WriteProcess.cpp **** #define DEFAULT_FILEBUFFER          "________CUSTOMER__IMAGES__DEFAULT_BMP"
 213:../../MMI/Resource/WriteProcess.cpp **** #define OUTPUT_DATA_FILENAME        "..\\..\\Customer\\CustResource\\CustImgDataHW.h"
 214:../../MMI/Resource/WriteProcess.cpp **** #define OUTPUT_DATA_FILENAME_EXT    "..\\..\\Customer\\CustResource\\CustImgDataHWExt.h"
 215:../../MMI/Resource/WriteProcess.cpp **** #define OUTPUT_IMG_GROUP_CONTENT_META_FILENAME "..\\..\\Customer\\CustResource\\CustImgDataMeta.txt
 216:../../MMI/Resource/WriteProcess.cpp **** 
 217:../../MMI/Resource/WriteProcess.cpp **** 
 218:../../MMI/Resource/WriteProcess.cpp **** #define IMGPROC_TAG  "WRITEPROCESS"
 219:../../MMI/Resource/WriteProcess.cpp **** 
 220:../../MMI/Resource/WriteProcess.cpp **** #define IMGPROC_LOG_D(format, args...) RES_LOG_D((IMGPROC_TAG), (format) , ##args)
 221:../../MMI/Resource/WriteProcess.cpp **** #define IMGPROC_LOG_V(format, args...) RES_LOG_V((IMGPROC_TAG), (format) , ##args)
 222:../../MMI/Resource/WriteProcess.cpp **** #define IMGPROC_LOG_W(format, args...) RES_LOG_W((IMGPROC_TAG), (format) , ##args)
 223:../../MMI/Resource/WriteProcess.cpp **** #define IMGPROC_LOG_E(format, args...) RES_LOG_E((IMGPROC_TAG), (format) , ##args)
 224:../../MMI/Resource/WriteProcess.cpp **** 
 225:../../MMI/Resource/WriteProcess.cpp **** 
 226:../../MMI/Resource/WriteProcess.cpp **** // global variables
 227:../../MMI/Resource/WriteProcess.cpp **** extern FILE *OutputImgIDFile; // defined in PopulateRes.c
 228:../../MMI/Resource/WriteProcess.cpp **** extern CUSTOM_IMAGE_MAP ImageIdMapEXT[]; // defined in CustResDeclare.c
 229:../../MMI/Resource/WriteProcess.cpp **** extern CUSTOM_IMAGE_MAP ImageIdMap[]; // defined in CustResDeclare.c
 230:../../MMI/Resource/WriteProcess.cpp **** 
 231:../../MMI/Resource/WriteProcess.cpp **** extern IMAGENAME_LIST ImageNameList[]; // also used in WriteImgRes.c
 232:../../MMI/Resource/WriteProcess.cpp **** extern IMAGENAME_LIST ImageNameListEXT[]; // also used in WriteImgRes.c
 233:../../MMI/Resource/WriteProcess.cpp **** extern U16 CurrMaxImageNumEXT; // also used in WriteImgRes.c
 234:../../MMI/Resource/WriteProcess.cpp **** extern U16 CurrMaxImageNum; // also used in WriteRes.c
 235:../../MMI/Resource/WriteProcess.cpp **** 
 236:../../MMI/Resource/WriteProcess.cpp **** extern U32 image_idx; // XXX, defined in WriteImgRes.c
 237:../../MMI/Resource/WriteProcess.cpp **** extern U16 CurrMaxImageId; // also used in WriteImgRes.c
 238:../../MMI/Resource/WriteProcess.cpp **** extern U32 g_resimg_count; // XXX, defined in WriteImgRes.c
 239:../../MMI/Resource/WriteProcess.cpp **** extern CUSTOM_RESOURCE_SIZE g_resimg_table[MAX_IMAGE_IDS_SIZE]; // XXX, defined in WriteImgRes.c
 240:../../MMI/Resource/WriteProcess.cpp **** 
 241:../../MMI/Resource/WriteProcess.cpp **** extern FILE *fpImageResourceUsage; // defined in PopulateRes.c
 242:../../MMI/Resource/WriteProcess.cpp **** extern FILE *fpImageResourceUsageExt; // defined in PopulateRes.c
 243:../../MMI/Resource/WriteProcess.cpp **** extern "C" U32 GetOffsetFromResourceBase(U16 ImageID, U8* enum_value); // in WriteRes.c
 244:../../MMI/Resource/WriteProcess.cpp **** extern mmi_resource_base_struct g_mmi_resource_base_table[]; // for RESPRTONERECORD()
 245:../../MMI/Resource/WriteProcess.cpp **** 
 246:../../MMI/Resource/WriteProcess.cpp **** extern U16 CurrMaxImageIdEXT;
 247:../../MMI/Resource/WriteProcess.cpp **** 
 248:../../MMI/Resource/WriteProcess.cpp **** extern FILE *RepeatIDListFile; // also used in WriteRes.c
 249:../../MMI/Resource/WriteProcess.cpp **** 
 250:../../MMI/Resource/WriteProcess.cpp **** // ENFB
 251:../../MMI/Resource/WriteProcess.cpp **** #if defined(__MULTIPLE_BINARY_FILES__) && defined(__MMI_RESOURCE_ENFB_SUPPORT__)
 252:../../MMI/Resource/WriteProcess.cpp **** extern "C" MMI_BOOL CustPack_ENFB_image_test(const S8 *filename, int disable_enfb);
 253:../../MMI/Resource/WriteProcess.cpp **** 
 254:../../MMI/Resource/WriteProcess.cpp **** #endif /* defined(__MULTIPLE_BINARY_FILES__) && defined(__MMI_RESOURCE_ENFB_SUPPORT__) */
 255:../../MMI/Resource/WriteProcess.cpp **** 
 256:../../MMI/Resource/WriteProcess.cpp **** #ifdef __MMI_RESOURCE_ENFB_SUPPORT__
 257:../../MMI/Resource/WriteProcess.cpp **** extern int disableENFB;
 258:../../MMI/Resource/WriteProcess.cpp **** #endif // __MMI_RESOURCE_ENFB_SUPPORT__
 259:../../MMI/Resource/WriteProcess.cpp **** 
 260:../../MMI/Resource/WriteProcess.cpp **** // local functions
 261:../../MMI/Resource/WriteProcess.cpp **** static void ProcessBinaryData();
 262:../../MMI/Resource/WriteProcess.cpp **** 
 263:../../MMI/Resource/WriteProcess.cpp **** struct _ResgenImageOutStream
 264:../../MMI/Resource/WriteProcess.cpp **** {
 265:../../MMI/Resource/WriteProcess.cpp ****     int data_size;
 266:../../MMI/Resource/WriteProcess.cpp ****     char * data;
GAS LISTING d:/software/ovi_2503a_s3trc/ovi_2503a_s3trc/plutommi/Customer/ResGenerator/gcctmp/ccuadaaa.s 			page 6


 267:../../MMI/Resource/WriteProcess.cpp **** 
 268:../../MMI/Resource/WriteProcess.cpp ****     _ResgenImageOutStream():data_size(0), data(NULL)
 269:../../MMI/Resource/WriteProcess.cpp ****     {
 270:../../MMI/Resource/WriteProcess.cpp ****     }
 271:../../MMI/Resource/WriteProcess.cpp **** 
 272:../../MMI/Resource/WriteProcess.cpp ****     ~_ResgenImageOutStream()
 273:../../MMI/Resource/WriteProcess.cpp ****     {
 274:../../MMI/Resource/WriteProcess.cpp ****         delete data;
 275:../../MMI/Resource/WriteProcess.cpp ****     }
 276:../../MMI/Resource/WriteProcess.cpp **** };
 277:../../MMI/Resource/WriteProcess.cpp **** 
 278:../../MMI/Resource/WriteProcess.cpp **** void SetImageWithBufferEx(
 279:../../MMI/Resource/WriteProcess.cpp ****                           U16 nImgId,
 280:../../MMI/Resource/WriteProcess.cpp ****                           S8 *filename,
 281:../../MMI/Resource/WriteProcess.cpp ****                           S8 *enum_value,
 282:../../MMI/Resource/WriteProcess.cpp ****                           BOOL imgFlag,
 283:../../MMI/Resource/WriteProcess.cpp ****                           S32 force_type);
 284:../../MMI/Resource/WriteProcess.cpp **** 
 285:../../MMI/Resource/WriteProcess.cpp **** void SetImageQWithBufferEx(
 286:../../MMI/Resource/WriteProcess.cpp ****                            U16 nImgId,
 287:../../MMI/Resource/WriteProcess.cpp ****                            S8 *filename,
 288:../../MMI/Resource/WriteProcess.cpp ****                            S8 *enum_value,
 289:../../MMI/Resource/WriteProcess.cpp ****                            BOOL imgFlag,
 290:../../MMI/Resource/WriteProcess.cpp ****                            S32 force_type,
 291:../../MMI/Resource/WriteProcess.cpp ****                            S32 quality);
 292:../../MMI/Resource/WriteProcess.cpp **** 
 293:../../MMI/Resource/WriteProcess.cpp **** void initImageProcessData(SetImageProcessData * data)
 294:../../MMI/Resource/WriteProcess.cpp **** {
 2843              	LM1:
 2844 002c 55       		pushl	%ebp
 2845 002d 89E5     		movl	%esp, %ebp
 2846 002f 83EC18   		subl	$24, %esp
 295:../../MMI/Resource/WriteProcess.cpp ****     if (data == NULL)
 2848              	LM2:
 2849              	LBB2:
 2850 0032 837D0800 		cmpl	$0, 8(%ebp)
 2851 0036 751C     		jne	L2
 296:../../MMI/Resource/WriteProcess.cpp ****     {
 297:../../MMI/Resource/WriteProcess.cpp ****         assert(false);
 2853              	LM3:
 2854 0038 C7442408 		movl	$297, 8(%esp)
 2854      29010000 
 2855 0040 C7442404 		movl	$LC0, 4(%esp)
 2855      00000000 
 2856 0048 C7042424 		movl	$LC1, (%esp)
 2856      000000
 2857 004f E8000000 		call	__assert
 2857      00
 2858              	L2:
 298:../../MMI/Resource/WriteProcess.cpp ****         return;
 299:../../MMI/Resource/WriteProcess.cpp ****     }
 300:../../MMI/Resource/WriteProcess.cpp ****     strcpy(data->real_filename, "");
 2860              	LM4:
 2861 0054 C7442404 		movl	$LC2, 4(%esp)
 2861      2A000000 
 2862 005c 8B4508   		movl	8(%ebp), %eax
 2863 005f 890424   		movl	%eax, (%esp)
GAS LISTING d:/software/ovi_2503a_s3trc/ovi_2503a_s3trc/plutommi/Customer/ResGenerator/gcctmp/ccuadaaa.s 			page 7


 2864 0062 E8000000 		call	_strcpy
 2864      00
 301:../../MMI/Resource/WriteProcess.cpp ****     data->res_size = 0;
 2866              	LM5:
 2867 0067 8B4508   		movl	8(%ebp), %eax
 2868 006a C7800002 		movl	$0, 512(%eax)
 2868      00000000 
 2868      0000
 302:../../MMI/Resource/WriteProcess.cpp ****     data->failed = MMI_FALSE;
 2870              	LM6:
 2871 0074 8B4508   		movl	8(%ebp), %eax
 2872 0077 C7800802 		movl	$0, 520(%eax)
 2872      00000000 
 2872      0000
 303:../../MMI/Resource/WriteProcess.cpp ****     data->duplicated = MMI_FALSE;
 2874              	LM7:
 2875 0081 8B4508   		movl	8(%ebp), %eax
 2876 0084 C7800C02 		movl	$0, 524(%eax)
 2876      00000000 
 2876      0000
 304:../../MMI/Resource/WriteProcess.cpp ****     data->duplicatedInstance = NULL;
 2878              	LM8:
 2879 008e 8B4508   		movl	8(%ebp), %eax
 2880 0091 C7801002 		movl	$0, 528(%eax)
 2880      00000000 
 2880      0000
 305:../../MMI/Resource/WriteProcess.cpp ****     data->quality=ImageResParam::QUALITY_MEDIUM;
 2882              	LM9:
 2883 009b 8B5508   		movl	8(%ebp), %edx
 2884 009e A1000000 		movl	__ZN13ImageResParam14QUALITY_MEDIUME, %eax
 2884      00
 2885 00a3 89821402 		movl	%eax, 532(%edx)
 2885      0000
 306:../../MMI/Resource/WriteProcess.cpp ****     data->color_num = RES_IMG_COLOR_NUM_UNKNOWN;
 2887              	LM10:
 2888 00a9 8B4508   		movl	8(%ebp), %eax
 2889 00ac C7801802 		movl	$-1, 536(%eax)
 2889      0000FFFF 
 2889      FFFF
 307:../../MMI/Resource/WriteProcess.cpp **** #ifdef __MMI_RESOURCE_ENFB_SUPPORT__
 308:../../MMI/Resource/WriteProcess.cpp ****     data->enfb_flag = 0;
 309:../../MMI/Resource/WriteProcess.cpp ****     data->disable_enfb = 0;
 310:../../MMI/Resource/WriteProcess.cpp **** #endif
 311:../../MMI/Resource/WriteProcess.cpp **** }
 2891              	LM11:
 2892 00b6 C9       		leave
 2893 00b7 C3       		ret
 2894              	LBE2:
 2895              	Lscope0:
 2901 00b8 908DB426 		.align 32
 2901      00000000 
 2902              	LC3:
 2903 00c0 5365744E 		.ascii "SetNFBImage: Populate NFB image: %s\0"
 2903      4642496D 
 2903      6167653A 
 2903      20506F70 
 2903      756C6174 
GAS LISTING d:/software/ovi_2503a_s3trc/ovi_2503a_s3trc/plutommi/Customer/ResGenerator/gcctmp/ccuadaaa.s 			page 8


 2904              	LC4:
 2905 00e4 57524954 		.ascii "WRITEPROCESS\0"
 2905      4550524F 
 2905      43455353 
 2905      00
 2906 00f1 EB0D9090 		.align 32
 2906      90909090 
 2906      90909090 
 2906      909090
 2907              	LC5:
 2908 0100 2E2E5C2E 		.ascii "..\\..\\Customer\\CustResource\\CustNFBProgressImg.h\0"
 2908      2E5C4375 
 2908      73746F6D 
 2908      65725C43 
 2908      75737452 
 2909              	LC6:
 2910 0131 616200   		.ascii "ab\0"
 2911 0134 8DB60000 		.align 32
 2911      00008DBF 
 2911      00000000 
 2912              	LC7:
 2913 0140 5365744E 		.ascii "SetNFBImage: Open NFB image output file: %s, file descriptor: 0x%x\0"
 2913      4642496D 
 2913      6167653A 
 2913      204F7065 
 2913      6E204E46 
 2914 0183 90909090 		.align 32
 2914      90909090 
 2914      90909090 
 2914      90909090 
 2914      90909090 
 2915              	LC8:
 2916 01a0 5365744E 		.ascii "SetNFBImage: File descriptor can't be NULL for %s, retry... \0"
 2916      4642496D 
 2916      6167653A 
 2916      2046696C 
 2916      65206465 
 2917 01dd 8D7600   		.align 32
 2918              	LC9:
 2919 01e0 5365744E 		.ascii "SetNFBImage: Write NFB image data to %s, file descriptor: 0x%x\0"
 2919      4642496D 
 2919      6167653A 
 2919      20577269 
 2919      7465204E 
 2920 021f 90       		.align 32
 2921              	LC10:
 2922 0220 5365744E 		.ascii "SetNFBImage: Close NFB image output file: %s, file descriptor: 0x%x\0"
 2922      4642496D 
 2922      6167653A 
 2922      20436C6F 
 2922      7365204E 
 2923              		.align 2
 2926              	.globl _SetNFBImage
 2928              	_SetNFBImage:
 312:../../MMI/Resource/WriteProcess.cpp **** 
 313:../../MMI/Resource/WriteProcess.cpp **** extern "C" void SetNFBImage(S8 *filename)
 314:../../MMI/Resource/WriteProcess.cpp **** {
GAS LISTING d:/software/ovi_2503a_s3trc/ovi_2503a_s3trc/plutommi/Customer/ResGenerator/gcctmp/ccuadaaa.s 			page 9


 2930              	LM12:
 2931 0264 55       		pushl	%ebp
 2932 0265 89E5     		movl	%esp, %ebp
 2933 0267 57       		pushl	%edi
 2934 0268 56       		pushl	%esi
 2935 0269 53       		pushl	%ebx
 2936 026a 81EC9C02 		subl	$668, %esp
 2936      0000
 2937 0270 C7859CFD 		movl	$___gxx_personality_sj0, -612(%ebp)
 2937      FFFF0000 
 2937      0000
 2938 027a C785A0FD 		movl	$LLSDA2137, -608(%ebp)
 2938      FFFF0000 
 2938      0000
 2939 0284 8D85A4FD 		leal	-604(%ebp), %eax
 2939      FFFF
 2940 028a 8D55E8   		leal	-24(%ebp), %edx
 2941 028d 8910     		movl	%edx, (%eax)
 2942 028f BAD80400 		movl	$L13, %edx
 2942      00
 2943 0294 895004   		movl	%edx, 4(%eax)
 2944 0297 896008   		movl	%esp, 8(%eax)
 2945 029a 8D8584FD 		leal	-636(%ebp), %eax
 2945      FFFF
 2946 02a0 890424   		movl	%eax, (%esp)
 2947 02a3 E8000000 		call	__Unwind_SjLj_Register
 2947      00
 315:../../MMI/Resource/WriteProcess.cpp ****     IMGPROC_LOG_V("SetNFBImage: Populate NFB image: %s", filename);
 2949              	LM13:
 2950              	LBB3:
 2951 02a8 8B4508   		movl	8(%ebp), %eax
 2952 02ab 8944240C 		movl	%eax, 12(%esp)
 2953 02af C7442408 		movl	$LC3, 8(%esp)
 2953      C0000000 
 2954 02b7 C7442404 		movl	$LC4, 4(%esp)
 2954      E4000000 
 2955 02bf C7042401 		movl	$1, (%esp)
 2955      000000
 2956 02c6 C78588FD 		movl	$-1, -632(%ebp)
 2956      FFFFFFFF 
 2956      FFFF
 2957 02d0 E8000000 		call	_reslog_adaptor_log
 2957      00
 316:../../MMI/Resource/WriteProcess.cpp ****     fflush(stdout);
 2959              	LM14:
 2960 02d5 A1000000 		movl	__imp___iob, %eax
 2960      00
 2961 02da 83C020   		addl	$32, %eax
 2962 02dd 890424   		movl	%eax, (%esp)
 2963 02e0 E8000000 		call	_fflush
 2963      00
 317:../../MMI/Resource/WriteProcess.cpp **** 
 318:../../MMI/Resource/WriteProcess.cpp ****     SetImageProcessData processData;
 319:../../MMI/Resource/WriteProcess.cpp ****     ResgenImageOutStream outstream;
 2965              	LM15:
 2966 02e5 8D85B8FD 		leal	-584(%ebp), %eax
 2966      FFFF
GAS LISTING d:/software/ovi_2503a_s3trc/ovi_2503a_s3trc/plutommi/Customer/ResGenerator/gcctmp/ccuadaaa.s 			page 10


 2967 02eb 890424   		movl	%eax, (%esp)
 2968 02ee E8000000 		call	__ZN21_ResgenImageOutStreamC1Ev
 2968      00
 320:../../MMI/Resource/WriteProcess.cpp ****     processData.outstream = &outstream;
 2970              	LM16:
 2971 02f3 8D85B8FD 		leal	-584(%ebp), %eax
 2971      FFFF
 2972 02f9 8945CC   		movl	%eax, -52(%ebp)
 321:../../MMI/Resource/WriteProcess.cpp ****     initImageProcessData(&processData);
 2974              	LM17:
 2975 02fc 8D85C8FD 		leal	-568(%ebp), %eax
 2975      FFFF
 2976 0302 890424   		movl	%eax, (%esp)
 2977 0305 C78588FD 		movl	$1, -632(%ebp)
 2977      FFFF0100 
 2977      0000
 2978 030f E818FDFF 		call	_initImageProcessData
 2978      FF
 322:../../MMI/Resource/WriteProcess.cpp **** #ifdef __MMI_RESOURCE_ENFB_SUPPORT__
 323:../../MMI/Resource/WriteProcess.cpp ****     processData.disable_enfb = 1;
 324:../../MMI/Resource/WriteProcess.cpp **** #endif
 325:../../MMI/Resource/WriteProcess.cpp ****     SetNFBImageImp(filename, &processData);
 2980              	LM18:
 2981 0314 8D85C8FD 		leal	-568(%ebp), %eax
 2981      FFFF
 2982 031a 89442404 		movl	%eax, 4(%esp)
 2983 031e 8B4508   		movl	8(%ebp), %eax
 2984 0321 890424   		movl	%eax, (%esp)
 2985 0324 E8000000 		call	_SetNFBImageImp
 2985      00
 326:../../MMI/Resource/WriteProcess.cpp **** 
 327:../../MMI/Resource/WriteProcess.cpp ****     char *curr_output_data_filename = NFB_IMAGE_DATA_FILENAME;
 2987              	LM19:
 2988 0329 C785B4FD 		movl	$LC5, -588(%ebp)
 2988      FFFF0001 
 2988      0000
 328:../../MMI/Resource/WriteProcess.cpp ****     FILE *output_data_file = NULL;
 2990              	LM20:
 2991 0333 C785B0FD 		movl	$0, -592(%ebp)
 2991      FFFF0000 
 2991      0000
 329:../../MMI/Resource/WriteProcess.cpp ****     output_data_file = fopen(curr_output_data_filename, "ab");
 2993              	LM21:
 2994 033d C7442404 		movl	$LC6, 4(%esp)
 2994      31010000 
 2995 0345 8B85B4FD 		movl	-588(%ebp), %eax
 2995      FFFF
 2996 034b 890424   		movl	%eax, (%esp)
 2997 034e E8000000 		call	_fopen
 2997      00
 2998 0353 8985B0FD 		movl	%eax, -592(%ebp)
 2998      FFFF
 330:../../MMI/Resource/WriteProcess.cpp ****     IMGPROC_LOG_V("SetNFBImage: Open NFB image output file: %s, file descriptor: 0x%x", NFB_IMAGE_D
 3000              	LM22:
 3001 0359 8B85B0FD 		movl	-592(%ebp), %eax
 3001      FFFF
 3002 035f 89442410 		movl	%eax, 16(%esp)
GAS LISTING d:/software/ovi_2503a_s3trc/ovi_2503a_s3trc/plutommi/Customer/ResGenerator/gcctmp/ccuadaaa.s 			page 11


 3003 0363 C744240C 		movl	$LC5, 12(%esp)
 3003      00010000 
 3004 036b C7442408 		movl	$LC7, 8(%esp)
 3004      40010000 
 3005 0373 C7442404 		movl	$LC4, 4(%esp)
 3005      E4000000 
 3006 037b C7042401 		movl	$1, (%esp)
 3006      000000
 3007 0382 E8000000 		call	_reslog_adaptor_log
 3007      00
 331:../../MMI/Resource/WriteProcess.cpp ****     fflush(stdout);
 3009              	LM23:
 3010 0387 A1000000 		movl	__imp___iob, %eax
 3010      00
 3011 038c 83C020   		addl	$32, %eax
 3012 038f 890424   		movl	%eax, (%esp)
 3013 0392 E8000000 		call	_fflush
 3013      00
 332:../../MMI/Resource/WriteProcess.cpp **** 
 333:../../MMI/Resource/WriteProcess.cpp ****     while (output_data_file == NULL)
 3015              	LM24:
 3016              	L4:
 3017 0397 83BDB0FD 		cmpl	$0, -592(%ebp)
 3017      FFFF00
 3018 039e 7402     		je	L6
 3019 03a0 EB75     		jmp	L5
 3020              	L6:
 334:../../MMI/Resource/WriteProcess.cpp ****     {
 335:../../MMI/Resource/WriteProcess.cpp ****         IMGPROC_LOG_V("SetNFBImage: File descriptor can't be NULL for %s, retry... ", output_data_f
 3022              	LM25:
 3023 03a2 C7442410 		movl	$LC5, 16(%esp)
 3023      00010000 
 3024 03aa 8B85B0FD 		movl	-592(%ebp), %eax
 3024      FFFF
 3025 03b0 8944240C 		movl	%eax, 12(%esp)
 3026 03b4 C7442408 		movl	$LC8, 8(%esp)
 3026      A0010000 
 3027 03bc C7442404 		movl	$LC4, 4(%esp)
 3027      E4000000 
 3028 03c4 C7042401 		movl	$1, (%esp)
 3028      000000
 3029 03cb C78588FD 		movl	$1, -632(%ebp)
 3029      FFFF0100 
 3029      0000
 3030 03d5 E8000000 		call	_reslog_adaptor_log
 3030      00
 336:../../MMI/Resource/WriteProcess.cpp ****         fflush(stdout);
 3032              	LM26:
 3033 03da A1000000 		movl	__imp___iob, %eax
 3033      00
 3034 03df 83C020   		addl	$32, %eax
 3035 03e2 890424   		movl	%eax, (%esp)
 3036 03e5 E8000000 		call	_fflush
 3036      00
 337:../../MMI/Resource/WriteProcess.cpp ****         Sleep(50);
 3038              	LM27:
 3039 03ea C7042432 		movl	$50, (%esp)
GAS LISTING d:/software/ovi_2503a_s3trc/ovi_2503a_s3trc/plutommi/Customer/ResGenerator/gcctmp/ccuadaaa.s 			page 12


 3039      000000
 3040 03f1 E8000000 		call	_Sleep@4
 3040      00
 3041 03f6 83EC04   		subl	$4, %esp
 338:../../MMI/Resource/WriteProcess.cpp ****         output_data_file = fopen(curr_output_data_filename, "ab");
 3043              	LM28:
 3044 03f9 C7442404 		movl	$LC6, 4(%esp)
 3044      31010000 
 3045 0401 8B85B4FD 		movl	-588(%ebp), %eax
 3045      FFFF
 3046 0407 890424   		movl	%eax, (%esp)
 3047 040a E8000000 		call	_fopen
 3047      00
 3048 040f 8985B0FD 		movl	%eax, -592(%ebp)
 3048      FFFF
 3049 0415 EB80     		jmp	L4
 3050              	L5:
 339:../../MMI/Resource/WriteProcess.cpp ****     }
 340:../../MMI/Resource/WriteProcess.cpp **** 
 341:../../MMI/Resource/WriteProcess.cpp ****     IMGPROC_LOG_V("SetNFBImage: Write NFB image data to %s, file descriptor: 0x%x", NFB_IMAGE_DATA_
 3052              	LM29:
 3053 0417 8B85B0FD 		movl	-592(%ebp), %eax
 3053      FFFF
 3054 041d 89442410 		movl	%eax, 16(%esp)
 3055 0421 C744240C 		movl	$LC5, 12(%esp)
 3055      00010000 
 3056 0429 C7442408 		movl	$LC9, 8(%esp)
 3056      E0010000 
 3057 0431 C7442404 		movl	$LC4, 4(%esp)
 3057      E4000000 
 3058 0439 C7042401 		movl	$1, (%esp)
 3058      000000
 3059 0440 C78588FD 		movl	$1, -632(%ebp)
 3059      FFFF0100 
 3059      0000
 3060 044a E8000000 		call	_reslog_adaptor_log
 3060      00
 342:../../MMI/Resource/WriteProcess.cpp ****     fflush(stdout);
 3062              	LM30:
 3063 044f A1000000 		movl	__imp___iob, %eax
 3063      00
 3064 0454 83C020   		addl	$32, %eax
 3065 0457 890424   		movl	%eax, (%esp)
 3066 045a E8000000 		call	_fflush
 3066      00
 343:../../MMI/Resource/WriteProcess.cpp ****     ImageOutStreamOutputFile(&outstream, output_data_file);
 3068              	LM31:
 3069 045f 8B85B0FD 		movl	-592(%ebp), %eax
 3069      FFFF
 3070 0465 89442404 		movl	%eax, 4(%esp)
 3071 0469 8D85B8FD 		leal	-584(%ebp), %eax
 3071      FFFF
 3072 046f 890424   		movl	%eax, (%esp)
 3073 0472 E81F1900 		call	_ImageOutStreamOutputFile
 3073      00
 344:../../MMI/Resource/WriteProcess.cpp **** 
 345:../../MMI/Resource/WriteProcess.cpp ****     IMGPROC_LOG_V("SetNFBImage: Close NFB image output file: %s, file descriptor: 0x%x", NFB_IMAGE_
GAS LISTING d:/software/ovi_2503a_s3trc/ovi_2503a_s3trc/plutommi/Customer/ResGenerator/gcctmp/ccuadaaa.s 			page 13


 3075              	LM32:
 3076 0477 8B85B0FD 		movl	-592(%ebp), %eax
 3076      FFFF
 3077 047d 89442410 		movl	%eax, 16(%esp)
 3078 0481 C744240C 		movl	$LC5, 12(%esp)
 3078      00010000 
 3079 0489 C7442408 		movl	$LC10, 8(%esp)
 3079      20020000 
 3080 0491 C7442404 		movl	$LC4, 4(%esp)
 3080      E4000000 
 3081 0499 C7042401 		movl	$1, (%esp)
 3081      000000
 3082 04a0 E8000000 		call	_reslog_adaptor_log
 3082      00
 346:../../MMI/Resource/WriteProcess.cpp ****     fflush(stdout);
 3084              	LM33:
 3085 04a5 A1000000 		movl	__imp___iob, %eax
 3085      00
 3086 04aa 83C020   		addl	$32, %eax
 3087 04ad 890424   		movl	%eax, (%esp)
 3088 04b0 E8000000 		call	_fflush
 3088      00
 347:../../MMI/Resource/WriteProcess.cpp ****     MYFCLOSE(output_data_file);
 3090              	LM34:
 3091 04b5 83BDB0FD 		cmpl	$0, -592(%ebp)
 3091      FFFF00
 3092 04bc 7467     		je	L10
 3093 04be 8B85B0FD 		movl	-592(%ebp), %eax
 3093      FFFF
 3094 04c4 890424   		movl	%eax, (%esp)
 3095 04c7 E8000000 		call	_fclose
 3095      00
 3096 04cc C785B0FD 		movl	$0, -592(%ebp)
 3096      FFFF0000 
 3096      0000
 3097 04d6 EB4D     		jmp	L10
 3098              	L13:
 3099 04d8 8D6D18   		leal	24(%ebp), %ebp
 3100 04db 8B858CFD 		movl	-628(%ebp), %eax
 3100      FFFF
 3101 04e1 89857CFD 		movl	%eax, -644(%ebp)
 3101      FFFF
 3102              	L9:
 3103 04e7 8B957CFD 		movl	-644(%ebp), %edx
 3103      FFFF
 3104 04ed 899580FD 		movl	%edx, -640(%ebp)
 3104      FFFF
 3105 04f3 8D85B8FD 		leal	-584(%ebp), %eax
 3105      FFFF
 3106 04f9 890424   		movl	%eax, (%esp)
 3107 04fc E8000000 		call	__ZN21_ResgenImageOutStreamD1Ev
 3107      00
 3108 0501 8B8580FD 		movl	-640(%ebp), %eax
 3108      FFFF
 3109 0507 89857CFD 		movl	%eax, -644(%ebp)
 3109      FFFF
 3110              	L11:
GAS LISTING d:/software/ovi_2503a_s3trc/ovi_2503a_s3trc/plutommi/Customer/ResGenerator/gcctmp/ccuadaaa.s 			page 14


 3111 050d 8B957CFD 		movl	-644(%ebp), %edx
 3111      FFFF
 3112 0513 891424   		movl	%edx, (%esp)
 3113 0516 C78588FD 		movl	$-1, -632(%ebp)
 3113      FFFFFFFF 
 3113      FFFF
 3114 0520 E8000000 		call	__Unwind_SjLj_Resume
 3114      00
 3115              	L10:
 3116 0525 8D85B8FD 		leal	-584(%ebp), %eax
 3116      FFFF
 3117 052b 890424   		movl	%eax, (%esp)
 3118 052e E8000000 		call	__ZN21_ResgenImageOutStreamD1Ev
 3118      00
 348:../../MMI/Resource/WriteProcess.cpp **** }
 3120              	LM35:
 3121              	L3:
 3122 0533 8D8584FD 		leal	-636(%ebp), %eax
 3122      FFFF
 3123 0539 890424   		movl	%eax, (%esp)
 3124 053c E8000000 		call	__Unwind_SjLj_Unregister
 3124      00
 3125 0541 8D65F4   		leal	-12(%ebp), %esp
 3126 0544 5B       		popl	%ebx
 3127 0545 5E       		popl	%esi
 3128 0546 5F       		popl	%edi
 3129 0547 5D       		popl	%ebp
 3130 0548 C3       		ret
 3131              	LBE3:
 3132              		.section	.gcc_except_table,""
 3133              	LLSDA2137:
 3134 0000 FF       		.byte	0xff
 3135 0001 FF       		.byte	0xff
 3136 0002 01       		.byte	0x1
 3137 0003 02       		.uleb128 LLSDACSE2137-LLSDACSB2137
 3138              	LLSDACSB2137:
 3139 0004 00       		.uleb128 0x0
 3140 0005 00       		.uleb128 0x0
 3141              	LLSDACSE2137:
 3142              		.text
 3149              	Lscope1:
 3151 0549 90       		.align 2
 3156              	.globl _SetImage
 3158              	_SetImage:
 349:../../MMI/Resource/WriteProcess.cpp **** 
 350:../../MMI/Resource/WriteProcess.cpp **** /*****************************************************************************
 351:../../MMI/Resource/WriteProcess.cpp **** * FUNCTION
 352:../../MMI/Resource/WriteProcess.cpp **** *  SetImage
 353:../../MMI/Resource/WriteProcess.cpp **** * DESCRIPTION
 354:../../MMI/Resource/WriteProcess.cpp **** *  Function to Update the Customizable Image Filename & Mapping Array.
 355:../../MMI/Resource/WriteProcess.cpp **** * PARAMETERS
 356:../../MMI/Resource/WriteProcess.cpp **** *  ImgId           [IN]
 357:../../MMI/Resource/WriteProcess.cpp **** *  filename        [?]
 358:../../MMI/Resource/WriteProcess.cpp **** *  enum_value      [?]
 359:../../MMI/Resource/WriteProcess.cpp **** *  U16(?)          [OUT]       Image Number which is Mapped with the ImageId.
 360:../../MMI/Resource/WriteProcess.cpp **** * RETURNS
 361:../../MMI/Resource/WriteProcess.cpp **** *  Image Number which is mapped with the ImageId.(?)
GAS LISTING d:/software/ovi_2503a_s3trc/ovi_2503a_s3trc/plutommi/Customer/ResGenerator/gcctmp/ccuadaaa.s 			page 15


 362:../../MMI/Resource/WriteProcess.cpp **** *****************************************************************************/
 363:../../MMI/Resource/WriteProcess.cpp **** extern "C" void SetImage(U16 ImgId, S8 *filename, S8 *enum_value)  /* 120304 Calvin modified for me
 364:../../MMI/Resource/WriteProcess.cpp **** {
 3160              	LM36:
 3161 054a 55       		pushl	%ebp
 3162 054b 89E5     		movl	%esp, %ebp
 3163 054d 83EC18   		subl	$24, %esp
 3164 0550 8B4508   		movl	8(%ebp), %eax
 3165 0553 668945FE 		movw	%ax, -2(%ebp)
 365:../../MMI/Resource/WriteProcess.cpp ****     /*----------------------------------------------------------------*/
 366:../../MMI/Resource/WriteProcess.cpp ****     /* Local Variables                                                */
 367:../../MMI/Resource/WriteProcess.cpp ****     /*----------------------------------------------------------------*/
 368:../../MMI/Resource/WriteProcess.cpp **** 
 369:../../MMI/Resource/WriteProcess.cpp ****     /*----------------------------------------------------------------*/
 370:../../MMI/Resource/WriteProcess.cpp ****     /* Code Body                                                      */
 371:../../MMI/Resource/WriteProcess.cpp ****     /*----------------------------------------------------------------*/
 372:../../MMI/Resource/WriteProcess.cpp ****     SetImageWithBuffer(ImgId, filename, enum_value, FALSE);       /* 040805 CustPack: Calvin revise
 3167              	LM37:
 3168              	LBB4:
 3169 0557 C744240C 		movl	$0, 12(%esp)
 3169      00000000 
 3170 055f 8B4510   		movl	16(%ebp), %eax
 3171 0562 89442408 		movl	%eax, 8(%esp)
 3172 0566 8B450C   		movl	12(%ebp), %eax
 3173 0569 89442404 		movl	%eax, 4(%esp)
 3174 056d 0FB745FE 		movzwl	-2(%ebp), %eax
 3175 0571 890424   		movl	%eax, (%esp)
 3176 0574 E83B0000 		call	_SetImageWithBuffer
 3176      00
 373:../../MMI/Resource/WriteProcess.cpp **** }
 3178              	LM38:
 3179 0579 C9       		leave
 3180 057a C3       		ret
 3181              	LBE4:
 3183              	Lscope2:
 3185 057b 90       		.align 2
 3192              	.globl _SetImageWithBufferForceType
 3194              	_SetImageWithBufferForceType:
 374:../../MMI/Resource/WriteProcess.cpp **** 
 375:../../MMI/Resource/WriteProcess.cpp **** /*****************************************************************************
 376:../../MMI/Resource/WriteProcess.cpp **** * FUNCTION
 377:../../MMI/Resource/WriteProcess.cpp **** *  SetImageWithBufferForceType
 378:../../MMI/Resource/WriteProcess.cpp **** * DESCRIPTION
 379:../../MMI/Resource/WriteProcess.cpp **** *  Function to copy the image file to buffer use force type
 380:../../MMI/Resource/WriteProcess.cpp **** * PARAMETERS
 381:../../MMI/Resource/WriteProcess.cpp **** *  nImgId              [IN]
 382:../../MMI/Resource/WriteProcess.cpp **** *  filename            [?]
 383:../../MMI/Resource/WriteProcess.cpp **** *  enum_value          [?]
 384:../../MMI/Resource/WriteProcess.cpp **** *  imgFlag             [IN]
 385:../../MMI/Resource/WriteProcess.cpp **** *  S8(?)               [OUT]       -> filename of the image to be displayed.
 386:../../MMI/Resource/WriteProcess.cpp **** *  U16(?)              [IN]        -> ImageId
 387:../../MMI/Resource/WriteProcess.cpp **** * RETURNS
 388:../../MMI/Resource/WriteProcess.cpp **** *  void
 389:../../MMI/Resource/WriteProcess.cpp **** *****************************************************************************/
 390:../../MMI/Resource/WriteProcess.cpp **** extern "C" void SetImageWithBufferForceType(U16 nImgId, S8 *filename, S8 *enum_value, BOOL imgFlag,
 391:../../MMI/Resource/WriteProcess.cpp **** {
 3196              	LM39:
GAS LISTING d:/software/ovi_2503a_s3trc/ovi_2503a_s3trc/plutommi/Customer/ResGenerator/gcctmp/ccuadaaa.s 			page 16


 3197 057c 55       		pushl	%ebp
 3198 057d 89E5     		movl	%esp, %ebp
 3199 057f 83EC18   		subl	$24, %esp
 3200 0582 8B4508   		movl	8(%ebp), %eax
 3201 0585 668945FE 		movw	%ax, -2(%ebp)
 392:../../MMI/Resource/WriteProcess.cpp ****     SetImageWithBufferEx(nImgId, filename, enum_value, imgFlag, force_type);
 3203              	LM40:
 3204              	LBB5:
 3205 0589 8B4518   		movl	24(%ebp), %eax
 3206 058c 89442410 		movl	%eax, 16(%esp)
 3207 0590 8B4514   		movl	20(%ebp), %eax
 3208 0593 8944240C 		movl	%eax, 12(%esp)
 3209 0597 8B4510   		movl	16(%ebp), %eax
 3210 059a 89442408 		movl	%eax, 8(%esp)
 3211 059e 8B450C   		movl	12(%ebp), %eax
 3212 05a1 89442404 		movl	%eax, 4(%esp)
 3213 05a5 0FB745FE 		movzwl	-2(%ebp), %eax
 3214 05a9 890424   		movl	%eax, (%esp)
 3215 05ac E8370100 		call	__Z20SetImageWithBufferExtPcS_ii
 3215      00
 393:../../MMI/Resource/WriteProcess.cpp **** }
 3217              	LM41:
 3218 05b1 C9       		leave
 3219 05b2 C3       		ret
 3220              	LBE5:
 3222              	Lscope3:
 3224 05b3 90       		.align 2
 3230              	.globl _SetImageWithBuffer
 3232              	_SetImageWithBuffer:
 394:../../MMI/Resource/WriteProcess.cpp **** 
 395:../../MMI/Resource/WriteProcess.cpp **** /*****************************************************************************
 396:../../MMI/Resource/WriteProcess.cpp **** * FUNCTION
 397:../../MMI/Resource/WriteProcess.cpp **** *  SetImageWithBuffer
 398:../../MMI/Resource/WriteProcess.cpp **** * DESCRIPTION
 399:../../MMI/Resource/WriteProcess.cpp **** *  Function to copy the image file to buffer
 400:../../MMI/Resource/WriteProcess.cpp **** * PARAMETERS
 401:../../MMI/Resource/WriteProcess.cpp **** *  nImgId              [IN]
 402:../../MMI/Resource/WriteProcess.cpp **** *  filename            [?]
 403:../../MMI/Resource/WriteProcess.cpp **** *  enum_value          [?]
 404:../../MMI/Resource/WriteProcess.cpp **** *  imgFlag             [IN]
 405:../../MMI/Resource/WriteProcess.cpp **** *  S8(?)               [OUT]       -> filename of the image to be displayed.
 406:../../MMI/Resource/WriteProcess.cpp **** *  U16(?)              [IN]        -> ImageId
 407:../../MMI/Resource/WriteProcess.cpp **** * RETURNS
 408:../../MMI/Resource/WriteProcess.cpp **** *  void
 409:../../MMI/Resource/WriteProcess.cpp **** *****************************************************************************/
 410:../../MMI/Resource/WriteProcess.cpp **** extern "C" void SetImageWithBuffer(U16 nImgId, S8 *filename, S8 *enum_value, BOOL imgFlag)      /* 
 411:../../MMI/Resource/WriteProcess.cpp **** {
 3234              	LM42:
 3235 05b4 55       		pushl	%ebp
 3236 05b5 89E5     		movl	%esp, %ebp
 3237 05b7 83EC18   		subl	$24, %esp
 3238 05ba 8B4508   		movl	8(%ebp), %eax
 3239 05bd 668945FE 		movw	%ax, -2(%ebp)
 412:../../MMI/Resource/WriteProcess.cpp ****     SetImageWithBufferEx(nImgId, filename, enum_value, imgFlag, AUTO_TYPE);
 3241              	LM43:
 3242              	LBB6:
 3243 05c1 C7442410 		movl	$0, 16(%esp)
GAS LISTING d:/software/ovi_2503a_s3trc/ovi_2503a_s3trc/plutommi/Customer/ResGenerator/gcctmp/ccuadaaa.s 			page 17


 3243      00000000 
 3244 05c9 8B4514   		movl	20(%ebp), %eax
 3245 05cc 8944240C 		movl	%eax, 12(%esp)
 3246 05d0 8B4510   		movl	16(%ebp), %eax
 3247 05d3 89442408 		movl	%eax, 8(%esp)
 3248 05d7 8B450C   		movl	12(%ebp), %eax
 3249 05da 89442404 		movl	%eax, 4(%esp)
 3250 05de 0FB745FE 		movzwl	-2(%ebp), %eax
 3251 05e2 890424   		movl	%eax, (%esp)
 3252 05e5 E8FE0000 		call	__Z20SetImageWithBufferExtPcS_ii
 3252      00
 413:../../MMI/Resource/WriteProcess.cpp **** }
 3254              	LM44:
 3255 05ea C9       		leave
 3256 05eb C3       		ret
 3257              	LBE6:
 3259              	Lscope4:
 3261              		.align 2
 3268              	.globl _SetImageQWithBuffer
 3270              	_SetImageQWithBuffer:
 414:../../MMI/Resource/WriteProcess.cpp **** 
 415:../../MMI/Resource/WriteProcess.cpp **** extern "C" void SetImageQWithBuffer(U16 nImgId, S8 *filename, S8 *enum_value, BOOL imgFlag, S32 qua
 416:../../MMI/Resource/WriteProcess.cpp **** {
 3272              	LM45:
 3273 05ec 55       		pushl	%ebp
 3274 05ed 89E5     		movl	%esp, %ebp
 3275 05ef 83EC28   		subl	$40, %esp
 3276 05f2 8B4508   		movl	8(%ebp), %eax
 3277 05f5 668945FE 		movw	%ax, -2(%ebp)
 417:../../MMI/Resource/WriteProcess.cpp ****     SetImageQWithBufferEx(nImgId, filename, enum_value, imgFlag, AUTO_TYPE, quality);
 3279              	LM46:
 3280              	LBB7:
 3281 05f9 8B4518   		movl	24(%ebp), %eax
 3282 05fc 89442414 		movl	%eax, 20(%esp)
 3283 0600 C7442410 		movl	$0, 16(%esp)
 3283      00000000 
 3284 0608 8B4514   		movl	20(%ebp), %eax
 3285 060b 8944240C 		movl	%eax, 12(%esp)
 3286 060f 8B4510   		movl	16(%ebp), %eax
 3287 0612 89442408 		movl	%eax, 8(%esp)
 3288 0616 8B450C   		movl	12(%ebp), %eax
 3289 0619 89442404 		movl	%eax, 4(%esp)
 3290 061d 0FB745FE 		movzwl	-2(%ebp), %eax
 3291 0621 890424   		movl	%eax, (%esp)
 3292 0624 E8230100 		call	__Z21SetImageQWithBufferExtPcS_iii
 3292      00
 418:../../MMI/Resource/WriteProcess.cpp **** }
 3294              	LM47:
 3295 0629 C9       		leave
 3296 062a C3       		ret
 3297              	LBE7:
 3299              	Lscope5:
 3301 062b 90       		.align 2
 3309              	.globl _SetImageQWithBufferForceType
 3311              	_SetImageQWithBufferForceType:
 419:../../MMI/Resource/WriteProcess.cpp **** 
 420:../../MMI/Resource/WriteProcess.cpp **** extern "C" void SetImageQWithBufferForceType(U16 nImgId, S8 *filename, S8 *enum_value, BOOL imgFlag
GAS LISTING d:/software/ovi_2503a_s3trc/ovi_2503a_s3trc/plutommi/Customer/ResGenerator/gcctmp/ccuadaaa.s 			page 18


 421:../../MMI/Resource/WriteProcess.cpp **** {
 3313              	LM48:
 3314 062c 55       		pushl	%ebp
 3315 062d 89E5     		movl	%esp, %ebp
 3316 062f 83EC28   		subl	$40, %esp
 3317 0632 8B4508   		movl	8(%ebp), %eax
 3318 0635 668945FE 		movw	%ax, -2(%ebp)
 422:../../MMI/Resource/WriteProcess.cpp ****     SetImageQWithBufferEx(nImgId, filename, enum_value, imgFlag, force_type,quality);
 3320              	LM49:
 3321              	LBB8:
 3322 0639 8B451C   		movl	28(%ebp), %eax
 3323 063c 89442414 		movl	%eax, 20(%esp)
 3324 0640 8B4518   		movl	24(%ebp), %eax
 3325 0643 89442410 		movl	%eax, 16(%esp)
 3326 0647 8B4514   		movl	20(%ebp), %eax
 3327 064a 8944240C 		movl	%eax, 12(%esp)
 3328 064e 8B4510   		movl	16(%ebp), %eax
 3329 0651 89442408 		movl	%eax, 8(%esp)
 3330 0655 8B450C   		movl	12(%ebp), %eax
 3331 0658 89442404 		movl	%eax, 4(%esp)
 3332 065c 0FB745FE 		movzwl	-2(%ebp), %eax
 3333 0660 890424   		movl	%eax, (%esp)
 3334 0663 E8E40000 		call	__Z21SetImageQWithBufferExtPcS_iii
 3334      00
 423:../../MMI/Resource/WriteProcess.cpp **** }
 3336              	LM50:
 3337 0668 C9       		leave
 3338 0669 C3       		ret
 3339              	LBE8:
 3341              	Lscope6:
 3351              	.lcomm _g_resgen_png_image_list,16
 3360              	.lcomm _g_log_binary_data_list,16
 3361              		.align 2
 3365              	__Z13stringToUpperSs:
 424:../../MMI/Resource/WriteProcess.cpp **** 
 425:../../MMI/Resource/WriteProcess.cpp **** struct ProcessImageData
 426:../../MMI/Resource/WriteProcess.cpp **** {
 427:../../MMI/Resource/WriteProcess.cpp ****     ProcessImageData(U16 nImgId, S8 *filename, S8 *enum_value, BOOL imgFlag, S32 force_type):
 428:../../MMI/Resource/WriteProcess.cpp **** m_nImgId(nImgId),
 429:../../MMI/Resource/WriteProcess.cpp **** m_filename(filename),
 430:../../MMI/Resource/WriteProcess.cpp **** m_enum_value(enum_value),
 431:../../MMI/Resource/WriteProcess.cpp **** m_imgFlag(imgFlag),
 432:../../MMI/Resource/WriteProcess.cpp **** m_force_type(force_type)
 433:../../MMI/Resource/WriteProcess.cpp **** {
 434:../../MMI/Resource/WriteProcess.cpp ****     initImageProcessData(&m_processData);
 435:../../MMI/Resource/WriteProcess.cpp ****     m_processData.outstream = &m_outstream;
 436:../../MMI/Resource/WriteProcess.cpp **** }
 437:../../MMI/Resource/WriteProcess.cpp **** 
 438:../../MMI/Resource/WriteProcess.cpp **** ProcessImageData(U16 nImgId, S8 *filename, S8 *enum_value, BOOL imgFlag, S32 force_type, S32 qualit
 439:../../MMI/Resource/WriteProcess.cpp **** m_nImgId(nImgId),
 440:../../MMI/Resource/WriteProcess.cpp **** m_filename(filename),
 441:../../MMI/Resource/WriteProcess.cpp **** m_enum_value(enum_value),
 442:../../MMI/Resource/WriteProcess.cpp **** m_imgFlag(imgFlag),
 443:../../MMI/Resource/WriteProcess.cpp **** m_force_type(force_type)
 444:../../MMI/Resource/WriteProcess.cpp **** {
 445:../../MMI/Resource/WriteProcess.cpp ****     initImageProcessData(&m_processData);
 446:../../MMI/Resource/WriteProcess.cpp ****     m_processData.outstream = &m_outstream;
GAS LISTING d:/software/ovi_2503a_s3trc/ovi_2503a_s3trc/plutommi/Customer/ResGenerator/gcctmp/ccuadaaa.s 			page 19


 447:../../MMI/Resource/WriteProcess.cpp ****     m_processData.quality = quality;
 448:../../MMI/Resource/WriteProcess.cpp **** }
 449:../../MMI/Resource/WriteProcess.cpp **** 
 450:../../MMI/Resource/WriteProcess.cpp **** 
 451:../../MMI/Resource/WriteProcess.cpp **** ProcessImageData(const ProcessImageData & src)
 452:../../MMI/Resource/WriteProcess.cpp **** {
 453:../../MMI/Resource/WriteProcess.cpp ****     m_nImgId = src.m_nImgId;
 454:../../MMI/Resource/WriteProcess.cpp ****     m_filename = src.m_filename;
 455:../../MMI/Resource/WriteProcess.cpp ****     m_enum_value = src.m_enum_value;
 456:../../MMI/Resource/WriteProcess.cpp ****     m_imgFlag = src.m_imgFlag;
 457:../../MMI/Resource/WriteProcess.cpp ****     m_force_type = src.m_force_type;
 458:../../MMI/Resource/WriteProcess.cpp ****     m_processData = src.m_processData;
 459:../../MMI/Resource/WriteProcess.cpp ****     m_outstream = src.m_outstream;
 460:../../MMI/Resource/WriteProcess.cpp ****     m_processData.outstream = &m_outstream;
 461:../../MMI/Resource/WriteProcess.cpp ****     m_processData.quality =src.m_processData.quality;
 462:../../MMI/Resource/WriteProcess.cpp **** 
 463:../../MMI/Resource/WriteProcess.cpp **** }
 464:../../MMI/Resource/WriteProcess.cpp **** ProcessImageData & operator= (const ProcessImageData & src)
 465:../../MMI/Resource/WriteProcess.cpp **** {
 466:../../MMI/Resource/WriteProcess.cpp ****     m_nImgId = src.m_nImgId;
 467:../../MMI/Resource/WriteProcess.cpp ****     m_filename = src.m_filename;
 468:../../MMI/Resource/WriteProcess.cpp ****     m_enum_value = src.m_enum_value;
 469:../../MMI/Resource/WriteProcess.cpp ****     m_imgFlag = src.m_imgFlag;
 470:../../MMI/Resource/WriteProcess.cpp ****     m_force_type = src.m_force_type;
 471:../../MMI/Resource/WriteProcess.cpp ****     m_processData = src.m_processData;
 472:../../MMI/Resource/WriteProcess.cpp ****     m_outstream = src.m_outstream;
 473:../../MMI/Resource/WriteProcess.cpp ****     m_processData.outstream = &m_outstream;
 474:../../MMI/Resource/WriteProcess.cpp ****     m_processData.quality =src.m_processData.quality;
 475:../../MMI/Resource/WriteProcess.cpp **** 
 476:../../MMI/Resource/WriteProcess.cpp ****     return *this;
 477:../../MMI/Resource/WriteProcess.cpp **** }
 478:../../MMI/Resource/WriteProcess.cpp **** 
 479:../../MMI/Resource/WriteProcess.cpp **** U16     m_nImgId;
 480:../../MMI/Resource/WriteProcess.cpp **** string  m_filename;
 481:../../MMI/Resource/WriteProcess.cpp **** string  m_enum_value;
 482:../../MMI/Resource/WriteProcess.cpp **** BOOL    m_imgFlag;
 483:../../MMI/Resource/WriteProcess.cpp **** S32     m_force_type;
 484:../../MMI/Resource/WriteProcess.cpp **** SetImageProcessData m_processData;
 485:../../MMI/Resource/WriteProcess.cpp **** ResgenImageOutStream m_outstream;
 486:../../MMI/Resource/WriteProcess.cpp **** };
 487:../../MMI/Resource/WriteProcess.cpp **** 
 488:../../MMI/Resource/WriteProcess.cpp **** typedef list<ProcessImageData> ProcessImageList;
 489:../../MMI/Resource/WriteProcess.cpp **** static ProcessImageList g_resgen_png_image_list;
 490:../../MMI/Resource/WriteProcess.cpp **** 
 491:../../MMI/Resource/WriteProcess.cpp **** struct LogBinaryData
 492:../../MMI/Resource/WriteProcess.cpp **** {
 493:../../MMI/Resource/WriteProcess.cpp ****     U16     m_res_id;
 494:../../MMI/Resource/WriteProcess.cpp ****     string  m_filename;
 495:../../MMI/Resource/WriteProcess.cpp ****     int     m_binary_type;
 496:../../MMI/Resource/WriteProcess.cpp **** 
 497:../../MMI/Resource/WriteProcess.cpp ****     LogBinaryData(U16 res_id, char * filename, int binary_type):
 498:../../MMI/Resource/WriteProcess.cpp ****     m_res_id(res_id),
 499:../../MMI/Resource/WriteProcess.cpp ****         m_filename(filename),
 500:../../MMI/Resource/WriteProcess.cpp ****         m_binary_type(binary_type)
 501:../../MMI/Resource/WriteProcess.cpp ****     {
 502:../../MMI/Resource/WriteProcess.cpp ****     }
 503:../../MMI/Resource/WriteProcess.cpp **** };
GAS LISTING d:/software/ovi_2503a_s3trc/ovi_2503a_s3trc/plutommi/Customer/ResGenerator/gcctmp/ccuadaaa.s 			page 20


 504:../../MMI/Resource/WriteProcess.cpp **** 
 505:../../MMI/Resource/WriteProcess.cpp **** typedef list<LogBinaryData> LogBinaryDataList;
 506:../../MMI/Resource/WriteProcess.cpp **** static LogBinaryDataList g_log_binary_data_list;
 507:../../MMI/Resource/WriteProcess.cpp **** 
 508:../../MMI/Resource/WriteProcess.cpp **** static string stringToUpper(string str)
 509:../../MMI/Resource/WriteProcess.cpp **** {
 3367              	LM51:
 3368 066a 55       		pushl	%ebp
 3369 066b 89E5     		movl	%esp, %ebp
 3370 066d 53       		pushl	%ebx
 3371 066e 83EC14   		subl	$20, %esp
 510:../../MMI/Resource/WriteProcess.cpp ****     const int length = str.length();
 3373              	LM52:
 3374 0671 8B450C   		movl	12(%ebp), %eax
 3375              	LBB9:
 3376 0674 890424   		movl	%eax, (%esp)
 3377 0677 E8000000 		call	__ZNKSs6lengthEv
 3377      00
 3378 067c 8945F8   		movl	%eax, -8(%ebp)
 511:../../MMI/Resource/WriteProcess.cpp ****     for(int i=0; i!=length ; ++i)
 3380              	LM53:
 3381              	LBB10:
 3382 067f C745F400 		movl	$0, -12(%ebp)
 3382      000000
 3383              	L20:
 3384 0686 8B45F4   		movl	-12(%ebp), %eax
 3385 0689 3B45F8   		cmpl	-8(%ebp), %eax
 3386 068c 7502     		jne	L23
 3387 068e EB3A     		jmp	L21
 3388              	L23:
 512:../../MMI/Resource/WriteProcess.cpp ****     {
 513:../../MMI/Resource/WriteProcess.cpp ****         str[i] = toupper(str[i]);
 3390              	LM54:
 3391 0690 8B45F4   		movl	-12(%ebp), %eax
 3392 0693 89442404 		movl	%eax, 4(%esp)
 3393 0697 8B450C   		movl	12(%ebp), %eax
 3394 069a 890424   		movl	%eax, (%esp)
 3395 069d E8000000 		call	__ZNSsixEj
 3395      00
 3396 06a2 89C3     		movl	%eax, %ebx
 3397 06a4 8B45F4   		movl	-12(%ebp), %eax
 3398 06a7 89442404 		movl	%eax, 4(%esp)
 3399 06ab 8B450C   		movl	12(%ebp), %eax
 3400 06ae 890424   		movl	%eax, (%esp)
 3401 06b1 E8000000 		call	__ZNSsixEj
 3401      00
 3402 06b6 0FBE00   		movsbl	(%eax),%eax
 3403 06b9 890424   		movl	%eax, (%esp)
 3404 06bc E8000000 		call	_toupper
 3404      00
 3405 06c1 8803     		movb	%al, (%ebx)
 3407              	LM55:
 3408 06c3 8D45F4   		leal	-12(%ebp), %eax
 3409 06c6 FF00     		incl	(%eax)
 3410 06c8 EBBC     		jmp	L20
 3411              	L21:
 514:../../MMI/Resource/WriteProcess.cpp ****     }
GAS LISTING d:/software/ovi_2503a_s3trc/ovi_2503a_s3trc/plutommi/Customer/ResGenerator/gcctmp/ccuadaaa.s 			page 21


 515:../../MMI/Resource/WriteProcess.cpp ****     return str;
 3413              	LM56:
 3414 06ca 8B450C   		movl	12(%ebp), %eax
 3415              	LBE10:
 3416 06cd 89442404 		movl	%eax, 4(%esp)
 3417 06d1 8B4508   		movl	8(%ebp), %eax
 3418 06d4 890424   		movl	%eax, (%esp)
 3419 06d7 E8000000 		call	__ZNSsC1ERKSs
 3419      00
 516:../../MMI/Resource/WriteProcess.cpp **** }
 3421              	LM57:
 3422              	LBE9:
 3423 06dc 8B4508   		movl	8(%ebp), %eax
 3424 06df 83C414   		addl	$20, %esp
 3425 06e2 5B       		popl	%ebx
 3426 06e3 5D       		popl	%ebp
 3427 06e4 C20400   		ret	$4
 3435              	Lscope7:
 3437 06e7 90       		.align 2
 3444              	.globl __Z20SetImageWithBufferExtPcS_ii
 3446              	__Z20SetImageWithBufferExtPcS_ii:
 517:../../MMI/Resource/WriteProcess.cpp **** 
 518:../../MMI/Resource/WriteProcess.cpp **** void SetImageWithBufferEx(U16 nImgId, S8 *filename, S8 *enum_value, BOOL imgFlag, S32 force_type){
 3448              	LM58:
 3449 06e8 55       		pushl	%ebp
 3450 06e9 89E5     		movl	%esp, %ebp
 3451 06eb 83EC28   		subl	$40, %esp
 3452 06ee 8B4508   		movl	8(%ebp), %eax
 3453 06f1 668945FE 		movw	%ax, -2(%ebp)
 519:../../MMI/Resource/WriteProcess.cpp ****     SetImageQWithBufferEx(nImgId,filename,enum_value,imgFlag,force_type,OFFLINE_IMAGE_PARAM_QUALITY
 3455              	LM59:
 3456              	LBB11:
 3457 06f5 C7442414 		movl	$1, 20(%esp)
 3457      01000000 
 3458 06fd 8B4518   		movl	24(%ebp), %eax
 3459 0700 89442410 		movl	%eax, 16(%esp)
 3460 0704 8B4514   		movl	20(%ebp), %eax
 3461 0707 8944240C 		movl	%eax, 12(%esp)
 3462 070b 8B4510   		movl	16(%ebp), %eax
 3463 070e 89442408 		movl	%eax, 8(%esp)
 3464 0712 8B450C   		movl	12(%ebp), %eax
 3465 0715 89442404 		movl	%eax, 4(%esp)
 3466 0719 0FB745FE 		movzwl	-2(%ebp), %eax
 3467 071d 890424   		movl	%eax, (%esp)
 3468 0720 E8270000 		call	__Z21SetImageQWithBufferExtPcS_iii
 3468      00
 520:../../MMI/Resource/WriteProcess.cpp **** 
 521:../../MMI/Resource/WriteProcess.cpp **** }
 3470              	LM60:
 3471 0725 C9       		leave
 3472 0726 C3       		ret
 3473              	LBE11:
 3475              	Lscope8:
 3478              	LC11:
 3479 0727 66696C65 		.ascii "file name%d = %s \12\0"
 3479      206E616D 
 3479      65256420 
GAS LISTING d:/software/ovi_2503a_s3trc/ovi_2503a_s3trc/plutommi/Customer/ResGenerator/gcctmp/ccuadaaa.s 			page 22


 3479      3D202573 
 3479      200A00
 3480              	LC12:
 3481 073a 496D6167 		.ascii "Image\0"
 3481      6500
 3482              	LC13:
 3483 0740 25640925 		.ascii "%d\11%s\11\11%s\12\0"
 3483      73090925 
 3483      730A00
 3484 074b 90       		.align 2
 3492              	.globl __Z21SetImageQWithBufferExtPcS_iii
 3494              	__Z21SetImageQWithBufferExtPcS_iii:
 522:../../MMI/Resource/WriteProcess.cpp **** void SetImageQWithBufferEx(U16 nImgId, S8 *filename, S8 *enum_value, BOOL imgFlag, S32 force_type, 
 523:../../MMI/Resource/WriteProcess.cpp **** {
 3496              	LM61:
 3497 074c 55       		pushl	%ebp
 3498 074d 89E5     		movl	%esp, %ebp
 3499 074f 57       		pushl	%edi
 3500 0750 56       		pushl	%esi
 3501 0751 53       		pushl	%ebx
 3502 0752 81ECFC04 		subl	$1276, %esp
 3502      0000
 3503 0758 8B4508   		movl	8(%ebp), %eax
 3504 075b 668945E6 		movw	%ax, -26(%ebp)
 3505 075f C78540FB 		movl	$___gxx_personality_sj0, -1216(%ebp)
 3505      FFFF0000 
 3505      0000
 3506 0769 C78544FB 		movl	$LLSDA2191, -1212(%ebp)
 3506      FFFF0600 
 3506      0000
 3507 0773 8D8548FB 		leal	-1208(%ebp), %eax
 3507      FFFF
 3508 0779 8D55E8   		leal	-24(%ebp), %edx
 3509 077c 8910     		movl	%edx, (%eax)
 3510 077e BA5D0A00 		movl	$L42, %edx
 3510      00
 3511 0783 895004   		movl	%edx, 4(%eax)
 3512 0786 896008   		movl	%esp, 8(%eax)
 3513 0789 8D8528FB 		leal	-1240(%ebp), %eax
 3513      FFFF
 3514 078f 890424   		movl	%eax, (%esp)
 3515 0792 E8000000 		call	__Unwind_SjLj_Register
 3515      00
 524:../../MMI/Resource/WriteProcess.cpp ****     // preprocess
 525:../../MMI/Resource/WriteProcess.cpp **** #if defined(__MULTIPLE_BINARY_FILES__) && defined(__MMI_RESOURCE_ENFB_SUPPORT__)
 526:../../MMI/Resource/WriteProcess.cpp ****     if (CustPack_ENFB_image_test(filename, 0 /* disable_enfb */) == MMI_TRUE)
 527:../../MMI/Resource/WriteProcess.cpp ****     {
 528:../../MMI/Resource/WriteProcess.cpp ****         imgFlag = MMI_TRUE;
 529:../../MMI/Resource/WriteProcess.cpp ****     }
 530:../../MMI/Resource/WriteProcess.cpp **** #endif /* defined(__MULTIPLE_BINARY_FILES__) && defined(__MMI_RESOURCE_ENFB_SUPPORT__) */
 531:../../MMI/Resource/WriteProcess.cpp **** 
 532:../../MMI/Resource/WriteProcess.cpp ****     CUSTOM_IMAGE_MAP *pImageIdMap;
 533:../../MMI/Resource/WriteProcess.cpp ****     unsigned short *pCurrMaxImageNum;
 534:../../MMI/Resource/WriteProcess.cpp ****     IMAGENAME_LIST *pImageNameList;
 535:../../MMI/Resource/WriteProcess.cpp **** 
 536:../../MMI/Resource/WriteProcess.cpp ****     if (imgFlag == TRUE)
 3517              	LM62:
GAS LISTING d:/software/ovi_2503a_s3trc/ovi_2503a_s3trc/plutommi/Customer/ResGenerator/gcctmp/ccuadaaa.s 			page 23


 3518              	LBB12:
 3519 0797 837D1401 		cmpl	$1, 20(%ebp)
 3520 079b 7517     		jne	L26
 537:../../MMI/Resource/WriteProcess.cpp ****     {
 538:../../MMI/Resource/WriteProcess.cpp ****         pImageIdMap = ImageIdMapEXT;
 3522              	LM63:
 3523 079d C745E000 		movl	$_ImageIdMapEXT, -32(%ebp)
 3523      000000
 539:../../MMI/Resource/WriteProcess.cpp ****         pImageNameList = ImageNameListEXT;
 3525              	LM64:
 3526 07a4 C745D800 		movl	$_ImageNameListEXT, -40(%ebp)
 3526      000000
 540:../../MMI/Resource/WriteProcess.cpp ****         pCurrMaxImageNum = &CurrMaxImageNumEXT;
 3528              	LM65:
 3529 07ab C745DC00 		movl	$_CurrMaxImageNumEXT, -36(%ebp)
 3529      000000
 3530 07b2 EB15     		jmp	L27
 3531              	L26:
 541:../../MMI/Resource/WriteProcess.cpp ****     }
 542:../../MMI/Resource/WriteProcess.cpp ****     else
 543:../../MMI/Resource/WriteProcess.cpp ****     {
 544:../../MMI/Resource/WriteProcess.cpp ****         pImageIdMap = ImageIdMap;
 3533              	LM66:
 3534 07b4 C745E000 		movl	$_ImageIdMap, -32(%ebp)
 3534      000000
 545:../../MMI/Resource/WriteProcess.cpp ****         pImageNameList = ImageNameList;
 3536              	LM67:
 3537 07bb C745D800 		movl	$_ImageNameList, -40(%ebp)
 3537      000000
 546:../../MMI/Resource/WriteProcess.cpp ****         pCurrMaxImageNum = &CurrMaxImageNum;
 3539              	LM68:
 3540 07c2 C745DC00 		movl	$_CurrMaxImageNum, -36(%ebp)
 3540      000000
 3541              	L27:
 547:../../MMI/Resource/WriteProcess.cpp ****     }
 548:../../MMI/Resource/WriteProcess.cpp **** 
 549:../../MMI/Resource/WriteProcess.cpp ****     fprintf(OutputImgIDFile, "file name%d = %s \n", image_idx++, filename);
 3543              	LM69:
 3544 07c9 8B450C   		movl	12(%ebp), %eax
 3545 07cc 8944240C 		movl	%eax, 12(%esp)
 3546 07d0 A1000000 		movl	_image_idx, %eax
 3546      00
 3547 07d5 89442408 		movl	%eax, 8(%esp)
 3548 07d9 FF050000 		incl	_image_idx
 3548      0000
 3549 07df C7442404 		movl	$LC11, 4(%esp)
 3549      27070000 
 3550 07e7 A1000000 		movl	_OutputImgIDFile, %eax
 3550      00
 3551 07ec 890424   		movl	%eax, (%esp)
 3552 07ef E8000000 		call	_fprintf
 3552      00
 550:../../MMI/Resource/WriteProcess.cpp **** 
 551:../../MMI/Resource/WriteProcess.cpp ****     if (strlen(filename) >= MAX_FILENAME_LEN)
 3554              	LM70:
 3555 07f4 8B450C   		movl	12(%ebp), %eax
 3556 07f7 890424   		movl	%eax, (%esp)
GAS LISTING d:/software/ovi_2503a_s3trc/ovi_2503a_s3trc/plutommi/Customer/ResGenerator/gcctmp/ccuadaaa.s 			page 24


 3557 07fa E8000000 		call	_strlen
 3557      00
 3558 07ff 3DFF0100 		cmpl	$511, %eax
 3558      00
 3559 0804 760B     		jbe	L28
 552:../../MMI/Resource/WriteProcess.cpp ****     {
 553:../../MMI/Resource/WriteProcess.cpp ****         filename[MAX_FILENAME_LEN - 1] = '\0';
 3561              	LM71:
 3562 0806 8B450C   		movl	12(%ebp), %eax
 3563 0809 05FF0100 		addl	$511, %eax
 3563      00
 3564 080e C60000   		movb	$0, (%eax)
 3565              	L28:
 554:../../MMI/Resource/WriteProcess.cpp ****     }
 555:../../MMI/Resource/WriteProcess.cpp **** 
 556:../../MMI/Resource/WriteProcess.cpp ****     if (pImageIdMap[nImgId].nImageNum != (U16)-1)
 3567              	LM72:
 3568 0811 0FB745E6 		movzwl	-26(%ebp), %eax
 3569 0815 8D1400   		leal	(%eax,%eax), %edx
 3570 0818 8B45E0   		movl	-32(%ebp), %eax
 3571 081b 66833C10 		cmpw	$-1, (%eax,%edx)
 3571      FF
 3572 0820 7431     		je	L29
 557:../../MMI/Resource/WriteProcess.cpp ****     {
 558:../../MMI/Resource/WriteProcess.cpp ****         fprintf(RepeatIDListFile, "%d\t%s\t\t%s\n", nImgId, enum_value, "Image");
 3574              	LM73:
 3575 0822 C7442410 		movl	$LC12, 16(%esp)
 3575      3A070000 
 3576 082a 8B4510   		movl	16(%ebp), %eax
 3577 082d 8944240C 		movl	%eax, 12(%esp)
 3578 0831 0FB745E6 		movzwl	-26(%ebp), %eax
 3579 0835 89442408 		movl	%eax, 8(%esp)
 3580 0839 C7442404 		movl	$LC13, 4(%esp)
 3580      40070000 
 3581 0841 A1000000 		movl	_RepeatIDListFile, %eax
 3581      00
 3582 0846 890424   		movl	%eax, (%esp)
 3583 0849 E8000000 		call	_fprintf
 3583      00
 559:../../MMI/Resource/WriteProcess.cpp ****         return;
 3585              	LM74:
 3586 084e E9650200 		jmp	L25
 3586      00
 3587              	L29:
 560:../../MMI/Resource/WriteProcess.cpp ****     }
 561:../../MMI/Resource/WriteProcess.cpp **** 
 562:../../MMI/Resource/WriteProcess.cpp ****     S16 nStrlen = strlen(filename);
 3589              	LM75:
 3590 0853 8B450C   		movl	12(%ebp), %eax
 3591 0856 890424   		movl	%eax, (%esp)
 3592 0859 E8000000 		call	_strlen
 3592      00
 3593 085e 668945D6 		movw	%ax, -42(%ebp)
 563:../../MMI/Resource/WriteProcess.cpp ****     S8 upperFileName[MAX_FILENAME_LEN];
 564:../../MMI/Resource/WriteProcess.cpp ****     while (nStrlen >= 0)
 3595              	LM76:
 3596              	L30:
GAS LISTING d:/software/ovi_2503a_s3trc/ovi_2503a_s3trc/plutommi/Customer/ResGenerator/gcctmp/ccuadaaa.s 			page 25


 3597 0862 66837DD6 		cmpw	$0, -42(%ebp)
 3597      00
 3598 0867 7902     		jns	L32
 3599 0869 EB35     		jmp	L31
 3600              	L32:
 565:../../MMI/Resource/WriteProcess.cpp ****     {
 566:../../MMI/Resource/WriteProcess.cpp ****         upperFileName[nStrlen] = toupper(filename[nStrlen]);
 3602              	LM77:
 3603 086b 0FBF45D6 		movswl	-42(%ebp),%eax
 3604 086f 898524FB 		movl	%eax, -1244(%ebp)
 3604      FFFF
 3605 0875 0FBF55D6 		movswl	-42(%ebp),%edx
 3606 0879 8B450C   		movl	12(%ebp), %eax
 3607 087c 0FBE0402 		movsbl	(%edx,%eax),%eax
 3608 0880 890424   		movl	%eax, (%esp)
 3609 0883 E8000000 		call	_toupper
 3609      00
 3610 0888 8B9524FB 		movl	-1244(%ebp), %edx
 3610      FFFF
 3611 088e 888415C8 		movb	%al, -568(%ebp,%edx)
 3611      FDFFFF
 567:../../MMI/Resource/WriteProcess.cpp ****         --nStrlen;
 3613              	LM78:
 3614 0895 0FB745D6 		movzwl	-42(%ebp), %eax
 3615 0899 48       		decl	%eax
 3616 089a 668945D6 		movw	%ax, -42(%ebp)
 3617 089e EBC2     		jmp	L30
 3618              	L31:
 568:../../MMI/Resource/WriteProcess.cpp ****     }
 569:../../MMI/Resource/WriteProcess.cpp **** 
 570:../../MMI/Resource/WriteProcess.cpp ****     pImageIdMap[nImgId].nImageNum = 0;
 3620              	LM79:
 3621 08a0 0FB745E6 		movzwl	-26(%ebp), %eax
 3622 08a4 8D1400   		leal	(%eax,%eax), %edx
 3623 08a7 8B45E0   		movl	-32(%ebp), %eax
 3624 08aa 66C70410 		movw	$0, (%eax,%edx)
 3624      0000
 571:../../MMI/Resource/WriteProcess.cpp **** 
 572:../../MMI/Resource/WriteProcess.cpp ****     ProcessImageData data(nImgId, upperFileName, enum_value, imgFlag, force_type, quality);
 3626              	LM80:
 3627 08b0 8B451C   		movl	28(%ebp), %eax
 3628 08b3 89442418 		movl	%eax, 24(%esp)
 3629 08b7 8B4518   		movl	24(%ebp), %eax
 3630 08ba 89442414 		movl	%eax, 20(%esp)
 3631 08be 8B4514   		movl	20(%ebp), %eax
 3632 08c1 89442410 		movl	%eax, 16(%esp)
 3633 08c5 8B4510   		movl	16(%ebp), %eax
 3634 08c8 8944240C 		movl	%eax, 12(%esp)
 3635 08cc 8D85C8FD 		leal	-568(%ebp), %eax
 3635      FFFF
 3636 08d2 89442408 		movl	%eax, 8(%esp)
 3637 08d6 0FB745E6 		movzwl	-26(%ebp), %eax
 3638 08da 89442404 		movl	%eax, 4(%esp)
 3639 08de 8D8588FB 		leal	-1144(%ebp), %eax
 3639      FFFF
 3640 08e4 890424   		movl	%eax, (%esp)
 3641 08e7 C7852CFB 		movl	$-1, -1236(%ebp)
GAS LISTING d:/software/ovi_2503a_s3trc/ovi_2503a_s3trc/plutommi/Customer/ResGenerator/gcctmp/ccuadaaa.s 			page 26


 3641      FFFFFFFF 
 3641      FFFF
 3642 08f1 E8000000 		call	__ZN16ProcessImageDataC1EtPcS0_iii
 3642      00
 573:../../MMI/Resource/WriteProcess.cpp **** #ifdef __MMI_RESOURCE_ENFB_SUPPORT__
 574:../../MMI/Resource/WriteProcess.cpp ****     if (disableENFB)
 575:../../MMI/Resource/WriteProcess.cpp ****     {
 576:../../MMI/Resource/WriteProcess.cpp ****         data.m_processData.disable_enfb = 1;
 577:../../MMI/Resource/WriteProcess.cpp ****     }
 578:../../MMI/Resource/WriteProcess.cpp **** #endif
 579:../../MMI/Resource/WriteProcess.cpp **** 
 580:../../MMI/Resource/WriteProcess.cpp ****     // init the process data
 581:../../MMI/Resource/WriteProcess.cpp ****     data.m_processData.res_size = 0;
 3644              	LM81:
 3645 08f6 C7859CFD 		movl	$0, -612(%ebp)
 3645      FFFF0000 
 3645      0000
 582:../../MMI/Resource/WriteProcess.cpp ****     strcpy(data.m_processData.real_filename, filename);
 3647              	LM82:
 3648 0900 8B450C   		movl	12(%ebp), %eax
 3649 0903 89442404 		movl	%eax, 4(%esp)
 3650 0907 8D8588FB 		leal	-1144(%ebp), %eax
 3650      FFFF
 3651 090d 83C014   		addl	$20, %eax
 3652 0910 890424   		movl	%eax, (%esp)
 3653 0913 E8000000 		call	_strcpy
 3653      00
 583:../../MMI/Resource/WriteProcess.cpp **** 
 584:../../MMI/Resource/WriteProcess.cpp ****     ProcessImageList::iterator i = g_resgen_png_image_list.begin();
 3655              	LM83:
 3656 0918 8D8578FB 		leal	-1160(%ebp), %eax
 3656      FFFF
 3657 091e C7442404 		movl	$_g_resgen_png_image_list, 4(%esp)
 3657      10000000 
 3658 0926 890424   		movl	%eax, (%esp)
 3659 0929 C7852CFB 		movl	$1, -1236(%ebp)
 3659      FFFF0100 
 3659      0000
 3660 0933 E8000000 		call	__ZNSt4listI16ProcessImageDataSaIS0_EE5beginEv
 3660      00
 3661 0938 83EC04   		subl	$4, %esp
 585:../../MMI/Resource/WriteProcess.cpp ****     U32 index = 0;
 3663              	LM84:
 3664 093b C78574FB 		movl	$0, -1164(%ebp)
 3664      FFFF0000 
 3664      0000
 586:../../MMI/Resource/WriteProcess.cpp ****     for (; i != g_resgen_png_image_list.end(); ++i, ++index)
 3666              	LM85:
 3667              	L33:
 3668              	LBB13:
 3669 0945 8D8558FB 		leal	-1192(%ebp), %eax
 3669      FFFF
 3670 094b C7442404 		movl	$_g_resgen_png_image_list, 4(%esp)
 3670      10000000 
 3671 0953 890424   		movl	%eax, (%esp)
 3672 0956 C7852CFB 		movl	$1, -1236(%ebp)
 3672      FFFF0100 
GAS LISTING d:/software/ovi_2503a_s3trc/ovi_2503a_s3trc/plutommi/Customer/ResGenerator/gcctmp/ccuadaaa.s 			page 27


 3672      0000
 3673 0960 E8000000 		call	__ZNSt4listI16ProcessImageDataSaIS0_EE3endEv
 3673      00
 3674 0965 83EC04   		subl	$4, %esp
 3675 0968 8D8558FB 		leal	-1192(%ebp), %eax
 3675      FFFF
 3676 096e 89442404 		movl	%eax, 4(%esp)
 3677 0972 8D8578FB 		leal	-1160(%ebp), %eax
 3677      FFFF
 3678 0978 890424   		movl	%eax, (%esp)
 3679 097b E8000000 		call	__ZNKSt19_List_iterator_baseneERKS_
 3679      00
 3680 0980 84C0     		testb	%al, %al
 3681 0982 7505     		jne	L36
 3682 0984 E9930000 		jmp	L34
 3682      00
 3683              	L36:
 587:../../MMI/Resource/WriteProcess.cpp ****     {
 588:../../MMI/Resource/WriteProcess.cpp ****         ProcessImageData & ref = *i;
 3685              	LM86:
 3686              	LBB14:
 3687              	LBB15:
 3688 0989 8D8578FB 		leal	-1160(%ebp), %eax
 3688      FFFF
 3689 098f 890424   		movl	%eax, (%esp)
 3690 0992 C7852CFB 		movl	$1, -1236(%ebp)
 3690      FFFF0100 
 3690      0000
 3691 099c E8000000 		call	__ZNKSt14_List_iteratorI16ProcessImageDataRS0_PS0_EdeEv
 3691      00
 3692 09a1 898554FB 		movl	%eax, -1196(%ebp)
 3692      FFFF
 589:../../MMI/Resource/WriteProcess.cpp ****         if (ref.m_imgFlag == imgFlag && strcmp(ref.m_filename.c_str(), upperFileName) == 0)
 3694              	LM87:
 3695 09a7 8B8554FB 		movl	-1196(%ebp), %eax
 3695      FFFF
 3696 09ad 8B400C   		movl	12(%eax), %eax
 3697 09b0 3B4514   		cmpl	20(%ebp), %eax
 3698 09b3 7542     		jne	L35
 3699 09b5 8B8554FB 		movl	-1196(%ebp), %eax
 3699      FFFF
 3700 09bb 83C004   		addl	$4, %eax
 3701 09be 890424   		movl	%eax, (%esp)
 3702 09c1 E8000000 		call	__ZNKSs5c_strEv
 3702      00
 3703 09c6 8D95C8FD 		leal	-568(%ebp), %edx
 3703      FFFF
 3704 09cc 89542404 		movl	%edx, 4(%esp)
 3705 09d0 890424   		movl	%eax, (%esp)
 3706 09d3 E8000000 		call	_strcmp
 3706      00
 3707 09d8 85C0     		testl	%eax, %eax
 3708 09da 751B     		jne	L35
 590:../../MMI/Resource/WriteProcess.cpp ****         {
 591:../../MMI/Resource/WriteProcess.cpp ****             data.m_processData.duplicated = MMI_TRUE;
 3710              	LM88:
 3711 09dc C785A8FD 		movl	$1, -600(%ebp)
GAS LISTING d:/software/ovi_2503a_s3trc/ovi_2503a_s3trc/plutommi/Customer/ResGenerator/gcctmp/ccuadaaa.s 			page 28


 3711      FFFF0100 
 3711      0000
 592:../../MMI/Resource/WriteProcess.cpp ****             data.m_processData.duplicatedInstance = &ref.m_processData;
 3713              	LM89:
 3714 09e6 8B8554FB 		movl	-1196(%ebp), %eax
 3714      FFFF
 3715 09ec 83C014   		addl	$20, %eax
 3716 09ef 8985ACFD 		movl	%eax, -596(%ebp)
 3716      FFFF
 593:../../MMI/Resource/WriteProcess.cpp ****             break;
 3718              	LM90:
 3719 09f5 EB25     		jmp	L34
 3721              	LM91:
 3722              	L35:
 3723              	LBE15:
 3724              	LBE14:
 3725 09f7 8D8578FB 		leal	-1160(%ebp), %eax
 3725      FFFF
 3726 09fd 890424   		movl	%eax, (%esp)
 3727 0a00 C7852CFB 		movl	$1, -1236(%ebp)
 3727      FFFF0100 
 3727      0000
 3728 0a0a E8000000 		call	__ZNSt14_List_iteratorI16ProcessImageDataRS0_PS0_EppEv
 3728      00
 3729 0a0f 8D8574FB 		leal	-1164(%ebp), %eax
 3729      FFFF
 3730 0a15 FF00     		incl	(%eax)
 3731 0a17 E929FFFF 		jmp	L33
 3731      FF
 3732              	L34:
 594:../../MMI/Resource/WriteProcess.cpp ****         }
 595:../../MMI/Resource/WriteProcess.cpp ****     }
 596:../../MMI/Resource/WriteProcess.cpp **** 
 597:../../MMI/Resource/WriteProcess.cpp ****     //if (getResgenImgPostProcess() )
 598:../../MMI/Resource/WriteProcess.cpp **** #define RESGEN_IMG_POST_PROCESS
 599:../../MMI/Resource/WriteProcess.cpp **** 
 600:../../MMI/Resource/WriteProcess.cpp **** #ifdef RESGEN_IMG_POST_PROCESS
 601:../../MMI/Resource/WriteProcess.cpp ****     S32 ext_type = ExtractExtension(upperFileName, RES_IMAGE);
 3734              	LM92:
 3735              	LBE13:
 3736 0a1c C7442404 		movl	$0, 4(%esp)
 3736      00000000 
 3737 0a24 8D85C8FD 		leal	-568(%ebp), %eax
 3737      FFFF
 3738 0a2a 890424   		movl	%eax, (%esp)
 3739 0a2d C7852CFB 		movl	$1, -1236(%ebp)
 3739      FFFF0100 
 3739      0000
 3740 0a37 E8000000 		call	_ExtractExtension
 3740      00
 3741 0a3c 0FB6C0   		movzbl	%al, %eax
 3742 0a3f 898554FB 		movl	%eax, -1196(%ebp)
 3742      FFFF
 602:../../MMI/Resource/WriteProcess.cpp **** 
 603:../../MMI/Resource/WriteProcess.cpp ****     // add to list
 604:../../MMI/Resource/WriteProcess.cpp ****     g_resgen_png_image_list.push_back(data);
 3744              	LM93:
GAS LISTING d:/software/ovi_2503a_s3trc/ovi_2503a_s3trc/plutommi/Customer/ResGenerator/gcctmp/ccuadaaa.s 			page 29


 3745 0a45 8D8588FB 		leal	-1144(%ebp), %eax
 3745      FFFF
 3746 0a4b 89442404 		movl	%eax, 4(%esp)
 3747 0a4f C7042410 		movl	$_g_resgen_png_image_list, (%esp)
 3747      000000
 3748 0a56 E8000000 		call	__ZNSt4listI16ProcessImageDataSaIS0_EE9push_backERKS0_
 3748      00
 3749 0a5b EB4D     		jmp	L39
 3750              	L42:
 3751 0a5d 8D6D18   		leal	24(%ebp), %ebp
 3752 0a60 8B8530FB 		movl	-1232(%ebp), %eax
 3752      FFFF
 3753 0a66 89851CFB 		movl	%eax, -1252(%ebp)
 3753      FFFF
 3754              	L38:
 3755 0a6c 8B951CFB 		movl	-1252(%ebp), %edx
 3755      FFFF
 3756 0a72 899520FB 		movl	%edx, -1248(%ebp)
 3756      FFFF
 3757 0a78 8D8588FB 		leal	-1144(%ebp), %eax
 3757      FFFF
 3758 0a7e 890424   		movl	%eax, (%esp)
 3759 0a81 E8000000 		call	__ZN16ProcessImageDataD1Ev
 3759      00
 3760 0a86 8B8520FB 		movl	-1248(%ebp), %eax
 3760      FFFF
 3761 0a8c 89851CFB 		movl	%eax, -1252(%ebp)
 3761      FFFF
 3762              	L40:
 3763 0a92 8B951CFB 		movl	-1252(%ebp), %edx
 3763      FFFF
 3764 0a98 891424   		movl	%edx, (%esp)
 3765 0a9b C7852CFB 		movl	$-1, -1236(%ebp)
 3765      FFFFFFFF 
 3765      FFFF
 3766 0aa5 E8000000 		call	__Unwind_SjLj_Resume
 3766      00
 3767              	L39:
 3768 0aaa 8D8588FB 		leal	-1144(%ebp), %eax
 3768      FFFF
 3769 0ab0 890424   		movl	%eax, (%esp)
 3770 0ab3 E8000000 		call	__ZN16ProcessImageDataD1Ev
 3770      00
 605:../../MMI/Resource/WriteProcess.cpp **** 
 606:../../MMI/Resource/WriteProcess.cpp **** #else // RESGEN_IMG_POST_PROCESS
 607:../../MMI/Resource/WriteProcess.cpp ****     SetImageWithBufferExImp(data.m_nImgId, (S8*)data.m_filename.c_str(),
 608:../../MMI/Resource/WriteProcess.cpp ****         (S8*)data.m_enum_value.c_str(), data.m_imgFlag,
 609:../../MMI/Resource/WriteProcess.cpp ****         data.m_force_type, &data.m_processData);
 610:../../MMI/Resource/WriteProcess.cpp **** 
 611:../../MMI/Resource/WriteProcess.cpp **** #endif // RESGEN_IMG_POST_PROCESS
 612:../../MMI/Resource/WriteProcess.cpp **** }
 3772              	LM94:
 3773              	L25:
 3774 0ab8 8D8528FB 		leal	-1240(%ebp), %eax
 3774      FFFF
 3775 0abe 890424   		movl	%eax, (%esp)
 3776 0ac1 E8000000 		call	__Unwind_SjLj_Unregister
GAS LISTING d:/software/ovi_2503a_s3trc/ovi_2503a_s3trc/plutommi/Customer/ResGenerator/gcctmp/ccuadaaa.s 			page 30


 3776      00
 3777 0ac6 8D65F4   		leal	-12(%ebp), %esp
 3778 0ac9 5B       		popl	%ebx
 3779 0aca 5E       		popl	%esi
 3780 0acb 5F       		popl	%edi
 3781 0acc 5D       		popl	%ebp
 3782 0acd C3       		ret
 3783              	LBE12:
 3784              		.section	.gcc_except_table,""
 3785              	LLSDA2191:
 3786 0006 FF       		.byte	0xff
 3787 0007 FF       		.byte	0xff
 3788 0008 01       		.byte	0x1
 3789 0009 02       		.uleb128 LLSDACSE2191-LLSDACSB2191
 3790              	LLSDACSB2191:
 3791 000a 00       		.uleb128 0x0
 3792 000b 00       		.uleb128 0x0
 3793              	LLSDACSE2191:
 3794              		.text
 3810              	Lscope9:
 3812 0ace 90909090 		.align 32
 3812      90909090 
 3812      90909090 
 3812      90909090 
 3812      9090
 3813              	LC14:
 3814 0ae0 5F5F5F5F 		.ascii "________CUSTOMER__IMAGES__DEFAULT_BMP\0"
 3814      5F5F5F5F 
 3814      43555354 
 3814      4F4D4552 
 3814      5F5F494D 
 3815              	LC15:
 3816 0b06 4E4F5F41 		.ascii "NO_APP\0"
 3816      505000
 3817              	LC16:
 3818 0b0d 25730925 		.ascii "%s\11%d\11%d\11%s\11%d\11%s\11NA\12\0"
 3818      64092564 
 3818      09257309 
 3818      25640925 
 3818      73094E41 
 3819              	LC17:
 3820 0b23 25730925 		.ascii "%s\11%d\11%d\12\0"
 3820      64092564 
 3820      0A00
 3821 0b2d 90       		.align 2
 3824              	.globl __Z28ProcessResgenPngImagesMapIdsR16ProcessImageData
 3826              	__Z28ProcessResgenPngImagesMapIdsR16ProcessImageData:
 613:../../MMI/Resource/WriteProcess.cpp **** 
 614:../../MMI/Resource/WriteProcess.cpp **** void ProcessResgenPngImagesMapIds(ProcessImageData & data)
 615:../../MMI/Resource/WriteProcess.cpp **** {
 3828              	LM95:
 3829 0b2e 55       		pushl	%ebp
 3830 0b2f 89E5     		movl	%esp, %ebp
 3831 0b31 83EC48   		subl	$72, %esp
 616:../../MMI/Resource/WriteProcess.cpp ****     unsigned short *pCurrMaxImageNum;
 617:../../MMI/Resource/WriteProcess.cpp ****     CUSTOM_IMAGE_MAP *pImageIdMap;
 618:../../MMI/Resource/WriteProcess.cpp ****     IMAGENAME_LIST *pImageNameList;
GAS LISTING d:/software/ovi_2503a_s3trc/ovi_2503a_s3trc/plutommi/Customer/ResGenerator/gcctmp/ccuadaaa.s 			page 31


 619:../../MMI/Resource/WriteProcess.cpp ****     unsigned short *pCurrMaxImageId;
 620:../../MMI/Resource/WriteProcess.cpp ****     image_type_enum extImageFlag = SYSTEM_IMAGE;
 3833              	LM96:
 3834              	LBB16:
 3835 0b34 C745EC00 		movl	$0, -20(%ebp)
 3835      000000
 621:../../MMI/Resource/WriteProcess.cpp **** 
 622:../../MMI/Resource/WriteProcess.cpp ****     if (data.m_imgFlag == TRUE)
 3837              	LM97:
 3838 0b3b 8B4508   		movl	8(%ebp), %eax
 3839 0b3e 83780C01 		cmpl	$1, 12(%eax)
 3840 0b42 7525     		jne	L44
 623:../../MMI/Resource/WriteProcess.cpp ****     {
 624:../../MMI/Resource/WriteProcess.cpp ****         extImageFlag = EXT_IMAGE;
 3842              	LM98:
 3843 0b44 C745EC01 		movl	$1, -20(%ebp)
 3843      000000
 625:../../MMI/Resource/WriteProcess.cpp ****         pCurrMaxImageId = &CurrMaxImageIdEXT;
 3845              	LM99:
 3846 0b4b C745F000 		movl	$_CurrMaxImageIdEXT, -16(%ebp)
 3846      000000
 626:../../MMI/Resource/WriteProcess.cpp ****         pCurrMaxImageNum = &CurrMaxImageNumEXT;
 3848              	LM100:
 3849 0b52 C745FC00 		movl	$_CurrMaxImageNumEXT, -4(%ebp)
 3849      000000
 627:../../MMI/Resource/WriteProcess.cpp ****         pImageNameList = ImageNameListEXT;
 3851              	LM101:
 3852 0b59 C745F400 		movl	$_ImageNameListEXT, -12(%ebp)
 3852      000000
 628:../../MMI/Resource/WriteProcess.cpp ****         pImageIdMap = ImageIdMapEXT;
 3854              	LM102:
 3855 0b60 C745F800 		movl	$_ImageIdMapEXT, -8(%ebp)
 3855      000000
 3856 0b67 EB23     		jmp	L45
 3857              	L44:
 629:../../MMI/Resource/WriteProcess.cpp ****     }
 630:../../MMI/Resource/WriteProcess.cpp ****     else
 631:../../MMI/Resource/WriteProcess.cpp ****     {
 632:../../MMI/Resource/WriteProcess.cpp ****         extImageFlag = SYSTEM_IMAGE;
 3859              	LM103:
 3860 0b69 C745EC00 		movl	$0, -20(%ebp)
 3860      000000
 633:../../MMI/Resource/WriteProcess.cpp ****         pCurrMaxImageId = &CurrMaxImageId;
 3862              	LM104:
 3863 0b70 C745F000 		movl	$_CurrMaxImageId, -16(%ebp)
 3863      000000
 634:../../MMI/Resource/WriteProcess.cpp ****         pCurrMaxImageNum = &CurrMaxImageNum;
 3865              	LM105:
 3866 0b77 C745FC00 		movl	$_CurrMaxImageNum, -4(%ebp)
 3866      000000
 635:../../MMI/Resource/WriteProcess.cpp ****         pImageNameList = ImageNameList;
 3868              	LM106:
 3869 0b7e C745F400 		movl	$_ImageNameList, -12(%ebp)
 3869      000000
 636:../../MMI/Resource/WriteProcess.cpp ****         pImageIdMap = ImageIdMap;
 3871              	LM107:
 3872 0b85 C745F800 		movl	$_ImageIdMap, -8(%ebp)
GAS LISTING d:/software/ovi_2503a_s3trc/ovi_2503a_s3trc/plutommi/Customer/ResGenerator/gcctmp/ccuadaaa.s 			page 32


 3872      000000
 3873              	L45:
 637:../../MMI/Resource/WriteProcess.cpp ****     }
 638:../../MMI/Resource/WriteProcess.cpp **** 
 639:../../MMI/Resource/WriteProcess.cpp ****     if (data.m_processData.failed)
 3875              	LM108:
 3876              	LBB17:
 3877 0b8c 8B4508   		movl	8(%ebp), %eax
 3878 0b8f 83B81C02 		cmpl	$0, 540(%eax)
 3878      000000
 3879 0b96 7474     		je	L46
 640:../../MMI/Resource/WriteProcess.cpp ****     {
 641:../../MMI/Resource/WriteProcess.cpp ****         strcpy(ImageNameList[CurrMaxImageNum].filename, DEFAULT_FILEBUFFER);
 3881              	LM109:
 3882 0b98 C7442404 		movl	$LC14, 4(%esp)
 3882      E00A0000 
 3883 0ba0 0FB70500 		movzwl	_CurrMaxImageNum, %eax
 3883      000000
 3884 0ba7 C1E009   		sall	$9, %eax
 3885 0baa 05000000 		addl	$_ImageNameList, %eax
 3885      00
 3886 0baf 890424   		movl	%eax, (%esp)
 3887 0bb2 E8000000 		call	_strcpy
 3887      00
 642:../../MMI/Resource/WriteProcess.cpp ****         ImageIdMap[data.m_nImgId].nImageNum = CurrMaxImageNum;
 3889              	LM110:
 3890 0bb7 8B4508   		movl	8(%ebp), %eax
 3891 0bba 0FB710   		movzwl	(%eax), %edx
 3892 0bbd 0FB70500 		movzwl	_CurrMaxImageNum, %eax
 3892      000000
 3893 0bc4 66898412 		movw	%ax, _ImageIdMap(%edx,%edx)
 3893      00000000 
 643:../../MMI/Resource/WriteProcess.cpp ****         CurrMaxImageNum++;
 3895              	LM111:
 3896 0bcc 0FB70500 		movzwl	_CurrMaxImageNum, %eax
 3896      000000
 3897 0bd3 40       		incl	%eax
 3898 0bd4 66A30000 		movw	%ax, _CurrMaxImageNum
 3898      0000
 644:../../MMI/Resource/WriteProcess.cpp ****         CurrMaxImageId++;
 3900              	LM112:
 3901 0bda 0FB70500 		movzwl	_CurrMaxImageId, %eax
 3901      000000
 3902 0be1 40       		incl	%eax
 3903 0be2 66A30000 		movw	%ax, _CurrMaxImageId
 3903      0000
 645:../../MMI/Resource/WriteProcess.cpp ****         if (data.m_imgFlag == TRUE)
 3905              	LM113:
 3906 0be8 8B4508   		movl	8(%ebp), %eax
 3907 0beb 83780C01 		cmpl	$1, 12(%eax)
 3908 0bef 0F858C04 		jne	L43
 3908      0000
 646:../../MMI/Resource/WriteProcess.cpp ****         {
 647:../../MMI/Resource/WriteProcess.cpp ****             pImageIdMap[data.m_nImgId].nImageNum = -1;
 3910              	LM114:
 3911 0bf5 8B4508   		movl	8(%ebp), %eax
 3912 0bf8 0FB700   		movzwl	(%eax), %eax
GAS LISTING d:/software/ovi_2503a_s3trc/ovi_2503a_s3trc/plutommi/Customer/ResGenerator/gcctmp/ccuadaaa.s 			page 33


 3913 0bfb 8D1400   		leal	(%eax,%eax), %edx
 3914 0bfe 8B45F8   		movl	-8(%ebp), %eax
 3915 0c01 66C70410 		movw	$-1, (%eax,%edx)
 3915      FFFF
 3916 0c07 E9750400 		jmp	L43
 3916      00
 3917              	L46:
 648:../../MMI/Resource/WriteProcess.cpp ****         }
 649:../../MMI/Resource/WriteProcess.cpp ****     }
 650:../../MMI/Resource/WriteProcess.cpp ****     else if (data.m_processData.duplicated)
 3919              	LM115:
 3920              	LBB18:
 3921              	LBB19:
 3922 0c0c 8B4508   		movl	8(%ebp), %eax
 3923 0c0f 83B82002 		cmpl	$0, 544(%eax)
 3923      000000
 3924 0c16 0F844C02 		je	L49
 3924      0000
 651:../../MMI/Resource/WriteProcess.cpp ****     {
 652:../../MMI/Resource/WriteProcess.cpp **** 
 653:../../MMI/Resource/WriteProcess.cpp ****         U32 i;
 654:../../MMI/Resource/WriteProcess.cpp ****         for (i = 0; i < *pCurrMaxImageNum; i++)
 3926              	LM116:
 3927              	LBB20:
 3928 0c1c C745E800 		movl	$0, -24(%ebp)
 3928      000000
 3929              	L50:
 3930 0c23 8B45FC   		movl	-4(%ebp), %eax
 3931 0c26 0FB700   		movzwl	(%eax), %eax
 3932 0c29 3945E8   		cmpl	%eax, -24(%ebp)
 3933 0c2c 7202     		jb	L53
 3934 0c2e EB3D     		jmp	L51
 3935              	L53:
 655:../../MMI/Resource/WriteProcess.cpp ****         {
 656:../../MMI/Resource/WriteProcess.cpp ****             if (!strcmp(pImageNameList[i].filename, data.m_filename.c_str()))
 3937              	LM117:
 3938 0c30 8B4508   		movl	8(%ebp), %eax
 3939 0c33 83C004   		addl	$4, %eax
 3940 0c36 890424   		movl	%eax, (%esp)
 3941 0c39 E8000000 		call	__ZNKSs5c_strEv
 3941      00
 3942 0c3e 89442404 		movl	%eax, 4(%esp)
 3943 0c42 8B45E8   		movl	-24(%ebp), %eax
 3944 0c45 C1E009   		sall	$9, %eax
 3945 0c48 0345F4   		addl	-12(%ebp), %eax
 3946 0c4b 890424   		movl	%eax, (%esp)
 3947 0c4e E8000000 		call	_strcmp
 3947      00
 3948 0c53 85C0     		testl	%eax, %eax
 3949 0c55 750F     		jne	L52
 657:../../MMI/Resource/WriteProcess.cpp ****             {
 658:../../MMI/Resource/WriteProcess.cpp ****                 data.m_processData.duplicated = MMI_TRUE;
 3951              	LM118:
 3952 0c57 8B4508   		movl	8(%ebp), %eax
 3953 0c5a C7802002 		movl	$1, 544(%eax)
 3953      00000100 
 3953      0000
GAS LISTING d:/software/ovi_2503a_s3trc/ovi_2503a_s3trc/plutommi/Customer/ResGenerator/gcctmp/ccuadaaa.s 			page 34


 659:../../MMI/Resource/WriteProcess.cpp ****                 break;
 3955              	LM119:
 3956 0c64 EB07     		jmp	L51
 3958              	LM120:
 3959              	L52:
 3960 0c66 8D45E8   		leal	-24(%ebp), %eax
 3961 0c69 FF00     		incl	(%eax)
 3962 0c6b EBB6     		jmp	L50
 3963              	L51:
 660:../../MMI/Resource/WriteProcess.cpp ****             }
 661:../../MMI/Resource/WriteProcess.cpp ****         }
 662:../../MMI/Resource/WriteProcess.cpp **** 
 663:../../MMI/Resource/WriteProcess.cpp ****         //pImageIdMap[data.m_nImgId].nImageNum = data.m_processData.duplicatedIndex;
 664:../../MMI/Resource/WriteProcess.cpp ****         pImageIdMap[data.m_nImgId].nImageNum = i;
 3965              	LM121:
 3966 0c6d 8B4508   		movl	8(%ebp), %eax
 3967 0c70 0FB700   		movzwl	(%eax), %eax
 3968 0c73 8D0C00   		leal	(%eax,%eax), %ecx
 3969 0c76 8B55F8   		movl	-8(%ebp), %edx
 3970 0c79 8B45E8   		movl	-24(%ebp), %eax
 3971 0c7c 6689040A 		movw	%ax, (%edx,%ecx)
 665:../../MMI/Resource/WriteProcess.cpp ****         (*pCurrMaxImageId)++;
 3973              	LM122:
 3974 0c80 8B55F0   		movl	-16(%ebp), %edx
 3975 0c83 8B45F0   		movl	-16(%ebp), %eax
 3976 0c86 0FB700   		movzwl	(%eax), %eax
 3977 0c89 40       		incl	%eax
 3978 0c8a 668902   		movw	%ax, (%edx)
 666:../../MMI/Resource/WriteProcess.cpp **** 
 667:../../MMI/Resource/WriteProcess.cpp ****         {
 668:../../MMI/Resource/WriteProcess.cpp ****             U32 i;
 669:../../MMI/Resource/WriteProcess.cpp **** 
 670:../../MMI/Resource/WriteProcess.cpp ****             for (i = 0; i < g_resimg_count; i++)
 3980              	LM123:
 3981              	LBB21:
 3982 0c8d C745E400 		movl	$0, -28(%ebp)
 3982      000000
 3983              	L55:
 3984 0c94 8B45E4   		movl	-28(%ebp), %eax
 3985 0c97 3B050000 		cmpl	_g_resimg_count, %eax
 3985      0000
 3986 0c9d 7202     		jb	L58
 3987 0c9f EB7E     		jmp	L56
 3988              	L58:
 671:../../MMI/Resource/WriteProcess.cpp ****             {
 672:../../MMI/Resource/WriteProcess.cpp ****                 if (strcmp(data.m_filename.c_str(), g_resimg_table[i].filename) == 0)
 3990              	LM124:
 3991 0ca1 8B4508   		movl	8(%ebp), %eax
 3992 0ca4 83C004   		addl	$4, %eax
 3993 0ca7 890424   		movl	%eax, (%esp)
 3994 0caa E8000000 		call	__ZNKSs5c_strEv
 3994      00
 3995 0caf 89C1     		movl	%eax, %ecx
 3996 0cb1 8B55E4   		movl	-28(%ebp), %edx
 3997 0cb4 89D0     		movl	%edx, %eax
 3998 0cb6 C1E008   		sall	$8, %eax
 3999 0cb9 01D0     		addl	%edx, %eax
GAS LISTING d:/software/ovi_2503a_s3trc/ovi_2503a_s3trc/plutommi/Customer/ResGenerator/gcctmp/ccuadaaa.s 			page 35


 4000 0cbb C1E002   		sall	$2, %eax
 4001 0cbe 05000000 		addl	$_g_resimg_table, %eax
 4001      00
 4002 0cc3 89442404 		movl	%eax, 4(%esp)
 4003 0cc7 890C24   		movl	%ecx, (%esp)
 4004 0cca E8000000 		call	_strcmp
 4004      00
 4005 0ccf 85C0     		testl	%eax, %eax
 4006 0cd1 7542     		jne	L57
 673:../../MMI/Resource/WriteProcess.cpp ****                 {
 674:../../MMI/Resource/WriteProcess.cpp ****                     data.m_processData.res_size = g_resimg_table[i].size;
 4008              	LM125:
 4009 0cd3 8B4D08   		movl	8(%ebp), %ecx
 4010 0cd6 8B55E4   		movl	-28(%ebp), %edx
 4011 0cd9 89D0     		movl	%edx, %eax
 4012 0cdb C1E008   		sall	$8, %eax
 4013 0cde 01D0     		addl	%edx, %eax
 4014 0ce0 C1E002   		sall	$2, %eax
 4015 0ce3 8B800004 		movl	_g_resimg_table+1024(%eax), %eax
 4015      0000
 4016 0ce9 89811402 		movl	%eax, 532(%ecx)
 4016      0000
 675:../../MMI/Resource/WriteProcess.cpp ****                     strcpy(data.m_processData.real_filename, g_resimg_table[i].real_filename);
 4018              	LM126:
 4019 0cef 8B55E4   		movl	-28(%ebp), %edx
 4020 0cf2 89D0     		movl	%edx, %eax
 4021 0cf4 C1E008   		sall	$8, %eax
 4022 0cf7 01D0     		addl	%edx, %eax
 4023 0cf9 C1E002   		sall	$2, %eax
 4024 0cfc 05000200 		addl	$_g_resimg_table+512, %eax
 4024      00
 4025 0d01 89442404 		movl	%eax, 4(%esp)
 4026 0d05 8B4508   		movl	8(%ebp), %eax
 4027 0d08 83C014   		addl	$20, %eax
 4028 0d0b 890424   		movl	%eax, (%esp)
 4029 0d0e E8000000 		call	_strcpy
 4029      00
 676:../../MMI/Resource/WriteProcess.cpp ****                     break;
 4031              	LM127:
 4032 0d13 EB0A     		jmp	L56
 4034              	LM128:
 4035              	L57:
 4036 0d15 8D45E4   		leal	-28(%ebp), %eax
 4037 0d18 FF00     		incl	(%eax)
 4038 0d1a E975FFFF 		jmp	L55
 4038      FF
 4039              	L56:
 677:../../MMI/Resource/WriteProcess.cpp ****                 }
 678:../../MMI/Resource/WriteProcess.cpp ****             }
 679:../../MMI/Resource/WriteProcess.cpp ****         }
 680:../../MMI/Resource/WriteProcess.cpp ****         RESPRTONERECORD_IMG_EXT(fpImageResourceUsage, fpImageResourceUsageExt, data.m_nImgId, data.
 4041              	LM129:
 4042              	LBE21:
 4043              	LBB22:
 4044              	LBB23:
 4045              	LBB24:
 4046 0d1f 833D0000 		cmpl	$0, _fpImageResourceUsage
GAS LISTING d:/software/ovi_2503a_s3trc/ovi_2503a_s3trc/plutommi/Customer/ResGenerator/gcctmp/ccuadaaa.s 			page 36


 4046      000000
 4047 0d26 0F84FE00 		je	L61
 4047      0000
 4048 0d2c 8B4508   		movl	8(%ebp), %eax
 4049              	LBB25:
 4050 0d2f 83C008   		addl	$8, %eax
 4051 0d32 890424   		movl	%eax, (%esp)
 4052 0d35 E8000000 		call	__ZNKSs5c_strEv
 4052      00
 4053 0d3a 89442404 		movl	%eax, 4(%esp)
 4054 0d3e 8B4508   		movl	8(%ebp), %eax
 4055 0d41 0FB700   		movzwl	(%eax), %eax
 4056 0d44 890424   		movl	%eax, (%esp)
 4057 0d47 E8000000 		call	_GetOffsetFromResourceBase
 4057      00
 4058 0d4c 8945E4   		movl	%eax, -28(%ebp)
 4059 0d4f 837DE4FF 		cmpl	$-1, -28(%ebp)
 4060 0d53 755C     		jne	L63
 4061 0d55 8B4508   		movl	8(%ebp), %eax
 4062 0d58 83C008   		addl	$8, %eax
 4063 0d5b 890424   		movl	%eax, (%esp)
 4064 0d5e E8000000 		call	__ZNKSs5c_strEv
 4064      00
 4065 0d63 89C2     		movl	%eax, %edx
 4066 0d65 8B4508   		movl	8(%ebp), %eax
 4067 0d68 83C014   		addl	$20, %eax
 4068 0d6b 8944241C 		movl	%eax, 28(%esp)
 4069 0d6f 8B4508   		movl	8(%ebp), %eax
 4070 0d72 8B801402 		movl	532(%eax), %eax
 4070      0000
 4071 0d78 89442418 		movl	%eax, 24(%esp)
 4072 0d7c 89542414 		movl	%edx, 20(%esp)
 4073 0d80 8B4508   		movl	8(%ebp), %eax
 4074 0d83 0FB700   		movzwl	(%eax), %eax
 4075 0d86 89442410 		movl	%eax, 16(%esp)
 4076 0d8a C744240C 		movl	$-1, 12(%esp)
 4076      FFFFFFFF 
 4077 0d92 C7442408 		movl	$LC15, 8(%esp)
 4077      060B0000 
 4078 0d9a C7442404 		movl	$LC16, 4(%esp)
 4078      0D0B0000 
 4079 0da2 A1000000 		movl	_fpImageResourceUsage, %eax
 4079      00
 4080 0da7 890424   		movl	%eax, (%esp)
 4081 0daa E8000000 		call	_fprintf
 4081      00
 4082 0daf EB79     		jmp	L61
 4083              	L63:
 4084 0db1 8B4508   		movl	8(%ebp), %eax
 4085 0db4 83C008   		addl	$8, %eax
 4086 0db7 890424   		movl	%eax, (%esp)
 4087 0dba E8000000 		call	__ZNKSs5c_strEv
 4087      00
 4088 0dbf 89C2     		movl	%eax, %edx
 4089 0dc1 8B4508   		movl	8(%ebp), %eax
 4090 0dc4 83C014   		addl	$20, %eax
 4091 0dc7 8944241C 		movl	%eax, 28(%esp)
GAS LISTING d:/software/ovi_2503a_s3trc/ovi_2503a_s3trc/plutommi/Customer/ResGenerator/gcctmp/ccuadaaa.s 			page 37


 4092 0dcb 8B4508   		movl	8(%ebp), %eax
 4093 0dce 8B801402 		movl	532(%eax), %eax
 4093      0000
 4094 0dd4 89442418 		movl	%eax, 24(%esp)
 4095 0dd8 89542414 		movl	%edx, 20(%esp)
 4096 0ddc 8B4508   		movl	8(%ebp), %eax
 4097 0ddf 0FB700   		movzwl	(%eax), %eax
 4098 0de2 89442410 		movl	%eax, 16(%esp)
 4099 0de6 8B55E4   		movl	-28(%ebp), %edx
 4100 0de9 89D0     		movl	%edx, %eax
 4101 0deb C1E006   		sall	$6, %eax
 4102 0dee 01D0     		addl	%edx, %eax
 4103 0df0 C1E003   		sall	$3, %eax
 4104 0df3 0FB78004 		movzwl	_g_mmi_resource_base_table+4(%eax), %eax
 4104      000000
 4105 0dfa 8944240C 		movl	%eax, 12(%esp)
 4106 0dfe 8B55E4   		movl	-28(%ebp), %edx
 4107 0e01 89D0     		movl	%edx, %eax
 4108 0e03 C1E006   		sall	$6, %eax
 4109 0e06 01D0     		addl	%edx, %eax
 4110 0e08 C1E003   		sall	$3, %eax
 4111 0e0b 8B800000 		movl	_g_mmi_resource_base_table(%eax), %eax
 4111      0000
 4112 0e11 89442408 		movl	%eax, 8(%esp)
 4113 0e15 C7442404 		movl	$LC16, 4(%esp)
 4113      0D0B0000 
 4114 0e1d A1000000 		movl	_fpImageResourceUsage, %eax
 4114      00
 4115 0e22 890424   		movl	%eax, (%esp)
 4116 0e25 E8000000 		call	_fprintf
 4116      00
 4117              	L61:
 4118              	LBE25:
 4119              	LBE24:
 4120              	LBE23:
 4121 0e2a 8B4508   		movl	8(%ebp), %eax
 4122 0e2d 8B801402 		movl	532(%eax), %eax
 4122      0000
 4123 0e33 89442410 		movl	%eax, 16(%esp)
 4124 0e37 8B4508   		movl	8(%ebp), %eax
 4125 0e3a 8B802C02 		movl	556(%eax), %eax
 4125      0000
 4126 0e40 8944240C 		movl	%eax, 12(%esp)
 4127 0e44 8B4508   		movl	8(%ebp), %eax
 4128 0e47 83C014   		addl	$20, %eax
 4129 0e4a 89442408 		movl	%eax, 8(%esp)
 4130 0e4e C7442404 		movl	$LC17, 4(%esp)
 4130      230B0000 
 4131 0e56 A1000000 		movl	_fpImageResourceUsageExt, %eax
 4131      00
 4132 0e5b 890424   		movl	%eax, (%esp)
 4133 0e5e E8000000 		call	_fprintf
 4133      00
 4134              	LBE22:
 4135              	LBE20:
 4136 0e63 E9190200 		jmp	L43
 4136      00
GAS LISTING d:/software/ovi_2503a_s3trc/ovi_2503a_s3trc/plutommi/Customer/ResGenerator/gcctmp/ccuadaaa.s 			page 38


 4137              	L49:
 681:../../MMI/Resource/WriteProcess.cpp ****     }
 682:../../MMI/Resource/WriteProcess.cpp ****     else
 683:../../MMI/Resource/WriteProcess.cpp ****     {
 684:../../MMI/Resource/WriteProcess.cpp ****         strcpy(pImageNameList[*pCurrMaxImageNum].filename, data.m_filename.c_str());
 4139              	LM130:
 4140 0e68 8B4508   		movl	8(%ebp), %eax
 4141              	LBB26:
 4142 0e6b 83C004   		addl	$4, %eax
 4143 0e6e 890424   		movl	%eax, (%esp)
 4144 0e71 E8000000 		call	__ZNKSs5c_strEv
 4144      00
 4145 0e76 89442404 		movl	%eax, 4(%esp)
 4146 0e7a 8B45FC   		movl	-4(%ebp), %eax
 4147 0e7d 0FB700   		movzwl	(%eax), %eax
 4148 0e80 C1E009   		sall	$9, %eax
 4149 0e83 0345F4   		addl	-12(%ebp), %eax
 4150 0e86 890424   		movl	%eax, (%esp)
 4151 0e89 E8000000 		call	_strcpy
 4151      00
 685:../../MMI/Resource/WriteProcess.cpp ****         pImageIdMap[data.m_nImgId].nImageNum = *pCurrMaxImageNum;
 4153              	LM131:
 4154 0e8e 8B4508   		movl	8(%ebp), %eax
 4155 0e91 0FB700   		movzwl	(%eax), %eax
 4156 0e94 8D0C00   		leal	(%eax,%eax), %ecx
 4157 0e97 8B55F8   		movl	-8(%ebp), %edx
 4158 0e9a 8B45FC   		movl	-4(%ebp), %eax
 4159 0e9d 0FB700   		movzwl	(%eax), %eax
 4160 0ea0 6689040A 		movw	%ax, (%edx,%ecx)
 686:../../MMI/Resource/WriteProcess.cpp ****         (*pCurrMaxImageNum)++;
 4162              	LM132:
 4163 0ea4 8B55FC   		movl	-4(%ebp), %edx
 4164 0ea7 8B45FC   		movl	-4(%ebp), %eax
 4165 0eaa 0FB700   		movzwl	(%eax), %eax
 4166 0ead 40       		incl	%eax
 4167 0eae 668902   		movw	%ax, (%edx)
 687:../../MMI/Resource/WriteProcess.cpp ****         (*pCurrMaxImageId)++;
 4169              	LM133:
 4170 0eb1 8B55F0   		movl	-16(%ebp), %edx
 4171 0eb4 8B45F0   		movl	-16(%ebp), %eax
 4172 0eb7 0FB700   		movzwl	(%eax), %eax
 4173 0eba 40       		incl	%eax
 4174 0ebb 668902   		movw	%ax, (%edx)
 688:../../MMI/Resource/WriteProcess.cpp **** 
 689:../../MMI/Resource/WriteProcess.cpp ****         g_resimg_table[g_resimg_count].size = data.m_processData.res_size;
 4176              	LM134:
 4177 0ebe 8B150000 		movl	_g_resimg_count, %edx
 4177      0000
 4178 0ec4 89D0     		movl	%edx, %eax
 4179 0ec6 C1E008   		sall	$8, %eax
 4180 0ec9 01D0     		addl	%edx, %eax
 4181 0ecb 8D148500 		leal	0(,%eax,4), %edx
 4181      000000
 4182 0ed2 8B4508   		movl	8(%ebp), %eax
 4183 0ed5 8B801402 		movl	532(%eax), %eax
 4183      0000
 4184 0edb 89820004 		movl	%eax, _g_resimg_table+1024(%edx)
GAS LISTING d:/software/ovi_2503a_s3trc/ovi_2503a_s3trc/plutommi/Customer/ResGenerator/gcctmp/ccuadaaa.s 			page 39


 4184      0000
 690:../../MMI/Resource/WriteProcess.cpp ****         strcpy(g_resimg_table[g_resimg_count].filename, data.m_filename.c_str());
 4186              	LM135:
 4187 0ee1 8B4508   		movl	8(%ebp), %eax
 4188 0ee4 83C004   		addl	$4, %eax
 4189 0ee7 890424   		movl	%eax, (%esp)
 4190 0eea E8000000 		call	__ZNKSs5c_strEv
 4190      00
 4191 0eef 89442404 		movl	%eax, 4(%esp)
 4192 0ef3 8B150000 		movl	_g_resimg_count, %edx
 4192      0000
 4193 0ef9 89D0     		movl	%edx, %eax
 4194 0efb C1E008   		sall	$8, %eax
 4195 0efe 01D0     		addl	%edx, %eax
 4196 0f00 C1E002   		sall	$2, %eax
 4197 0f03 05000000 		addl	$_g_resimg_table, %eax
 4197      00
 4198 0f08 890424   		movl	%eax, (%esp)
 4199 0f0b E8000000 		call	_strcpy
 4199      00
 691:../../MMI/Resource/WriteProcess.cpp ****         strcpy(g_resimg_table[g_resimg_count].real_filename, data.m_processData.real_filename);
 4201              	LM136:
 4202 0f10 8B4508   		movl	8(%ebp), %eax
 4203 0f13 83C014   		addl	$20, %eax
 4204 0f16 89442404 		movl	%eax, 4(%esp)
 4205 0f1a 8B150000 		movl	_g_resimg_count, %edx
 4205      0000
 4206 0f20 89D0     		movl	%edx, %eax
 4207 0f22 C1E008   		sall	$8, %eax
 4208 0f25 01D0     		addl	%edx, %eax
 4209 0f27 C1E002   		sall	$2, %eax
 4210 0f2a 05000200 		addl	$_g_resimg_table+512, %eax
 4210      00
 4211 0f2f 890424   		movl	%eax, (%esp)
 4212 0f32 E8000000 		call	_strcpy
 4212      00
 692:../../MMI/Resource/WriteProcess.cpp ****         g_resimg_count ++;
 4214              	LM137:
 4215 0f37 FF050000 		incl	_g_resimg_count
 4215      0000
 693:../../MMI/Resource/WriteProcess.cpp ****         RESPRTONERECORD_IMG_EXT(fpImageResourceUsage, fpImageResourceUsageExt, data.m_nImgId, data.
 4217              	LM138:
 4218              	LBB27:
 4219              	LBB28:
 4220              	LBB29:
 4221 0f3d 833D0000 		cmpl	$0, _fpImageResourceUsage
 4221      000000
 4222 0f44 0F84FE00 		je	L70
 4222      0000
 4223 0f4a 8B4508   		movl	8(%ebp), %eax
 4224              	LBB30:
 4225 0f4d 83C008   		addl	$8, %eax
 4226 0f50 890424   		movl	%eax, (%esp)
 4227 0f53 E8000000 		call	__ZNKSs5c_strEv
 4227      00
 4228 0f58 89442404 		movl	%eax, 4(%esp)
 4229 0f5c 8B4508   		movl	8(%ebp), %eax
GAS LISTING d:/software/ovi_2503a_s3trc/ovi_2503a_s3trc/plutommi/Customer/ResGenerator/gcctmp/ccuadaaa.s 			page 40


 4230 0f5f 0FB700   		movzwl	(%eax), %eax
 4231 0f62 890424   		movl	%eax, (%esp)
 4232 0f65 E8000000 		call	_GetOffsetFromResourceBase
 4232      00
 4233 0f6a 8945E4   		movl	%eax, -28(%ebp)
 4234 0f6d 837DE4FF 		cmpl	$-1, -28(%ebp)
 4235 0f71 755C     		jne	L72
 4236 0f73 8B4508   		movl	8(%ebp), %eax
 4237 0f76 83C008   		addl	$8, %eax
 4238 0f79 890424   		movl	%eax, (%esp)
 4239 0f7c E8000000 		call	__ZNKSs5c_strEv
 4239      00
 4240 0f81 89C2     		movl	%eax, %edx
 4241 0f83 8B4508   		movl	8(%ebp), %eax
 4242 0f86 83C014   		addl	$20, %eax
 4243 0f89 8944241C 		movl	%eax, 28(%esp)
 4244 0f8d 8B4508   		movl	8(%ebp), %eax
 4245 0f90 8B801402 		movl	532(%eax), %eax
 4245      0000
 4246 0f96 89442418 		movl	%eax, 24(%esp)
 4247 0f9a 89542414 		movl	%edx, 20(%esp)
 4248 0f9e 8B4508   		movl	8(%ebp), %eax
 4249 0fa1 0FB700   		movzwl	(%eax), %eax
 4250 0fa4 89442410 		movl	%eax, 16(%esp)
 4251 0fa8 C744240C 		movl	$-1, 12(%esp)
 4251      FFFFFFFF 
 4252 0fb0 C7442408 		movl	$LC15, 8(%esp)
 4252      060B0000 
 4253 0fb8 C7442404 		movl	$LC16, 4(%esp)
 4253      0D0B0000 
 4254 0fc0 A1000000 		movl	_fpImageResourceUsage, %eax
 4254      00
 4255 0fc5 890424   		movl	%eax, (%esp)
 4256 0fc8 E8000000 		call	_fprintf
 4256      00
 4257 0fcd EB79     		jmp	L70
 4258              	L72:
 4259 0fcf 8B4508   		movl	8(%ebp), %eax
 4260 0fd2 83C008   		addl	$8, %eax
 4261 0fd5 890424   		movl	%eax, (%esp)
 4262 0fd8 E8000000 		call	__ZNKSs5c_strEv
 4262      00
 4263 0fdd 89C2     		movl	%eax, %edx
 4264 0fdf 8B4508   		movl	8(%ebp), %eax
 4265 0fe2 83C014   		addl	$20, %eax
 4266 0fe5 8944241C 		movl	%eax, 28(%esp)
 4267 0fe9 8B4508   		movl	8(%ebp), %eax
 4268 0fec 8B801402 		movl	532(%eax), %eax
 4268      0000
 4269 0ff2 89442418 		movl	%eax, 24(%esp)
 4270 0ff6 89542414 		movl	%edx, 20(%esp)
 4271 0ffa 8B4508   		movl	8(%ebp), %eax
 4272 0ffd 0FB700   		movzwl	(%eax), %eax
 4273 1000 89442410 		movl	%eax, 16(%esp)
 4274 1004 8B55E4   		movl	-28(%ebp), %edx
 4275 1007 89D0     		movl	%edx, %eax
 4276 1009 C1E006   		sall	$6, %eax
GAS LISTING d:/software/ovi_2503a_s3trc/ovi_2503a_s3trc/plutommi/Customer/ResGenerator/gcctmp/ccuadaaa.s 			page 41


 4277 100c 01D0     		addl	%edx, %eax
 4278 100e C1E003   		sall	$3, %eax
 4279 1011 0FB78004 		movzwl	_g_mmi_resource_base_table+4(%eax), %eax
 4279      000000
 4280 1018 8944240C 		movl	%eax, 12(%esp)
 4281 101c 8B55E4   		movl	-28(%ebp), %edx
 4282 101f 89D0     		movl	%edx, %eax
 4283 1021 C1E006   		sall	$6, %eax
 4284 1024 01D0     		addl	%edx, %eax
 4285 1026 C1E003   		sall	$3, %eax
 4286 1029 8B800000 		movl	_g_mmi_resource_base_table(%eax), %eax
 4286      0000
 4287 102f 89442408 		movl	%eax, 8(%esp)
 4288 1033 C7442404 		movl	$LC16, 4(%esp)
 4288      0D0B0000 
 4289 103b A1000000 		movl	_fpImageResourceUsage, %eax
 4289      00
 4290 1040 890424   		movl	%eax, (%esp)
 4291 1043 E8000000 		call	_fprintf
 4291      00
 4292              	L70:
 4293              	LBE30:
 4294              	LBE29:
 4295              	LBE28:
 4296 1048 8B4508   		movl	8(%ebp), %eax
 4297 104b 8B801402 		movl	532(%eax), %eax
 4297      0000
 4298 1051 89442410 		movl	%eax, 16(%esp)
 4299 1055 8B4508   		movl	8(%ebp), %eax
 4300 1058 8B802C02 		movl	556(%eax), %eax
 4300      0000
 4301 105e 8944240C 		movl	%eax, 12(%esp)
 4302 1062 8B4508   		movl	8(%ebp), %eax
 4303 1065 83C014   		addl	$20, %eax
 4304 1068 89442408 		movl	%eax, 8(%esp)
 4305 106c C7442404 		movl	$LC17, 4(%esp)
 4305      230B0000 
 4306 1074 A1000000 		movl	_fpImageResourceUsageExt, %eax
 4306      00
 4307 1079 890424   		movl	%eax, (%esp)
 4308 107c E8000000 		call	_fprintf
 4308      00
 694:../../MMI/Resource/WriteProcess.cpp ****     }
 695:../../MMI/Resource/WriteProcess.cpp **** }
 4310              	LM139:
 4311              	L43:
 4312 1081 C9       		leave
 4313 1082 C3       		ret
 4314              	LBE27:
 4315              	LBE26:
 4316              	LBE19:
 4317              	LBE18:
 4318              	LBE17:
 4319              	LBE16:
 4339              	Lscope10:
 4341 1083 90       		.align 2
 4344              	__Z18getMaxThreadNumberv:
GAS LISTING d:/software/ovi_2503a_s3trc/ovi_2503a_s3trc/plutommi/Customer/ResGenerator/gcctmp/ccuadaaa.s 			page 42


 696:../../MMI/Resource/WriteProcess.cpp **** 
 697:../../MMI/Resource/WriteProcess.cpp **** class ConvertRequest : public ThreadPool::IRunObject
 698:../../MMI/Resource/WriteProcess.cpp **** {
 699:../../MMI/Resource/WriteProcess.cpp **** public:
 700:../../MMI/Resource/WriteProcess.cpp ****     ConvertRequest(ProcessImageData & data) : m_data(data)
 701:../../MMI/Resource/WriteProcess.cpp ****     {
 702:../../MMI/Resource/WriteProcess.cpp ****     }
 703:../../MMI/Resource/WriteProcess.cpp **** 
 704:../../MMI/Resource/WriteProcess.cpp ****     void Run()
 705:../../MMI/Resource/WriteProcess.cpp ****     {
 706:../../MMI/Resource/WriteProcess.cpp ****         SetImageWithBufferExImp(m_data.m_nImgId, (S8*)m_data.m_filename.c_str(),
 707:../../MMI/Resource/WriteProcess.cpp ****             (S8*)m_data.m_enum_value.c_str(), m_data.m_imgFlag,
 708:../../MMI/Resource/WriteProcess.cpp ****             m_data.m_force_type, &m_data.m_processData);
 709:../../MMI/Resource/WriteProcess.cpp ****         delete this;
 710:../../MMI/Resource/WriteProcess.cpp ****     }
 711:../../MMI/Resource/WriteProcess.cpp **** 
 712:../../MMI/Resource/WriteProcess.cpp ****     bool AutoDelete()
 713:../../MMI/Resource/WriteProcess.cpp ****     {
 714:../../MMI/Resource/WriteProcess.cpp ****         return false;
 715:../../MMI/Resource/WriteProcess.cpp ****     }
 716:../../MMI/Resource/WriteProcess.cpp **** 
 717:../../MMI/Resource/WriteProcess.cpp **** private:
 718:../../MMI/Resource/WriteProcess.cpp ****     ProcessImageData & m_data;
 719:../../MMI/Resource/WriteProcess.cpp **** };
 720:../../MMI/Resource/WriteProcess.cpp **** 
 721:../../MMI/Resource/WriteProcess.cpp **** static DWORD getMaxThreadNumber(){
 4346              	LM140:
 4347 1084 55       		pushl	%ebp
 4348 1085 89E5     		movl	%esp, %ebp
 4349 1087 83EC58   		subl	$88, %esp
 722:../../MMI/Resource/WriteProcess.cpp ****     DWORD threadCount = 1;
 4351              	LM141:
 4352              	LBB31:
 4353 108a C745F401 		movl	$1, -12(%ebp)
 4353      000000
 723:../../MMI/Resource/WriteProcess.cpp ****     DWORD maxThreadCount = 1;
 4355              	LM142:
 4356 1091 C745F001 		movl	$1, -16(%ebp)
 4356      000000
 724:../../MMI/Resource/WriteProcess.cpp ****     // Set max numebr of concurrent threads in image processing thread pool
 725:../../MMI/Resource/WriteProcess.cpp ****     SYSTEM_INFO sysinfo;
 726:../../MMI/Resource/WriteProcess.cpp ****     GetSystemInfo( &sysinfo );
 4358              	LM143:
 4359 1098 8D45B8   		leal	-72(%ebp), %eax
 4360 109b 890424   		movl	%eax, (%esp)
 4361 109e E8000000 		call	_GetSystemInfo@4
 4361      00
 4362 10a3 83EC04   		subl	$4, %esp
 727:../../MMI/Resource/WriteProcess.cpp ****     maxThreadCount = resconfig_adaptor_get_max_thread_numebr();
 4364              	LM144:
 4365 10a6 E8000000 		call	_resconfig_adaptor_get_max_thread_numebr
 4365      00
 4366 10ab 8945F0   		movl	%eax, -16(%ebp)
 728:../../MMI/Resource/WriteProcess.cpp ****     if(sysinfo.dwNumberOfProcessors * 2 > maxThreadCount)
 4368              	LM145:
 4369 10ae 8B45CC   		movl	-52(%ebp), %eax
 4370 10b1 01C0     		addl	%eax, %eax
GAS LISTING d:/software/ovi_2503a_s3trc/ovi_2503a_s3trc/plutommi/Customer/ResGenerator/gcctmp/ccuadaaa.s 			page 43


 4371 10b3 3B45F0   		cmpl	-16(%ebp), %eax
 4372 10b6 7608     		jbe	L78
 729:../../MMI/Resource/WriteProcess.cpp ****     {
 730:../../MMI/Resource/WriteProcess.cpp ****         threadCount = maxThreadCount;
 4374              	LM146:
 4375 10b8 8B45F0   		movl	-16(%ebp), %eax
 4376 10bb 8945F4   		movl	%eax, -12(%ebp)
 4377 10be EB08     		jmp	L79
 4378              	L78:
 731:../../MMI/Resource/WriteProcess.cpp ****     }
 732:../../MMI/Resource/WriteProcess.cpp ****     else
 733:../../MMI/Resource/WriteProcess.cpp ****     {
 734:../../MMI/Resource/WriteProcess.cpp ****         threadCount = sysinfo.dwNumberOfProcessors * 2;;
 4380              	LM147:
 4381 10c0 8B45CC   		movl	-52(%ebp), %eax
 4382 10c3 01C0     		addl	%eax, %eax
 4383 10c5 8945F4   		movl	%eax, -12(%ebp)
 4384              	L79:
 735:../../MMI/Resource/WriteProcess.cpp ****     }
 736:../../MMI/Resource/WriteProcess.cpp **** 
 737:../../MMI/Resource/WriteProcess.cpp **** #ifdef __MMI_RESOURCE_ENFB_SUPPORT__
 738:../../MMI/Resource/WriteProcess.cpp ****     threadCount = 1;
 739:../../MMI/Resource/WriteProcess.cpp **** #endif
 740:../../MMI/Resource/WriteProcess.cpp **** 
 741:../../MMI/Resource/WriteProcess.cpp ****     return threadCount;
 4386              	LM148:
 4387 10c8 8B45F4   		movl	-12(%ebp), %eax
 742:../../MMI/Resource/WriteProcess.cpp **** }
 4389              	LM149:
 4390 10cb C9       		leave
 4391 10cc C3       		ret
 4392              	LBE31:
 4398              	Lscope11:
 4400 10cd 90909090 		.align 32
 4400      90909090 
 4400      90909090 
 4400      90909090 
 4400      909090
 4401              	LC18:
 4402 10e0 43726561 		.ascii "Creating Thread pool, threadCount = %d\0"
 4402      74696E67 
 4402      20546872 
 4402      65616420 
 4402      706F6F6C 
 4403 1107 90909090 		.align 32
 4403      90909090 
 4403      90909090 
 4403      90909090 
 4403      90909090 
 4404              	LC19:
 4405 1120 54687265 		.ascii "Thread pool was not created due to lack of memory available by the compilation environment
 4405      61642070 
 4405      6F6F6C20 
 4405      77617320 
 4405      6E6F7420 
 4406 117b 908D7426 		.align 32
 4406      00
GAS LISTING d:/software/ovi_2503a_s3trc/ovi_2503a_s3trc/plutommi/Customer/ResGenerator/gcctmp/ccuadaaa.s 			page 44


 4407              	LC20:
 4408 1180 54687265 		.ascii "Thread pool is created successfully\0"
 4408      61642070 
 4408      6F6F6C20 
 4408      69732063 
 4408      72656174 
 4409 11a4 90909090 		.align 32
 4409      90909090 
 4409      90909090 
 4409      90909090 
 4409      90909090 
 4410              	LC21:
 4411 11c0 6D746B5F 		.ascii "mtk_resgenerator.exe Wait for threads timed out\0"
 4411      72657367 
 4411      656E6572 
 4411      61746F72 
 4411      2E657865 
 4412 11f0 90909090 		.align 32
 4412      90909090 
 4412      90909090 
 4412      90909090 
 4413              	LC22:
 4414 1200 2E2E5C2E 		.ascii "..\\..\\Customer\\CustResource\\CustImgDataHW.h\0"
 4414      2E5C4375 
 4414      73746F6D 
 4414      65725C43 
 4414      75737452 
 4415 122c 90909090 		.align 32
 4415      90909090 
 4415      90909090 
 4415      90909090 
 4415      90909090 
 4416              	LC23:
 4417 1240 2E2E5C2E 		.ascii "..\\..\\Customer\\CustResource\\CustImgDataHWExt.h\0"
 4417      2E5C4375 
 4417      73746F6D 
 4417      65725C43 
 4417      75737452 
 4418              	LC24:
 4419 126f 50726F63 		.ascii "Process IMG %d(%s), file: %s\0"
 4419      65737320 
 4419      494D4720 
 4419      25642825 
 4419      73292C20 
 4420              	LC25:
 4421 128c 50726F63 		.ascii "Process IMG %d, file: %s\0"
 4421      65737320 
 4421      494D4720 
 4421      25642C20 
 4421      66696C65 
 4422              	LC26:
 4423 12a5 4475706C 		.ascii "Duplicated Image: ID = %d.\0"
 4423      69636174 
 4423      65642049 
 4423      6D616765 
 4423      3A204944 
 4424              		.align 32
GAS LISTING d:/software/ovi_2503a_s3trc/ovi_2503a_s3trc/plutommi/Customer/ResGenerator/gcctmp/ccuadaaa.s 			page 45


 4425              	LC27:
 4426 12c0 2E2E5C2E 		.ascii "..\\..\\Customer\\CustResource\\CustImgDataMeta.txt\0"
 4426      2E5C4375 
 4426      73746F6D 
 4426      65725C43 
 4426      75737452 
 4427 12f0 90909090 		.align 32
 4427      90909090 
 4427      90909090 
 4427      90909090 
 4428              	LC28:
 4429 1300 4F757470 		.ascii "Output Image Group Content Meta: %s\0"
 4429      75742049 
 4429      6D616765 
 4429      2047726F 
 4429      75702043 
 4430              	LC29:
 4431 1324 436C6F73 		.ascii "Close FILE: %s\0"
 4431      65204649 
 4431      4C453A20 
 4431      257300
 4432              	LC30:
 4433 1333 436C6561 		.ascii "Clean g_resgen_png_image_list\0"
 4433      6E20675F 
 4433      72657367 
 4433      656E5F70 
 4433      6E675F69 
 4434 1351 90       		.align 2
 4436              	.globl _ProcessResgenPngImages
 4438              	_ProcessResgenPngImages:
 743:../../MMI/Resource/WriteProcess.cpp **** 
 744:../../MMI/Resource/WriteProcess.cpp **** void ProcessResgenPngImages()
 745:../../MMI/Resource/WriteProcess.cpp **** {
 4440              	LM150:
 4441 1352 55       		pushl	%ebp
 4442 1353 89E5     		movl	%esp, %ebp
 4443 1355 57       		pushl	%edi
 4444 1356 56       		pushl	%esi
 4445 1357 53       		pushl	%ebx
 4446 1358 81ECDC00 		subl	$220, %esp
 4446      0000
 4447 135e C7459400 		movl	$___gxx_personality_sj0, -108(%ebp)
 4447      000000
 4448 1365 C745980C 		movl	$LLSDA2211, -104(%ebp)
 4448      000000
 4449 136c 8D459C   		leal	-100(%ebp), %eax
 4450 136f 8D55E8   		leal	-24(%ebp), %edx
 4451 1372 8910     		movl	%edx, (%eax)
 4452 1374 BAFE1500 		movl	$L139, %edx
 4452      00
 4453 1379 895004   		movl	%edx, 4(%eax)
 4454 137c 896008   		movl	%esp, 8(%eax)
 4455 137f 8D857CFF 		leal	-132(%ebp), %eax
 4455      FFFF
 4456 1385 890424   		movl	%eax, (%esp)
 4457 1388 E8000000 		call	__Unwind_SjLj_Register
 4457      00
GAS LISTING d:/software/ovi_2503a_s3trc/ovi_2503a_s3trc/plutommi/Customer/ResGenerator/gcctmp/ccuadaaa.s 			page 46


 746:../../MMI/Resource/WriteProcess.cpp ****     //Max numebr of concurrent threads in image processing thread pool
 747:../../MMI/Resource/WriteProcess.cpp ****     DWORD threadCount = getMaxThreadNumber();
 4459              	LM151:
 4460 138d C74580FF 		movl	$-1, -128(%ebp)
 4460      FFFFFF
 4461              	LBB32:
 4462 1394 E8EBFCFF 		call	__Z18getMaxThreadNumberv
 4462      FF
 4463 1399 8945E4   		movl	%eax, -28(%ebp)
 748:../../MMI/Resource/WriteProcess.cpp **** 
 749:../../MMI/Resource/WriteProcess.cpp **** 	ImageGroupContentMetaCreator * contentMetacreator = new ImageGroupContentMetaCreator();
 4465              	LM152:
 4466 139c C7042418 		movl	$24, (%esp)
 4466      000000
 4467 13a3 E8000000 		call	__Znwj
 4467      00
 4468 13a8 898578FF 		movl	%eax, -136(%ebp)
 4468      FFFF
 4469 13ae C68577FF 		movb	$1, -137(%ebp)
 4469      FFFF01
 4470 13b5 8B8578FF 		movl	-136(%ebp), %eax
 4470      FFFF
 4471 13bb 890424   		movl	%eax, (%esp)
 4472 13be C7458003 		movl	$3, -128(%ebp)
 4472      000000
 4473 13c5 E8000000 		call	__ZN28ImageGroupContentMetaCreatorC1Ev
 4473      00
 4474 13ca C68577FF 		movb	$0, -137(%ebp)
 4474      FFFF00
 4475 13d1 8B9578FF 		movl	-136(%ebp), %edx
 4475      FFFF
 4476 13d7 8955E0   		movl	%edx, -32(%ebp)
 4477 13da EB44     		jmp	L82
 4478              	L81:
 4479 13dc 8B856CFF 		movl	-148(%ebp), %eax
 4479      FFFF
 4480 13e2 898570FF 		movl	%eax, -144(%ebp)
 4480      FFFF
 4481 13e8 80BD77FF 		cmpb	$0, -137(%ebp)
 4481      FFFF00
 4482 13ef 740E     		je	L84
 4483 13f1 8B9578FF 		movl	-136(%ebp), %edx
 4483      FFFF
 4484 13f7 891424   		movl	%edx, (%esp)
 4485 13fa E8000000 		call	__ZdlPv
 4485      00
 4486              	L84:
 4487 13ff 8B8570FF 		movl	-144(%ebp), %eax
 4487      FFFF
 4488 1405 89856CFF 		movl	%eax, -148(%ebp)
 4488      FFFF
 4489              	L85:
 4490 140b 8B956CFF 		movl	-148(%ebp), %edx
 4490      FFFF
 4491 1411 891424   		movl	%edx, (%esp)
 4492 1414 C74580FF 		movl	$-1, -128(%ebp)
 4492      FFFFFF
GAS LISTING d:/software/ovi_2503a_s3trc/ovi_2503a_s3trc/plutommi/Customer/ResGenerator/gcctmp/ccuadaaa.s 			page 47


 4493 141b E8000000 		call	__Unwind_SjLj_Resume
 4493      00
 4494              	L82:
 750:../../MMI/Resource/WriteProcess.cpp ****     // process binary data
 751:../../MMI/Resource/WriteProcess.cpp ****     ProcessBinaryData();
 4496              	LM153:
 4497 1420 C74580FF 		movl	$-1, -128(%ebp)
 4497      FFFFFF
 4498 1427 E8D00D00 		call	__Z17ProcessBinaryDatav
 4498      00
 752:../../MMI/Resource/WriteProcess.cpp **** 
 753:../../MMI/Resource/WriteProcess.cpp ****     // execute_ext_command("echo resgen_time before Iloads %time%");
 754:../../MMI/Resource/WriteProcess.cpp **** 
 755:../../MMI/Resource/WriteProcess.cpp ****     // Create thread pool
 756:../../MMI/Resource/WriteProcess.cpp ****     IMGPROC_LOG_V("Creating Thread pool, threadCount = %d", threadCount);
 4500              	LM154:
 4501 142c 8B45E4   		movl	-28(%ebp), %eax
 4502 142f 8944240C 		movl	%eax, 12(%esp)
 4503 1433 C7442408 		movl	$LC18, 8(%esp)
 4503      E0100000 
 4504 143b C7442404 		movl	$LC4, 4(%esp)
 4504      E4000000 
 4505 1443 C7042401 		movl	$1, (%esp)
 4505      000000
 4506 144a E8000000 		call	_reslog_adaptor_log
 4506      00
 757:../../MMI/Resource/WriteProcess.cpp ****     ThreadPool * myPool = new ThreadPool(threadCount);
 4508              	LM155:
 4509 144f C7042434 		movl	$52, (%esp)
 4509      000000
 4510 1456 E8000000 		call	__Znwj
 4510      00
 4511 145b 898568FF 		movl	%eax, -152(%ebp)
 4511      FFFF
 4512 1461 C68567FF 		movb	$1, -153(%ebp)
 4512      FFFF01
 4513 1468 C7442408 		movl	$5000, 8(%esp)
 4513      88130000 
 4514 1470 8B45E4   		movl	-28(%ebp), %eax
 4515 1473 89442404 		movl	%eax, 4(%esp)
 4516 1477 8B8568FF 		movl	-152(%ebp), %eax
 4516      FFFF
 4517 147d 890424   		movl	%eax, (%esp)
 4518 1480 C7458002 		movl	$2, -128(%ebp)
 4518      000000
 4519 1487 E8000000 		call	__ZN10ThreadPoolC1Eii
 4519      00
 4520 148c C68567FF 		movb	$0, -153(%ebp)
 4520      FFFF00
 4521 1493 8B9568FF 		movl	-152(%ebp), %edx
 4521      FFFF
 4522 1499 8955DC   		movl	%edx, -36(%ebp)
 4523 149c EB44     		jmp	L88
 4524              	L87:
 4525 149e 8B856CFF 		movl	-148(%ebp), %eax
 4525      FFFF
 4526 14a4 898560FF 		movl	%eax, -160(%ebp)
GAS LISTING d:/software/ovi_2503a_s3trc/ovi_2503a_s3trc/plutommi/Customer/ResGenerator/gcctmp/ccuadaaa.s 			page 48


 4526      FFFF
 4527 14aa 80BD67FF 		cmpb	$0, -153(%ebp)
 4527      FFFF00
 4528 14b1 740E     		je	L90
 4529 14b3 8B9568FF 		movl	-152(%ebp), %edx
 4529      FFFF
 4530 14b9 891424   		movl	%edx, (%esp)
 4531 14bc E8000000 		call	__ZdlPv
 4531      00
 4532              	L90:
 4533 14c1 8B8560FF 		movl	-160(%ebp), %eax
 4533      FFFF
 4534 14c7 89856CFF 		movl	%eax, -148(%ebp)
 4534      FFFF
 4535              	L91:
 4536 14cd 8B956CFF 		movl	-148(%ebp), %edx
 4536      FFFF
 4537 14d3 891424   		movl	%edx, (%esp)
 4538 14d6 C74580FF 		movl	$-1, -128(%ebp)
 4538      FFFFFF
 4539 14dd E8000000 		call	__Unwind_SjLj_Resume
 4539      00
 4540              	L88:
 758:../../MMI/Resource/WriteProcess.cpp ****     if(!myPool) 
 4542              	LM156:
 4543 14e2 837DDC00 		cmpl	$0, -36(%ebp)
 4544 14e6 7525     		jne	L93
 759:../../MMI/Resource/WriteProcess.cpp ****     {
 760:../../MMI/Resource/WriteProcess.cpp ****         IMGPROC_LOG_E("Thread pool was not created due to lack of memory available by the compilati
 4546              	LM157:
 4547 14e8 C7442408 		movl	$LC19, 8(%esp)
 4547      20110000 
 4548 14f0 C7442404 		movl	$LC4, 4(%esp)
 4548      E4000000 
 4549 14f8 C7042403 		movl	$3, (%esp)
 4549      000000
 4550 14ff C74580FF 		movl	$-1, -128(%ebp)
 4550      FFFFFF
 4551 1506 E8000000 		call	_reslog_adaptor_log
 4551      00
 4552 150b EB23     		jmp	L94
 4553              	L93:
 761:../../MMI/Resource/WriteProcess.cpp ****     }
 762:../../MMI/Resource/WriteProcess.cpp ****     else
 763:../../MMI/Resource/WriteProcess.cpp ****     {
 764:../../MMI/Resource/WriteProcess.cpp ****         IMGPROC_LOG_V("Thread pool is created successfully");
 4555              	LM158:
 4556 150d C7442408 		movl	$LC20, 8(%esp)
 4556      80110000 
 4557 1515 C7442404 		movl	$LC4, 4(%esp)
 4557      E4000000 
 4558 151d C7042401 		movl	$1, (%esp)
 4558      000000
 4559 1524 C74580FF 		movl	$-1, -128(%ebp)
 4559      FFFFFF
 4560 152b E8000000 		call	_reslog_adaptor_log
 4560      00
GAS LISTING d:/software/ovi_2503a_s3trc/ovi_2503a_s3trc/plutommi/Customer/ResGenerator/gcctmp/ccuadaaa.s 			page 49


 4561              	L94:
 765:../../MMI/Resource/WriteProcess.cpp ****     }
 766:../../MMI/Resource/WriteProcess.cpp **** 
 767:../../MMI/Resource/WriteProcess.cpp ****     fflush(stdout);
 4563              	LM159:
 4564 1530 A1000000 		movl	__imp___iob, %eax
 4564      00
 4565 1535 83C020   		addl	$32, %eax
 4566 1538 890424   		movl	%eax, (%esp)
 4567 153b C74580FF 		movl	$-1, -128(%ebp)
 4567      FFFFFF
 4568 1542 E8000000 		call	_fflush
 4568      00
 768:../../MMI/Resource/WriteProcess.cpp **** 
 769:../../MMI/Resource/WriteProcess.cpp ****     ProcessImageList::iterator i = g_resgen_png_image_list.begin();
 4570              	LM160:
 4571 1547 8D45C8   		leal	-56(%ebp), %eax
 4572 154a C7442404 		movl	$_g_resgen_png_image_list, 4(%esp)
 4572      10000000 
 4573 1552 890424   		movl	%eax, (%esp)
 4574 1555 E8000000 		call	__ZNSt4listI16ProcessImageDataSaIS0_EE5beginEv
 4574      00
 4575 155a 83EC04   		subl	$4, %esp
 770:../../MMI/Resource/WriteProcess.cpp ****     for (; i != g_resgen_png_image_list.end(); ++i)
 4577              	LM161:
 4578              	L95:
 4579              	LBB33:
 4580 155d 8D45B8   		leal	-72(%ebp), %eax
 4581 1560 C7442404 		movl	$_g_resgen_png_image_list, 4(%esp)
 4581      10000000 
 4582 1568 890424   		movl	%eax, (%esp)
 4583 156b C74580FF 		movl	$-1, -128(%ebp)
 4583      FFFFFF
 4584 1572 E8000000 		call	__ZNSt4listI16ProcessImageDataSaIS0_EE3endEv
 4584      00
 4585 1577 83EC04   		subl	$4, %esp
 4586 157a 8D45B8   		leal	-72(%ebp), %eax
 4587 157d 89442404 		movl	%eax, 4(%esp)
 4588 1581 8D45C8   		leal	-56(%ebp), %eax
 4589 1584 890424   		movl	%eax, (%esp)
 4590 1587 E8000000 		call	__ZNKSt19_List_iterator_baseneERKS_
 4590      00
 4591 158c 84C0     		testb	%al, %al
 4592 158e 7505     		jne	L98
 4593 1590 E9F30000 		jmp	L96
 4593      00
 4594              	L98:
 771:../../MMI/Resource/WriteProcess.cpp ****     {
 772:../../MMI/Resource/WriteProcess.cpp ****         ProcessImageData & data = *i;
 4596              	LM162:
 4597              	LBB34:
 4598              	LBB35:
 4599 1595 8D45C8   		leal	-56(%ebp), %eax
 4600 1598 890424   		movl	%eax, (%esp)
 4601 159b C74580FF 		movl	$-1, -128(%ebp)
 4601      FFFFFF
 4602 15a2 E8000000 		call	__ZNKSt14_List_iteratorI16ProcessImageDataRS0_PS0_EdeEv
GAS LISTING d:/software/ovi_2503a_s3trc/ovi_2503a_s3trc/plutommi/Customer/ResGenerator/gcctmp/ccuadaaa.s 			page 50


 4602      00
 4603 15a7 8945B4   		movl	%eax, -76(%ebp)
 773:../../MMI/Resource/WriteProcess.cpp ****         myPool->Run(new ConvertRequest(data) );
 4605              	LM163:
 4606 15aa C7042408 		movl	$8, (%esp)
 4606      000000
 4607 15b1 E8000000 		call	__Znwj
 4607      00
 4608 15b6 89855CFF 		movl	%eax, -164(%ebp)
 4608      FFFF
 4609 15bc 8B45B4   		movl	-76(%ebp), %eax
 4610 15bf 89442404 		movl	%eax, 4(%esp)
 4611 15c3 8B855CFF 		movl	-164(%ebp), %eax
 4611      FFFF
 4612 15c9 890424   		movl	%eax, (%esp)
 4613 15cc E8000000 		call	__ZN14ConvertRequestC1ER16ProcessImageData
 4613      00
 4614 15d1 C6855BFF 		movb	$0, -165(%ebp)
 4614      FFFF00
 4615 15d8 8B855CFF 		movl	-164(%ebp), %eax
 4615      FFFF
 4616 15de C7442408 		movl	$1, 8(%esp)
 4616      01000000 
 4617 15e6 89442404 		movl	%eax, 4(%esp)
 4618 15ea 8B45DC   		movl	-36(%ebp), %eax
 4619 15ed 890424   		movl	%eax, (%esp)
 4620 15f0 C7458001 		movl	$1, -128(%ebp)
 4620      000000
 4621 15f7 E8000000 		call	__ZN10ThreadPool3RunEPNS_10IRunObjectENS_14ThreadPriorityE
 4621      00
 4622 15fc EB73     		jmp	L97
 4623              	L139:
 4624 15fe 8D6D18   		leal	24(%ebp), %ebp
 4625 1601 8B5580   		movl	-128(%ebp), %edx
 4626 1604 899544FF 		movl	%edx, -188(%ebp)
 4626      FFFF
 4627 160a 8B4584   		movl	-124(%ebp), %eax
 4628 160d 89856CFF 		movl	%eax, -148(%ebp)
 4628      FFFF
 4629 1613 83BD44FF 		cmpl	$1, -188(%ebp)
 4629      FFFF01
 4630 161a 0F847EFE 		je	L87
 4630      FFFF
 4631 1620 83BD44FF 		cmpl	$2, -188(%ebp)
 4631      FFFF02
 4632 1627 0F84AFFD 		je	L81
 4632      FFFF
 4633              	L99:
 4634 162d 8B956CFF 		movl	-148(%ebp), %edx
 4634      FFFF
 4635 1633 899554FF 		movl	%edx, -172(%ebp)
 4635      FFFF
 4636 1639 80BD5BFF 		cmpb	$0, -165(%ebp)
 4636      FFFF00
 4637 1640 740E     		je	L102
 4638 1642 8B855CFF 		movl	-164(%ebp), %eax
 4638      FFFF
GAS LISTING d:/software/ovi_2503a_s3trc/ovi_2503a_s3trc/plutommi/Customer/ResGenerator/gcctmp/ccuadaaa.s 			page 51


 4639 1648 890424   		movl	%eax, (%esp)
 4640 164b E8000000 		call	__ZdlPv
 4640      00
 4641              	L102:
 4642 1650 8B9554FF 		movl	-172(%ebp), %edx
 4642      FFFF
 4643 1656 89956CFF 		movl	%edx, -148(%ebp)
 4643      FFFF
 4644              	L103:
 4645 165c 8B856CFF 		movl	-148(%ebp), %eax
 4645      FFFF
 4646 1662 890424   		movl	%eax, (%esp)
 4647 1665 C74580FF 		movl	$-1, -128(%ebp)
 4647      FFFFFF
 4648 166c E8000000 		call	__Unwind_SjLj_Resume
 4648      00
 4650              	LM164:
 4651              	L97:
 4652              	LBE35:
 4653              	LBE34:
 4654 1671 8D45C8   		leal	-56(%ebp), %eax
 4655 1674 890424   		movl	%eax, (%esp)
 4656 1677 C74580FF 		movl	$-1, -128(%ebp)
 4656      FFFFFF
 4657 167e E8000000 		call	__ZNSt14_List_iteratorI16ProcessImageDataRS0_PS0_EppEv
 4657      00
 4658 1683 E9D5FEFF 		jmp	L95
 4658      FF
 4659              	L96:
 774:../../MMI/Resource/WriteProcess.cpp ****     }
 775:../../MMI/Resource/WriteProcess.cpp **** 
 776:../../MMI/Resource/WriteProcess.cpp ****     //execute_ext_command("echo resgen_time waiting for threads %time%");
 777:../../MMI/Resource/WriteProcess.cpp ****     int waitCount = 0;
 4661              	LM165:
 4662              	LBE33:
 4663 1688 C745B400 		movl	$0, -76(%ebp)
 4663      000000
 4664              	L105:
 778:../../MMI/Resource/WriteProcess.cpp ****     while (true)
 779:../../MMI/Resource/WriteProcess.cpp ****     {
 780:../../MMI/Resource/WriteProcess.cpp ****         if (myPool->GetWorkingThreadCount() == 0)
 4666              	LM166:
 4667 168f 8B45DC   		movl	-36(%ebp), %eax
 4668 1692 890424   		movl	%eax, (%esp)
 4669 1695 C74580FF 		movl	$-1, -128(%ebp)
 4669      FFFFFF
 4670 169c E8000000 		call	__ZN10ThreadPool21GetWorkingThreadCountEv
 4670      00
 4671 16a1 85C0     		testl	%eax, %eax
 4672 16a3 7502     		jne	L108
 781:../../MMI/Resource/WriteProcess.cpp ****         {
 782:../../MMI/Resource/WriteProcess.cpp ****             break;
 4674              	LM167:
 4675 16a5 EB64     		jmp	L106
 4676              	L108:
 783:../../MMI/Resource/WriteProcess.cpp ****         }
 784:../../MMI/Resource/WriteProcess.cpp ****         ::Sleep(500);
GAS LISTING d:/software/ovi_2503a_s3trc/ovi_2503a_s3trc/plutommi/Customer/ResGenerator/gcctmp/ccuadaaa.s 			page 52


 4678              	LM168:
 4679 16a7 C70424F4 		movl	$500, (%esp)
 4679      010000
 4680 16ae C74580FF 		movl	$-1, -128(%ebp)
 4680      FFFFFF
 4681 16b5 E8000000 		call	_Sleep@4
 4681      00
 4682 16ba 83EC04   		subl	$4, %esp
 785:../../MMI/Resource/WriteProcess.cpp ****         waitCount += 1;
 4684              	LM169:
 4685 16bd 8D45B4   		leal	-76(%ebp), %eax
 4686 16c0 FF00     		incl	(%eax)
 786:../../MMI/Resource/WriteProcess.cpp ****         if (waitCount > 7200)
 4688              	LM170:
 4689 16c2 817DB420 		cmpl	$7200, -76(%ebp)
 4689      1C0000
 4690 16c9 7EC4     		jle	L105
 787:../../MMI/Resource/WriteProcess.cpp ****         {
 788:../../MMI/Resource/WriteProcess.cpp ****             IMGPROC_LOG_E("mtk_resgenerator.exe Wait for threads timed out");
 4692              	LM171:
 4693 16cb C7442408 		movl	$LC21, 8(%esp)
 4693      C0110000 
 4694 16d3 C7442404 		movl	$LC4, 4(%esp)
 4694      E4000000 
 4695 16db C7042403 		movl	$3, (%esp)
 4695      000000
 4696 16e2 E8000000 		call	_reslog_adaptor_log
 4696      00
 789:../../MMI/Resource/WriteProcess.cpp ****             delete myPool;
 4698              	LM172:
 4699 16e7 837DDC00 		cmpl	$0, -36(%ebp)
 4700 16eb 7412     		je	L111
 4701 16ed 8B45DC   		movl	-36(%ebp), %eax
 4702 16f0 8B10     		movl	(%eax), %edx
 4703 16f2 83C204   		addl	$4, %edx
 4704 16f5 8B45DC   		movl	-36(%ebp), %eax
 4705 16f8 890424   		movl	%eax, (%esp)
 4706 16fb 8B02     		movl	(%edx), %eax
 4707 16fd FFD0     		call	*%eax
 4708              	L111:
 790:../../MMI/Resource/WriteProcess.cpp ****             exit(2);
 4710              	LM173:
 4711 16ff C7042402 		movl	$2, (%esp)
 4711      000000
 4712 1706 E8000000 		call	_exit
 4712      00
 4713              	L106:
 791:../../MMI/Resource/WriteProcess.cpp ****         }
 792:../../MMI/Resource/WriteProcess.cpp ****     }
 793:../../MMI/Resource/WriteProcess.cpp **** 
 794:../../MMI/Resource/WriteProcess.cpp ****     //execute_ext_command("echo resgen_time after Iloads %time%");
 795:../../MMI/Resource/WriteProcess.cpp ****     FILE *output = fopen(OUTPUT_DATA_FILENAME, "ab");
 4715              	LM174:
 4716 170b C7442404 		movl	$LC6, 4(%esp)
 4716      31010000 
 4717 1713 C7042400 		movl	$LC22, (%esp)
 4717      120000
GAS LISTING d:/software/ovi_2503a_s3trc/ovi_2503a_s3trc/plutommi/Customer/ResGenerator/gcctmp/ccuadaaa.s 			page 53


 4718 171a C74580FF 		movl	$-1, -128(%ebp)
 4718      FFFFFF
 4719 1721 E8000000 		call	_fopen
 4719      00
 4720 1726 8945B0   		movl	%eax, -80(%ebp)
 796:../../MMI/Resource/WriteProcess.cpp ****     FILE *outputExt = fopen(OUTPUT_DATA_FILENAME_EXT, "ab");
 4722              	LM175:
 4723 1729 C7442404 		movl	$LC6, 4(%esp)
 4723      31010000 
 4724 1731 C7042440 		movl	$LC23, (%esp)
 4724      120000
 4725 1738 E8000000 		call	_fopen
 4725      00
 4726 173d 8945AC   		movl	%eax, -84(%ebp)
 797:../../MMI/Resource/WriteProcess.cpp ****     while (output == NULL)
 4728              	LM176:
 4729              	L112:
 4730 1740 837DB000 		cmpl	$0, -80(%ebp)
 4731 1744 7402     		je	L114
 4732 1746 EB2F     		jmp	L113
 4733              	L114:
 798:../../MMI/Resource/WriteProcess.cpp ****     {
 799:../../MMI/Resource/WriteProcess.cpp ****         Sleep(50);
 4735              	LM177:
 4736 1748 C7042432 		movl	$50, (%esp)
 4736      000000
 4737 174f C74580FF 		movl	$-1, -128(%ebp)
 4737      FFFFFF
 4738 1756 E8000000 		call	_Sleep@4
 4738      00
 4739 175b 83EC04   		subl	$4, %esp
 800:../../MMI/Resource/WriteProcess.cpp ****         output = fopen(OUTPUT_DATA_FILENAME, "ab");
 4741              	LM178:
 4742 175e C7442404 		movl	$LC6, 4(%esp)
 4742      31010000 
 4743 1766 C7042400 		movl	$LC22, (%esp)
 4743      120000
 4744 176d E8000000 		call	_fopen
 4744      00
 4745 1772 8945B0   		movl	%eax, -80(%ebp)
 4746 1775 EBC9     		jmp	L112
 4747              	L113:
 4748 1777 90       		nop
 801:../../MMI/Resource/WriteProcess.cpp ****     }
 802:../../MMI/Resource/WriteProcess.cpp ****     while (outputExt == NULL)
 4750              	LM179:
 4751              	L115:
 4752 1778 837DAC00 		cmpl	$0, -84(%ebp)
 4753 177c 7402     		je	L117
 4754 177e EB2F     		jmp	L116
 4755              	L117:
 803:../../MMI/Resource/WriteProcess.cpp ****     {
 804:../../MMI/Resource/WriteProcess.cpp ****         Sleep(50);
 4757              	LM180:
 4758 1780 C7042432 		movl	$50, (%esp)
 4758      000000
 4759 1787 C74580FF 		movl	$-1, -128(%ebp)
GAS LISTING d:/software/ovi_2503a_s3trc/ovi_2503a_s3trc/plutommi/Customer/ResGenerator/gcctmp/ccuadaaa.s 			page 54


 4759      FFFFFF
 4760 178e E8000000 		call	_Sleep@4
 4760      00
 4761 1793 83EC04   		subl	$4, %esp
 805:../../MMI/Resource/WriteProcess.cpp ****         outputExt = fopen(OUTPUT_DATA_FILENAME_EXT, "ab");
 4763              	LM181:
 4764 1796 C7442404 		movl	$LC6, 4(%esp)
 4764      31010000 
 4765 179e C7042440 		movl	$LC23, (%esp)
 4765      120000
 4766 17a5 E8000000 		call	_fopen
 4766      00
 4767 17aa 8945AC   		movl	%eax, -84(%ebp)
 4768 17ad EBC9     		jmp	L115
 4769              	L116:
 806:../../MMI/Resource/WriteProcess.cpp ****     }
 807:../../MMI/Resource/WriteProcess.cpp ****     for (i = g_resgen_png_image_list.begin(); i != g_resgen_png_image_list.end(); ++i)
 4771              	LM182:
 4772              	LBB36:
 4773 17af 8D45B8   		leal	-72(%ebp), %eax
 4774 17b2 C7442404 		movl	$_g_resgen_png_image_list, 4(%esp)
 4774      10000000 
 4775 17ba 890424   		movl	%eax, (%esp)
 4776 17bd C74580FF 		movl	$-1, -128(%ebp)
 4776      FFFFFF
 4777 17c4 E8000000 		call	__ZNSt4listI16ProcessImageDataSaIS0_EE5beginEv
 4777      00
 4778 17c9 83EC04   		subl	$4, %esp
 4779 17cc 8B45B8   		movl	-72(%ebp), %eax
 4780 17cf 8945C8   		movl	%eax, -56(%ebp)
 4781              	L118:
 4782 17d2 8D45B8   		leal	-72(%ebp), %eax
 4783 17d5 C7442404 		movl	$_g_resgen_png_image_list, 4(%esp)
 4783      10000000 
 4784 17dd 890424   		movl	%eax, (%esp)
 4785 17e0 C74580FF 		movl	$-1, -128(%ebp)
 4785      FFFFFF
 4786 17e7 E8000000 		call	__ZNSt4listI16ProcessImageDataSaIS0_EE3endEv
 4786      00
 4787 17ec 83EC04   		subl	$4, %esp
 4788 17ef 8D45B8   		leal	-72(%ebp), %eax
 4789 17f2 89442404 		movl	%eax, 4(%esp)
 4790 17f6 8D45C8   		leal	-56(%ebp), %eax
 4791 17f9 890424   		movl	%eax, (%esp)
 4792 17fc E8000000 		call	__ZNKSt19_List_iterator_baseneERKS_
 4792      00
 4793 1801 84C0     		testb	%al, %al
 4794 1803 7505     		jne	L121
 4795 1805 E97C0200 		jmp	L119
 4795      00
 4796              	L121:
 808:../../MMI/Resource/WriteProcess.cpp ****     {
 809:../../MMI/Resource/WriteProcess.cpp ****         ProcessImageData & data = *i;
 4798              	LM183:
 4799              	LBB37:
 4800              	LBB38:
 4801 180a 8D45C8   		leal	-56(%ebp), %eax
GAS LISTING d:/software/ovi_2503a_s3trc/ovi_2503a_s3trc/plutommi/Customer/ResGenerator/gcctmp/ccuadaaa.s 			page 55


 4802 180d 890424   		movl	%eax, (%esp)
 4803 1810 C74580FF 		movl	$-1, -128(%ebp)
 4803      FFFFFF
 4804 1817 E8000000 		call	__ZNKSt14_List_iteratorI16ProcessImageDataRS0_PS0_EdeEv
 4804      00
 4805 181c 8945A8   		movl	%eax, -88(%ebp)
 810:../../MMI/Resource/WriteProcess.cpp **** 
 811:../../MMI/Resource/WriteProcess.cpp ****         // Show progress log in console
 812:../../MMI/Resource/WriteProcess.cpp ****         if(!data.m_filename.empty())
 4807              	LM184:
 4808 181f 8B45A8   		movl	-88(%ebp), %eax
 4809 1822 83C004   		addl	$4, %eax
 4810 1825 890424   		movl	%eax, (%esp)
 4811 1828 E8000000 		call	__ZNKSs5emptyEv
 4811      00
 4812 182d 84C0     		testb	%al, %al
 4813 182f 0F85DE00 		jne	L122
 4813      0000
 813:../../MMI/Resource/WriteProcess.cpp ****         {
 814:../../MMI/Resource/WriteProcess.cpp ****             if(!data.m_filename.empty())
 4815              	LM185:
 4816 1835 8B45A8   		movl	-88(%ebp), %eax
 4817 1838 83C004   		addl	$4, %eax
 4818 183b 890424   		movl	%eax, (%esp)
 4819 183e E8000000 		call	__ZNKSs5emptyEv
 4819      00
 4820 1843 84C0     		testb	%al, %al
 4821 1845 7558     		jne	L123
 815:../../MMI/Resource/WriteProcess.cpp ****             {
 816:../../MMI/Resource/WriteProcess.cpp ****                 IMGPROC_LOG_V("Process IMG %d(%s), file: %s", data.m_nImgId, data.m_enum_value.c_st
 4823              	LM186:
 4824 1847 8B45A8   		movl	-88(%ebp), %eax
 4825 184a 83C004   		addl	$4, %eax
 4826 184d 890424   		movl	%eax, (%esp)
 4827 1850 E8000000 		call	__ZNKSs5c_strEv
 4827      00
 4828 1855 898550FF 		movl	%eax, -176(%ebp)
 4828      FFFF
 4829 185b 8B45A8   		movl	-88(%ebp), %eax
 4830 185e 83C008   		addl	$8, %eax
 4831 1861 890424   		movl	%eax, (%esp)
 4832 1864 E8000000 		call	__ZNKSs5c_strEv
 4832      00
 4833 1869 8B9550FF 		movl	-176(%ebp), %edx
 4833      FFFF
 4834 186f 89542414 		movl	%edx, 20(%esp)
 4835 1873 89442410 		movl	%eax, 16(%esp)
 4836 1877 8B45A8   		movl	-88(%ebp), %eax
 4837 187a 0FB700   		movzwl	(%eax), %eax
 4838 187d 8944240C 		movl	%eax, 12(%esp)
 4839 1881 C7442408 		movl	$LC24, 8(%esp)
 4839      6F120000 
 4840 1889 C7442404 		movl	$LC4, 4(%esp)
 4840      E4000000 
 4841 1891 C7042401 		movl	$1, (%esp)
 4841      000000
 4842 1898 E8000000 		call	_reslog_adaptor_log
GAS LISTING d:/software/ovi_2503a_s3trc/ovi_2503a_s3trc/plutommi/Customer/ResGenerator/gcctmp/ccuadaaa.s 			page 56


 4842      00
 4843 189d EB5D     		jmp	L124
 4844              	L123:
 817:../../MMI/Resource/WriteProcess.cpp ****             }
 818:../../MMI/Resource/WriteProcess.cpp ****             else
 819:../../MMI/Resource/WriteProcess.cpp ****             {
 820:../../MMI/Resource/WriteProcess.cpp ****                 IMGPROC_LOG_V("Process IMG %d, file: %s", data.m_nImgId, data.m_enum_value.c_str(),
 4846              	LM187:
 4847 189f 8B45A8   		movl	-88(%ebp), %eax
 4848 18a2 83C004   		addl	$4, %eax
 4849 18a5 890424   		movl	%eax, (%esp)
 4850 18a8 E8000000 		call	__ZNKSs5c_strEv
 4850      00
 4851 18ad 89854CFF 		movl	%eax, -180(%ebp)
 4851      FFFF
 4852 18b3 8B45A8   		movl	-88(%ebp), %eax
 4853 18b6 83C008   		addl	$8, %eax
 4854 18b9 890424   		movl	%eax, (%esp)
 4855 18bc E8000000 		call	__ZNKSs5c_strEv
 4855      00
 4856 18c1 8B954CFF 		movl	-180(%ebp), %edx
 4856      FFFF
 4857 18c7 89542414 		movl	%edx, 20(%esp)
 4858 18cb 89442410 		movl	%eax, 16(%esp)
 4859 18cf 8B45A8   		movl	-88(%ebp), %eax
 4860 18d2 0FB700   		movzwl	(%eax), %eax
 4861 18d5 8944240C 		movl	%eax, 12(%esp)
 4862 18d9 C7442408 		movl	$LC25, 8(%esp)
 4862      8C120000 
 4863 18e1 C7442404 		movl	$LC4, 4(%esp)
 4863      E4000000 
 4864 18e9 C7042401 		movl	$1, (%esp)
 4864      000000
 4865 18f0 C74580FF 		movl	$-1, -128(%ebp)
 4865      FFFFFF
 4866 18f7 E8000000 		call	_reslog_adaptor_log
 4866      00
 4867              	L124:
 821:../../MMI/Resource/WriteProcess.cpp ****             }
 822:../../MMI/Resource/WriteProcess.cpp ****             fflush(stdout);
 4869              	LM188:
 4870 18fc A1000000 		movl	__imp___iob, %eax
 4870      00
 4871 1901 83C020   		addl	$32, %eax
 4872 1904 890424   		movl	%eax, (%esp)
 4873 1907 C74580FF 		movl	$-1, -128(%ebp)
 4873      FFFFFF
 4874 190e E8000000 		call	_fflush
 4874      00
 4875              	L122:
 823:../../MMI/Resource/WriteProcess.cpp ****         }
 824:../../MMI/Resource/WriteProcess.cpp **** 
 825:../../MMI/Resource/WriteProcess.cpp ****         if (data.m_processData.duplicated)
 4877              	LM189:
 4878 1913 8B45A8   		movl	-88(%ebp), %eax
 4879 1916 83B82002 		cmpl	$0, 544(%eax)
 4879      000000
GAS LISTING d:/software/ovi_2503a_s3trc/ovi_2503a_s3trc/plutommi/Customer/ResGenerator/gcctmp/ccuadaaa.s 			page 57


 4880 191d 744C     		je	L125
 826:../../MMI/Resource/WriteProcess.cpp ****         {
 827:../../MMI/Resource/WriteProcess.cpp ****             IMGPROC_LOG_V("Duplicated Image: ID = %d.", data.m_nImgId);
 4882              	LM190:
 4883 191f 8B45A8   		movl	-88(%ebp), %eax
 4884 1922 0FB700   		movzwl	(%eax), %eax
 4885 1925 8944240C 		movl	%eax, 12(%esp)
 4886 1929 C7442408 		movl	$LC26, 8(%esp)
 4886      A5120000 
 4887 1931 C7442404 		movl	$LC4, 4(%esp)
 4887      E4000000 
 4888 1939 C7042401 		movl	$1, (%esp)
 4888      000000
 4889 1940 C74580FF 		movl	$-1, -128(%ebp)
 4889      FFFFFF
 4890 1947 E8000000 		call	_reslog_adaptor_log
 4890      00
 828:../../MMI/Resource/WriteProcess.cpp ****             //if (g_resgen_png_image_list[data.m_processData.duplicatedIndex].failed)
 829:../../MMI/Resource/WriteProcess.cpp ****             if (data.m_processData.duplicatedInstance->failed)
 4892              	LM191:
 4893 194c 8B45A8   		movl	-88(%ebp), %eax
 4894 194f 8B802402 		movl	548(%eax), %eax
 4894      0000
 4895 1955 83B80802 		cmpl	$0, 520(%eax)
 4895      000000
 4896 195c 740D     		je	L125
 830:../../MMI/Resource/WriteProcess.cpp ****             {
 831:../../MMI/Resource/WriteProcess.cpp ****                 data.m_processData.failed = MMI_TRUE;
 4898              	LM192:
 4899 195e 8B45A8   		movl	-88(%ebp), %eax
 4900 1961 C7801C02 		movl	$1, 540(%eax)
 4900      00000100 
 4900      0000
 4901              	L125:
 832:../../MMI/Resource/WriteProcess.cpp ****             }
 833:../../MMI/Resource/WriteProcess.cpp ****         }
 834:../../MMI/Resource/WriteProcess.cpp **** 
 835:../../MMI/Resource/WriteProcess.cpp ****         ProcessResgenPngImagesMapIds(data);
 4903              	LM193:
 4904 196b 8B45A8   		movl	-88(%ebp), %eax
 4905 196e 890424   		movl	%eax, (%esp)
 4906 1971 C74580FF 		movl	$-1, -128(%ebp)
 4906      FFFFFF
 4907 1978 E8B1F1FF 		call	__Z28ProcessResgenPngImagesMapIdsR16ProcessImageData
 4907      FF
 836:../../MMI/Resource/WriteProcess.cpp **** 
 837:../../MMI/Resource/WriteProcess.cpp **** 		// Add the image content to Generator object
 838:../../MMI/Resource/WriteProcess.cpp ****         if (data.m_processData.failed)
 4909              	LM194:
 4910 197d 8B45A8   		movl	-88(%ebp), %eax
 4911 1980 83B81C02 		cmpl	$0, 540(%eax)
 4911      000000
 4912 1987 7405     		je	L127
 839:../../MMI/Resource/WriteProcess.cpp ****         {
 840:../../MMI/Resource/WriteProcess.cpp ****             continue;
 4914              	LM195:
 4915 1989 E9E10000 		jmp	L120
GAS LISTING d:/software/ovi_2503a_s3trc/ovi_2503a_s3trc/plutommi/Customer/ResGenerator/gcctmp/ccuadaaa.s 			page 58


 4915      00
 4916              	L127:
 841:../../MMI/Resource/WriteProcess.cpp ****         }
 842:../../MMI/Resource/WriteProcess.cpp **** 		// Let contenMetaCreator handle the duplicated issue
 843:../../MMI/Resource/WriteProcess.cpp **** 		if(data.m_processData.duplicated){
 4918              	LM196:
 4919 198e 8B45A8   		movl	-88(%ebp), %eax
 4920 1991 83B82002 		cmpl	$0, 544(%eax)
 4920      000000
 4921 1998 744D     		je	L128
 844:../../MMI/Resource/WriteProcess.cpp **** 			contentMetacreator->addImage(data.m_filename.c_str(),data.m_outstream.data, data.m_outstream.dat
 4923              	LM197:
 4924 199a 8B45A8   		movl	-88(%ebp), %eax
 4925 199d 83C004   		addl	$4, %eax
 4926 19a0 890424   		movl	%eax, (%esp)
 4927 19a3 E8000000 		call	__ZNKSs5c_strEv
 4927      00
 4928 19a8 89C2     		movl	%eax, %edx
 4929 19aa C7442410 		movl	$1, 16(%esp)
 4929      01000000 
 4930 19b2 8B45A8   		movl	-88(%ebp), %eax
 4931 19b5 8B803002 		movl	560(%eax), %eax
 4931      0000
 4932 19bb 8944240C 		movl	%eax, 12(%esp)
 4933 19bf 8B45A8   		movl	-88(%ebp), %eax
 4934 19c2 8B803402 		movl	564(%eax), %eax
 4934      0000
 4935 19c8 89442408 		movl	%eax, 8(%esp)
 4936 19cc 89542404 		movl	%edx, 4(%esp)
 4937 19d0 8B45E0   		movl	-32(%ebp), %eax
 4938 19d3 890424   		movl	%eax, (%esp)
 4939 19d6 C74580FF 		movl	$-1, -128(%ebp)
 4939      FFFFFF
 4940 19dd E8000000 		call	__ZN28ImageGroupContentMetaCreator8addImageEPKcPcii
 4940      00
 845:../../MMI/Resource/WriteProcess.cpp **** 			continue;
 4942              	LM198:
 4943 19e2 E9880000 		jmp	L120
 4943      00
 4944              	L128:
 846:../../MMI/Resource/WriteProcess.cpp **** 		}
 847:../../MMI/Resource/WriteProcess.cpp ****         if (data.m_imgFlag)
 4946              	LM199:
 4947 19e7 8B45A8   		movl	-88(%ebp), %eax
 4948 19ea 83780C00 		cmpl	$0, 12(%eax)
 4949 19ee 7420     		je	L129
 848:../../MMI/Resource/WriteProcess.cpp ****         {
 849:../../MMI/Resource/WriteProcess.cpp ****             ImageOutStreamOutputFile(&data.m_outstream, outputExt);
 4951              	LM200:
 4952 19f0 8B45AC   		movl	-84(%ebp), %eax
 4953 19f3 89442404 		movl	%eax, 4(%esp)
 4954 19f7 8B45A8   		movl	-88(%ebp), %eax
 4955 19fa 05300200 		addl	$560, %eax
 4955      00
 4956 19ff 890424   		movl	%eax, (%esp)
 4957 1a02 C74580FF 		movl	$-1, -128(%ebp)
 4957      FFFFFF
GAS LISTING d:/software/ovi_2503a_s3trc/ovi_2503a_s3trc/plutommi/Customer/ResGenerator/gcctmp/ccuadaaa.s 			page 59


 4958 1a09 E8880300 		call	_ImageOutStreamOutputFile
 4958      00
 4959 1a0e EB5F     		jmp	L120
 4960              	L129:
 850:../../MMI/Resource/WriteProcess.cpp ****         }
 851:../../MMI/Resource/WriteProcess.cpp ****         else
 852:../../MMI/Resource/WriteProcess.cpp ****         {
 853:../../MMI/Resource/WriteProcess.cpp **** 			contentMetacreator->addImage(data.m_filename.c_str(),data.m_outstream.data, data.m_outstream.dat
 4962              	LM201:
 4963 1a10 8B45A8   		movl	-88(%ebp), %eax
 4964 1a13 83C004   		addl	$4, %eax
 4965 1a16 890424   		movl	%eax, (%esp)
 4966 1a19 E8000000 		call	__ZNKSs5c_strEv
 4966      00
 4967 1a1e 89C2     		movl	%eax, %edx
 4968 1a20 C7442410 		movl	$1, 16(%esp)
 4968      01000000 
 4969 1a28 8B45A8   		movl	-88(%ebp), %eax
 4970 1a2b 8B803002 		movl	560(%eax), %eax
 4970      0000
 4971 1a31 8944240C 		movl	%eax, 12(%esp)
 4972 1a35 8B45A8   		movl	-88(%ebp), %eax
 4973 1a38 8B803402 		movl	564(%eax), %eax
 4973      0000
 4974 1a3e 89442408 		movl	%eax, 8(%esp)
 4975 1a42 89542404 		movl	%edx, 4(%esp)
 4976 1a46 8B45E0   		movl	-32(%ebp), %eax
 4977 1a49 890424   		movl	%eax, (%esp)
 4978 1a4c C74580FF 		movl	$-1, -128(%ebp)
 4978      FFFFFF
 4979 1a53 E8000000 		call	__ZN28ImageGroupContentMetaCreator8addImageEPKcPcii
 4979      00
 854:../../MMI/Resource/WriteProcess.cpp ****             ImageOutStreamOutputFile(&data.m_outstream, output);
 4981              	LM202:
 4982 1a58 8B45B0   		movl	-80(%ebp), %eax
 4983 1a5b 89442404 		movl	%eax, 4(%esp)
 4984 1a5f 8B45A8   		movl	-88(%ebp), %eax
 4985 1a62 05300200 		addl	$560, %eax
 4985      00
 4986 1a67 890424   		movl	%eax, (%esp)
 4987 1a6a E8270300 		call	_ImageOutStreamOutputFile
 4987      00
 4989              	LM203:
 4990              	L120:
 4991              	LBE38:
 4992              	LBE37:
 4993 1a6f 8D45C8   		leal	-56(%ebp), %eax
 4994 1a72 890424   		movl	%eax, (%esp)
 4995 1a75 C74580FF 		movl	$-1, -128(%ebp)
 4995      FFFFFF
 4996 1a7c E8000000 		call	__ZNSt14_List_iteratorI16ProcessImageDataRS0_PS0_EppEv
 4996      00
 4997 1a81 E94CFDFF 		jmp	L118
 4997      FF
 4998              	L119:
 855:../../MMI/Resource/WriteProcess.cpp ****         }
 856:../../MMI/Resource/WriteProcess.cpp ****     }
GAS LISTING d:/software/ovi_2503a_s3trc/ovi_2503a_s3trc/plutommi/Customer/ResGenerator/gcctmp/ccuadaaa.s 			page 60


 857:../../MMI/Resource/WriteProcess.cpp **** 	IMGPROC_LOG_V("Output Image Group Content Meta: %s",OUTPUT_IMG_GROUP_CONTENT_META_FILENAME);
 5000              	LM204:
 5001              	LBE36:
 5002 1a86 C744240C 		movl	$LC27, 12(%esp)
 5002      C0120000 
 5003 1a8e C7442408 		movl	$LC28, 8(%esp)
 5003      00130000 
 5004 1a96 C7442404 		movl	$LC4, 4(%esp)
 5004      E4000000 
 5005 1a9e C7042401 		movl	$1, (%esp)
 5005      000000
 5006 1aa5 C74580FF 		movl	$-1, -128(%ebp)
 5006      FFFFFF
 5007 1aac E8000000 		call	_reslog_adaptor_log
 5007      00
 858:../../MMI/Resource/WriteProcess.cpp **** 	contentMetacreator->generateMetaFile(OUTPUT_IMG_GROUP_CONTENT_META_FILENAME);
 5009              	LM205:
 5010 1ab1 C7442404 		movl	$LC27, 4(%esp)
 5010      C0120000 
 5011 1ab9 8B45E0   		movl	-32(%ebp), %eax
 5012 1abc 890424   		movl	%eax, (%esp)
 5013 1abf E8000000 		call	__ZN28ImageGroupContentMetaCreator16generateMetaFileEPKc
 5013      00
 859:../../MMI/Resource/WriteProcess.cpp **** 
 860:../../MMI/Resource/WriteProcess.cpp ****     IMGPROC_LOG_V("Close FILE: %s",OUTPUT_DATA_FILENAME);
 5015              	LM206:
 5016 1ac4 C744240C 		movl	$LC22, 12(%esp)
 5016      00120000 
 5017 1acc C7442408 		movl	$LC29, 8(%esp)
 5017      24130000 
 5018 1ad4 C7442404 		movl	$LC4, 4(%esp)
 5018      E4000000 
 5019 1adc C7042401 		movl	$1, (%esp)
 5019      000000
 5020 1ae3 E8000000 		call	_reslog_adaptor_log
 5020      00
 861:../../MMI/Resource/WriteProcess.cpp ****     fflush(stdout);
 5022              	LM207:
 5023 1ae8 A1000000 		movl	__imp___iob, %eax
 5023      00
 5024 1aed 83C020   		addl	$32, %eax
 5025 1af0 890424   		movl	%eax, (%esp)
 5026 1af3 E8000000 		call	_fflush
 5026      00
 862:../../MMI/Resource/WriteProcess.cpp ****     MYFCLOSE(output);
 5028              	LM208:
 5029 1af8 837DB000 		cmpl	$0, -80(%ebp)
 5030 1afc 7412     		je	L131
 5031 1afe 8B45B0   		movl	-80(%ebp), %eax
 5032 1b01 890424   		movl	%eax, (%esp)
 5033 1b04 E8000000 		call	_fclose
 5033      00
 5034 1b09 C745B000 		movl	$0, -80(%ebp)
 5034      000000
 5035              	L131:
 863:../../MMI/Resource/WriteProcess.cpp **** 
 864:../../MMI/Resource/WriteProcess.cpp ****     IMGPROC_LOG_V("Close FILE: %s",OUTPUT_DATA_FILENAME_EXT);
GAS LISTING d:/software/ovi_2503a_s3trc/ovi_2503a_s3trc/plutommi/Customer/ResGenerator/gcctmp/ccuadaaa.s 			page 61


 5037              	LM209:
 5038 1b10 C744240C 		movl	$LC23, 12(%esp)
 5038      40120000 
 5039 1b18 C7442408 		movl	$LC29, 8(%esp)
 5039      24130000 
 5040 1b20 C7442404 		movl	$LC4, 4(%esp)
 5040      E4000000 
 5041 1b28 C7042401 		movl	$1, (%esp)
 5041      000000
 5042 1b2f C74580FF 		movl	$-1, -128(%ebp)
 5042      FFFFFF
 5043 1b36 E8000000 		call	_reslog_adaptor_log
 5043      00
 865:../../MMI/Resource/WriteProcess.cpp ****     fflush(stdout);
 5045              	LM210:
 5046 1b3b A1000000 		movl	__imp___iob, %eax
 5046      00
 5047 1b40 83C020   		addl	$32, %eax
 5048 1b43 890424   		movl	%eax, (%esp)
 5049 1b46 E8000000 		call	_fflush
 5049      00
 866:../../MMI/Resource/WriteProcess.cpp ****     MYFCLOSE(outputExt);
 5051              	LM211:
 5052 1b4b 837DAC00 		cmpl	$0, -84(%ebp)
 5053 1b4f 7412     		je	L133
 5054 1b51 8B45AC   		movl	-84(%ebp), %eax
 5055 1b54 890424   		movl	%eax, (%esp)
 5056 1b57 E8000000 		call	_fclose
 5056      00
 5057 1b5c C745AC00 		movl	$0, -84(%ebp)
 5057      000000
 5058              	L133:
 867:../../MMI/Resource/WriteProcess.cpp **** 
 868:../../MMI/Resource/WriteProcess.cpp ****     IMGPROC_LOG_V("Clean g_resgen_png_image_list");
 5060              	LM212:
 5061 1b63 C7442408 		movl	$LC30, 8(%esp)
 5061      33130000 
 5062 1b6b C7442404 		movl	$LC4, 4(%esp)
 5062      E4000000 
 5063 1b73 C7042401 		movl	$1, (%esp)
 5063      000000
 5064 1b7a C74580FF 		movl	$-1, -128(%ebp)
 5064      FFFFFF
 5065 1b81 E8000000 		call	_reslog_adaptor_log
 5065      00
 869:../../MMI/Resource/WriteProcess.cpp ****     fflush(stdout);
 5067              	LM213:
 5068 1b86 A1000000 		movl	__imp___iob, %eax
 5068      00
 5069 1b8b 83C020   		addl	$32, %eax
 5070 1b8e 890424   		movl	%eax, (%esp)
 5071 1b91 E8000000 		call	_fflush
 5071      00
 870:../../MMI/Resource/WriteProcess.cpp ****     g_resgen_png_image_list.clear();
 5073              	LM214:
 5074 1b96 C7042410 		movl	$_g_resgen_png_image_list, (%esp)
 5074      000000
GAS LISTING d:/software/ovi_2503a_s3trc/ovi_2503a_s3trc/plutommi/Customer/ResGenerator/gcctmp/ccuadaaa.s 			page 62


 5075 1b9d E8000000 		call	__ZNSt4listI16ProcessImageDataSaIS0_EE5clearEv
 5075      00
 871:../../MMI/Resource/WriteProcess.cpp **** 
 872:../../MMI/Resource/WriteProcess.cpp **** 	delete contentMetacreator;
 5077              	LM215:
 5078 1ba2 8B45E0   		movl	-32(%ebp), %eax
 5079 1ba5 898548FF 		movl	%eax, -184(%ebp)
 5079      FFFF
 5080 1bab 83BD48FF 		cmpl	$0, -184(%ebp)
 5080      FFFF00
 5081 1bb2 741C     		je	L136
 5082 1bb4 8B9548FF 		movl	-184(%ebp), %edx
 5082      FFFF
 5083 1bba 891424   		movl	%edx, (%esp)
 5084 1bbd E8000000 		call	__ZN28ImageGroupContentMetaCreatorD1Ev
 5084      00
 5085 1bc2 8B8548FF 		movl	-184(%ebp), %eax
 5085      FFFF
 5086 1bc8 890424   		movl	%eax, (%esp)
 5087 1bcb E8000000 		call	__ZdlPv
 5087      00
 5088              	L136:
 873:../../MMI/Resource/WriteProcess.cpp ****     delete(myPool);
 5090              	LM216:
 5091 1bd0 837DDC00 		cmpl	$0, -36(%ebp)
 5092 1bd4 7419     		je	L80
 5093 1bd6 8B45DC   		movl	-36(%ebp), %eax
 5094 1bd9 8B10     		movl	(%eax), %edx
 5095 1bdb 83C204   		addl	$4, %edx
 5096 1bde 8B45DC   		movl	-36(%ebp), %eax
 5097 1be1 890424   		movl	%eax, (%esp)
 5098 1be4 8B02     		movl	(%edx), %eax
 5099 1be6 C74580FF 		movl	$-1, -128(%ebp)
 5099      FFFFFF
 5100 1bed FFD0     		call	*%eax
 874:../../MMI/Resource/WriteProcess.cpp ****     //execute_ext_command("echo resgen_time after output data %time%");
 875:../../MMI/Resource/WriteProcess.cpp **** }
 5102              	LM217:
 5103              	L80:
 5104 1bef 8D857CFF 		leal	-132(%ebp), %eax
 5104      FFFF
 5105 1bf5 890424   		movl	%eax, (%esp)
 5106 1bf8 E8000000 		call	__Unwind_SjLj_Unregister
 5106      00
 5107 1bfd 8D65F4   		leal	-12(%ebp), %esp
 5108 1c00 5B       		popl	%ebx
 5109 1c01 5E       		popl	%esi
 5110 1c02 5F       		popl	%edi
 5111 1c03 5D       		popl	%ebp
 5112 1c04 C3       		ret
 5113              	LBE32:
 5114              		.section	.gcc_except_table,""
 5115              	LLSDA2211:
 5116 000c FF       		.byte	0xff
 5117 000d FF       		.byte	0xff
 5118 000e 01       		.byte	0x1
 5119 000f 06       		.uleb128 LLSDACSE2211-LLSDACSB2211
GAS LISTING d:/software/ovi_2503a_s3trc/ovi_2503a_s3trc/plutommi/Customer/ResGenerator/gcctmp/ccuadaaa.s 			page 63


 5120              	LLSDACSB2211:
 5121 0010 00       		.uleb128 0x0
 5122 0011 00       		.uleb128 0x0
 5123 0012 01       		.uleb128 0x1
 5124 0013 00       		.uleb128 0x0
 5125 0014 02       		.uleb128 0x2
 5126 0015 00       		.uleb128 0x0
 5127              	LLSDACSE2211:
 5128              		.text
 5144              	Lscope12:
 5146 1c05 90       		.align 2
 5149              	.globl _ImageOutStreamInit
 5151              	_ImageOutStreamInit:
 876:../../MMI/Resource/WriteProcess.cpp **** 
 877:../../MMI/Resource/WriteProcess.cpp **** 
 878:../../MMI/Resource/WriteProcess.cpp **** void ImageOutStreamInit(ResgenImageOutStream ** pStream)
 879:../../MMI/Resource/WriteProcess.cpp **** {
 5153              	LM218:
 5154 1c06 55       		pushl	%ebp
 5155 1c07 89E5     		movl	%esp, %ebp
 5156 1c09 56       		pushl	%esi
 5157 1c0a 53       		pushl	%ebx
 5158 1c0b 83EC10   		subl	$16, %esp
 880:../../MMI/Resource/WriteProcess.cpp ****     *pStream = new ResgenImageOutStream();
 5160              	LM219:
 5161              	LBB39:
 5162 1c0e 8B7508   		movl	8(%ebp), %esi
 5163 1c11 C7042408 		movl	$8, (%esp)
 5163      000000
 5164 1c18 E8000000 		call	__Znwj
 5164      00
 5165 1c1d 89C3     		movl	%eax, %ebx
 5166 1c1f 891C24   		movl	%ebx, (%esp)
 5167 1c22 E8000000 		call	__ZN21_ResgenImageOutStreamC1Ev
 5167      00
 5168 1c27 89D8     		movl	%ebx, %eax
 5169 1c29 8906     		movl	%eax, (%esi)
 881:../../MMI/Resource/WriteProcess.cpp **** }
 5171              	LM220:
 5172 1c2b 83C410   		addl	$16, %esp
 5173 1c2e 5B       		popl	%ebx
 5174 1c2f 5E       		popl	%esi
 5175 1c30 5D       		popl	%ebp
 5176 1c31 C3       		ret
 5177              	L141:
 5178              	L140:
 5179              	LBE39:
 5180              	Lscope13:
 5182              		.align 2
 5185              	.globl _ImageOutStreamDeinit
 5187              	_ImageOutStreamDeinit:
 882:../../MMI/Resource/WriteProcess.cpp **** 
 883:../../MMI/Resource/WriteProcess.cpp **** void ImageOutStreamDeinit(ResgenImageOutStream ** pStream)
 884:../../MMI/Resource/WriteProcess.cpp **** {
 5189              	LM221:
 5190 1c32 55       		pushl	%ebp
 5191 1c33 89E5     		movl	%esp, %ebp
GAS LISTING d:/software/ovi_2503a_s3trc/ovi_2503a_s3trc/plutommi/Customer/ResGenerator/gcctmp/ccuadaaa.s 			page 64


 5192 1c35 83EC08   		subl	$8, %esp
 885:../../MMI/Resource/WriteProcess.cpp ****     delete *pStream;
 5194              	LM222:
 5195              	LBB40:
 5196 1c38 8B4508   		movl	8(%ebp), %eax
 5197 1c3b 8B00     		movl	(%eax), %eax
 5198 1c3d 8945FC   		movl	%eax, -4(%ebp)
 5199 1c40 837DFC00 		cmpl	$0, -4(%ebp)
 5200 1c44 7416     		je	L145
 5201 1c46 8B45FC   		movl	-4(%ebp), %eax
 5202 1c49 890424   		movl	%eax, (%esp)
 5203 1c4c E8000000 		call	__ZN21_ResgenImageOutStreamD1Ev
 5203      00
 5204 1c51 8B45FC   		movl	-4(%ebp), %eax
 5205 1c54 890424   		movl	%eax, (%esp)
 5206 1c57 E8000000 		call	__ZdlPv
 5206      00
 5207              	L145:
 886:../../MMI/Resource/WriteProcess.cpp ****     pStream = NULL;
 5209              	LM223:
 5210 1c5c C7450800 		movl	$0, 8(%ebp)
 5210      000000
 887:../../MMI/Resource/WriteProcess.cpp **** }
 5212              	LM224:
 5213 1c63 C9       		leave
 5214 1c64 C3       		ret
 5215              	LBE40:
 5216              	Lscope14:
 5218 1c65 90       		.align 2
 5222              	.globl _ImageOutStreamPrintf
 5224              	_ImageOutStreamPrintf:
 888:../../MMI/Resource/WriteProcess.cpp **** 
 889:../../MMI/Resource/WriteProcess.cpp **** void ImageOutStreamPrintf(ResgenImageOutStream * stream, char* fmt, ...)
 890:../../MMI/Resource/WriteProcess.cpp **** {
 5226              	LM225:
 5227 1c66 55       		pushl	%ebp
 5228 1c67 89E5     		movl	%esp, %ebp
 5229 1c69 81EC3804 		subl	$1080, %esp
 5229      0000
 891:../../MMI/Resource/WriteProcess.cpp ****     va_list myList;
 892:../../MMI/Resource/WriteProcess.cpp ****     char buffer[1024];
 893:../../MMI/Resource/WriteProcess.cpp **** 
 894:../../MMI/Resource/WriteProcess.cpp ****     va_start(myList,fmt);
 5231              	LM226:
 5232              	LBB41:
 5233 1c6f 8D4510   		leal	16(%ebp), %eax
 5234 1c72 8945F4   		movl	%eax, -12(%ebp)
 895:../../MMI/Resource/WriteProcess.cpp ****     vsprintf(buffer, fmt, myList);
 5236              	LM227:
 5237 1c75 8B45F4   		movl	-12(%ebp), %eax
 5238 1c78 89442408 		movl	%eax, 8(%esp)
 5239 1c7c 8B450C   		movl	12(%ebp), %eax
 5240 1c7f 89442404 		movl	%eax, 4(%esp)
 5241 1c83 8D85E8FB 		leal	-1048(%ebp), %eax
 5241      FFFF
 5242 1c89 890424   		movl	%eax, (%esp)
 5243 1c8c E8000000 		call	_vsprintf
GAS LISTING d:/software/ovi_2503a_s3trc/ovi_2503a_s3trc/plutommi/Customer/ResGenerator/gcctmp/ccuadaaa.s 			page 65


 5243      00
 896:../../MMI/Resource/WriteProcess.cpp ****     va_end(myList);
 897:../../MMI/Resource/WriteProcess.cpp **** 
 898:../../MMI/Resource/WriteProcess.cpp ****     size_t size = strlen(buffer);
 5245              	LM228:
 5246 1c91 8D85E8FB 		leal	-1048(%ebp), %eax
 5246      FFFF
 5247 1c97 890424   		movl	%eax, (%esp)
 5248 1c9a E8000000 		call	_strlen
 5248      00
 5249 1c9f 8985E4FB 		movl	%eax, -1052(%ebp)
 5249      FFFF
 899:../../MMI/Resource/WriteProcess.cpp ****     ImageOutStreamAppend(stream, buffer, size);
 5251              	LM229:
 5252 1ca5 8B85E4FB 		movl	-1052(%ebp), %eax
 5252      FFFF
 5253 1cab 89442408 		movl	%eax, 8(%esp)
 5254 1caf 8D85E8FB 		leal	-1048(%ebp), %eax
 5254      FFFF
 5255 1cb5 89442404 		movl	%eax, 4(%esp)
 5256 1cb9 8B4508   		movl	8(%ebp), %eax
 5257 1cbc 890424   		movl	%eax, (%esp)
 5258 1cbf E8020000 		call	_ImageOutStreamAppend
 5258      00
 900:../../MMI/Resource/WriteProcess.cpp **** 
 901:../../MMI/Resource/WriteProcess.cpp **** }
 5260              	LM230:
 5261 1cc4 C9       		leave
 5262 1cc5 C3       		ret
 5263              	LBE41:
 5269              	Lscope15:
 5271              		.align 2
 5276              	.globl _ImageOutStreamAppend
 5278              	_ImageOutStreamAppend:
 902:../../MMI/Resource/WriteProcess.cpp **** 
 903:../../MMI/Resource/WriteProcess.cpp **** void ImageOutStreamAppend(ResgenImageOutStream * stream, char* buffer, U32 size)
 904:../../MMI/Resource/WriteProcess.cpp **** {
 5280              	LM231:
 5281 1cc6 55       		pushl	%ebp
 5282 1cc7 89E5     		movl	%esp, %ebp
 5283 1cc9 53       		pushl	%ebx
 5284 1cca 83EC14   		subl	$20, %esp
 905:../../MMI/Resource/WriteProcess.cpp ****     if (size == 0)
 5286              	LM232:
 5287              	LBB42:
 5288 1ccd 837D1000 		cmpl	$0, 16(%ebp)
 5289 1cd1 7502     		jne	L148
 906:../../MMI/Resource/WriteProcess.cpp ****     {
 907:../../MMI/Resource/WriteProcess.cpp ****         return;
 5291              	LM233:
 5292 1cd3 EB50     		jmp	L147
 5293              	L148:
 908:../../MMI/Resource/WriteProcess.cpp ****     }
 909:../../MMI/Resource/WriteProcess.cpp ****     size_t org_size = stream->data_size;
 5295              	LM234:
 5296 1cd5 8B4508   		movl	8(%ebp), %eax
 5297 1cd8 8B00     		movl	(%eax), %eax
GAS LISTING d:/software/ovi_2503a_s3trc/ovi_2503a_s3trc/plutommi/Customer/ResGenerator/gcctmp/ccuadaaa.s 			page 66


 5298 1cda 8945F8   		movl	%eax, -8(%ebp)
 910:../../MMI/Resource/WriteProcess.cpp ****     stream->data_size = org_size + size;
 5300              	LM235:
 5301 1cdd 8B5508   		movl	8(%ebp), %edx
 5302 1ce0 8B4510   		movl	16(%ebp), %eax
 5303 1ce3 0345F8   		addl	-8(%ebp), %eax
 5304 1ce6 8902     		movl	%eax, (%edx)
 911:../../MMI/Resource/WriteProcess.cpp ****     stream->data = (char*)realloc(stream->data, org_size + size);
 5306              	LM236:
 5307 1ce8 8B5D08   		movl	8(%ebp), %ebx
 5308 1ceb 8B4510   		movl	16(%ebp), %eax
 5309 1cee 0345F8   		addl	-8(%ebp), %eax
 5310 1cf1 89442404 		movl	%eax, 4(%esp)
 5311 1cf5 8B4508   		movl	8(%ebp), %eax
 5312 1cf8 8B4004   		movl	4(%eax), %eax
 5313 1cfb 890424   		movl	%eax, (%esp)
 5314 1cfe E8000000 		call	_realloc
 5314      00
 5315 1d03 894304   		movl	%eax, 4(%ebx)
 912:../../MMI/Resource/WriteProcess.cpp **** 
 913:../../MMI/Resource/WriteProcess.cpp ****     memcpy(stream->data + org_size, buffer, size);
 5317              	LM237:
 5318 1d06 8B4510   		movl	16(%ebp), %eax
 5319 1d09 89442408 		movl	%eax, 8(%esp)
 5320 1d0d 8B450C   		movl	12(%ebp), %eax
 5321 1d10 89442404 		movl	%eax, 4(%esp)
 5322 1d14 8B5508   		movl	8(%ebp), %edx
 5323 1d17 8B45F8   		movl	-8(%ebp), %eax
 5324 1d1a 034204   		addl	4(%edx), %eax
 5325 1d1d 890424   		movl	%eax, (%esp)
 5326 1d20 E8000000 		call	_memcpy
 5326      00
 914:../../MMI/Resource/WriteProcess.cpp **** }
 5328              	LM238:
 5329              	L147:
 5330 1d25 83C414   		addl	$20, %esp
 5331 1d28 5B       		popl	%ebx
 5332 1d29 5D       		popl	%ebp
 5333 1d2a C3       		ret
 5334              	LBE42:
 5338              	Lscope16:
 5340 1d2b 90909090 		.align 32
 5340      90909090 
 5340      90909090 
 5340      90909090 
 5340      90909090 
 5341              	LC31:
 5342 1d40 496D6167 		.ascii "ImageOutStreamOutputFile: ResgenImageOutStream(0x%x) or out_file(0x%x) can't be NULL\0"
 5342      654F7574 
 5342      53747265 
 5342      616D4F75 
 5342      74707574 
 5343 1d95 90       		.align 2
 5347              	.globl _ImageOutStreamOutputFile
 5349              	_ImageOutStreamOutputFile:
 915:../../MMI/Resource/WriteProcess.cpp **** 
 916:../../MMI/Resource/WriteProcess.cpp **** void ImageOutStreamOutputFile(ResgenImageOutStream * stream, FILE * out_file)
GAS LISTING d:/software/ovi_2503a_s3trc/ovi_2503a_s3trc/plutommi/Customer/ResGenerator/gcctmp/ccuadaaa.s 			page 67


 917:../../MMI/Resource/WriteProcess.cpp **** {
 5351              	LM239:
 5352 1d96 55       		pushl	%ebp
 5353 1d97 89E5     		movl	%esp, %ebp
 5354 1d99 83EC18   		subl	$24, %esp
 918:../../MMI/Resource/WriteProcess.cpp ****     if(ImageOutStreamOutputFile == NULL || ImageOutStreamOutputFile == NULL )
 5356              	LM240:
 5357              	LBB43:
 5358 1d9c B8961D00 		movl	$_ImageOutStreamOutputFile, %eax
 5358      00
 5359 1da1 85C0     		testl	%eax, %eax
 5360 1da3 7409     		je	L151
 5361 1da5 B8961D00 		movl	$_ImageOutStreamOutputFile, %eax
 5361      00
 5362 1daa 85C0     		testl	%eax, %eax
 5363 1dac 753A     		jne	L150
 5364              	L151:
 919:../../MMI/Resource/WriteProcess.cpp ****     {
 920:../../MMI/Resource/WriteProcess.cpp ****         IMGPROC_LOG_V("ImageOutStreamOutputFile: ResgenImageOutStream(0x%x) or out_file(0x%x) can't
 5366              	LM241:
 5367 1dae 8B450C   		movl	12(%ebp), %eax
 5368 1db1 89442410 		movl	%eax, 16(%esp)
 5369 1db5 8B4508   		movl	8(%ebp), %eax
 5370 1db8 8944240C 		movl	%eax, 12(%esp)
 5371 1dbc C7442408 		movl	$LC31, 8(%esp)
 5371      401D0000 
 5372 1dc4 C7442404 		movl	$LC4, 4(%esp)
 5372      E4000000 
 5373 1dcc C7042401 		movl	$1, (%esp)
 5373      000000
 5374 1dd3 E8000000 		call	_reslog_adaptor_log
 5374      00
 921:../../MMI/Resource/WriteProcess.cpp ****         fflush(stdout);
 5376              	LM242:
 5377 1dd8 A1000000 		movl	__imp___iob, %eax
 5377      00
 5378 1ddd 83C020   		addl	$32, %eax
 5379 1de0 890424   		movl	%eax, (%esp)
 5380 1de3 E8000000 		call	_fflush
 5380      00
 5381              	L150:
 922:../../MMI/Resource/WriteProcess.cpp ****     }
 923:../../MMI/Resource/WriteProcess.cpp **** 
 924:../../MMI/Resource/WriteProcess.cpp ****     if (stream->data_size > 0)
 5383              	LM243:
 5384 1de8 8B4508   		movl	8(%ebp), %eax
 5385 1deb 833800   		cmpl	$0, (%eax)
 5386 1dee 7E26     		jle	L149
 925:../../MMI/Resource/WriteProcess.cpp ****     {
 926:../../MMI/Resource/WriteProcess.cpp ****         fwrite(stream->data, stream->data_size, 1, out_file);
 5388              	LM244:
 5389 1df0 8B450C   		movl	12(%ebp), %eax
 5390 1df3 8944240C 		movl	%eax, 12(%esp)
 5391 1df7 C7442408 		movl	$1, 8(%esp)
 5391      01000000 
 5392 1dff 8B4508   		movl	8(%ebp), %eax
 5393 1e02 8B00     		movl	(%eax), %eax
GAS LISTING d:/software/ovi_2503a_s3trc/ovi_2503a_s3trc/plutommi/Customer/ResGenerator/gcctmp/ccuadaaa.s 			page 68


 5394 1e04 89442404 		movl	%eax, 4(%esp)
 5395 1e08 8B4508   		movl	8(%ebp), %eax
 5396 1e0b 8B4004   		movl	4(%eax), %eax
 5397 1e0e 890424   		movl	%eax, (%esp)
 5398 1e11 E8000000 		call	_fwrite
 5398      00
 927:../../MMI/Resource/WriteProcess.cpp ****     }
 928:../../MMI/Resource/WriteProcess.cpp **** }
 5400              	LM245:
 5401              	L149:
 5402 1e16 C9       		leave
 5403 1e17 C3       		ret
 5404              	LBE43:
 5405              	Lscope17:
 5407              		.align 2
 5412              	.globl _LogSetBinaryWithBuffer
 5414              	_LogSetBinaryWithBuffer:
 929:../../MMI/Resource/WriteProcess.cpp **** 
 930:../../MMI/Resource/WriteProcess.cpp **** void LogSetBinaryWithBuffer(
 931:../../MMI/Resource/WriteProcess.cpp ****                             U16 res_id,
 932:../../MMI/Resource/WriteProcess.cpp ****                             S8 *filename,
 933:../../MMI/Resource/WriteProcess.cpp ****                             int binary_type_flag)
 934:../../MMI/Resource/WriteProcess.cpp **** {
 5416              	LM246:
 5417 1e18 55       		pushl	%ebp
 5418 1e19 89E5     		movl	%esp, %ebp
 5419 1e1b 57       		pushl	%edi
 5420 1e1c 56       		pushl	%esi
 5421 1e1d 53       		pushl	%ebx
 5422 1e1e 83EC7C   		subl	$124, %esp
 5423 1e21 8B4508   		movl	8(%ebp), %eax
 5424 1e24 668945E6 		movw	%ax, -26(%ebp)
 5425 1e28 C745B400 		movl	$___gxx_personality_sj0, -76(%ebp)
 5425      000000
 5426 1e2f C745B816 		movl	$LLSDA2226, -72(%ebp)
 5426      000000
 5427 1e36 8D45BC   		leal	-68(%ebp), %eax
 5428 1e39 8D55E8   		leal	-24(%ebp), %edx
 5429 1e3c 8910     		movl	%edx, (%eax)
 5430 1e3e BA981E00 		movl	$L158, %edx
 5430      00
 5431 1e43 895004   		movl	%edx, 4(%eax)
 5432 1e46 896008   		movl	%esp, 8(%eax)
 5433 1e49 8D459C   		leal	-100(%ebp), %eax
 5434 1e4c 890424   		movl	%eax, (%esp)
 5435 1e4f E8000000 		call	__Unwind_SjLj_Register
 5435      00
 935:../../MMI/Resource/WriteProcess.cpp ****     LogBinaryData data(res_id, filename, binary_type_flag);
 5437              	LM247:
 5438              	LBB44:
 5439 1e54 8B4510   		movl	16(%ebp), %eax
 5440 1e57 8944240C 		movl	%eax, 12(%esp)
 5441 1e5b 8B450C   		movl	12(%ebp), %eax
 5442 1e5e 89442408 		movl	%eax, 8(%esp)
 5443 1e62 0FB745E6 		movzwl	-26(%ebp), %eax
 5444 1e66 89442404 		movl	%eax, 4(%esp)
 5445 1e6a 8D45C8   		leal	-56(%ebp), %eax
GAS LISTING d:/software/ovi_2503a_s3trc/ovi_2503a_s3trc/plutommi/Customer/ResGenerator/gcctmp/ccuadaaa.s 			page 69


 5446 1e6d 890424   		movl	%eax, (%esp)
 5447 1e70 C745A0FF 		movl	$-1, -96(%ebp)
 5447      FFFFFF
 5448 1e77 E8000000 		call	__ZN13LogBinaryDataC1EtPci
 5448      00
 936:../../MMI/Resource/WriteProcess.cpp ****     g_log_binary_data_list.push_back(data);
 5450              	LM248:
 5451 1e7c 8D45C8   		leal	-56(%ebp), %eax
 5452 1e7f 89442404 		movl	%eax, 4(%esp)
 5453 1e83 C7042420 		movl	$_g_log_binary_data_list, (%esp)
 5453      000000
 5454 1e8a C745A001 		movl	$1, -96(%ebp)
 5454      000000
 5455 1e91 E8000000 		call	__ZNSt4listI13LogBinaryDataSaIS0_EE9push_backERKS0_
 5455      00
 5456 1e96 EB32     		jmp	L155
 5457              	L158:
 5458 1e98 8D6D18   		leal	24(%ebp), %ebp
 5459 1e9b 8B45A4   		movl	-92(%ebp), %eax
 5460 1e9e 894594   		movl	%eax, -108(%ebp)
 5461              	L154:
 5462 1ea1 8B5594   		movl	-108(%ebp), %edx
 5463 1ea4 895598   		movl	%edx, -104(%ebp)
 5464 1ea7 8D45C8   		leal	-56(%ebp), %eax
 5465 1eaa 890424   		movl	%eax, (%esp)
 5466 1ead E8000000 		call	__ZN13LogBinaryDataD1Ev
 5466      00
 5467 1eb2 8B4598   		movl	-104(%ebp), %eax
 5468 1eb5 894594   		movl	%eax, -108(%ebp)
 5469              	L156:
 5470 1eb8 8B5594   		movl	-108(%ebp), %edx
 5471 1ebb 891424   		movl	%edx, (%esp)
 5472 1ebe C745A0FF 		movl	$-1, -96(%ebp)
 5472      FFFFFF
 5473 1ec5 E8000000 		call	__Unwind_SjLj_Resume
 5473      00
 5474              	L155:
 5475 1eca 8D45C8   		leal	-56(%ebp), %eax
 5476 1ecd 890424   		movl	%eax, (%esp)
 5477 1ed0 E8000000 		call	__ZN13LogBinaryDataD1Ev
 5477      00
 937:../../MMI/Resource/WriteProcess.cpp **** }
 5479              	LM249:
 5480              	L153:
 5481 1ed5 8D459C   		leal	-100(%ebp), %eax
 5482 1ed8 890424   		movl	%eax, (%esp)
 5483 1edb E8000000 		call	__Unwind_SjLj_Unregister
 5483      00
 5484 1ee0 83C47C   		addl	$124, %esp
 5485 1ee3 5B       		popl	%ebx
 5486 1ee4 5E       		popl	%esi
 5487 1ee5 5F       		popl	%edi
 5488 1ee6 5D       		popl	%ebp
 5489 1ee7 C3       		ret
 5490              	LBE44:
 5491              		.section	.gcc_except_table,""
 5492              	LLSDA2226:
GAS LISTING d:/software/ovi_2503a_s3trc/ovi_2503a_s3trc/plutommi/Customer/ResGenerator/gcctmp/ccuadaaa.s 			page 70


 5493 0016 FF       		.byte	0xff
 5494 0017 FF       		.byte	0xff
 5495 0018 01       		.byte	0x1
 5496 0019 02       		.uleb128 LLSDACSE2226-LLSDACSB2226
 5497              	LLSDACSB2226:
 5498 001a 00       		.uleb128 0x0
 5499 001b 00       		.uleb128 0x0
 5500              	LLSDACSE2226:
 5501              		.text
 5506              	Lscope18:
 5508 1ee8 90909090 		.align 32
 5508      90909090 
 5508      90909090 
 5508      90909090 
 5508      90909090 
 5509              	LC32:
 5510 1f00 2E2E5C2E 		.ascii "..\\..\\..\\tools\\python25\\python resgen_populate.py\0"
 5510      2E5C2E2E 
 5510      5C746F6F 
 5510      6C735C70 
 5510      7974686F 
 5511 1f32 8DB42600 		.align 32
 5511      0000008D 
 5511      BC270000 
 5511      0000
 5512              	LC33:
 5513 1f40 4572726F 		.ascii "Error!! 3D resource generation FAIL !!\0"
 5513      72212120 
 5513      33442072 
 5513      65736F75 
 5513      72636520 
 5514 1f67 90909090 		.align 32
 5514      90909090 
 5514      90909090 
 5514      90909090 
 5514      90909090 
 5515              	LC34:
 5516 1f80 506C6561 		.ascii "Please check the error message of TAG Py-RESGEN_POPULATE in this log file. Failed resource
 5516      73652063 
 5516      6865636B 
 5516      20746865 
 5516      20657272 
 5517 2036 8D76008D 		.align 32
 5517      BC270000 
 5517      0000
 5518              	LC35:
 5519 2040 45787465 		.ascii "External python script resgen_populate.py return error.\0"
 5519      726E616C 
 5519      20707974 
 5519      686F6E20 
 5519      73637269 
 5520 2078 908DB426 		.align 32
 5520      00000000 
 5521              	LC36:
 5522 2080 4572726F 		.ascii "Error!! 3D Resource generation FAIL !!\0"
 5522      72212120 
 5522      33442052 
GAS LISTING d:/software/ovi_2503a_s3trc/ovi_2503a_s3trc/plutommi/Customer/ResGenerator/gcctmp/ccuadaaa.s 			page 71


 5522      65736F75 
 5522      72636520 
 5523 20a7 90909090 		.align 32
 5523      90909090 
 5523      90909090 
 5523      90909090 
 5523      90909090 
 5524              	LC37:
 5525 20c0 0A2A2A20 		.ascii "\12** Fatal Error!! 3D Resource generation FAIL !!\12** Failed resource declaration are lo
 5525      46617461 
 5525      6C204572 
 5525      726F7221 
 5525      21203344 
 5526              		.align 2
 5529              	__Z17ProcessBinaryDatav:
 938:../../MMI/Resource/WriteProcess.cpp **** 
 939:../../MMI/Resource/WriteProcess.cpp **** static void ProcessBinaryData()
 940:../../MMI/Resource/WriteProcess.cpp **** {
 5531              	LM250:
 5532 21fc 55       		pushl	%ebp
 5533 21fd 89E5     		movl	%esp, %ebp
 5534 21ff 83EC18   		subl	$24, %esp
 941:../../MMI/Resource/WriteProcess.cpp ****     // Binary resource population are saved in offline DB
 942:../../MMI/Resource/WriteProcess.cpp ****     // , and it can be read by resgen_populate.py directly
 943:../../MMI/Resource/WriteProcess.cpp ****     int result = execute_ext_command("..\\..\\..\\" "tools\\python25\\python" " resgen_populate.py"
 5536              	LM251:
 5537              	LBB45:
 5538 2202 C7042400 		movl	$LC32, (%esp)
 5538      1F0000
 5539 2209 E8000000 		call	_execute_ext_command
 5539      00
 5540 220e 8945FC   		movl	%eax, -4(%ebp)
 944:../../MMI/Resource/WriteProcess.cpp ****     if (result == 2)
 5542              	LM252:
 5543 2211 837DFC02 		cmpl	$2, -4(%ebp)
 5544 2215 7560     		jne	L159
 945:../../MMI/Resource/WriteProcess.cpp ****     {
 946:../../MMI/Resource/WriteProcess.cpp ****         //mtk_resgen_set_error();
 947:../../MMI/Resource/WriteProcess.cpp ****         IMGPROC_LOG_E("Error!! 3D resource generation FAIL !!");
 5546              	LM253:
 5547 2217 C7442408 		movl	$LC33, 8(%esp)
 5547      401F0000 
 5548 221f C7442404 		movl	$LC4, 4(%esp)
 5548      E4000000 
 5549 2227 C7042403 		movl	$3, (%esp)
 5549      000000
 5550 222e E8000000 		call	_reslog_adaptor_log
 5550      00
 948:../../MMI/Resource/WriteProcess.cpp ****         RES_LOG_PENDING_FATAL(IMGPROC_TAG, "Error!! 3D Resource generation FAIL !!","External pytho
 5552              	LM254:
 5553 2233 C7442410 		movl	$LC34, 16(%esp)
 5553      801F0000 
 5554 223b C744240C 		movl	$LC35, 12(%esp)
 5554      40200000 
 5555 2243 C7442408 		movl	$LC36, 8(%esp)
 5555      80200000 
 5556 224b C7442404 		movl	$LC4, 4(%esp)
GAS LISTING d:/software/ovi_2503a_s3trc/ovi_2503a_s3trc/plutommi/Customer/ResGenerator/gcctmp/ccuadaaa.s 			page 72


 5556      E4000000 
 5557 2253 C7042403 		movl	$3, (%esp)
 5557      000000
 5558 225a E8000000 		call	_reslog_adaptor_fatal_error_pending_log
 5558      00
 949:../../MMI/Resource/WriteProcess.cpp ****         fprintf(stderr, "\n** Fatal Error!! 3D Resource generation FAIL !!\n** Failed resource decl
 5560              	LM255:
 5561 225f C7442404 		movl	$LC37, 4(%esp)
 5561      C0200000 
 5562 2267 A1000000 		movl	__imp___iob, %eax
 5562      00
 5563 226c 83C040   		addl	$64, %eax
 5564 226f 890424   		movl	%eax, (%esp)
 5565 2272 E8000000 		call	_fprintf
 5565      00
 950:../../MMI/Resource/WriteProcess.cpp ****     }
 951:../../MMI/Resource/WriteProcess.cpp **** }
 5567              	LM256:
 5568              	L159:
 5569 2277 C9       		leave
 5570 2278 C3       		ret
 5571              	LBE45:
 5575              	Lscope19:
 5581              		.section	.text$_ZNSt4listI16ProcessImageDataSaIS0_EE5beginEv,"x"
 5582              		.linkonce discard
 5583              		.align 2
 5586              	.globl __ZNSt4listI16ProcessImageDataSaIS0_EE5beginEv
 5588              	__ZNSt4listI16ProcessImageDataSaIS0_EE5beginEv:
 5590              	Ltext1:
   1:d:/software/ovi_2503a_s3trc/ovi_2503a_s3trc/Tools/MinGW/include/c++/3.3.1/bits/stl_list.h **** // List implementation -*- C++ -*-
   2:d:/software/ovi_2503a_s3trc/ovi_2503a_s3trc/Tools/MinGW/include/c++/3.3.1/bits/stl_list.h **** 
   3:d:/software/ovi_2503a_s3trc/ovi_2503a_s3trc/Tools/MinGW/include/c++/3.3.1/bits/stl_list.h **** // Copyright (C) 2001, 2002 Free Software Foundation, Inc.
   4:d:/software/ovi_2503a_s3trc/ovi_2503a_s3trc/Tools/MinGW/include/c++/3.3.1/bits/stl_list.h **** //
   5:d:/software/ovi_2503a_s3trc/ovi_2503a_s3trc/Tools/MinGW/include/c++/3.3.1/bits/stl_list.h **** // This file is part of the GNU ISO C++ Library.  This library is free
   6:d:/software/ovi_2503a_s3trc/ovi_2503a_s3trc/Tools/MinGW/include/c++/3.3.1/bits/stl_list.h **** // software; you can redistribute it and/or modify it under the
   7:d:/software/ovi_2503a_s3trc/ovi_2503a_s3trc/Tools/MinGW/include/c++/3.3.1/bits/stl_list.h **** // terms of the GNU General Public License as published by the
   8:d:/software/ovi_2503a_s3trc/ovi_2503a_s3trc/Tools/MinGW/include/c++/3.3.1/bits/stl_list.h **** // Free Software Foundation; either version 2, or (at your option)
   9:d:/software/ovi_2503a_s3trc/ovi_2503a_s3trc/Tools/MinGW/include/c++/3.3.1/bits/stl_list.h **** // any later version.
  10:d:/software/ovi_2503a_s3trc/ovi_2503a_s3trc/Tools/MinGW/include/c++/3.3.1/bits/stl_list.h **** 
  11:d:/software/ovi_2503a_s3trc/ovi_2503a_s3trc/Tools/MinGW/include/c++/3.3.1/bits/stl_list.h **** // This library is distributed in the hope that it will be useful,
  12:d:/software/ovi_2503a_s3trc/ovi_2503a_s3trc/Tools/MinGW/include/c++/3.3.1/bits/stl_list.h **** // but WITHOUT ANY WARRANTY; without even the implied warranty of
  13:d:/software/ovi_2503a_s3trc/ovi_2503a_s3trc/Tools/MinGW/include/c++/3.3.1/bits/stl_list.h **** // MERCHANTABILITY or FITNESS FOR A PARTICULAR PURPOSE.  See the
  14:d:/software/ovi_2503a_s3trc/ovi_2503a_s3trc/Tools/MinGW/include/c++/3.3.1/bits/stl_list.h **** // GNU General Public License for more details.
  15:d:/software/ovi_2503a_s3trc/ovi_2503a_s3trc/Tools/MinGW/include/c++/3.3.1/bits/stl_list.h **** 
  16:d:/software/ovi_2503a_s3trc/ovi_2503a_s3trc/Tools/MinGW/include/c++/3.3.1/bits/stl_list.h **** // You should have received a copy of the GNU General Public License along
  17:d:/software/ovi_2503a_s3trc/ovi_2503a_s3trc/Tools/MinGW/include/c++/3.3.1/bits/stl_list.h **** // with this library; see the file COPYING.  If not, write to the Free
  18:d:/software/ovi_2503a_s3trc/ovi_2503a_s3trc/Tools/MinGW/include/c++/3.3.1/bits/stl_list.h **** // Software Foundation, 59 Temple Place - Suite 330, Boston, MA 02111-1307,
  19:d:/software/ovi_2503a_s3trc/ovi_2503a_s3trc/Tools/MinGW/include/c++/3.3.1/bits/stl_list.h **** // USA.
  20:d:/software/ovi_2503a_s3trc/ovi_2503a_s3trc/Tools/MinGW/include/c++/3.3.1/bits/stl_list.h **** 
  21:d:/software/ovi_2503a_s3trc/ovi_2503a_s3trc/Tools/MinGW/include/c++/3.3.1/bits/stl_list.h **** // As a special exception, you may use this file as part of a free software
  22:d:/software/ovi_2503a_s3trc/ovi_2503a_s3trc/Tools/MinGW/include/c++/3.3.1/bits/stl_list.h **** // library without restriction.  Specifically, if other files instantiate
  23:d:/software/ovi_2503a_s3trc/ovi_2503a_s3trc/Tools/MinGW/include/c++/3.3.1/bits/stl_list.h **** // templates or use macros or inline functions from this file, or you compile
  24:d:/software/ovi_2503a_s3trc/ovi_2503a_s3trc/Tools/MinGW/include/c++/3.3.1/bits/stl_list.h **** // this file and link it with other files to produce an executable, this
  25:d:/software/ovi_2503a_s3trc/ovi_2503a_s3trc/Tools/MinGW/include/c++/3.3.1/bits/stl_list.h **** // file does not by itself cause the resulting executable to be covered by
  26:d:/software/ovi_2503a_s3trc/ovi_2503a_s3trc/Tools/MinGW/include/c++/3.3.1/bits/stl_list.h **** // the GNU General Public License.  This exception does not however
  27:d:/software/ovi_2503a_s3trc/ovi_2503a_s3trc/Tools/MinGW/include/c++/3.3.1/bits/stl_list.h **** // invalidate any other reasons why the executable file might be covered by
  28:d:/software/ovi_2503a_s3trc/ovi_2503a_s3trc/Tools/MinGW/include/c++/3.3.1/bits/stl_list.h **** // the GNU General Public License.
GAS LISTING d:/software/ovi_2503a_s3trc/ovi_2503a_s3trc/plutommi/Customer/ResGenerator/gcctmp/ccuadaaa.s 			page 73


  29:d:/software/ovi_2503a_s3trc/ovi_2503a_s3trc/Tools/MinGW/include/c++/3.3.1/bits/stl_list.h **** 
  30:d:/software/ovi_2503a_s3trc/ovi_2503a_s3trc/Tools/MinGW/include/c++/3.3.1/bits/stl_list.h **** /*
  31:d:/software/ovi_2503a_s3trc/ovi_2503a_s3trc/Tools/MinGW/include/c++/3.3.1/bits/stl_list.h ****  *
  32:d:/software/ovi_2503a_s3trc/ovi_2503a_s3trc/Tools/MinGW/include/c++/3.3.1/bits/stl_list.h ****  * Copyright (c) 1994
  33:d:/software/ovi_2503a_s3trc/ovi_2503a_s3trc/Tools/MinGW/include/c++/3.3.1/bits/stl_list.h ****  * Hewlett-Packard Company
  34:d:/software/ovi_2503a_s3trc/ovi_2503a_s3trc/Tools/MinGW/include/c++/3.3.1/bits/stl_list.h ****  *
  35:d:/software/ovi_2503a_s3trc/ovi_2503a_s3trc/Tools/MinGW/include/c++/3.3.1/bits/stl_list.h ****  * Permission to use, copy, modify, distribute and sell this software
  36:d:/software/ovi_2503a_s3trc/ovi_2503a_s3trc/Tools/MinGW/include/c++/3.3.1/bits/stl_list.h ****  * and its documentation for any purpose is hereby granted without fee,
  37:d:/software/ovi_2503a_s3trc/ovi_2503a_s3trc/Tools/MinGW/include/c++/3.3.1/bits/stl_list.h ****  * provided that the above copyright notice appear in all copies and
  38:d:/software/ovi_2503a_s3trc/ovi_2503a_s3trc/Tools/MinGW/include/c++/3.3.1/bits/stl_list.h ****  * that both that copyright notice and this permission notice appear
  39:d:/software/ovi_2503a_s3trc/ovi_2503a_s3trc/Tools/MinGW/include/c++/3.3.1/bits/stl_list.h ****  * in supporting documentation.  Hewlett-Packard Company makes no
  40:d:/software/ovi_2503a_s3trc/ovi_2503a_s3trc/Tools/MinGW/include/c++/3.3.1/bits/stl_list.h ****  * representations about the suitability of this software for any
  41:d:/software/ovi_2503a_s3trc/ovi_2503a_s3trc/Tools/MinGW/include/c++/3.3.1/bits/stl_list.h ****  * purpose.  It is provided "as is" without express or implied warranty.
  42:d:/software/ovi_2503a_s3trc/ovi_2503a_s3trc/Tools/MinGW/include/c++/3.3.1/bits/stl_list.h ****  *
  43:d:/software/ovi_2503a_s3trc/ovi_2503a_s3trc/Tools/MinGW/include/c++/3.3.1/bits/stl_list.h ****  *
  44:d:/software/ovi_2503a_s3trc/ovi_2503a_s3trc/Tools/MinGW/include/c++/3.3.1/bits/stl_list.h ****  * Copyright (c) 1996,1997
  45:d:/software/ovi_2503a_s3trc/ovi_2503a_s3trc/Tools/MinGW/include/c++/3.3.1/bits/stl_list.h ****  * Silicon Graphics Computer Systems, Inc.
  46:d:/software/ovi_2503a_s3trc/ovi_2503a_s3trc/Tools/MinGW/include/c++/3.3.1/bits/stl_list.h ****  *
  47:d:/software/ovi_2503a_s3trc/ovi_2503a_s3trc/Tools/MinGW/include/c++/3.3.1/bits/stl_list.h ****  * Permission to use, copy, modify, distribute and sell this software
  48:d:/software/ovi_2503a_s3trc/ovi_2503a_s3trc/Tools/MinGW/include/c++/3.3.1/bits/stl_list.h ****  * and its documentation for any purpose is hereby granted without fee,
  49:d:/software/ovi_2503a_s3trc/ovi_2503a_s3trc/Tools/MinGW/include/c++/3.3.1/bits/stl_list.h ****  * provided that the above copyright notice appear in all copies and
  50:d:/software/ovi_2503a_s3trc/ovi_2503a_s3trc/Tools/MinGW/include/c++/3.3.1/bits/stl_list.h ****  * that both that copyright notice and this permission notice appear
  51:d:/software/ovi_2503a_s3trc/ovi_2503a_s3trc/Tools/MinGW/include/c++/3.3.1/bits/stl_list.h ****  * in supporting documentation.  Silicon Graphics makes no
  52:d:/software/ovi_2503a_s3trc/ovi_2503a_s3trc/Tools/MinGW/include/c++/3.3.1/bits/stl_list.h ****  * representations about the suitability of this software for any
  53:d:/software/ovi_2503a_s3trc/ovi_2503a_s3trc/Tools/MinGW/include/c++/3.3.1/bits/stl_list.h ****  * purpose.  It is provided "as is" without express or implied warranty.
  54:d:/software/ovi_2503a_s3trc/ovi_2503a_s3trc/Tools/MinGW/include/c++/3.3.1/bits/stl_list.h ****  */
  55:d:/software/ovi_2503a_s3trc/ovi_2503a_s3trc/Tools/MinGW/include/c++/3.3.1/bits/stl_list.h **** 
  56:d:/software/ovi_2503a_s3trc/ovi_2503a_s3trc/Tools/MinGW/include/c++/3.3.1/bits/stl_list.h **** /** @file stl_list.h
  57:d:/software/ovi_2503a_s3trc/ovi_2503a_s3trc/Tools/MinGW/include/c++/3.3.1/bits/stl_list.h ****  *  This is an internal header file, included by other library headers.
  58:d:/software/ovi_2503a_s3trc/ovi_2503a_s3trc/Tools/MinGW/include/c++/3.3.1/bits/stl_list.h ****  *  You should not attempt to use it directly.
  59:d:/software/ovi_2503a_s3trc/ovi_2503a_s3trc/Tools/MinGW/include/c++/3.3.1/bits/stl_list.h ****  */
  60:d:/software/ovi_2503a_s3trc/ovi_2503a_s3trc/Tools/MinGW/include/c++/3.3.1/bits/stl_list.h **** 
  61:d:/software/ovi_2503a_s3trc/ovi_2503a_s3trc/Tools/MinGW/include/c++/3.3.1/bits/stl_list.h **** #ifndef __GLIBCPP_INTERNAL_LIST_H
  62:d:/software/ovi_2503a_s3trc/ovi_2503a_s3trc/Tools/MinGW/include/c++/3.3.1/bits/stl_list.h **** #define __GLIBCPP_INTERNAL_LIST_H
  63:d:/software/ovi_2503a_s3trc/ovi_2503a_s3trc/Tools/MinGW/include/c++/3.3.1/bits/stl_list.h **** 
  64:d:/software/ovi_2503a_s3trc/ovi_2503a_s3trc/Tools/MinGW/include/c++/3.3.1/bits/stl_list.h **** #include <bits/concept_check.h>
  65:d:/software/ovi_2503a_s3trc/ovi_2503a_s3trc/Tools/MinGW/include/c++/3.3.1/bits/stl_list.h **** 
  66:d:/software/ovi_2503a_s3trc/ovi_2503a_s3trc/Tools/MinGW/include/c++/3.3.1/bits/stl_list.h **** namespace std
  67:d:/software/ovi_2503a_s3trc/ovi_2503a_s3trc/Tools/MinGW/include/c++/3.3.1/bits/stl_list.h **** {
  68:d:/software/ovi_2503a_s3trc/ovi_2503a_s3trc/Tools/MinGW/include/c++/3.3.1/bits/stl_list.h ****   // Supporting structures are split into common and templated types; the
  69:d:/software/ovi_2503a_s3trc/ovi_2503a_s3trc/Tools/MinGW/include/c++/3.3.1/bits/stl_list.h ****   // latter publicly inherits from the former in an effort to reduce code
  70:d:/software/ovi_2503a_s3trc/ovi_2503a_s3trc/Tools/MinGW/include/c++/3.3.1/bits/stl_list.h ****   // duplication.  This results in some "needless" static_cast'ing later on,
  71:d:/software/ovi_2503a_s3trc/ovi_2503a_s3trc/Tools/MinGW/include/c++/3.3.1/bits/stl_list.h ****   // but it's all safe downcasting.
  72:d:/software/ovi_2503a_s3trc/ovi_2503a_s3trc/Tools/MinGW/include/c++/3.3.1/bits/stl_list.h ****   
  73:d:/software/ovi_2503a_s3trc/ovi_2503a_s3trc/Tools/MinGW/include/c++/3.3.1/bits/stl_list.h ****   /// @if maint Common part of a node in the %list.  @endif
  74:d:/software/ovi_2503a_s3trc/ovi_2503a_s3trc/Tools/MinGW/include/c++/3.3.1/bits/stl_list.h ****   struct _List_node_base
  75:d:/software/ovi_2503a_s3trc/ovi_2503a_s3trc/Tools/MinGW/include/c++/3.3.1/bits/stl_list.h ****   {
  76:d:/software/ovi_2503a_s3trc/ovi_2503a_s3trc/Tools/MinGW/include/c++/3.3.1/bits/stl_list.h ****     _List_node_base* _M_next;   ///< Self-explanatory
  77:d:/software/ovi_2503a_s3trc/ovi_2503a_s3trc/Tools/MinGW/include/c++/3.3.1/bits/stl_list.h ****     _List_node_base* _M_prev;   ///< Self-explanatory
  78:d:/software/ovi_2503a_s3trc/ovi_2503a_s3trc/Tools/MinGW/include/c++/3.3.1/bits/stl_list.h ****   };
  79:d:/software/ovi_2503a_s3trc/ovi_2503a_s3trc/Tools/MinGW/include/c++/3.3.1/bits/stl_list.h ****   
  80:d:/software/ovi_2503a_s3trc/ovi_2503a_s3trc/Tools/MinGW/include/c++/3.3.1/bits/stl_list.h ****   /// @if maint An actual node in the %list.  @endif
  81:d:/software/ovi_2503a_s3trc/ovi_2503a_s3trc/Tools/MinGW/include/c++/3.3.1/bits/stl_list.h ****   template<typename _Tp>
  82:d:/software/ovi_2503a_s3trc/ovi_2503a_s3trc/Tools/MinGW/include/c++/3.3.1/bits/stl_list.h ****     struct _List_node : public _List_node_base
  83:d:/software/ovi_2503a_s3trc/ovi_2503a_s3trc/Tools/MinGW/include/c++/3.3.1/bits/stl_list.h ****   {
  84:d:/software/ovi_2503a_s3trc/ovi_2503a_s3trc/Tools/MinGW/include/c++/3.3.1/bits/stl_list.h ****     _Tp _M_data;                ///< User's data.
  85:d:/software/ovi_2503a_s3trc/ovi_2503a_s3trc/Tools/MinGW/include/c++/3.3.1/bits/stl_list.h ****   };
GAS LISTING d:/software/ovi_2503a_s3trc/ovi_2503a_s3trc/plutommi/Customer/ResGenerator/gcctmp/ccuadaaa.s 			page 74


  86:d:/software/ovi_2503a_s3trc/ovi_2503a_s3trc/Tools/MinGW/include/c++/3.3.1/bits/stl_list.h ****   
  87:d:/software/ovi_2503a_s3trc/ovi_2503a_s3trc/Tools/MinGW/include/c++/3.3.1/bits/stl_list.h ****   
  88:d:/software/ovi_2503a_s3trc/ovi_2503a_s3trc/Tools/MinGW/include/c++/3.3.1/bits/stl_list.h ****   /**
  89:d:/software/ovi_2503a_s3trc/ovi_2503a_s3trc/Tools/MinGW/include/c++/3.3.1/bits/stl_list.h ****    *  @if maint
  90:d:/software/ovi_2503a_s3trc/ovi_2503a_s3trc/Tools/MinGW/include/c++/3.3.1/bits/stl_list.h ****    *  @brief Common part of a list::iterator.
  91:d:/software/ovi_2503a_s3trc/ovi_2503a_s3trc/Tools/MinGW/include/c++/3.3.1/bits/stl_list.h ****    *
  92:d:/software/ovi_2503a_s3trc/ovi_2503a_s3trc/Tools/MinGW/include/c++/3.3.1/bits/stl_list.h ****    *  A simple type to walk a doubly-linked list.  All operations here should
  93:d:/software/ovi_2503a_s3trc/ovi_2503a_s3trc/Tools/MinGW/include/c++/3.3.1/bits/stl_list.h ****    *  be self-explanatory after taking any decent introductory data structures
  94:d:/software/ovi_2503a_s3trc/ovi_2503a_s3trc/Tools/MinGW/include/c++/3.3.1/bits/stl_list.h ****    *  course.
  95:d:/software/ovi_2503a_s3trc/ovi_2503a_s3trc/Tools/MinGW/include/c++/3.3.1/bits/stl_list.h ****    *  @endif
  96:d:/software/ovi_2503a_s3trc/ovi_2503a_s3trc/Tools/MinGW/include/c++/3.3.1/bits/stl_list.h ****   */
  97:d:/software/ovi_2503a_s3trc/ovi_2503a_s3trc/Tools/MinGW/include/c++/3.3.1/bits/stl_list.h ****   struct _List_iterator_base
  98:d:/software/ovi_2503a_s3trc/ovi_2503a_s3trc/Tools/MinGW/include/c++/3.3.1/bits/stl_list.h ****   {
  99:d:/software/ovi_2503a_s3trc/ovi_2503a_s3trc/Tools/MinGW/include/c++/3.3.1/bits/stl_list.h ****     typedef size_t                        size_type;
 100:d:/software/ovi_2503a_s3trc/ovi_2503a_s3trc/Tools/MinGW/include/c++/3.3.1/bits/stl_list.h ****     typedef ptrdiff_t                     difference_type;
 101:d:/software/ovi_2503a_s3trc/ovi_2503a_s3trc/Tools/MinGW/include/c++/3.3.1/bits/stl_list.h ****     typedef bidirectional_iterator_tag    iterator_category;
 102:d:/software/ovi_2503a_s3trc/ovi_2503a_s3trc/Tools/MinGW/include/c++/3.3.1/bits/stl_list.h ****   
 103:d:/software/ovi_2503a_s3trc/ovi_2503a_s3trc/Tools/MinGW/include/c++/3.3.1/bits/stl_list.h ****     /// The only member points to the %list element.
 104:d:/software/ovi_2503a_s3trc/ovi_2503a_s3trc/Tools/MinGW/include/c++/3.3.1/bits/stl_list.h ****     _List_node_base* _M_node;
 105:d:/software/ovi_2503a_s3trc/ovi_2503a_s3trc/Tools/MinGW/include/c++/3.3.1/bits/stl_list.h ****   
 106:d:/software/ovi_2503a_s3trc/ovi_2503a_s3trc/Tools/MinGW/include/c++/3.3.1/bits/stl_list.h ****     _List_iterator_base(_List_node_base* __x)
 107:d:/software/ovi_2503a_s3trc/ovi_2503a_s3trc/Tools/MinGW/include/c++/3.3.1/bits/stl_list.h ****     : _M_node(__x)
 108:d:/software/ovi_2503a_s3trc/ovi_2503a_s3trc/Tools/MinGW/include/c++/3.3.1/bits/stl_list.h ****     { }
 109:d:/software/ovi_2503a_s3trc/ovi_2503a_s3trc/Tools/MinGW/include/c++/3.3.1/bits/stl_list.h ****   
 110:d:/software/ovi_2503a_s3trc/ovi_2503a_s3trc/Tools/MinGW/include/c++/3.3.1/bits/stl_list.h ****     _List_iterator_base()
 111:d:/software/ovi_2503a_s3trc/ovi_2503a_s3trc/Tools/MinGW/include/c++/3.3.1/bits/stl_list.h ****     { }
 112:d:/software/ovi_2503a_s3trc/ovi_2503a_s3trc/Tools/MinGW/include/c++/3.3.1/bits/stl_list.h ****   
 113:d:/software/ovi_2503a_s3trc/ovi_2503a_s3trc/Tools/MinGW/include/c++/3.3.1/bits/stl_list.h ****     /// Walk the %list forward.
 114:d:/software/ovi_2503a_s3trc/ovi_2503a_s3trc/Tools/MinGW/include/c++/3.3.1/bits/stl_list.h ****     void
 115:d:/software/ovi_2503a_s3trc/ovi_2503a_s3trc/Tools/MinGW/include/c++/3.3.1/bits/stl_list.h ****     _M_incr()
 116:d:/software/ovi_2503a_s3trc/ovi_2503a_s3trc/Tools/MinGW/include/c++/3.3.1/bits/stl_list.h ****     { _M_node = _M_node->_M_next; }
 117:d:/software/ovi_2503a_s3trc/ovi_2503a_s3trc/Tools/MinGW/include/c++/3.3.1/bits/stl_list.h ****   
 118:d:/software/ovi_2503a_s3trc/ovi_2503a_s3trc/Tools/MinGW/include/c++/3.3.1/bits/stl_list.h ****     /// Walk the %list backward.
 119:d:/software/ovi_2503a_s3trc/ovi_2503a_s3trc/Tools/MinGW/include/c++/3.3.1/bits/stl_list.h ****     void
 120:d:/software/ovi_2503a_s3trc/ovi_2503a_s3trc/Tools/MinGW/include/c++/3.3.1/bits/stl_list.h ****     _M_decr()
 121:d:/software/ovi_2503a_s3trc/ovi_2503a_s3trc/Tools/MinGW/include/c++/3.3.1/bits/stl_list.h ****     { _M_node = _M_node->_M_prev; }
 122:d:/software/ovi_2503a_s3trc/ovi_2503a_s3trc/Tools/MinGW/include/c++/3.3.1/bits/stl_list.h ****   
 123:d:/software/ovi_2503a_s3trc/ovi_2503a_s3trc/Tools/MinGW/include/c++/3.3.1/bits/stl_list.h ****     bool
 124:d:/software/ovi_2503a_s3trc/ovi_2503a_s3trc/Tools/MinGW/include/c++/3.3.1/bits/stl_list.h ****     operator==(const _List_iterator_base& __x) const
 125:d:/software/ovi_2503a_s3trc/ovi_2503a_s3trc/Tools/MinGW/include/c++/3.3.1/bits/stl_list.h ****     { return _M_node == __x._M_node; }
 126:d:/software/ovi_2503a_s3trc/ovi_2503a_s3trc/Tools/MinGW/include/c++/3.3.1/bits/stl_list.h ****   
 127:d:/software/ovi_2503a_s3trc/ovi_2503a_s3trc/Tools/MinGW/include/c++/3.3.1/bits/stl_list.h ****     bool
 128:d:/software/ovi_2503a_s3trc/ovi_2503a_s3trc/Tools/MinGW/include/c++/3.3.1/bits/stl_list.h ****     operator!=(const _List_iterator_base& __x) const
 129:d:/software/ovi_2503a_s3trc/ovi_2503a_s3trc/Tools/MinGW/include/c++/3.3.1/bits/stl_list.h ****     { return _M_node != __x._M_node; }
 130:d:/software/ovi_2503a_s3trc/ovi_2503a_s3trc/Tools/MinGW/include/c++/3.3.1/bits/stl_list.h ****   };
 131:d:/software/ovi_2503a_s3trc/ovi_2503a_s3trc/Tools/MinGW/include/c++/3.3.1/bits/stl_list.h ****   
 132:d:/software/ovi_2503a_s3trc/ovi_2503a_s3trc/Tools/MinGW/include/c++/3.3.1/bits/stl_list.h ****   /**
 133:d:/software/ovi_2503a_s3trc/ovi_2503a_s3trc/Tools/MinGW/include/c++/3.3.1/bits/stl_list.h ****    *  @brief A list::iterator.
 134:d:/software/ovi_2503a_s3trc/ovi_2503a_s3trc/Tools/MinGW/include/c++/3.3.1/bits/stl_list.h ****    *
 135:d:/software/ovi_2503a_s3trc/ovi_2503a_s3trc/Tools/MinGW/include/c++/3.3.1/bits/stl_list.h ****    *  In addition to being used externally, a list holds one of these
 136:d:/software/ovi_2503a_s3trc/ovi_2503a_s3trc/Tools/MinGW/include/c++/3.3.1/bits/stl_list.h ****    *  internally, pointing to the sequence of data.
 137:d:/software/ovi_2503a_s3trc/ovi_2503a_s3trc/Tools/MinGW/include/c++/3.3.1/bits/stl_list.h ****    *
 138:d:/software/ovi_2503a_s3trc/ovi_2503a_s3trc/Tools/MinGW/include/c++/3.3.1/bits/stl_list.h ****    *  @if maint
 139:d:/software/ovi_2503a_s3trc/ovi_2503a_s3trc/Tools/MinGW/include/c++/3.3.1/bits/stl_list.h ****    *  All the functions are op overloads.
 140:d:/software/ovi_2503a_s3trc/ovi_2503a_s3trc/Tools/MinGW/include/c++/3.3.1/bits/stl_list.h ****    *  @endif
 141:d:/software/ovi_2503a_s3trc/ovi_2503a_s3trc/Tools/MinGW/include/c++/3.3.1/bits/stl_list.h ****   */
 142:d:/software/ovi_2503a_s3trc/ovi_2503a_s3trc/Tools/MinGW/include/c++/3.3.1/bits/stl_list.h ****   template<typename _Tp, typename _Ref, typename _Ptr>
GAS LISTING d:/software/ovi_2503a_s3trc/ovi_2503a_s3trc/plutommi/Customer/ResGenerator/gcctmp/ccuadaaa.s 			page 75


 143:d:/software/ovi_2503a_s3trc/ovi_2503a_s3trc/Tools/MinGW/include/c++/3.3.1/bits/stl_list.h ****     struct _List_iterator : public _List_iterator_base
 144:d:/software/ovi_2503a_s3trc/ovi_2503a_s3trc/Tools/MinGW/include/c++/3.3.1/bits/stl_list.h ****   {
 145:d:/software/ovi_2503a_s3trc/ovi_2503a_s3trc/Tools/MinGW/include/c++/3.3.1/bits/stl_list.h ****     typedef _List_iterator<_Tp,_Tp&,_Tp*>             iterator;
 146:d:/software/ovi_2503a_s3trc/ovi_2503a_s3trc/Tools/MinGW/include/c++/3.3.1/bits/stl_list.h ****     typedef _List_iterator<_Tp,const _Tp&,const _Tp*> const_iterator;
 147:d:/software/ovi_2503a_s3trc/ovi_2503a_s3trc/Tools/MinGW/include/c++/3.3.1/bits/stl_list.h ****     typedef _List_iterator<_Tp,_Ref,_Ptr>             _Self;
 148:d:/software/ovi_2503a_s3trc/ovi_2503a_s3trc/Tools/MinGW/include/c++/3.3.1/bits/stl_list.h ****   
 149:d:/software/ovi_2503a_s3trc/ovi_2503a_s3trc/Tools/MinGW/include/c++/3.3.1/bits/stl_list.h ****     typedef _Tp                                       value_type;
 150:d:/software/ovi_2503a_s3trc/ovi_2503a_s3trc/Tools/MinGW/include/c++/3.3.1/bits/stl_list.h ****     typedef _Ptr                                      pointer;
 151:d:/software/ovi_2503a_s3trc/ovi_2503a_s3trc/Tools/MinGW/include/c++/3.3.1/bits/stl_list.h ****     typedef _Ref                                      reference;
 152:d:/software/ovi_2503a_s3trc/ovi_2503a_s3trc/Tools/MinGW/include/c++/3.3.1/bits/stl_list.h ****     typedef _List_node<_Tp>                           _Node;
 153:d:/software/ovi_2503a_s3trc/ovi_2503a_s3trc/Tools/MinGW/include/c++/3.3.1/bits/stl_list.h ****   
 154:d:/software/ovi_2503a_s3trc/ovi_2503a_s3trc/Tools/MinGW/include/c++/3.3.1/bits/stl_list.h ****     _List_iterator(_Node* __x)
 155:d:/software/ovi_2503a_s3trc/ovi_2503a_s3trc/Tools/MinGW/include/c++/3.3.1/bits/stl_list.h ****     : _List_iterator_base(__x)
 156:d:/software/ovi_2503a_s3trc/ovi_2503a_s3trc/Tools/MinGW/include/c++/3.3.1/bits/stl_list.h ****     { }
 157:d:/software/ovi_2503a_s3trc/ovi_2503a_s3trc/Tools/MinGW/include/c++/3.3.1/bits/stl_list.h ****   
 158:d:/software/ovi_2503a_s3trc/ovi_2503a_s3trc/Tools/MinGW/include/c++/3.3.1/bits/stl_list.h ****     _List_iterator()
 159:d:/software/ovi_2503a_s3trc/ovi_2503a_s3trc/Tools/MinGW/include/c++/3.3.1/bits/stl_list.h ****     { }
 160:d:/software/ovi_2503a_s3trc/ovi_2503a_s3trc/Tools/MinGW/include/c++/3.3.1/bits/stl_list.h ****   
 161:d:/software/ovi_2503a_s3trc/ovi_2503a_s3trc/Tools/MinGW/include/c++/3.3.1/bits/stl_list.h ****     _List_iterator(const iterator& __x)
 162:d:/software/ovi_2503a_s3trc/ovi_2503a_s3trc/Tools/MinGW/include/c++/3.3.1/bits/stl_list.h ****     : _List_iterator_base(__x._M_node)
 163:d:/software/ovi_2503a_s3trc/ovi_2503a_s3trc/Tools/MinGW/include/c++/3.3.1/bits/stl_list.h ****     { }
 164:d:/software/ovi_2503a_s3trc/ovi_2503a_s3trc/Tools/MinGW/include/c++/3.3.1/bits/stl_list.h ****   
 165:d:/software/ovi_2503a_s3trc/ovi_2503a_s3trc/Tools/MinGW/include/c++/3.3.1/bits/stl_list.h ****     reference
 166:d:/software/ovi_2503a_s3trc/ovi_2503a_s3trc/Tools/MinGW/include/c++/3.3.1/bits/stl_list.h ****     operator*() const
 167:d:/software/ovi_2503a_s3trc/ovi_2503a_s3trc/Tools/MinGW/include/c++/3.3.1/bits/stl_list.h ****     { return static_cast<_Node*>(_M_node)->_M_data; }
 168:d:/software/ovi_2503a_s3trc/ovi_2503a_s3trc/Tools/MinGW/include/c++/3.3.1/bits/stl_list.h ****     // Must downcast from List_node_base to _List_node to get to _M_data.
 169:d:/software/ovi_2503a_s3trc/ovi_2503a_s3trc/Tools/MinGW/include/c++/3.3.1/bits/stl_list.h ****   
 170:d:/software/ovi_2503a_s3trc/ovi_2503a_s3trc/Tools/MinGW/include/c++/3.3.1/bits/stl_list.h ****     pointer
 171:d:/software/ovi_2503a_s3trc/ovi_2503a_s3trc/Tools/MinGW/include/c++/3.3.1/bits/stl_list.h ****     operator->() const
 172:d:/software/ovi_2503a_s3trc/ovi_2503a_s3trc/Tools/MinGW/include/c++/3.3.1/bits/stl_list.h ****     { return &(operator*()); }
 173:d:/software/ovi_2503a_s3trc/ovi_2503a_s3trc/Tools/MinGW/include/c++/3.3.1/bits/stl_list.h ****   
 174:d:/software/ovi_2503a_s3trc/ovi_2503a_s3trc/Tools/MinGW/include/c++/3.3.1/bits/stl_list.h ****     _Self&
 175:d:/software/ovi_2503a_s3trc/ovi_2503a_s3trc/Tools/MinGW/include/c++/3.3.1/bits/stl_list.h ****     operator++()
 176:d:/software/ovi_2503a_s3trc/ovi_2503a_s3trc/Tools/MinGW/include/c++/3.3.1/bits/stl_list.h ****     {
 177:d:/software/ovi_2503a_s3trc/ovi_2503a_s3trc/Tools/MinGW/include/c++/3.3.1/bits/stl_list.h ****       this->_M_incr();
 178:d:/software/ovi_2503a_s3trc/ovi_2503a_s3trc/Tools/MinGW/include/c++/3.3.1/bits/stl_list.h ****       return *this;
 179:d:/software/ovi_2503a_s3trc/ovi_2503a_s3trc/Tools/MinGW/include/c++/3.3.1/bits/stl_list.h ****     }
 180:d:/software/ovi_2503a_s3trc/ovi_2503a_s3trc/Tools/MinGW/include/c++/3.3.1/bits/stl_list.h ****   
 181:d:/software/ovi_2503a_s3trc/ovi_2503a_s3trc/Tools/MinGW/include/c++/3.3.1/bits/stl_list.h ****     _Self
 182:d:/software/ovi_2503a_s3trc/ovi_2503a_s3trc/Tools/MinGW/include/c++/3.3.1/bits/stl_list.h ****     operator++(int)
 183:d:/software/ovi_2503a_s3trc/ovi_2503a_s3trc/Tools/MinGW/include/c++/3.3.1/bits/stl_list.h ****     {
 184:d:/software/ovi_2503a_s3trc/ovi_2503a_s3trc/Tools/MinGW/include/c++/3.3.1/bits/stl_list.h ****       _Self __tmp = *this;
 185:d:/software/ovi_2503a_s3trc/ovi_2503a_s3trc/Tools/MinGW/include/c++/3.3.1/bits/stl_list.h ****       this->_M_incr();
 186:d:/software/ovi_2503a_s3trc/ovi_2503a_s3trc/Tools/MinGW/include/c++/3.3.1/bits/stl_list.h ****       return __tmp;
 187:d:/software/ovi_2503a_s3trc/ovi_2503a_s3trc/Tools/MinGW/include/c++/3.3.1/bits/stl_list.h ****     }
 188:d:/software/ovi_2503a_s3trc/ovi_2503a_s3trc/Tools/MinGW/include/c++/3.3.1/bits/stl_list.h ****   
 189:d:/software/ovi_2503a_s3trc/ovi_2503a_s3trc/Tools/MinGW/include/c++/3.3.1/bits/stl_list.h ****     _Self&
 190:d:/software/ovi_2503a_s3trc/ovi_2503a_s3trc/Tools/MinGW/include/c++/3.3.1/bits/stl_list.h ****     operator--()
 191:d:/software/ovi_2503a_s3trc/ovi_2503a_s3trc/Tools/MinGW/include/c++/3.3.1/bits/stl_list.h ****     {
 192:d:/software/ovi_2503a_s3trc/ovi_2503a_s3trc/Tools/MinGW/include/c++/3.3.1/bits/stl_list.h ****       this->_M_decr();
 193:d:/software/ovi_2503a_s3trc/ovi_2503a_s3trc/Tools/MinGW/include/c++/3.3.1/bits/stl_list.h ****       return *this;
 194:d:/software/ovi_2503a_s3trc/ovi_2503a_s3trc/Tools/MinGW/include/c++/3.3.1/bits/stl_list.h ****     }
 195:d:/software/ovi_2503a_s3trc/ovi_2503a_s3trc/Tools/MinGW/include/c++/3.3.1/bits/stl_list.h ****   
 196:d:/software/ovi_2503a_s3trc/ovi_2503a_s3trc/Tools/MinGW/include/c++/3.3.1/bits/stl_list.h ****     _Self
 197:d:/software/ovi_2503a_s3trc/ovi_2503a_s3trc/Tools/MinGW/include/c++/3.3.1/bits/stl_list.h ****     operator--(int)
 198:d:/software/ovi_2503a_s3trc/ovi_2503a_s3trc/Tools/MinGW/include/c++/3.3.1/bits/stl_list.h ****     {
 199:d:/software/ovi_2503a_s3trc/ovi_2503a_s3trc/Tools/MinGW/include/c++/3.3.1/bits/stl_list.h ****       _Self __tmp = *this;
GAS LISTING d:/software/ovi_2503a_s3trc/ovi_2503a_s3trc/plutommi/Customer/ResGenerator/gcctmp/ccuadaaa.s 			page 76


 200:d:/software/ovi_2503a_s3trc/ovi_2503a_s3trc/Tools/MinGW/include/c++/3.3.1/bits/stl_list.h ****       this->_M_decr();
 201:d:/software/ovi_2503a_s3trc/ovi_2503a_s3trc/Tools/MinGW/include/c++/3.3.1/bits/stl_list.h ****       return __tmp;
 202:d:/software/ovi_2503a_s3trc/ovi_2503a_s3trc/Tools/MinGW/include/c++/3.3.1/bits/stl_list.h ****     }
 203:d:/software/ovi_2503a_s3trc/ovi_2503a_s3trc/Tools/MinGW/include/c++/3.3.1/bits/stl_list.h ****   };
 204:d:/software/ovi_2503a_s3trc/ovi_2503a_s3trc/Tools/MinGW/include/c++/3.3.1/bits/stl_list.h ****   
 205:d:/software/ovi_2503a_s3trc/ovi_2503a_s3trc/Tools/MinGW/include/c++/3.3.1/bits/stl_list.h ****   
 206:d:/software/ovi_2503a_s3trc/ovi_2503a_s3trc/Tools/MinGW/include/c++/3.3.1/bits/stl_list.h ****   /// @if maint Primary default version.  @endif
 207:d:/software/ovi_2503a_s3trc/ovi_2503a_s3trc/Tools/MinGW/include/c++/3.3.1/bits/stl_list.h ****   /**
 208:d:/software/ovi_2503a_s3trc/ovi_2503a_s3trc/Tools/MinGW/include/c++/3.3.1/bits/stl_list.h ****    *  @if maint
 209:d:/software/ovi_2503a_s3trc/ovi_2503a_s3trc/Tools/MinGW/include/c++/3.3.1/bits/stl_list.h ****    *  See bits/stl_deque.h's _Deque_alloc_base for an explanation.
 210:d:/software/ovi_2503a_s3trc/ovi_2503a_s3trc/Tools/MinGW/include/c++/3.3.1/bits/stl_list.h ****    *  @endif
 211:d:/software/ovi_2503a_s3trc/ovi_2503a_s3trc/Tools/MinGW/include/c++/3.3.1/bits/stl_list.h ****   */
 212:d:/software/ovi_2503a_s3trc/ovi_2503a_s3trc/Tools/MinGW/include/c++/3.3.1/bits/stl_list.h ****   template<typename _Tp, typename _Allocator, bool _IsStatic>
 213:d:/software/ovi_2503a_s3trc/ovi_2503a_s3trc/Tools/MinGW/include/c++/3.3.1/bits/stl_list.h ****     class _List_alloc_base
 214:d:/software/ovi_2503a_s3trc/ovi_2503a_s3trc/Tools/MinGW/include/c++/3.3.1/bits/stl_list.h ****   {
 215:d:/software/ovi_2503a_s3trc/ovi_2503a_s3trc/Tools/MinGW/include/c++/3.3.1/bits/stl_list.h ****   public:
 216:d:/software/ovi_2503a_s3trc/ovi_2503a_s3trc/Tools/MinGW/include/c++/3.3.1/bits/stl_list.h ****     typedef typename _Alloc_traits<_Tp, _Allocator>::allocator_type
 217:d:/software/ovi_2503a_s3trc/ovi_2503a_s3trc/Tools/MinGW/include/c++/3.3.1/bits/stl_list.h ****             allocator_type;
 218:d:/software/ovi_2503a_s3trc/ovi_2503a_s3trc/Tools/MinGW/include/c++/3.3.1/bits/stl_list.h ****   
 219:d:/software/ovi_2503a_s3trc/ovi_2503a_s3trc/Tools/MinGW/include/c++/3.3.1/bits/stl_list.h ****     allocator_type
 220:d:/software/ovi_2503a_s3trc/ovi_2503a_s3trc/Tools/MinGW/include/c++/3.3.1/bits/stl_list.h ****     get_allocator() const { return _M_node_allocator; }
 221:d:/software/ovi_2503a_s3trc/ovi_2503a_s3trc/Tools/MinGW/include/c++/3.3.1/bits/stl_list.h ****   
 222:d:/software/ovi_2503a_s3trc/ovi_2503a_s3trc/Tools/MinGW/include/c++/3.3.1/bits/stl_list.h ****     _List_alloc_base(const allocator_type& __a)
 223:d:/software/ovi_2503a_s3trc/ovi_2503a_s3trc/Tools/MinGW/include/c++/3.3.1/bits/stl_list.h ****     : _M_node_allocator(__a)
 224:d:/software/ovi_2503a_s3trc/ovi_2503a_s3trc/Tools/MinGW/include/c++/3.3.1/bits/stl_list.h ****     { }
 225:d:/software/ovi_2503a_s3trc/ovi_2503a_s3trc/Tools/MinGW/include/c++/3.3.1/bits/stl_list.h ****   
 226:d:/software/ovi_2503a_s3trc/ovi_2503a_s3trc/Tools/MinGW/include/c++/3.3.1/bits/stl_list.h ****   protected:
 227:d:/software/ovi_2503a_s3trc/ovi_2503a_s3trc/Tools/MinGW/include/c++/3.3.1/bits/stl_list.h ****     _List_node<_Tp>*
 228:d:/software/ovi_2503a_s3trc/ovi_2503a_s3trc/Tools/MinGW/include/c++/3.3.1/bits/stl_list.h ****     _M_get_node()
 229:d:/software/ovi_2503a_s3trc/ovi_2503a_s3trc/Tools/MinGW/include/c++/3.3.1/bits/stl_list.h ****     { return _M_node_allocator.allocate(1); }
 230:d:/software/ovi_2503a_s3trc/ovi_2503a_s3trc/Tools/MinGW/include/c++/3.3.1/bits/stl_list.h ****   
 231:d:/software/ovi_2503a_s3trc/ovi_2503a_s3trc/Tools/MinGW/include/c++/3.3.1/bits/stl_list.h ****     void
 232:d:/software/ovi_2503a_s3trc/ovi_2503a_s3trc/Tools/MinGW/include/c++/3.3.1/bits/stl_list.h ****     _M_put_node(_List_node<_Tp>* __p)
 233:d:/software/ovi_2503a_s3trc/ovi_2503a_s3trc/Tools/MinGW/include/c++/3.3.1/bits/stl_list.h ****     { _M_node_allocator.deallocate(__p, 1); }
 234:d:/software/ovi_2503a_s3trc/ovi_2503a_s3trc/Tools/MinGW/include/c++/3.3.1/bits/stl_list.h ****   
 235:d:/software/ovi_2503a_s3trc/ovi_2503a_s3trc/Tools/MinGW/include/c++/3.3.1/bits/stl_list.h ****     // NOTA BENE
 236:d:/software/ovi_2503a_s3trc/ovi_2503a_s3trc/Tools/MinGW/include/c++/3.3.1/bits/stl_list.h ****     // The stored instance is not actually of "allocator_type"'s type.  Instead
 237:d:/software/ovi_2503a_s3trc/ovi_2503a_s3trc/Tools/MinGW/include/c++/3.3.1/bits/stl_list.h ****     // we rebind the type to Allocator<List_node<Tp>>, which according to
 238:d:/software/ovi_2503a_s3trc/ovi_2503a_s3trc/Tools/MinGW/include/c++/3.3.1/bits/stl_list.h ****     // [20.1.5]/4 should probably be the same.  List_node<Tp> is not the same
 239:d:/software/ovi_2503a_s3trc/ovi_2503a_s3trc/Tools/MinGW/include/c++/3.3.1/bits/stl_list.h ****     // size as Tp (it's two pointers larger), and specializations on Tp may go
 240:d:/software/ovi_2503a_s3trc/ovi_2503a_s3trc/Tools/MinGW/include/c++/3.3.1/bits/stl_list.h ****     // unused because List_node<Tp> is being bound instead.
 241:d:/software/ovi_2503a_s3trc/ovi_2503a_s3trc/Tools/MinGW/include/c++/3.3.1/bits/stl_list.h ****     //
 242:d:/software/ovi_2503a_s3trc/ovi_2503a_s3trc/Tools/MinGW/include/c++/3.3.1/bits/stl_list.h ****     // We put this to the test in get_allocator above; if the two types are
 243:d:/software/ovi_2503a_s3trc/ovi_2503a_s3trc/Tools/MinGW/include/c++/3.3.1/bits/stl_list.h ****     // actually different, there had better be a conversion between them.
 244:d:/software/ovi_2503a_s3trc/ovi_2503a_s3trc/Tools/MinGW/include/c++/3.3.1/bits/stl_list.h ****     //
 245:d:/software/ovi_2503a_s3trc/ovi_2503a_s3trc/Tools/MinGW/include/c++/3.3.1/bits/stl_list.h ****     // None of the predefined allocators shipped with the library (as of 3.1)
 246:d:/software/ovi_2503a_s3trc/ovi_2503a_s3trc/Tools/MinGW/include/c++/3.3.1/bits/stl_list.h ****     // use this instantiation anyhow; they're all instanceless.
 247:d:/software/ovi_2503a_s3trc/ovi_2503a_s3trc/Tools/MinGW/include/c++/3.3.1/bits/stl_list.h ****     typename _Alloc_traits<_List_node<_Tp>, _Allocator>::allocator_type
 248:d:/software/ovi_2503a_s3trc/ovi_2503a_s3trc/Tools/MinGW/include/c++/3.3.1/bits/stl_list.h ****              _M_node_allocator;
 249:d:/software/ovi_2503a_s3trc/ovi_2503a_s3trc/Tools/MinGW/include/c++/3.3.1/bits/stl_list.h ****   
 250:d:/software/ovi_2503a_s3trc/ovi_2503a_s3trc/Tools/MinGW/include/c++/3.3.1/bits/stl_list.h ****     _List_node<_Tp>* _M_node;
 251:d:/software/ovi_2503a_s3trc/ovi_2503a_s3trc/Tools/MinGW/include/c++/3.3.1/bits/stl_list.h ****   };
 252:d:/software/ovi_2503a_s3trc/ovi_2503a_s3trc/Tools/MinGW/include/c++/3.3.1/bits/stl_list.h ****   
 253:d:/software/ovi_2503a_s3trc/ovi_2503a_s3trc/Tools/MinGW/include/c++/3.3.1/bits/stl_list.h ****   /// @if maint Specialization for instanceless allocators.  @endif
 254:d:/software/ovi_2503a_s3trc/ovi_2503a_s3trc/Tools/MinGW/include/c++/3.3.1/bits/stl_list.h ****   template<typename _Tp, typename _Allocator>
 255:d:/software/ovi_2503a_s3trc/ovi_2503a_s3trc/Tools/MinGW/include/c++/3.3.1/bits/stl_list.h ****     class _List_alloc_base<_Tp, _Allocator, true>
 256:d:/software/ovi_2503a_s3trc/ovi_2503a_s3trc/Tools/MinGW/include/c++/3.3.1/bits/stl_list.h ****   {
GAS LISTING d:/software/ovi_2503a_s3trc/ovi_2503a_s3trc/plutommi/Customer/ResGenerator/gcctmp/ccuadaaa.s 			page 77


 257:d:/software/ovi_2503a_s3trc/ovi_2503a_s3trc/Tools/MinGW/include/c++/3.3.1/bits/stl_list.h ****   public:
 258:d:/software/ovi_2503a_s3trc/ovi_2503a_s3trc/Tools/MinGW/include/c++/3.3.1/bits/stl_list.h ****     typedef typename _Alloc_traits<_Tp, _Allocator>::allocator_type
 259:d:/software/ovi_2503a_s3trc/ovi_2503a_s3trc/Tools/MinGW/include/c++/3.3.1/bits/stl_list.h ****             allocator_type;
 260:d:/software/ovi_2503a_s3trc/ovi_2503a_s3trc/Tools/MinGW/include/c++/3.3.1/bits/stl_list.h ****   
 261:d:/software/ovi_2503a_s3trc/ovi_2503a_s3trc/Tools/MinGW/include/c++/3.3.1/bits/stl_list.h ****     allocator_type
 262:d:/software/ovi_2503a_s3trc/ovi_2503a_s3trc/Tools/MinGW/include/c++/3.3.1/bits/stl_list.h ****     get_allocator() const { return allocator_type(); }
 263:d:/software/ovi_2503a_s3trc/ovi_2503a_s3trc/Tools/MinGW/include/c++/3.3.1/bits/stl_list.h ****   
 264:d:/software/ovi_2503a_s3trc/ovi_2503a_s3trc/Tools/MinGW/include/c++/3.3.1/bits/stl_list.h ****     _List_alloc_base(const allocator_type&)
 265:d:/software/ovi_2503a_s3trc/ovi_2503a_s3trc/Tools/MinGW/include/c++/3.3.1/bits/stl_list.h ****     { }
 266:d:/software/ovi_2503a_s3trc/ovi_2503a_s3trc/Tools/MinGW/include/c++/3.3.1/bits/stl_list.h ****   
 267:d:/software/ovi_2503a_s3trc/ovi_2503a_s3trc/Tools/MinGW/include/c++/3.3.1/bits/stl_list.h ****   protected:
 268:d:/software/ovi_2503a_s3trc/ovi_2503a_s3trc/Tools/MinGW/include/c++/3.3.1/bits/stl_list.h ****     // See comment in primary template class about why this is safe for the
 269:d:/software/ovi_2503a_s3trc/ovi_2503a_s3trc/Tools/MinGW/include/c++/3.3.1/bits/stl_list.h ****     // standard predefined classes.
 270:d:/software/ovi_2503a_s3trc/ovi_2503a_s3trc/Tools/MinGW/include/c++/3.3.1/bits/stl_list.h ****     typedef typename _Alloc_traits<_List_node<_Tp>, _Allocator>::_Alloc_type
 271:d:/software/ovi_2503a_s3trc/ovi_2503a_s3trc/Tools/MinGW/include/c++/3.3.1/bits/stl_list.h ****             _Alloc_type;
 272:d:/software/ovi_2503a_s3trc/ovi_2503a_s3trc/Tools/MinGW/include/c++/3.3.1/bits/stl_list.h ****   
 273:d:/software/ovi_2503a_s3trc/ovi_2503a_s3trc/Tools/MinGW/include/c++/3.3.1/bits/stl_list.h ****     _List_node<_Tp>*
 274:d:/software/ovi_2503a_s3trc/ovi_2503a_s3trc/Tools/MinGW/include/c++/3.3.1/bits/stl_list.h ****     _M_get_node()
 275:d:/software/ovi_2503a_s3trc/ovi_2503a_s3trc/Tools/MinGW/include/c++/3.3.1/bits/stl_list.h ****     { return _Alloc_type::allocate(1); }
 276:d:/software/ovi_2503a_s3trc/ovi_2503a_s3trc/Tools/MinGW/include/c++/3.3.1/bits/stl_list.h ****   
 277:d:/software/ovi_2503a_s3trc/ovi_2503a_s3trc/Tools/MinGW/include/c++/3.3.1/bits/stl_list.h ****     void
 278:d:/software/ovi_2503a_s3trc/ovi_2503a_s3trc/Tools/MinGW/include/c++/3.3.1/bits/stl_list.h ****     _M_put_node(_List_node<_Tp>* __p)
 279:d:/software/ovi_2503a_s3trc/ovi_2503a_s3trc/Tools/MinGW/include/c++/3.3.1/bits/stl_list.h ****     { _Alloc_type::deallocate(__p, 1); }
 280:d:/software/ovi_2503a_s3trc/ovi_2503a_s3trc/Tools/MinGW/include/c++/3.3.1/bits/stl_list.h ****   
 281:d:/software/ovi_2503a_s3trc/ovi_2503a_s3trc/Tools/MinGW/include/c++/3.3.1/bits/stl_list.h ****     _List_node<_Tp>* _M_node;
 282:d:/software/ovi_2503a_s3trc/ovi_2503a_s3trc/Tools/MinGW/include/c++/3.3.1/bits/stl_list.h ****   };
 283:d:/software/ovi_2503a_s3trc/ovi_2503a_s3trc/Tools/MinGW/include/c++/3.3.1/bits/stl_list.h ****   
 284:d:/software/ovi_2503a_s3trc/ovi_2503a_s3trc/Tools/MinGW/include/c++/3.3.1/bits/stl_list.h ****   
 285:d:/software/ovi_2503a_s3trc/ovi_2503a_s3trc/Tools/MinGW/include/c++/3.3.1/bits/stl_list.h ****   /**
 286:d:/software/ovi_2503a_s3trc/ovi_2503a_s3trc/Tools/MinGW/include/c++/3.3.1/bits/stl_list.h ****    *  @if maint
 287:d:/software/ovi_2503a_s3trc/ovi_2503a_s3trc/Tools/MinGW/include/c++/3.3.1/bits/stl_list.h ****    *  See bits/stl_deque.h's _Deque_base for an explanation.
 288:d:/software/ovi_2503a_s3trc/ovi_2503a_s3trc/Tools/MinGW/include/c++/3.3.1/bits/stl_list.h ****    *  @endif
 289:d:/software/ovi_2503a_s3trc/ovi_2503a_s3trc/Tools/MinGW/include/c++/3.3.1/bits/stl_list.h ****   */
 290:d:/software/ovi_2503a_s3trc/ovi_2503a_s3trc/Tools/MinGW/include/c++/3.3.1/bits/stl_list.h ****   template <typename _Tp, typename _Alloc>
 291:d:/software/ovi_2503a_s3trc/ovi_2503a_s3trc/Tools/MinGW/include/c++/3.3.1/bits/stl_list.h ****     class _List_base
 292:d:/software/ovi_2503a_s3trc/ovi_2503a_s3trc/Tools/MinGW/include/c++/3.3.1/bits/stl_list.h ****     : public _List_alloc_base<_Tp, _Alloc,
 293:d:/software/ovi_2503a_s3trc/ovi_2503a_s3trc/Tools/MinGW/include/c++/3.3.1/bits/stl_list.h ****                               _Alloc_traits<_Tp, _Alloc>::_S_instanceless>
 294:d:/software/ovi_2503a_s3trc/ovi_2503a_s3trc/Tools/MinGW/include/c++/3.3.1/bits/stl_list.h ****   {
 295:d:/software/ovi_2503a_s3trc/ovi_2503a_s3trc/Tools/MinGW/include/c++/3.3.1/bits/stl_list.h ****   public:
 296:d:/software/ovi_2503a_s3trc/ovi_2503a_s3trc/Tools/MinGW/include/c++/3.3.1/bits/stl_list.h ****     typedef _List_alloc_base<_Tp, _Alloc,
 297:d:/software/ovi_2503a_s3trc/ovi_2503a_s3trc/Tools/MinGW/include/c++/3.3.1/bits/stl_list.h ****                              _Alloc_traits<_Tp, _Alloc>::_S_instanceless>
 298:d:/software/ovi_2503a_s3trc/ovi_2503a_s3trc/Tools/MinGW/include/c++/3.3.1/bits/stl_list.h ****             _Base;
 299:d:/software/ovi_2503a_s3trc/ovi_2503a_s3trc/Tools/MinGW/include/c++/3.3.1/bits/stl_list.h ****     typedef typename _Base::allocator_type allocator_type;
 300:d:/software/ovi_2503a_s3trc/ovi_2503a_s3trc/Tools/MinGW/include/c++/3.3.1/bits/stl_list.h ****   
 301:d:/software/ovi_2503a_s3trc/ovi_2503a_s3trc/Tools/MinGW/include/c++/3.3.1/bits/stl_list.h ****     _List_base(const allocator_type& __a)
 302:d:/software/ovi_2503a_s3trc/ovi_2503a_s3trc/Tools/MinGW/include/c++/3.3.1/bits/stl_list.h ****     : _Base(__a)
 303:d:/software/ovi_2503a_s3trc/ovi_2503a_s3trc/Tools/MinGW/include/c++/3.3.1/bits/stl_list.h ****     {
 304:d:/software/ovi_2503a_s3trc/ovi_2503a_s3trc/Tools/MinGW/include/c++/3.3.1/bits/stl_list.h ****       _M_node = _M_get_node();
 305:d:/software/ovi_2503a_s3trc/ovi_2503a_s3trc/Tools/MinGW/include/c++/3.3.1/bits/stl_list.h ****       _M_node->_M_next = _M_node;
 306:d:/software/ovi_2503a_s3trc/ovi_2503a_s3trc/Tools/MinGW/include/c++/3.3.1/bits/stl_list.h ****       _M_node->_M_prev = _M_node;
 307:d:/software/ovi_2503a_s3trc/ovi_2503a_s3trc/Tools/MinGW/include/c++/3.3.1/bits/stl_list.h ****     }
 308:d:/software/ovi_2503a_s3trc/ovi_2503a_s3trc/Tools/MinGW/include/c++/3.3.1/bits/stl_list.h ****   
 309:d:/software/ovi_2503a_s3trc/ovi_2503a_s3trc/Tools/MinGW/include/c++/3.3.1/bits/stl_list.h ****     // This is what actually destroys the list.
 310:d:/software/ovi_2503a_s3trc/ovi_2503a_s3trc/Tools/MinGW/include/c++/3.3.1/bits/stl_list.h ****     ~_List_base()
 311:d:/software/ovi_2503a_s3trc/ovi_2503a_s3trc/Tools/MinGW/include/c++/3.3.1/bits/stl_list.h ****     {
 312:d:/software/ovi_2503a_s3trc/ovi_2503a_s3trc/Tools/MinGW/include/c++/3.3.1/bits/stl_list.h ****       __clear();
 313:d:/software/ovi_2503a_s3trc/ovi_2503a_s3trc/Tools/MinGW/include/c++/3.3.1/bits/stl_list.h ****       _M_put_node(_M_node);
GAS LISTING d:/software/ovi_2503a_s3trc/ovi_2503a_s3trc/plutommi/Customer/ResGenerator/gcctmp/ccuadaaa.s 			page 78


 314:d:/software/ovi_2503a_s3trc/ovi_2503a_s3trc/Tools/MinGW/include/c++/3.3.1/bits/stl_list.h ****     }
 315:d:/software/ovi_2503a_s3trc/ovi_2503a_s3trc/Tools/MinGW/include/c++/3.3.1/bits/stl_list.h ****   
 316:d:/software/ovi_2503a_s3trc/ovi_2503a_s3trc/Tools/MinGW/include/c++/3.3.1/bits/stl_list.h ****     void
 317:d:/software/ovi_2503a_s3trc/ovi_2503a_s3trc/Tools/MinGW/include/c++/3.3.1/bits/stl_list.h ****     __clear();
 318:d:/software/ovi_2503a_s3trc/ovi_2503a_s3trc/Tools/MinGW/include/c++/3.3.1/bits/stl_list.h ****   };
 319:d:/software/ovi_2503a_s3trc/ovi_2503a_s3trc/Tools/MinGW/include/c++/3.3.1/bits/stl_list.h ****   
 320:d:/software/ovi_2503a_s3trc/ovi_2503a_s3trc/Tools/MinGW/include/c++/3.3.1/bits/stl_list.h ****   
 321:d:/software/ovi_2503a_s3trc/ovi_2503a_s3trc/Tools/MinGW/include/c++/3.3.1/bits/stl_list.h ****   /**
 322:d:/software/ovi_2503a_s3trc/ovi_2503a_s3trc/Tools/MinGW/include/c++/3.3.1/bits/stl_list.h ****    *  @brief  A standard container with linear time access to elements, and
 323:d:/software/ovi_2503a_s3trc/ovi_2503a_s3trc/Tools/MinGW/include/c++/3.3.1/bits/stl_list.h ****    *  fixed time insertion/deletion at any point in the sequence.
 324:d:/software/ovi_2503a_s3trc/ovi_2503a_s3trc/Tools/MinGW/include/c++/3.3.1/bits/stl_list.h ****    *
 325:d:/software/ovi_2503a_s3trc/ovi_2503a_s3trc/Tools/MinGW/include/c++/3.3.1/bits/stl_list.h ****    *  @ingroup Containers
 326:d:/software/ovi_2503a_s3trc/ovi_2503a_s3trc/Tools/MinGW/include/c++/3.3.1/bits/stl_list.h ****    *  @ingroup Sequences
 327:d:/software/ovi_2503a_s3trc/ovi_2503a_s3trc/Tools/MinGW/include/c++/3.3.1/bits/stl_list.h ****    *
 328:d:/software/ovi_2503a_s3trc/ovi_2503a_s3trc/Tools/MinGW/include/c++/3.3.1/bits/stl_list.h ****    *  Meets the requirements of a <a href="tables.html#65">container</a>, a
 329:d:/software/ovi_2503a_s3trc/ovi_2503a_s3trc/Tools/MinGW/include/c++/3.3.1/bits/stl_list.h ****    *  <a href="tables.html#66">reversible container</a>, and a
 330:d:/software/ovi_2503a_s3trc/ovi_2503a_s3trc/Tools/MinGW/include/c++/3.3.1/bits/stl_list.h ****    *  <a href="tables.html#67">sequence</a>, including the
 331:d:/software/ovi_2503a_s3trc/ovi_2503a_s3trc/Tools/MinGW/include/c++/3.3.1/bits/stl_list.h ****    *  <a href="tables.html#68">optional sequence requirements</a> with the
 332:d:/software/ovi_2503a_s3trc/ovi_2503a_s3trc/Tools/MinGW/include/c++/3.3.1/bits/stl_list.h ****    *  %exception of @c at and @c operator[].
 333:d:/software/ovi_2503a_s3trc/ovi_2503a_s3trc/Tools/MinGW/include/c++/3.3.1/bits/stl_list.h ****    *
 334:d:/software/ovi_2503a_s3trc/ovi_2503a_s3trc/Tools/MinGW/include/c++/3.3.1/bits/stl_list.h ****    *  This is a @e doubly @e linked %list.  Traversal up and down the %list
 335:d:/software/ovi_2503a_s3trc/ovi_2503a_s3trc/Tools/MinGW/include/c++/3.3.1/bits/stl_list.h ****    *  requires linear time, but adding and removing elements (or @e nodes) is
 336:d:/software/ovi_2503a_s3trc/ovi_2503a_s3trc/Tools/MinGW/include/c++/3.3.1/bits/stl_list.h ****    *  done in constant time, regardless of where the change takes place.
 337:d:/software/ovi_2503a_s3trc/ovi_2503a_s3trc/Tools/MinGW/include/c++/3.3.1/bits/stl_list.h ****    *  Unlike std::vector and std::deque, random-access iterators are not
 338:d:/software/ovi_2503a_s3trc/ovi_2503a_s3trc/Tools/MinGW/include/c++/3.3.1/bits/stl_list.h ****    *  provided, so subscripting ( @c [] ) access is not allowed.  For algorithms
 339:d:/software/ovi_2503a_s3trc/ovi_2503a_s3trc/Tools/MinGW/include/c++/3.3.1/bits/stl_list.h ****    *  which only need sequential access, this lack makes no difference.
 340:d:/software/ovi_2503a_s3trc/ovi_2503a_s3trc/Tools/MinGW/include/c++/3.3.1/bits/stl_list.h ****    *
 341:d:/software/ovi_2503a_s3trc/ovi_2503a_s3trc/Tools/MinGW/include/c++/3.3.1/bits/stl_list.h ****    *  Also unlike the other standard containers, std::list provides specialized 
 342:d:/software/ovi_2503a_s3trc/ovi_2503a_s3trc/Tools/MinGW/include/c++/3.3.1/bits/stl_list.h ****    *  algorithms %unique to linked lists, such as splicing, sorting, and
 343:d:/software/ovi_2503a_s3trc/ovi_2503a_s3trc/Tools/MinGW/include/c++/3.3.1/bits/stl_list.h ****    *  in-place reversal.
 344:d:/software/ovi_2503a_s3trc/ovi_2503a_s3trc/Tools/MinGW/include/c++/3.3.1/bits/stl_list.h ****    *
 345:d:/software/ovi_2503a_s3trc/ovi_2503a_s3trc/Tools/MinGW/include/c++/3.3.1/bits/stl_list.h ****    *  @if maint
 346:d:/software/ovi_2503a_s3trc/ovi_2503a_s3trc/Tools/MinGW/include/c++/3.3.1/bits/stl_list.h ****    *  A couple points on memory allocation for list<Tp>:
 347:d:/software/ovi_2503a_s3trc/ovi_2503a_s3trc/Tools/MinGW/include/c++/3.3.1/bits/stl_list.h ****    *
 348:d:/software/ovi_2503a_s3trc/ovi_2503a_s3trc/Tools/MinGW/include/c++/3.3.1/bits/stl_list.h ****    *  First, we never actually allocate a Tp, we allocate List_node<Tp>'s
 349:d:/software/ovi_2503a_s3trc/ovi_2503a_s3trc/Tools/MinGW/include/c++/3.3.1/bits/stl_list.h ****    *  and trust [20.1.5]/4 to DTRT.  This is to ensure that after elements from
 350:d:/software/ovi_2503a_s3trc/ovi_2503a_s3trc/Tools/MinGW/include/c++/3.3.1/bits/stl_list.h ****    *  %list<X,Alloc1> are spliced into %list<X,Alloc2>, destroying the memory of
 351:d:/software/ovi_2503a_s3trc/ovi_2503a_s3trc/Tools/MinGW/include/c++/3.3.1/bits/stl_list.h ****    *  the second %list is a valid operation, i.e., Alloc1 giveth and Alloc2
 352:d:/software/ovi_2503a_s3trc/ovi_2503a_s3trc/Tools/MinGW/include/c++/3.3.1/bits/stl_list.h ****    *  taketh away.
 353:d:/software/ovi_2503a_s3trc/ovi_2503a_s3trc/Tools/MinGW/include/c++/3.3.1/bits/stl_list.h ****    *
 354:d:/software/ovi_2503a_s3trc/ovi_2503a_s3trc/Tools/MinGW/include/c++/3.3.1/bits/stl_list.h ****    *  Second, a %list conceptually represented as
 355:d:/software/ovi_2503a_s3trc/ovi_2503a_s3trc/Tools/MinGW/include/c++/3.3.1/bits/stl_list.h ****    *  @code
 356:d:/software/ovi_2503a_s3trc/ovi_2503a_s3trc/Tools/MinGW/include/c++/3.3.1/bits/stl_list.h ****    *    A <---> B <---> C <---> D
 357:d:/software/ovi_2503a_s3trc/ovi_2503a_s3trc/Tools/MinGW/include/c++/3.3.1/bits/stl_list.h ****    *  @endcode
 358:d:/software/ovi_2503a_s3trc/ovi_2503a_s3trc/Tools/MinGW/include/c++/3.3.1/bits/stl_list.h ****    *  is actually circular; a link exists between A and D.  The %list class
 359:d:/software/ovi_2503a_s3trc/ovi_2503a_s3trc/Tools/MinGW/include/c++/3.3.1/bits/stl_list.h ****    *  holds (as its only data member) a private list::iterator pointing to
 360:d:/software/ovi_2503a_s3trc/ovi_2503a_s3trc/Tools/MinGW/include/c++/3.3.1/bits/stl_list.h ****    *  @e D, not to @e A!  To get to the head of the %list, we start at the tail
 361:d:/software/ovi_2503a_s3trc/ovi_2503a_s3trc/Tools/MinGW/include/c++/3.3.1/bits/stl_list.h ****    *  and move forward by one.  When this member iterator's next/previous
 362:d:/software/ovi_2503a_s3trc/ovi_2503a_s3trc/Tools/MinGW/include/c++/3.3.1/bits/stl_list.h ****    *  pointers refer to itself, the %list is %empty.
 363:d:/software/ovi_2503a_s3trc/ovi_2503a_s3trc/Tools/MinGW/include/c++/3.3.1/bits/stl_list.h ****    *  @endif
 364:d:/software/ovi_2503a_s3trc/ovi_2503a_s3trc/Tools/MinGW/include/c++/3.3.1/bits/stl_list.h ****   */
 365:d:/software/ovi_2503a_s3trc/ovi_2503a_s3trc/Tools/MinGW/include/c++/3.3.1/bits/stl_list.h ****   template<typename _Tp, typename _Alloc = allocator<_Tp> >
 366:d:/software/ovi_2503a_s3trc/ovi_2503a_s3trc/Tools/MinGW/include/c++/3.3.1/bits/stl_list.h ****     class list : protected _List_base<_Tp, _Alloc>
 367:d:/software/ovi_2503a_s3trc/ovi_2503a_s3trc/Tools/MinGW/include/c++/3.3.1/bits/stl_list.h ****   {
 368:d:/software/ovi_2503a_s3trc/ovi_2503a_s3trc/Tools/MinGW/include/c++/3.3.1/bits/stl_list.h ****     // concept requirements
 369:d:/software/ovi_2503a_s3trc/ovi_2503a_s3trc/Tools/MinGW/include/c++/3.3.1/bits/stl_list.h ****     __glibcpp_class_requires(_Tp, _SGIAssignableConcept)
 370:d:/software/ovi_2503a_s3trc/ovi_2503a_s3trc/Tools/MinGW/include/c++/3.3.1/bits/stl_list.h ****   
GAS LISTING d:/software/ovi_2503a_s3trc/ovi_2503a_s3trc/plutommi/Customer/ResGenerator/gcctmp/ccuadaaa.s 			page 79


 371:d:/software/ovi_2503a_s3trc/ovi_2503a_s3trc/Tools/MinGW/include/c++/3.3.1/bits/stl_list.h ****     typedef _List_base<_Tp, _Alloc>                       _Base;
 372:d:/software/ovi_2503a_s3trc/ovi_2503a_s3trc/Tools/MinGW/include/c++/3.3.1/bits/stl_list.h ****   
 373:d:/software/ovi_2503a_s3trc/ovi_2503a_s3trc/Tools/MinGW/include/c++/3.3.1/bits/stl_list.h ****   public:
 374:d:/software/ovi_2503a_s3trc/ovi_2503a_s3trc/Tools/MinGW/include/c++/3.3.1/bits/stl_list.h ****     typedef _Tp                                           value_type;
 375:d:/software/ovi_2503a_s3trc/ovi_2503a_s3trc/Tools/MinGW/include/c++/3.3.1/bits/stl_list.h ****     typedef value_type*                                   pointer;
 376:d:/software/ovi_2503a_s3trc/ovi_2503a_s3trc/Tools/MinGW/include/c++/3.3.1/bits/stl_list.h ****     typedef const value_type*                             const_pointer;
 377:d:/software/ovi_2503a_s3trc/ovi_2503a_s3trc/Tools/MinGW/include/c++/3.3.1/bits/stl_list.h ****     typedef _List_iterator<_Tp,_Tp&,_Tp*>                 iterator;
 378:d:/software/ovi_2503a_s3trc/ovi_2503a_s3trc/Tools/MinGW/include/c++/3.3.1/bits/stl_list.h ****     typedef _List_iterator<_Tp,const _Tp&,const _Tp*>     const_iterator;
 379:d:/software/ovi_2503a_s3trc/ovi_2503a_s3trc/Tools/MinGW/include/c++/3.3.1/bits/stl_list.h ****     typedef std::reverse_iterator<const_iterator>     const_reverse_iterator;
 380:d:/software/ovi_2503a_s3trc/ovi_2503a_s3trc/Tools/MinGW/include/c++/3.3.1/bits/stl_list.h ****     typedef std::reverse_iterator<iterator>                 reverse_iterator;
 381:d:/software/ovi_2503a_s3trc/ovi_2503a_s3trc/Tools/MinGW/include/c++/3.3.1/bits/stl_list.h ****     typedef value_type&                                   reference;
 382:d:/software/ovi_2503a_s3trc/ovi_2503a_s3trc/Tools/MinGW/include/c++/3.3.1/bits/stl_list.h ****     typedef const value_type&                             const_reference;
 383:d:/software/ovi_2503a_s3trc/ovi_2503a_s3trc/Tools/MinGW/include/c++/3.3.1/bits/stl_list.h ****     typedef size_t                                        size_type;
 384:d:/software/ovi_2503a_s3trc/ovi_2503a_s3trc/Tools/MinGW/include/c++/3.3.1/bits/stl_list.h ****     typedef ptrdiff_t                                     difference_type;
 385:d:/software/ovi_2503a_s3trc/ovi_2503a_s3trc/Tools/MinGW/include/c++/3.3.1/bits/stl_list.h ****     typedef typename _Base::allocator_type                allocator_type;
 386:d:/software/ovi_2503a_s3trc/ovi_2503a_s3trc/Tools/MinGW/include/c++/3.3.1/bits/stl_list.h ****   
 387:d:/software/ovi_2503a_s3trc/ovi_2503a_s3trc/Tools/MinGW/include/c++/3.3.1/bits/stl_list.h ****   protected:
 388:d:/software/ovi_2503a_s3trc/ovi_2503a_s3trc/Tools/MinGW/include/c++/3.3.1/bits/stl_list.h ****     // Note that pointers-to-_Node's can be ctor-converted to iterator types.
 389:d:/software/ovi_2503a_s3trc/ovi_2503a_s3trc/Tools/MinGW/include/c++/3.3.1/bits/stl_list.h ****     typedef _List_node<_Tp>                               _Node;
 390:d:/software/ovi_2503a_s3trc/ovi_2503a_s3trc/Tools/MinGW/include/c++/3.3.1/bits/stl_list.h ****   
 391:d:/software/ovi_2503a_s3trc/ovi_2503a_s3trc/Tools/MinGW/include/c++/3.3.1/bits/stl_list.h ****     /** @if maint
 392:d:/software/ovi_2503a_s3trc/ovi_2503a_s3trc/Tools/MinGW/include/c++/3.3.1/bits/stl_list.h ****      *  One data member plus two memory-handling functions.  If the _Alloc
 393:d:/software/ovi_2503a_s3trc/ovi_2503a_s3trc/Tools/MinGW/include/c++/3.3.1/bits/stl_list.h ****      *  type requires separate instances, then one of those will also be
 394:d:/software/ovi_2503a_s3trc/ovi_2503a_s3trc/Tools/MinGW/include/c++/3.3.1/bits/stl_list.h ****      *  included, accumulated from the topmost parent.
 395:d:/software/ovi_2503a_s3trc/ovi_2503a_s3trc/Tools/MinGW/include/c++/3.3.1/bits/stl_list.h ****      *  @endif
 396:d:/software/ovi_2503a_s3trc/ovi_2503a_s3trc/Tools/MinGW/include/c++/3.3.1/bits/stl_list.h ****     */
 397:d:/software/ovi_2503a_s3trc/ovi_2503a_s3trc/Tools/MinGW/include/c++/3.3.1/bits/stl_list.h ****     using _Base::_M_node;
 398:d:/software/ovi_2503a_s3trc/ovi_2503a_s3trc/Tools/MinGW/include/c++/3.3.1/bits/stl_list.h ****     using _Base::_M_put_node;
 399:d:/software/ovi_2503a_s3trc/ovi_2503a_s3trc/Tools/MinGW/include/c++/3.3.1/bits/stl_list.h ****     using _Base::_M_get_node;
 400:d:/software/ovi_2503a_s3trc/ovi_2503a_s3trc/Tools/MinGW/include/c++/3.3.1/bits/stl_list.h ****   
 401:d:/software/ovi_2503a_s3trc/ovi_2503a_s3trc/Tools/MinGW/include/c++/3.3.1/bits/stl_list.h ****     /**
 402:d:/software/ovi_2503a_s3trc/ovi_2503a_s3trc/Tools/MinGW/include/c++/3.3.1/bits/stl_list.h ****      *  @if maint
 403:d:/software/ovi_2503a_s3trc/ovi_2503a_s3trc/Tools/MinGW/include/c++/3.3.1/bits/stl_list.h ****      *  @param  x  An instance of user data.
 404:d:/software/ovi_2503a_s3trc/ovi_2503a_s3trc/Tools/MinGW/include/c++/3.3.1/bits/stl_list.h ****      *
 405:d:/software/ovi_2503a_s3trc/ovi_2503a_s3trc/Tools/MinGW/include/c++/3.3.1/bits/stl_list.h ****      *  Allocates space for a new node and constructs a copy of @a x in it.
 406:d:/software/ovi_2503a_s3trc/ovi_2503a_s3trc/Tools/MinGW/include/c++/3.3.1/bits/stl_list.h ****      *  @endif
 407:d:/software/ovi_2503a_s3trc/ovi_2503a_s3trc/Tools/MinGW/include/c++/3.3.1/bits/stl_list.h ****     */
 408:d:/software/ovi_2503a_s3trc/ovi_2503a_s3trc/Tools/MinGW/include/c++/3.3.1/bits/stl_list.h ****     _Node*
 409:d:/software/ovi_2503a_s3trc/ovi_2503a_s3trc/Tools/MinGW/include/c++/3.3.1/bits/stl_list.h ****     _M_create_node(const value_type& __x)
 410:d:/software/ovi_2503a_s3trc/ovi_2503a_s3trc/Tools/MinGW/include/c++/3.3.1/bits/stl_list.h ****     {
 411:d:/software/ovi_2503a_s3trc/ovi_2503a_s3trc/Tools/MinGW/include/c++/3.3.1/bits/stl_list.h ****       _Node* __p = _M_get_node();
 412:d:/software/ovi_2503a_s3trc/ovi_2503a_s3trc/Tools/MinGW/include/c++/3.3.1/bits/stl_list.h ****       try {
 413:d:/software/ovi_2503a_s3trc/ovi_2503a_s3trc/Tools/MinGW/include/c++/3.3.1/bits/stl_list.h ****         _Construct(&__p->_M_data, __x);
 414:d:/software/ovi_2503a_s3trc/ovi_2503a_s3trc/Tools/MinGW/include/c++/3.3.1/bits/stl_list.h ****       }
 415:d:/software/ovi_2503a_s3trc/ovi_2503a_s3trc/Tools/MinGW/include/c++/3.3.1/bits/stl_list.h ****       catch(...)
 416:d:/software/ovi_2503a_s3trc/ovi_2503a_s3trc/Tools/MinGW/include/c++/3.3.1/bits/stl_list.h ****       {
 417:d:/software/ovi_2503a_s3trc/ovi_2503a_s3trc/Tools/MinGW/include/c++/3.3.1/bits/stl_list.h ****         _M_put_node(__p);
 418:d:/software/ovi_2503a_s3trc/ovi_2503a_s3trc/Tools/MinGW/include/c++/3.3.1/bits/stl_list.h ****         __throw_exception_again;
 419:d:/software/ovi_2503a_s3trc/ovi_2503a_s3trc/Tools/MinGW/include/c++/3.3.1/bits/stl_list.h ****       }
 420:d:/software/ovi_2503a_s3trc/ovi_2503a_s3trc/Tools/MinGW/include/c++/3.3.1/bits/stl_list.h ****       return __p;
 421:d:/software/ovi_2503a_s3trc/ovi_2503a_s3trc/Tools/MinGW/include/c++/3.3.1/bits/stl_list.h ****     }
 422:d:/software/ovi_2503a_s3trc/ovi_2503a_s3trc/Tools/MinGW/include/c++/3.3.1/bits/stl_list.h ****   
 423:d:/software/ovi_2503a_s3trc/ovi_2503a_s3trc/Tools/MinGW/include/c++/3.3.1/bits/stl_list.h ****     /**
 424:d:/software/ovi_2503a_s3trc/ovi_2503a_s3trc/Tools/MinGW/include/c++/3.3.1/bits/stl_list.h ****      *  @if maint
 425:d:/software/ovi_2503a_s3trc/ovi_2503a_s3trc/Tools/MinGW/include/c++/3.3.1/bits/stl_list.h ****      *  Allocates space for a new node and default-constructs a new instance
 426:d:/software/ovi_2503a_s3trc/ovi_2503a_s3trc/Tools/MinGW/include/c++/3.3.1/bits/stl_list.h ****      *  of @c value_type in it.
 427:d:/software/ovi_2503a_s3trc/ovi_2503a_s3trc/Tools/MinGW/include/c++/3.3.1/bits/stl_list.h ****      *  @endif
GAS LISTING d:/software/ovi_2503a_s3trc/ovi_2503a_s3trc/plutommi/Customer/ResGenerator/gcctmp/ccuadaaa.s 			page 80


 428:d:/software/ovi_2503a_s3trc/ovi_2503a_s3trc/Tools/MinGW/include/c++/3.3.1/bits/stl_list.h ****     */
 429:d:/software/ovi_2503a_s3trc/ovi_2503a_s3trc/Tools/MinGW/include/c++/3.3.1/bits/stl_list.h ****     _Node*
 430:d:/software/ovi_2503a_s3trc/ovi_2503a_s3trc/Tools/MinGW/include/c++/3.3.1/bits/stl_list.h ****     _M_create_node()
 431:d:/software/ovi_2503a_s3trc/ovi_2503a_s3trc/Tools/MinGW/include/c++/3.3.1/bits/stl_list.h ****     {
 432:d:/software/ovi_2503a_s3trc/ovi_2503a_s3trc/Tools/MinGW/include/c++/3.3.1/bits/stl_list.h ****       _Node* __p = _M_get_node();
 433:d:/software/ovi_2503a_s3trc/ovi_2503a_s3trc/Tools/MinGW/include/c++/3.3.1/bits/stl_list.h ****       try {
 434:d:/software/ovi_2503a_s3trc/ovi_2503a_s3trc/Tools/MinGW/include/c++/3.3.1/bits/stl_list.h ****         _Construct(&__p->_M_data);
 435:d:/software/ovi_2503a_s3trc/ovi_2503a_s3trc/Tools/MinGW/include/c++/3.3.1/bits/stl_list.h ****       }
 436:d:/software/ovi_2503a_s3trc/ovi_2503a_s3trc/Tools/MinGW/include/c++/3.3.1/bits/stl_list.h ****       catch(...)
 437:d:/software/ovi_2503a_s3trc/ovi_2503a_s3trc/Tools/MinGW/include/c++/3.3.1/bits/stl_list.h ****       {
 438:d:/software/ovi_2503a_s3trc/ovi_2503a_s3trc/Tools/MinGW/include/c++/3.3.1/bits/stl_list.h ****         _M_put_node(__p);
 439:d:/software/ovi_2503a_s3trc/ovi_2503a_s3trc/Tools/MinGW/include/c++/3.3.1/bits/stl_list.h ****         __throw_exception_again;
 440:d:/software/ovi_2503a_s3trc/ovi_2503a_s3trc/Tools/MinGW/include/c++/3.3.1/bits/stl_list.h ****       }
 441:d:/software/ovi_2503a_s3trc/ovi_2503a_s3trc/Tools/MinGW/include/c++/3.3.1/bits/stl_list.h ****       return __p;
 442:d:/software/ovi_2503a_s3trc/ovi_2503a_s3trc/Tools/MinGW/include/c++/3.3.1/bits/stl_list.h ****     }
 443:d:/software/ovi_2503a_s3trc/ovi_2503a_s3trc/Tools/MinGW/include/c++/3.3.1/bits/stl_list.h ****   
 444:d:/software/ovi_2503a_s3trc/ovi_2503a_s3trc/Tools/MinGW/include/c++/3.3.1/bits/stl_list.h ****   public:
 445:d:/software/ovi_2503a_s3trc/ovi_2503a_s3trc/Tools/MinGW/include/c++/3.3.1/bits/stl_list.h ****     // [23.2.2.1] construct/copy/destroy
 446:d:/software/ovi_2503a_s3trc/ovi_2503a_s3trc/Tools/MinGW/include/c++/3.3.1/bits/stl_list.h ****     // (assign() and get_allocator() are also listed in this section)
 447:d:/software/ovi_2503a_s3trc/ovi_2503a_s3trc/Tools/MinGW/include/c++/3.3.1/bits/stl_list.h ****     /**
 448:d:/software/ovi_2503a_s3trc/ovi_2503a_s3trc/Tools/MinGW/include/c++/3.3.1/bits/stl_list.h ****      *  @brief  Default constructor creates no elements.
 449:d:/software/ovi_2503a_s3trc/ovi_2503a_s3trc/Tools/MinGW/include/c++/3.3.1/bits/stl_list.h ****     */
 450:d:/software/ovi_2503a_s3trc/ovi_2503a_s3trc/Tools/MinGW/include/c++/3.3.1/bits/stl_list.h ****     explicit
 451:d:/software/ovi_2503a_s3trc/ovi_2503a_s3trc/Tools/MinGW/include/c++/3.3.1/bits/stl_list.h ****     list(const allocator_type& __a = allocator_type())
 452:d:/software/ovi_2503a_s3trc/ovi_2503a_s3trc/Tools/MinGW/include/c++/3.3.1/bits/stl_list.h ****     : _Base(__a) { }
 453:d:/software/ovi_2503a_s3trc/ovi_2503a_s3trc/Tools/MinGW/include/c++/3.3.1/bits/stl_list.h ****   
 454:d:/software/ovi_2503a_s3trc/ovi_2503a_s3trc/Tools/MinGW/include/c++/3.3.1/bits/stl_list.h ****     /**
 455:d:/software/ovi_2503a_s3trc/ovi_2503a_s3trc/Tools/MinGW/include/c++/3.3.1/bits/stl_list.h ****      *  @brief  Create a %list with copies of an exemplar element.
 456:d:/software/ovi_2503a_s3trc/ovi_2503a_s3trc/Tools/MinGW/include/c++/3.3.1/bits/stl_list.h ****      *  @param  n  The number of elements to initially create.
 457:d:/software/ovi_2503a_s3trc/ovi_2503a_s3trc/Tools/MinGW/include/c++/3.3.1/bits/stl_list.h ****      *  @param  value  An element to copy.
 458:d:/software/ovi_2503a_s3trc/ovi_2503a_s3trc/Tools/MinGW/include/c++/3.3.1/bits/stl_list.h ****      * 
 459:d:/software/ovi_2503a_s3trc/ovi_2503a_s3trc/Tools/MinGW/include/c++/3.3.1/bits/stl_list.h ****      *  This constructor fills the %list with @a n copies of @a value.
 460:d:/software/ovi_2503a_s3trc/ovi_2503a_s3trc/Tools/MinGW/include/c++/3.3.1/bits/stl_list.h ****     */
 461:d:/software/ovi_2503a_s3trc/ovi_2503a_s3trc/Tools/MinGW/include/c++/3.3.1/bits/stl_list.h ****     list(size_type __n, const value_type& __value,
 462:d:/software/ovi_2503a_s3trc/ovi_2503a_s3trc/Tools/MinGW/include/c++/3.3.1/bits/stl_list.h ****          const allocator_type& __a = allocator_type())
 463:d:/software/ovi_2503a_s3trc/ovi_2503a_s3trc/Tools/MinGW/include/c++/3.3.1/bits/stl_list.h ****       : _Base(__a)
 464:d:/software/ovi_2503a_s3trc/ovi_2503a_s3trc/Tools/MinGW/include/c++/3.3.1/bits/stl_list.h ****       { this->insert(begin(), __n, __value); }
 465:d:/software/ovi_2503a_s3trc/ovi_2503a_s3trc/Tools/MinGW/include/c++/3.3.1/bits/stl_list.h ****   
 466:d:/software/ovi_2503a_s3trc/ovi_2503a_s3trc/Tools/MinGW/include/c++/3.3.1/bits/stl_list.h ****     /**
 467:d:/software/ovi_2503a_s3trc/ovi_2503a_s3trc/Tools/MinGW/include/c++/3.3.1/bits/stl_list.h ****      *  @brief  Create a %list with default elements.
 468:d:/software/ovi_2503a_s3trc/ovi_2503a_s3trc/Tools/MinGW/include/c++/3.3.1/bits/stl_list.h ****      *  @param  n  The number of elements to initially create.
 469:d:/software/ovi_2503a_s3trc/ovi_2503a_s3trc/Tools/MinGW/include/c++/3.3.1/bits/stl_list.h ****      * 
 470:d:/software/ovi_2503a_s3trc/ovi_2503a_s3trc/Tools/MinGW/include/c++/3.3.1/bits/stl_list.h ****      *  This constructor fills the %list with @a n copies of a
 471:d:/software/ovi_2503a_s3trc/ovi_2503a_s3trc/Tools/MinGW/include/c++/3.3.1/bits/stl_list.h ****      *  default-constructed element.
 472:d:/software/ovi_2503a_s3trc/ovi_2503a_s3trc/Tools/MinGW/include/c++/3.3.1/bits/stl_list.h ****     */
 473:d:/software/ovi_2503a_s3trc/ovi_2503a_s3trc/Tools/MinGW/include/c++/3.3.1/bits/stl_list.h ****     explicit
 474:d:/software/ovi_2503a_s3trc/ovi_2503a_s3trc/Tools/MinGW/include/c++/3.3.1/bits/stl_list.h ****     list(size_type __n)
 475:d:/software/ovi_2503a_s3trc/ovi_2503a_s3trc/Tools/MinGW/include/c++/3.3.1/bits/stl_list.h ****       : _Base(allocator_type())
 476:d:/software/ovi_2503a_s3trc/ovi_2503a_s3trc/Tools/MinGW/include/c++/3.3.1/bits/stl_list.h ****       { this->insert(begin(), __n, value_type()); }
 477:d:/software/ovi_2503a_s3trc/ovi_2503a_s3trc/Tools/MinGW/include/c++/3.3.1/bits/stl_list.h ****   
 478:d:/software/ovi_2503a_s3trc/ovi_2503a_s3trc/Tools/MinGW/include/c++/3.3.1/bits/stl_list.h ****     /**
 479:d:/software/ovi_2503a_s3trc/ovi_2503a_s3trc/Tools/MinGW/include/c++/3.3.1/bits/stl_list.h ****      *  @brief  %List copy constructor.
 480:d:/software/ovi_2503a_s3trc/ovi_2503a_s3trc/Tools/MinGW/include/c++/3.3.1/bits/stl_list.h ****      *  @param  x  A %list of identical element and allocator types.
 481:d:/software/ovi_2503a_s3trc/ovi_2503a_s3trc/Tools/MinGW/include/c++/3.3.1/bits/stl_list.h ****      * 
 482:d:/software/ovi_2503a_s3trc/ovi_2503a_s3trc/Tools/MinGW/include/c++/3.3.1/bits/stl_list.h ****      *  The newly-created %list uses a copy of the allocation object used
 483:d:/software/ovi_2503a_s3trc/ovi_2503a_s3trc/Tools/MinGW/include/c++/3.3.1/bits/stl_list.h ****      *  by @a x.
 484:d:/software/ovi_2503a_s3trc/ovi_2503a_s3trc/Tools/MinGW/include/c++/3.3.1/bits/stl_list.h ****     */
GAS LISTING d:/software/ovi_2503a_s3trc/ovi_2503a_s3trc/plutommi/Customer/ResGenerator/gcctmp/ccuadaaa.s 			page 81


 485:d:/software/ovi_2503a_s3trc/ovi_2503a_s3trc/Tools/MinGW/include/c++/3.3.1/bits/stl_list.h ****     list(const list& __x)
 486:d:/software/ovi_2503a_s3trc/ovi_2503a_s3trc/Tools/MinGW/include/c++/3.3.1/bits/stl_list.h ****       : _Base(__x.get_allocator())
 487:d:/software/ovi_2503a_s3trc/ovi_2503a_s3trc/Tools/MinGW/include/c++/3.3.1/bits/stl_list.h ****       { this->insert(begin(), __x.begin(), __x.end()); }
 488:d:/software/ovi_2503a_s3trc/ovi_2503a_s3trc/Tools/MinGW/include/c++/3.3.1/bits/stl_list.h ****   
 489:d:/software/ovi_2503a_s3trc/ovi_2503a_s3trc/Tools/MinGW/include/c++/3.3.1/bits/stl_list.h ****     /**
 490:d:/software/ovi_2503a_s3trc/ovi_2503a_s3trc/Tools/MinGW/include/c++/3.3.1/bits/stl_list.h ****      *  @brief  Builds a %list from a range.
 491:d:/software/ovi_2503a_s3trc/ovi_2503a_s3trc/Tools/MinGW/include/c++/3.3.1/bits/stl_list.h ****      *  @param  first  An input iterator.
 492:d:/software/ovi_2503a_s3trc/ovi_2503a_s3trc/Tools/MinGW/include/c++/3.3.1/bits/stl_list.h ****      *  @param  last  An input iterator.
 493:d:/software/ovi_2503a_s3trc/ovi_2503a_s3trc/Tools/MinGW/include/c++/3.3.1/bits/stl_list.h ****      * 
 494:d:/software/ovi_2503a_s3trc/ovi_2503a_s3trc/Tools/MinGW/include/c++/3.3.1/bits/stl_list.h ****      *  Create a %list consisting of copies of the elements from [first,last).
 495:d:/software/ovi_2503a_s3trc/ovi_2503a_s3trc/Tools/MinGW/include/c++/3.3.1/bits/stl_list.h ****      *  This is linear in N (where N is distance(first,last)).
 496:d:/software/ovi_2503a_s3trc/ovi_2503a_s3trc/Tools/MinGW/include/c++/3.3.1/bits/stl_list.h ****      *
 497:d:/software/ovi_2503a_s3trc/ovi_2503a_s3trc/Tools/MinGW/include/c++/3.3.1/bits/stl_list.h ****      *  @if maint
 498:d:/software/ovi_2503a_s3trc/ovi_2503a_s3trc/Tools/MinGW/include/c++/3.3.1/bits/stl_list.h ****      *  We don't need any dispatching tricks here, because insert does all of
 499:d:/software/ovi_2503a_s3trc/ovi_2503a_s3trc/Tools/MinGW/include/c++/3.3.1/bits/stl_list.h ****      *  that anyway.
 500:d:/software/ovi_2503a_s3trc/ovi_2503a_s3trc/Tools/MinGW/include/c++/3.3.1/bits/stl_list.h ****      *  @endif
 501:d:/software/ovi_2503a_s3trc/ovi_2503a_s3trc/Tools/MinGW/include/c++/3.3.1/bits/stl_list.h ****     */
 502:d:/software/ovi_2503a_s3trc/ovi_2503a_s3trc/Tools/MinGW/include/c++/3.3.1/bits/stl_list.h ****     template<typename _InputIterator>
 503:d:/software/ovi_2503a_s3trc/ovi_2503a_s3trc/Tools/MinGW/include/c++/3.3.1/bits/stl_list.h ****       list(_InputIterator __first, _InputIterator __last,
 504:d:/software/ovi_2503a_s3trc/ovi_2503a_s3trc/Tools/MinGW/include/c++/3.3.1/bits/stl_list.h ****            const allocator_type& __a = allocator_type())
 505:d:/software/ovi_2503a_s3trc/ovi_2503a_s3trc/Tools/MinGW/include/c++/3.3.1/bits/stl_list.h ****       : _Base(__a)
 506:d:/software/ovi_2503a_s3trc/ovi_2503a_s3trc/Tools/MinGW/include/c++/3.3.1/bits/stl_list.h ****       { this->insert(begin(), __first, __last); }
 507:d:/software/ovi_2503a_s3trc/ovi_2503a_s3trc/Tools/MinGW/include/c++/3.3.1/bits/stl_list.h ****   
 508:d:/software/ovi_2503a_s3trc/ovi_2503a_s3trc/Tools/MinGW/include/c++/3.3.1/bits/stl_list.h ****     /**
 509:d:/software/ovi_2503a_s3trc/ovi_2503a_s3trc/Tools/MinGW/include/c++/3.3.1/bits/stl_list.h ****      *  The dtor only erases the elements, and note that if the elements
 510:d:/software/ovi_2503a_s3trc/ovi_2503a_s3trc/Tools/MinGW/include/c++/3.3.1/bits/stl_list.h ****      *  themselves are pointers, the pointed-to memory is not touched in any
 511:d:/software/ovi_2503a_s3trc/ovi_2503a_s3trc/Tools/MinGW/include/c++/3.3.1/bits/stl_list.h ****      *  way.  Managing the pointer is the user's responsibilty.
 512:d:/software/ovi_2503a_s3trc/ovi_2503a_s3trc/Tools/MinGW/include/c++/3.3.1/bits/stl_list.h ****     */
 513:d:/software/ovi_2503a_s3trc/ovi_2503a_s3trc/Tools/MinGW/include/c++/3.3.1/bits/stl_list.h ****     ~list() { }
 514:d:/software/ovi_2503a_s3trc/ovi_2503a_s3trc/Tools/MinGW/include/c++/3.3.1/bits/stl_list.h ****   
 515:d:/software/ovi_2503a_s3trc/ovi_2503a_s3trc/Tools/MinGW/include/c++/3.3.1/bits/stl_list.h ****     /**
 516:d:/software/ovi_2503a_s3trc/ovi_2503a_s3trc/Tools/MinGW/include/c++/3.3.1/bits/stl_list.h ****      *  @brief  %List assignment operator.
 517:d:/software/ovi_2503a_s3trc/ovi_2503a_s3trc/Tools/MinGW/include/c++/3.3.1/bits/stl_list.h ****      *  @param  x  A %list of identical element and allocator types.
 518:d:/software/ovi_2503a_s3trc/ovi_2503a_s3trc/Tools/MinGW/include/c++/3.3.1/bits/stl_list.h ****      * 
 519:d:/software/ovi_2503a_s3trc/ovi_2503a_s3trc/Tools/MinGW/include/c++/3.3.1/bits/stl_list.h ****      *  All the elements of @a x are copied, but unlike the copy constructor,
 520:d:/software/ovi_2503a_s3trc/ovi_2503a_s3trc/Tools/MinGW/include/c++/3.3.1/bits/stl_list.h ****      *  the allocator object is not copied.
 521:d:/software/ovi_2503a_s3trc/ovi_2503a_s3trc/Tools/MinGW/include/c++/3.3.1/bits/stl_list.h ****     */
 522:d:/software/ovi_2503a_s3trc/ovi_2503a_s3trc/Tools/MinGW/include/c++/3.3.1/bits/stl_list.h ****     list&
 523:d:/software/ovi_2503a_s3trc/ovi_2503a_s3trc/Tools/MinGW/include/c++/3.3.1/bits/stl_list.h ****     operator=(const list& __x);
 524:d:/software/ovi_2503a_s3trc/ovi_2503a_s3trc/Tools/MinGW/include/c++/3.3.1/bits/stl_list.h ****   
 525:d:/software/ovi_2503a_s3trc/ovi_2503a_s3trc/Tools/MinGW/include/c++/3.3.1/bits/stl_list.h ****     /**
 526:d:/software/ovi_2503a_s3trc/ovi_2503a_s3trc/Tools/MinGW/include/c++/3.3.1/bits/stl_list.h ****      *  @brief  Assigns a given value to a %list.
 527:d:/software/ovi_2503a_s3trc/ovi_2503a_s3trc/Tools/MinGW/include/c++/3.3.1/bits/stl_list.h ****      *  @param  n  Number of elements to be assigned.
 528:d:/software/ovi_2503a_s3trc/ovi_2503a_s3trc/Tools/MinGW/include/c++/3.3.1/bits/stl_list.h ****      *  @param  val  Value to be assigned.
 529:d:/software/ovi_2503a_s3trc/ovi_2503a_s3trc/Tools/MinGW/include/c++/3.3.1/bits/stl_list.h ****      *
 530:d:/software/ovi_2503a_s3trc/ovi_2503a_s3trc/Tools/MinGW/include/c++/3.3.1/bits/stl_list.h ****      *  This function fills a %list with @a n copies of the given value.
 531:d:/software/ovi_2503a_s3trc/ovi_2503a_s3trc/Tools/MinGW/include/c++/3.3.1/bits/stl_list.h ****      *  Note that the assignment completely changes the %list and that the
 532:d:/software/ovi_2503a_s3trc/ovi_2503a_s3trc/Tools/MinGW/include/c++/3.3.1/bits/stl_list.h ****      *  resulting %list's size is the same as the number of elements assigned.
 533:d:/software/ovi_2503a_s3trc/ovi_2503a_s3trc/Tools/MinGW/include/c++/3.3.1/bits/stl_list.h ****      *  Old data may be lost.
 534:d:/software/ovi_2503a_s3trc/ovi_2503a_s3trc/Tools/MinGW/include/c++/3.3.1/bits/stl_list.h ****     */
 535:d:/software/ovi_2503a_s3trc/ovi_2503a_s3trc/Tools/MinGW/include/c++/3.3.1/bits/stl_list.h ****     void
 536:d:/software/ovi_2503a_s3trc/ovi_2503a_s3trc/Tools/MinGW/include/c++/3.3.1/bits/stl_list.h ****     assign(size_type __n, const value_type& __val) { _M_fill_assign(__n, __val); }
 537:d:/software/ovi_2503a_s3trc/ovi_2503a_s3trc/Tools/MinGW/include/c++/3.3.1/bits/stl_list.h ****   
 538:d:/software/ovi_2503a_s3trc/ovi_2503a_s3trc/Tools/MinGW/include/c++/3.3.1/bits/stl_list.h ****     /**
 539:d:/software/ovi_2503a_s3trc/ovi_2503a_s3trc/Tools/MinGW/include/c++/3.3.1/bits/stl_list.h ****      *  @brief  Assigns a range to a %list.
 540:d:/software/ovi_2503a_s3trc/ovi_2503a_s3trc/Tools/MinGW/include/c++/3.3.1/bits/stl_list.h ****      *  @param  first  An input iterator.
 541:d:/software/ovi_2503a_s3trc/ovi_2503a_s3trc/Tools/MinGW/include/c++/3.3.1/bits/stl_list.h ****      *  @param  last   An input iterator.
GAS LISTING d:/software/ovi_2503a_s3trc/ovi_2503a_s3trc/plutommi/Customer/ResGenerator/gcctmp/ccuadaaa.s 			page 82


 542:d:/software/ovi_2503a_s3trc/ovi_2503a_s3trc/Tools/MinGW/include/c++/3.3.1/bits/stl_list.h ****      *
 543:d:/software/ovi_2503a_s3trc/ovi_2503a_s3trc/Tools/MinGW/include/c++/3.3.1/bits/stl_list.h ****      *  This function fills a %list with copies of the elements in the
 544:d:/software/ovi_2503a_s3trc/ovi_2503a_s3trc/Tools/MinGW/include/c++/3.3.1/bits/stl_list.h ****      *  range [first,last).
 545:d:/software/ovi_2503a_s3trc/ovi_2503a_s3trc/Tools/MinGW/include/c++/3.3.1/bits/stl_list.h ****      *
 546:d:/software/ovi_2503a_s3trc/ovi_2503a_s3trc/Tools/MinGW/include/c++/3.3.1/bits/stl_list.h ****      *  Note that the assignment completely changes the %list and that the
 547:d:/software/ovi_2503a_s3trc/ovi_2503a_s3trc/Tools/MinGW/include/c++/3.3.1/bits/stl_list.h ****      *  resulting %list's size is the same as the number of elements assigned.
 548:d:/software/ovi_2503a_s3trc/ovi_2503a_s3trc/Tools/MinGW/include/c++/3.3.1/bits/stl_list.h ****      *  Old data may be lost.
 549:d:/software/ovi_2503a_s3trc/ovi_2503a_s3trc/Tools/MinGW/include/c++/3.3.1/bits/stl_list.h ****     */
 550:d:/software/ovi_2503a_s3trc/ovi_2503a_s3trc/Tools/MinGW/include/c++/3.3.1/bits/stl_list.h ****     template<typename _InputIterator>
 551:d:/software/ovi_2503a_s3trc/ovi_2503a_s3trc/Tools/MinGW/include/c++/3.3.1/bits/stl_list.h ****       void
 552:d:/software/ovi_2503a_s3trc/ovi_2503a_s3trc/Tools/MinGW/include/c++/3.3.1/bits/stl_list.h ****       assign(_InputIterator __first, _InputIterator __last)
 553:d:/software/ovi_2503a_s3trc/ovi_2503a_s3trc/Tools/MinGW/include/c++/3.3.1/bits/stl_list.h ****       {
 554:d:/software/ovi_2503a_s3trc/ovi_2503a_s3trc/Tools/MinGW/include/c++/3.3.1/bits/stl_list.h ****         // Check whether it's an integral type.  If so, it's not an iterator.
 555:d:/software/ovi_2503a_s3trc/ovi_2503a_s3trc/Tools/MinGW/include/c++/3.3.1/bits/stl_list.h ****         typedef typename _Is_integer<_InputIterator>::_Integral _Integral;
 556:d:/software/ovi_2503a_s3trc/ovi_2503a_s3trc/Tools/MinGW/include/c++/3.3.1/bits/stl_list.h ****         _M_assign_dispatch(__first, __last, _Integral());
 557:d:/software/ovi_2503a_s3trc/ovi_2503a_s3trc/Tools/MinGW/include/c++/3.3.1/bits/stl_list.h ****       }
 558:d:/software/ovi_2503a_s3trc/ovi_2503a_s3trc/Tools/MinGW/include/c++/3.3.1/bits/stl_list.h ****   
 559:d:/software/ovi_2503a_s3trc/ovi_2503a_s3trc/Tools/MinGW/include/c++/3.3.1/bits/stl_list.h ****     /// Get a copy of the memory allocation object.
 560:d:/software/ovi_2503a_s3trc/ovi_2503a_s3trc/Tools/MinGW/include/c++/3.3.1/bits/stl_list.h ****     allocator_type
 561:d:/software/ovi_2503a_s3trc/ovi_2503a_s3trc/Tools/MinGW/include/c++/3.3.1/bits/stl_list.h ****     get_allocator() const { return _Base::get_allocator(); }
 562:d:/software/ovi_2503a_s3trc/ovi_2503a_s3trc/Tools/MinGW/include/c++/3.3.1/bits/stl_list.h ****   
 563:d:/software/ovi_2503a_s3trc/ovi_2503a_s3trc/Tools/MinGW/include/c++/3.3.1/bits/stl_list.h ****     // iterators
 564:d:/software/ovi_2503a_s3trc/ovi_2503a_s3trc/Tools/MinGW/include/c++/3.3.1/bits/stl_list.h ****     /**
 565:d:/software/ovi_2503a_s3trc/ovi_2503a_s3trc/Tools/MinGW/include/c++/3.3.1/bits/stl_list.h ****      *  Returns a read/write iterator that points to the first element in the
 566:d:/software/ovi_2503a_s3trc/ovi_2503a_s3trc/Tools/MinGW/include/c++/3.3.1/bits/stl_list.h ****      *  %list.  Iteration is done in ordinary element order.
 567:d:/software/ovi_2503a_s3trc/ovi_2503a_s3trc/Tools/MinGW/include/c++/3.3.1/bits/stl_list.h ****     */
 568:d:/software/ovi_2503a_s3trc/ovi_2503a_s3trc/Tools/MinGW/include/c++/3.3.1/bits/stl_list.h ****     iterator
 569:d:/software/ovi_2503a_s3trc/ovi_2503a_s3trc/Tools/MinGW/include/c++/3.3.1/bits/stl_list.h ****     begin() { return static_cast<_Node*>(_M_node->_M_next); }
 5592              	LM257:
 5593 0000 55       		pushl	%ebp
 5594 0001 89E5     		movl	%esp, %ebp
 5595 0003 53       		pushl	%ebx
 5596 0004 83EC14   		subl	$20, %esp
 5597 0007 8B5D08   		movl	8(%ebp), %ebx
 5599              	LM258:
 5600              	LBB46:
 5601 000a 8B450C   		movl	12(%ebp), %eax
 5602 000d 8B00     		movl	(%eax), %eax
 5603 000f 8B00     		movl	(%eax), %eax
 5604 0011 89442404 		movl	%eax, 4(%esp)
 5605 0015 891C24   		movl	%ebx, (%esp)
 5606 0018 E8000000 		call	__ZNSt14_List_iteratorI16ProcessImageDataRS0_PS0_EC1EPSt10_List_nodeIS0_E
 5606      00
 5607              	LBE46:
 5608 001d 89D8     		movl	%ebx, %eax
 5609 001f 83C414   		addl	$20, %esp
 5610 0022 5B       		popl	%ebx
 5611 0023 5D       		popl	%ebp
 5612 0024 C20400   		ret	$4
 5613              	Lscope20:
 5615 0027 90       		.section	.text$_ZNSt4listI16ProcessImageDataSaIS0_EE3endEv,"x"
 5616              		.linkonce discard
 5617              		.align 2
 5620              	.globl __ZNSt4listI16ProcessImageDataSaIS0_EE3endEv
 5622              	__ZNSt4listI16ProcessImageDataSaIS0_EE3endEv:
 570:d:/software/ovi_2503a_s3trc/ovi_2503a_s3trc/Tools/MinGW/include/c++/3.3.1/bits/stl_list.h ****   
 571:d:/software/ovi_2503a_s3trc/ovi_2503a_s3trc/Tools/MinGW/include/c++/3.3.1/bits/stl_list.h ****     /**
GAS LISTING d:/software/ovi_2503a_s3trc/ovi_2503a_s3trc/plutommi/Customer/ResGenerator/gcctmp/ccuadaaa.s 			page 83


 572:d:/software/ovi_2503a_s3trc/ovi_2503a_s3trc/Tools/MinGW/include/c++/3.3.1/bits/stl_list.h ****      *  Returns a read-only (constant) iterator that points to the first element
 573:d:/software/ovi_2503a_s3trc/ovi_2503a_s3trc/Tools/MinGW/include/c++/3.3.1/bits/stl_list.h ****      *  in the %list.  Iteration is done in ordinary element order.
 574:d:/software/ovi_2503a_s3trc/ovi_2503a_s3trc/Tools/MinGW/include/c++/3.3.1/bits/stl_list.h ****     */
 575:d:/software/ovi_2503a_s3trc/ovi_2503a_s3trc/Tools/MinGW/include/c++/3.3.1/bits/stl_list.h ****     const_iterator
 576:d:/software/ovi_2503a_s3trc/ovi_2503a_s3trc/Tools/MinGW/include/c++/3.3.1/bits/stl_list.h ****     begin() const { return static_cast<_Node*>(_M_node->_M_next); }
 577:d:/software/ovi_2503a_s3trc/ovi_2503a_s3trc/Tools/MinGW/include/c++/3.3.1/bits/stl_list.h ****   
 578:d:/software/ovi_2503a_s3trc/ovi_2503a_s3trc/Tools/MinGW/include/c++/3.3.1/bits/stl_list.h ****     /**
 579:d:/software/ovi_2503a_s3trc/ovi_2503a_s3trc/Tools/MinGW/include/c++/3.3.1/bits/stl_list.h ****      *  Returns a read/write iterator that points one past the last element in
 580:d:/software/ovi_2503a_s3trc/ovi_2503a_s3trc/Tools/MinGW/include/c++/3.3.1/bits/stl_list.h ****      *  the %list.  Iteration is done in ordinary element order.
 581:d:/software/ovi_2503a_s3trc/ovi_2503a_s3trc/Tools/MinGW/include/c++/3.3.1/bits/stl_list.h ****     */
 582:d:/software/ovi_2503a_s3trc/ovi_2503a_s3trc/Tools/MinGW/include/c++/3.3.1/bits/stl_list.h ****     iterator
 583:d:/software/ovi_2503a_s3trc/ovi_2503a_s3trc/Tools/MinGW/include/c++/3.3.1/bits/stl_list.h ****     end() { return _M_node; }
 5624              	LM259:
 5625 0000 55       		pushl	%ebp
 5626 0001 89E5     		movl	%esp, %ebp
 5627 0003 53       		pushl	%ebx
 5628 0004 83EC14   		subl	$20, %esp
 5629 0007 8B5D08   		movl	8(%ebp), %ebx
 5631              	LM260:
 5632              	LBB47:
 5633 000a 8B450C   		movl	12(%ebp), %eax
 5634 000d 8B00     		movl	(%eax), %eax
 5635 000f 89442404 		movl	%eax, 4(%esp)
 5636 0013 891C24   		movl	%ebx, (%esp)
 5637 0016 E8000000 		call	__ZNSt14_List_iteratorI16ProcessImageDataRS0_PS0_EC1EPSt10_List_nodeIS0_E
 5637      00
 5638              	LBE47:
 5639 001b 89D8     		movl	%ebx, %eax
 5640 001d 83C414   		addl	$20, %esp
 5641 0020 5B       		popl	%ebx
 5642 0021 5D       		popl	%ebp
 5643 0022 C20400   		ret	$4
 5644              	Lscope21:
 5646 0025 909090   		.section	.text$_ZNSt14_List_iteratorI16ProcessImageDataRS0_PS0_EppEv,"x"
 5647              		.linkonce discard
 5648              		.align 2
 5651              	.globl __ZNSt14_List_iteratorI16ProcessImageDataRS0_PS0_EppEv
 5653              	__ZNSt14_List_iteratorI16ProcessImageDataRS0_PS0_EppEv:
 5655              	LM261:
 5656 0000 55       		pushl	%ebp
 5657 0001 89E5     		movl	%esp, %ebp
 5658 0003 83EC08   		subl	$8, %esp
 5660              	LM262:
 5661              	LBB48:
 5662 0006 8B4508   		movl	8(%ebp), %eax
 5663 0009 890424   		movl	%eax, (%esp)
 5664 000c E8000000 		call	__ZNSt19_List_iterator_base7_M_incrEv
 5664      00
 5666              	LM263:
 5667 0011 8B4508   		movl	8(%ebp), %eax
 5668 0014 C9       		leave
 5669 0015 C3       		ret
 5670              	LBE48:
 5671              	Lscope22:
 5673 0016 9090     		.section	.text$_ZNKSt14_List_iteratorI16ProcessImageDataRS0_PS0_EdeEv,"x"
 5674              		.linkonce discard
 5675              		.align 2
GAS LISTING d:/software/ovi_2503a_s3trc/ovi_2503a_s3trc/plutommi/Customer/ResGenerator/gcctmp/ccuadaaa.s 			page 84


 5678              	.globl __ZNKSt14_List_iteratorI16ProcessImageDataRS0_PS0_EdeEv
 5680              	__ZNKSt14_List_iteratorI16ProcessImageDataRS0_PS0_EdeEv:
 5682              	LM264:
 5683 0000 55       		pushl	%ebp
 5684 0001 89E5     		movl	%esp, %ebp
 5686              	LM265:
 5687              	LBB49:
 5688 0003 8B4508   		movl	8(%ebp), %eax
 5689 0006 8B00     		movl	(%eax), %eax
 5690 0008 83C008   		addl	$8, %eax
 5691 000b 5D       		popl	%ebp
 5692 000c C3       		ret
 5693              	LBE49:
 5694              	Lscope23:
 5696 000d 909090   		.section	.text$_ZNSt4listI16ProcessImageDataSaIS0_EE9push_backERKS0_,"x"
 5697              		.linkonce discard
 5698              		.align 2
 5702              	.globl __ZNSt4listI16ProcessImageDataSaIS0_EE9push_backERKS0_
 5704              	__ZNSt4listI16ProcessImageDataSaIS0_EE9push_backERKS0_:
 584:d:/software/ovi_2503a_s3trc/ovi_2503a_s3trc/Tools/MinGW/include/c++/3.3.1/bits/stl_list.h ****   
 585:d:/software/ovi_2503a_s3trc/ovi_2503a_s3trc/Tools/MinGW/include/c++/3.3.1/bits/stl_list.h ****     /**
 586:d:/software/ovi_2503a_s3trc/ovi_2503a_s3trc/Tools/MinGW/include/c++/3.3.1/bits/stl_list.h ****      *  Returns a read-only (constant) iterator that points one past the last
 587:d:/software/ovi_2503a_s3trc/ovi_2503a_s3trc/Tools/MinGW/include/c++/3.3.1/bits/stl_list.h ****      *  element in the %list.  Iteration is done in ordinary element order.
 588:d:/software/ovi_2503a_s3trc/ovi_2503a_s3trc/Tools/MinGW/include/c++/3.3.1/bits/stl_list.h ****     */
 589:d:/software/ovi_2503a_s3trc/ovi_2503a_s3trc/Tools/MinGW/include/c++/3.3.1/bits/stl_list.h ****     const_iterator
 590:d:/software/ovi_2503a_s3trc/ovi_2503a_s3trc/Tools/MinGW/include/c++/3.3.1/bits/stl_list.h ****     end() const { return _M_node; }
 591:d:/software/ovi_2503a_s3trc/ovi_2503a_s3trc/Tools/MinGW/include/c++/3.3.1/bits/stl_list.h ****   
 592:d:/software/ovi_2503a_s3trc/ovi_2503a_s3trc/Tools/MinGW/include/c++/3.3.1/bits/stl_list.h ****     /**
 593:d:/software/ovi_2503a_s3trc/ovi_2503a_s3trc/Tools/MinGW/include/c++/3.3.1/bits/stl_list.h ****      *  Returns a read/write reverse iterator that points to the last element in
 594:d:/software/ovi_2503a_s3trc/ovi_2503a_s3trc/Tools/MinGW/include/c++/3.3.1/bits/stl_list.h ****      *  the %list.  Iteration is done in reverse element order.
 595:d:/software/ovi_2503a_s3trc/ovi_2503a_s3trc/Tools/MinGW/include/c++/3.3.1/bits/stl_list.h ****     */
 596:d:/software/ovi_2503a_s3trc/ovi_2503a_s3trc/Tools/MinGW/include/c++/3.3.1/bits/stl_list.h ****     reverse_iterator
 597:d:/software/ovi_2503a_s3trc/ovi_2503a_s3trc/Tools/MinGW/include/c++/3.3.1/bits/stl_list.h ****     rbegin() { return reverse_iterator(end()); }
 598:d:/software/ovi_2503a_s3trc/ovi_2503a_s3trc/Tools/MinGW/include/c++/3.3.1/bits/stl_list.h ****   
 599:d:/software/ovi_2503a_s3trc/ovi_2503a_s3trc/Tools/MinGW/include/c++/3.3.1/bits/stl_list.h ****     /**
 600:d:/software/ovi_2503a_s3trc/ovi_2503a_s3trc/Tools/MinGW/include/c++/3.3.1/bits/stl_list.h ****      *  Returns a read-only (constant) reverse iterator that points to the last
 601:d:/software/ovi_2503a_s3trc/ovi_2503a_s3trc/Tools/MinGW/include/c++/3.3.1/bits/stl_list.h ****      *  element in the %list.  Iteration is done in reverse element order.
 602:d:/software/ovi_2503a_s3trc/ovi_2503a_s3trc/Tools/MinGW/include/c++/3.3.1/bits/stl_list.h ****     */
 603:d:/software/ovi_2503a_s3trc/ovi_2503a_s3trc/Tools/MinGW/include/c++/3.3.1/bits/stl_list.h ****     const_reverse_iterator
 604:d:/software/ovi_2503a_s3trc/ovi_2503a_s3trc/Tools/MinGW/include/c++/3.3.1/bits/stl_list.h ****     rbegin() const { return const_reverse_iterator(end()); }
 605:d:/software/ovi_2503a_s3trc/ovi_2503a_s3trc/Tools/MinGW/include/c++/3.3.1/bits/stl_list.h ****   
 606:d:/software/ovi_2503a_s3trc/ovi_2503a_s3trc/Tools/MinGW/include/c++/3.3.1/bits/stl_list.h ****     /**
 607:d:/software/ovi_2503a_s3trc/ovi_2503a_s3trc/Tools/MinGW/include/c++/3.3.1/bits/stl_list.h ****      *  Returns a read/write reverse iterator that points to one before the
 608:d:/software/ovi_2503a_s3trc/ovi_2503a_s3trc/Tools/MinGW/include/c++/3.3.1/bits/stl_list.h ****      *  first element in the %list.  Iteration is done in reverse element
 609:d:/software/ovi_2503a_s3trc/ovi_2503a_s3trc/Tools/MinGW/include/c++/3.3.1/bits/stl_list.h ****      *  order.
 610:d:/software/ovi_2503a_s3trc/ovi_2503a_s3trc/Tools/MinGW/include/c++/3.3.1/bits/stl_list.h ****     */
 611:d:/software/ovi_2503a_s3trc/ovi_2503a_s3trc/Tools/MinGW/include/c++/3.3.1/bits/stl_list.h ****     reverse_iterator
 612:d:/software/ovi_2503a_s3trc/ovi_2503a_s3trc/Tools/MinGW/include/c++/3.3.1/bits/stl_list.h ****     rend() { return reverse_iterator(begin()); }
 613:d:/software/ovi_2503a_s3trc/ovi_2503a_s3trc/Tools/MinGW/include/c++/3.3.1/bits/stl_list.h ****   
 614:d:/software/ovi_2503a_s3trc/ovi_2503a_s3trc/Tools/MinGW/include/c++/3.3.1/bits/stl_list.h ****     /**
 615:d:/software/ovi_2503a_s3trc/ovi_2503a_s3trc/Tools/MinGW/include/c++/3.3.1/bits/stl_list.h ****      *  Returns a read-only (constant) reverse iterator that points to one
 616:d:/software/ovi_2503a_s3trc/ovi_2503a_s3trc/Tools/MinGW/include/c++/3.3.1/bits/stl_list.h ****      *  before the first element in the %list.  Iteration is done in reverse
 617:d:/software/ovi_2503a_s3trc/ovi_2503a_s3trc/Tools/MinGW/include/c++/3.3.1/bits/stl_list.h ****      *  element order.
 618:d:/software/ovi_2503a_s3trc/ovi_2503a_s3trc/Tools/MinGW/include/c++/3.3.1/bits/stl_list.h ****     */
 619:d:/software/ovi_2503a_s3trc/ovi_2503a_s3trc/Tools/MinGW/include/c++/3.3.1/bits/stl_list.h ****     const_reverse_iterator
 620:d:/software/ovi_2503a_s3trc/ovi_2503a_s3trc/Tools/MinGW/include/c++/3.3.1/bits/stl_list.h ****     rend() const
 621:d:/software/ovi_2503a_s3trc/ovi_2503a_s3trc/Tools/MinGW/include/c++/3.3.1/bits/stl_list.h ****     { return const_reverse_iterator(begin()); }
GAS LISTING d:/software/ovi_2503a_s3trc/ovi_2503a_s3trc/plutommi/Customer/ResGenerator/gcctmp/ccuadaaa.s 			page 85


 622:d:/software/ovi_2503a_s3trc/ovi_2503a_s3trc/Tools/MinGW/include/c++/3.3.1/bits/stl_list.h ****   
 623:d:/software/ovi_2503a_s3trc/ovi_2503a_s3trc/Tools/MinGW/include/c++/3.3.1/bits/stl_list.h ****     // [23.2.2.2] capacity
 624:d:/software/ovi_2503a_s3trc/ovi_2503a_s3trc/Tools/MinGW/include/c++/3.3.1/bits/stl_list.h ****     /**
 625:d:/software/ovi_2503a_s3trc/ovi_2503a_s3trc/Tools/MinGW/include/c++/3.3.1/bits/stl_list.h ****      *  Returns true if the %list is empty.  (Thus begin() would equal end().)
 626:d:/software/ovi_2503a_s3trc/ovi_2503a_s3trc/Tools/MinGW/include/c++/3.3.1/bits/stl_list.h ****     */
 627:d:/software/ovi_2503a_s3trc/ovi_2503a_s3trc/Tools/MinGW/include/c++/3.3.1/bits/stl_list.h ****     bool
 628:d:/software/ovi_2503a_s3trc/ovi_2503a_s3trc/Tools/MinGW/include/c++/3.3.1/bits/stl_list.h ****     empty() const { return _M_node->_M_next == _M_node; }
 629:d:/software/ovi_2503a_s3trc/ovi_2503a_s3trc/Tools/MinGW/include/c++/3.3.1/bits/stl_list.h ****   
 630:d:/software/ovi_2503a_s3trc/ovi_2503a_s3trc/Tools/MinGW/include/c++/3.3.1/bits/stl_list.h ****     /**  Returns the number of elements in the %list.  */
 631:d:/software/ovi_2503a_s3trc/ovi_2503a_s3trc/Tools/MinGW/include/c++/3.3.1/bits/stl_list.h ****     size_type
 632:d:/software/ovi_2503a_s3trc/ovi_2503a_s3trc/Tools/MinGW/include/c++/3.3.1/bits/stl_list.h ****     size() const { return distance(begin(), end()); }
 633:d:/software/ovi_2503a_s3trc/ovi_2503a_s3trc/Tools/MinGW/include/c++/3.3.1/bits/stl_list.h ****   
 634:d:/software/ovi_2503a_s3trc/ovi_2503a_s3trc/Tools/MinGW/include/c++/3.3.1/bits/stl_list.h ****     /**  Returns the size() of the largest possible %list.  */
 635:d:/software/ovi_2503a_s3trc/ovi_2503a_s3trc/Tools/MinGW/include/c++/3.3.1/bits/stl_list.h ****     size_type
 636:d:/software/ovi_2503a_s3trc/ovi_2503a_s3trc/Tools/MinGW/include/c++/3.3.1/bits/stl_list.h ****     max_size() const { return size_type(-1); }
 637:d:/software/ovi_2503a_s3trc/ovi_2503a_s3trc/Tools/MinGW/include/c++/3.3.1/bits/stl_list.h ****   
 638:d:/software/ovi_2503a_s3trc/ovi_2503a_s3trc/Tools/MinGW/include/c++/3.3.1/bits/stl_list.h ****     /**
 639:d:/software/ovi_2503a_s3trc/ovi_2503a_s3trc/Tools/MinGW/include/c++/3.3.1/bits/stl_list.h ****      *  @brief  Resizes the %list to the specified number of elements.
 640:d:/software/ovi_2503a_s3trc/ovi_2503a_s3trc/Tools/MinGW/include/c++/3.3.1/bits/stl_list.h ****      *  @param  new_size  Number of elements the %list should contain.
 641:d:/software/ovi_2503a_s3trc/ovi_2503a_s3trc/Tools/MinGW/include/c++/3.3.1/bits/stl_list.h ****      *  @param  x  Data with which new elements should be populated.
 642:d:/software/ovi_2503a_s3trc/ovi_2503a_s3trc/Tools/MinGW/include/c++/3.3.1/bits/stl_list.h ****      *
 643:d:/software/ovi_2503a_s3trc/ovi_2503a_s3trc/Tools/MinGW/include/c++/3.3.1/bits/stl_list.h ****      *  This function will %resize the %list to the specified number of
 644:d:/software/ovi_2503a_s3trc/ovi_2503a_s3trc/Tools/MinGW/include/c++/3.3.1/bits/stl_list.h ****      *  elements.  If the number is smaller than the %list's current size the
 645:d:/software/ovi_2503a_s3trc/ovi_2503a_s3trc/Tools/MinGW/include/c++/3.3.1/bits/stl_list.h ****      *  %list is truncated, otherwise the %list is extended and new elements
 646:d:/software/ovi_2503a_s3trc/ovi_2503a_s3trc/Tools/MinGW/include/c++/3.3.1/bits/stl_list.h ****      *  are populated with given data.
 647:d:/software/ovi_2503a_s3trc/ovi_2503a_s3trc/Tools/MinGW/include/c++/3.3.1/bits/stl_list.h ****     */
 648:d:/software/ovi_2503a_s3trc/ovi_2503a_s3trc/Tools/MinGW/include/c++/3.3.1/bits/stl_list.h ****     void
 649:d:/software/ovi_2503a_s3trc/ovi_2503a_s3trc/Tools/MinGW/include/c++/3.3.1/bits/stl_list.h ****     resize(size_type __new_size, const value_type& __x);
 650:d:/software/ovi_2503a_s3trc/ovi_2503a_s3trc/Tools/MinGW/include/c++/3.3.1/bits/stl_list.h ****   
 651:d:/software/ovi_2503a_s3trc/ovi_2503a_s3trc/Tools/MinGW/include/c++/3.3.1/bits/stl_list.h ****     /**
 652:d:/software/ovi_2503a_s3trc/ovi_2503a_s3trc/Tools/MinGW/include/c++/3.3.1/bits/stl_list.h ****      *  @brief  Resizes the %list to the specified number of elements.
 653:d:/software/ovi_2503a_s3trc/ovi_2503a_s3trc/Tools/MinGW/include/c++/3.3.1/bits/stl_list.h ****      *  @param  new_size  Number of elements the %list should contain.
 654:d:/software/ovi_2503a_s3trc/ovi_2503a_s3trc/Tools/MinGW/include/c++/3.3.1/bits/stl_list.h ****      *
 655:d:/software/ovi_2503a_s3trc/ovi_2503a_s3trc/Tools/MinGW/include/c++/3.3.1/bits/stl_list.h ****      *  This function will resize the %list to the specified number of
 656:d:/software/ovi_2503a_s3trc/ovi_2503a_s3trc/Tools/MinGW/include/c++/3.3.1/bits/stl_list.h ****      *  elements.  If the number is smaller than the %list's current size the
 657:d:/software/ovi_2503a_s3trc/ovi_2503a_s3trc/Tools/MinGW/include/c++/3.3.1/bits/stl_list.h ****      *  %list is truncated, otherwise the %list is extended and new elements
 658:d:/software/ovi_2503a_s3trc/ovi_2503a_s3trc/Tools/MinGW/include/c++/3.3.1/bits/stl_list.h ****      *  are default-constructed.
 659:d:/software/ovi_2503a_s3trc/ovi_2503a_s3trc/Tools/MinGW/include/c++/3.3.1/bits/stl_list.h ****     */
 660:d:/software/ovi_2503a_s3trc/ovi_2503a_s3trc/Tools/MinGW/include/c++/3.3.1/bits/stl_list.h ****     void
 661:d:/software/ovi_2503a_s3trc/ovi_2503a_s3trc/Tools/MinGW/include/c++/3.3.1/bits/stl_list.h ****     resize(size_type __new_size) { this->resize(__new_size, value_type()); }
 662:d:/software/ovi_2503a_s3trc/ovi_2503a_s3trc/Tools/MinGW/include/c++/3.3.1/bits/stl_list.h ****   
 663:d:/software/ovi_2503a_s3trc/ovi_2503a_s3trc/Tools/MinGW/include/c++/3.3.1/bits/stl_list.h ****     // element access
 664:d:/software/ovi_2503a_s3trc/ovi_2503a_s3trc/Tools/MinGW/include/c++/3.3.1/bits/stl_list.h ****     /**
 665:d:/software/ovi_2503a_s3trc/ovi_2503a_s3trc/Tools/MinGW/include/c++/3.3.1/bits/stl_list.h ****      *  Returns a read/write reference to the data at the first element of the
 666:d:/software/ovi_2503a_s3trc/ovi_2503a_s3trc/Tools/MinGW/include/c++/3.3.1/bits/stl_list.h ****      *  %list.
 667:d:/software/ovi_2503a_s3trc/ovi_2503a_s3trc/Tools/MinGW/include/c++/3.3.1/bits/stl_list.h ****     */
 668:d:/software/ovi_2503a_s3trc/ovi_2503a_s3trc/Tools/MinGW/include/c++/3.3.1/bits/stl_list.h ****     reference
 669:d:/software/ovi_2503a_s3trc/ovi_2503a_s3trc/Tools/MinGW/include/c++/3.3.1/bits/stl_list.h ****     front() { return *begin(); }
 670:d:/software/ovi_2503a_s3trc/ovi_2503a_s3trc/Tools/MinGW/include/c++/3.3.1/bits/stl_list.h ****   
 671:d:/software/ovi_2503a_s3trc/ovi_2503a_s3trc/Tools/MinGW/include/c++/3.3.1/bits/stl_list.h ****     /**
 672:d:/software/ovi_2503a_s3trc/ovi_2503a_s3trc/Tools/MinGW/include/c++/3.3.1/bits/stl_list.h ****      *  Returns a read-only (constant) reference to the data at the first
 673:d:/software/ovi_2503a_s3trc/ovi_2503a_s3trc/Tools/MinGW/include/c++/3.3.1/bits/stl_list.h ****      *  element of the %list.
 674:d:/software/ovi_2503a_s3trc/ovi_2503a_s3trc/Tools/MinGW/include/c++/3.3.1/bits/stl_list.h ****     */
 675:d:/software/ovi_2503a_s3trc/ovi_2503a_s3trc/Tools/MinGW/include/c++/3.3.1/bits/stl_list.h ****     const_reference
 676:d:/software/ovi_2503a_s3trc/ovi_2503a_s3trc/Tools/MinGW/include/c++/3.3.1/bits/stl_list.h ****     front() const { return *begin(); }
 677:d:/software/ovi_2503a_s3trc/ovi_2503a_s3trc/Tools/MinGW/include/c++/3.3.1/bits/stl_list.h ****   
 678:d:/software/ovi_2503a_s3trc/ovi_2503a_s3trc/Tools/MinGW/include/c++/3.3.1/bits/stl_list.h ****     /**
GAS LISTING d:/software/ovi_2503a_s3trc/ovi_2503a_s3trc/plutommi/Customer/ResGenerator/gcctmp/ccuadaaa.s 			page 86


 679:d:/software/ovi_2503a_s3trc/ovi_2503a_s3trc/Tools/MinGW/include/c++/3.3.1/bits/stl_list.h ****      *  Returns a read/write reference to the data at the last element of the
 680:d:/software/ovi_2503a_s3trc/ovi_2503a_s3trc/Tools/MinGW/include/c++/3.3.1/bits/stl_list.h ****      *  %list.
 681:d:/software/ovi_2503a_s3trc/ovi_2503a_s3trc/Tools/MinGW/include/c++/3.3.1/bits/stl_list.h ****     */
 682:d:/software/ovi_2503a_s3trc/ovi_2503a_s3trc/Tools/MinGW/include/c++/3.3.1/bits/stl_list.h ****     reference
 683:d:/software/ovi_2503a_s3trc/ovi_2503a_s3trc/Tools/MinGW/include/c++/3.3.1/bits/stl_list.h ****     back() { return *(--end()); }
 684:d:/software/ovi_2503a_s3trc/ovi_2503a_s3trc/Tools/MinGW/include/c++/3.3.1/bits/stl_list.h ****   
 685:d:/software/ovi_2503a_s3trc/ovi_2503a_s3trc/Tools/MinGW/include/c++/3.3.1/bits/stl_list.h ****     /**
 686:d:/software/ovi_2503a_s3trc/ovi_2503a_s3trc/Tools/MinGW/include/c++/3.3.1/bits/stl_list.h ****      *  Returns a read-only (constant) reference to the data at the last
 687:d:/software/ovi_2503a_s3trc/ovi_2503a_s3trc/Tools/MinGW/include/c++/3.3.1/bits/stl_list.h ****      *  element of the %list.
 688:d:/software/ovi_2503a_s3trc/ovi_2503a_s3trc/Tools/MinGW/include/c++/3.3.1/bits/stl_list.h ****     */
 689:d:/software/ovi_2503a_s3trc/ovi_2503a_s3trc/Tools/MinGW/include/c++/3.3.1/bits/stl_list.h ****     const_reference
 690:d:/software/ovi_2503a_s3trc/ovi_2503a_s3trc/Tools/MinGW/include/c++/3.3.1/bits/stl_list.h ****     back() const { return *(--end()); }
 691:d:/software/ovi_2503a_s3trc/ovi_2503a_s3trc/Tools/MinGW/include/c++/3.3.1/bits/stl_list.h ****   
 692:d:/software/ovi_2503a_s3trc/ovi_2503a_s3trc/Tools/MinGW/include/c++/3.3.1/bits/stl_list.h ****     // [23.2.2.3] modifiers
 693:d:/software/ovi_2503a_s3trc/ovi_2503a_s3trc/Tools/MinGW/include/c++/3.3.1/bits/stl_list.h ****     /**
 694:d:/software/ovi_2503a_s3trc/ovi_2503a_s3trc/Tools/MinGW/include/c++/3.3.1/bits/stl_list.h ****      *  @brief  Add data to the front of the %list.
 695:d:/software/ovi_2503a_s3trc/ovi_2503a_s3trc/Tools/MinGW/include/c++/3.3.1/bits/stl_list.h ****      *  @param  x  Data to be added.
 696:d:/software/ovi_2503a_s3trc/ovi_2503a_s3trc/Tools/MinGW/include/c++/3.3.1/bits/stl_list.h ****      *
 697:d:/software/ovi_2503a_s3trc/ovi_2503a_s3trc/Tools/MinGW/include/c++/3.3.1/bits/stl_list.h ****      *  This is a typical stack operation.  The function creates an element at
 698:d:/software/ovi_2503a_s3trc/ovi_2503a_s3trc/Tools/MinGW/include/c++/3.3.1/bits/stl_list.h ****      *  the front of the %list and assigns the given data to it.  Due to the
 699:d:/software/ovi_2503a_s3trc/ovi_2503a_s3trc/Tools/MinGW/include/c++/3.3.1/bits/stl_list.h ****      *  nature of a %list this operation can be done in constant time, and
 700:d:/software/ovi_2503a_s3trc/ovi_2503a_s3trc/Tools/MinGW/include/c++/3.3.1/bits/stl_list.h ****      *  does not invalidate iterators and references.
 701:d:/software/ovi_2503a_s3trc/ovi_2503a_s3trc/Tools/MinGW/include/c++/3.3.1/bits/stl_list.h ****     */
 702:d:/software/ovi_2503a_s3trc/ovi_2503a_s3trc/Tools/MinGW/include/c++/3.3.1/bits/stl_list.h ****     void
 703:d:/software/ovi_2503a_s3trc/ovi_2503a_s3trc/Tools/MinGW/include/c++/3.3.1/bits/stl_list.h ****     push_front(const value_type& __x) { this->insert(begin(), __x); }
 704:d:/software/ovi_2503a_s3trc/ovi_2503a_s3trc/Tools/MinGW/include/c++/3.3.1/bits/stl_list.h ****   
 705:d:/software/ovi_2503a_s3trc/ovi_2503a_s3trc/Tools/MinGW/include/c++/3.3.1/bits/stl_list.h ****   #ifdef _GLIBCPP_DEPRECATED
 706:d:/software/ovi_2503a_s3trc/ovi_2503a_s3trc/Tools/MinGW/include/c++/3.3.1/bits/stl_list.h ****     /**
 707:d:/software/ovi_2503a_s3trc/ovi_2503a_s3trc/Tools/MinGW/include/c++/3.3.1/bits/stl_list.h ****      *  @brief  Add data to the front of the %list.
 708:d:/software/ovi_2503a_s3trc/ovi_2503a_s3trc/Tools/MinGW/include/c++/3.3.1/bits/stl_list.h ****      *
 709:d:/software/ovi_2503a_s3trc/ovi_2503a_s3trc/Tools/MinGW/include/c++/3.3.1/bits/stl_list.h ****      *  This is a typical stack operation.  The function creates a
 710:d:/software/ovi_2503a_s3trc/ovi_2503a_s3trc/Tools/MinGW/include/c++/3.3.1/bits/stl_list.h ****      *  default-constructed element at the front of the %list.  Due to the
 711:d:/software/ovi_2503a_s3trc/ovi_2503a_s3trc/Tools/MinGW/include/c++/3.3.1/bits/stl_list.h ****      *  nature of a %list this operation can be done in constant time.  You
 712:d:/software/ovi_2503a_s3trc/ovi_2503a_s3trc/Tools/MinGW/include/c++/3.3.1/bits/stl_list.h ****      *  should consider using push_front(value_type()) instead.
 713:d:/software/ovi_2503a_s3trc/ovi_2503a_s3trc/Tools/MinGW/include/c++/3.3.1/bits/stl_list.h ****      *
 714:d:/software/ovi_2503a_s3trc/ovi_2503a_s3trc/Tools/MinGW/include/c++/3.3.1/bits/stl_list.h ****      *  @note This was deprecated in 3.2 and will be removed in 3.4.  You must
 715:d:/software/ovi_2503a_s3trc/ovi_2503a_s3trc/Tools/MinGW/include/c++/3.3.1/bits/stl_list.h ****      *        define @c _GLIBCPP_DEPRECATED to make this visible in 3.2; see
 716:d:/software/ovi_2503a_s3trc/ovi_2503a_s3trc/Tools/MinGW/include/c++/3.3.1/bits/stl_list.h ****      *        c++config.h.
 717:d:/software/ovi_2503a_s3trc/ovi_2503a_s3trc/Tools/MinGW/include/c++/3.3.1/bits/stl_list.h ****     */
 718:d:/software/ovi_2503a_s3trc/ovi_2503a_s3trc/Tools/MinGW/include/c++/3.3.1/bits/stl_list.h ****     void
 719:d:/software/ovi_2503a_s3trc/ovi_2503a_s3trc/Tools/MinGW/include/c++/3.3.1/bits/stl_list.h ****     push_front() { this->insert(begin(), value_type()); }
 720:d:/software/ovi_2503a_s3trc/ovi_2503a_s3trc/Tools/MinGW/include/c++/3.3.1/bits/stl_list.h ****   #endif
 721:d:/software/ovi_2503a_s3trc/ovi_2503a_s3trc/Tools/MinGW/include/c++/3.3.1/bits/stl_list.h ****   
 722:d:/software/ovi_2503a_s3trc/ovi_2503a_s3trc/Tools/MinGW/include/c++/3.3.1/bits/stl_list.h ****     /**
 723:d:/software/ovi_2503a_s3trc/ovi_2503a_s3trc/Tools/MinGW/include/c++/3.3.1/bits/stl_list.h ****      *  @brief  Removes first element.
 724:d:/software/ovi_2503a_s3trc/ovi_2503a_s3trc/Tools/MinGW/include/c++/3.3.1/bits/stl_list.h ****      *
 725:d:/software/ovi_2503a_s3trc/ovi_2503a_s3trc/Tools/MinGW/include/c++/3.3.1/bits/stl_list.h ****      *  This is a typical stack operation.  It shrinks the %list by one.
 726:d:/software/ovi_2503a_s3trc/ovi_2503a_s3trc/Tools/MinGW/include/c++/3.3.1/bits/stl_list.h ****      *  Due to the nature of a %list this operation can be done in constant
 727:d:/software/ovi_2503a_s3trc/ovi_2503a_s3trc/Tools/MinGW/include/c++/3.3.1/bits/stl_list.h ****      *  time, and only invalidates iterators/references to the element being
 728:d:/software/ovi_2503a_s3trc/ovi_2503a_s3trc/Tools/MinGW/include/c++/3.3.1/bits/stl_list.h ****      *  removed.
 729:d:/software/ovi_2503a_s3trc/ovi_2503a_s3trc/Tools/MinGW/include/c++/3.3.1/bits/stl_list.h ****      *
 730:d:/software/ovi_2503a_s3trc/ovi_2503a_s3trc/Tools/MinGW/include/c++/3.3.1/bits/stl_list.h ****      *  Note that no data is returned, and if the first element's data is
 731:d:/software/ovi_2503a_s3trc/ovi_2503a_s3trc/Tools/MinGW/include/c++/3.3.1/bits/stl_list.h ****      *  needed, it should be retrieved before pop_front() is called.
 732:d:/software/ovi_2503a_s3trc/ovi_2503a_s3trc/Tools/MinGW/include/c++/3.3.1/bits/stl_list.h ****     */
 733:d:/software/ovi_2503a_s3trc/ovi_2503a_s3trc/Tools/MinGW/include/c++/3.3.1/bits/stl_list.h ****     void
 734:d:/software/ovi_2503a_s3trc/ovi_2503a_s3trc/Tools/MinGW/include/c++/3.3.1/bits/stl_list.h ****     pop_front() { this->erase(begin()); }
 735:d:/software/ovi_2503a_s3trc/ovi_2503a_s3trc/Tools/MinGW/include/c++/3.3.1/bits/stl_list.h ****   
GAS LISTING d:/software/ovi_2503a_s3trc/ovi_2503a_s3trc/plutommi/Customer/ResGenerator/gcctmp/ccuadaaa.s 			page 87


 736:d:/software/ovi_2503a_s3trc/ovi_2503a_s3trc/Tools/MinGW/include/c++/3.3.1/bits/stl_list.h ****     /**
 737:d:/software/ovi_2503a_s3trc/ovi_2503a_s3trc/Tools/MinGW/include/c++/3.3.1/bits/stl_list.h ****      *  @brief  Add data to the end of the %list.
 738:d:/software/ovi_2503a_s3trc/ovi_2503a_s3trc/Tools/MinGW/include/c++/3.3.1/bits/stl_list.h ****      *  @param  x  Data to be added.
 739:d:/software/ovi_2503a_s3trc/ovi_2503a_s3trc/Tools/MinGW/include/c++/3.3.1/bits/stl_list.h ****      *
 740:d:/software/ovi_2503a_s3trc/ovi_2503a_s3trc/Tools/MinGW/include/c++/3.3.1/bits/stl_list.h ****      *  This is a typical stack operation.  The function creates an element at
 741:d:/software/ovi_2503a_s3trc/ovi_2503a_s3trc/Tools/MinGW/include/c++/3.3.1/bits/stl_list.h ****      *  the end of the %list and assigns the given data to it.  Due to the
 742:d:/software/ovi_2503a_s3trc/ovi_2503a_s3trc/Tools/MinGW/include/c++/3.3.1/bits/stl_list.h ****      *  nature of a %list this operation can be done in constant time, and
 743:d:/software/ovi_2503a_s3trc/ovi_2503a_s3trc/Tools/MinGW/include/c++/3.3.1/bits/stl_list.h ****      *  does not invalidate iterators and references.
 744:d:/software/ovi_2503a_s3trc/ovi_2503a_s3trc/Tools/MinGW/include/c++/3.3.1/bits/stl_list.h ****     */
 745:d:/software/ovi_2503a_s3trc/ovi_2503a_s3trc/Tools/MinGW/include/c++/3.3.1/bits/stl_list.h ****     void
 746:d:/software/ovi_2503a_s3trc/ovi_2503a_s3trc/Tools/MinGW/include/c++/3.3.1/bits/stl_list.h ****     push_back(const value_type& __x) { this->insert(end(), __x); }
 5706              	LM266:
 5707 0000 55       		pushl	%ebp
 5708 0001 89E5     		movl	%esp, %ebp
 5709 0003 53       		pushl	%ebx
 5710 0004 83EC34   		subl	$52, %esp
 5712              	LM267:
 5713              	LBB50:
 5714 0007 8D5DE8   		leal	-24(%ebp), %ebx
 5715 000a 8D55D8   		leal	-40(%ebp), %edx
 5716 000d 8B4508   		movl	8(%ebp), %eax
 5717 0010 89442404 		movl	%eax, 4(%esp)
 5718 0014 891424   		movl	%edx, (%esp)
 5719 0017 E8000000 		call	__ZNSt4listI16ProcessImageDataSaIS0_EE3endEv
 5719      00
 5720 001c 83EC04   		subl	$4, %esp
 5721 001f 8D55D8   		leal	-40(%ebp), %edx
 5722 0022 8B450C   		movl	12(%ebp), %eax
 5723 0025 8944240C 		movl	%eax, 12(%esp)
 5724 0029 89542408 		movl	%edx, 8(%esp)
 5725 002d 8B4508   		movl	8(%ebp), %eax
 5726 0030 89442404 		movl	%eax, 4(%esp)
 5727 0034 891C24   		movl	%ebx, (%esp)
 5728 0037 E8000000 		call	__ZNSt4listI16ProcessImageDataSaIS0_EE6insertESt14_List_iteratorIS0_RS0_PS0_ERKS0_
 5728      00
 5729 003c 83EC04   		subl	$4, %esp
 5730 003f 8B5DFC   		movl	-4(%ebp), %ebx
 5731 0042 C9       		leave
 5732 0043 C3       		ret
 5733              	LBE50:
 5734              	Lscope24:
 5737              		.section	.text$_ZNSt4listI16ProcessImageDataSaIS0_EE5clearEv,"x"
 5738              		.linkonce discard
 5739              		.align 2
 5742              	.globl __ZNSt4listI16ProcessImageDataSaIS0_EE5clearEv
 5744              	__ZNSt4listI16ProcessImageDataSaIS0_EE5clearEv:
 747:d:/software/ovi_2503a_s3trc/ovi_2503a_s3trc/Tools/MinGW/include/c++/3.3.1/bits/stl_list.h ****   
 748:d:/software/ovi_2503a_s3trc/ovi_2503a_s3trc/Tools/MinGW/include/c++/3.3.1/bits/stl_list.h ****   #ifdef _GLIBCPP_DEPRECATED
 749:d:/software/ovi_2503a_s3trc/ovi_2503a_s3trc/Tools/MinGW/include/c++/3.3.1/bits/stl_list.h ****     /**
 750:d:/software/ovi_2503a_s3trc/ovi_2503a_s3trc/Tools/MinGW/include/c++/3.3.1/bits/stl_list.h ****      *  @brief  Add data to the end of the %list.
 751:d:/software/ovi_2503a_s3trc/ovi_2503a_s3trc/Tools/MinGW/include/c++/3.3.1/bits/stl_list.h ****      *
 752:d:/software/ovi_2503a_s3trc/ovi_2503a_s3trc/Tools/MinGW/include/c++/3.3.1/bits/stl_list.h ****      *  This is a typical stack operation.  The function creates a
 753:d:/software/ovi_2503a_s3trc/ovi_2503a_s3trc/Tools/MinGW/include/c++/3.3.1/bits/stl_list.h ****      *  default-constructed element at the end of the %list.  Due to the nature
 754:d:/software/ovi_2503a_s3trc/ovi_2503a_s3trc/Tools/MinGW/include/c++/3.3.1/bits/stl_list.h ****      *  of a %list this operation can be done in constant time.  You should
 755:d:/software/ovi_2503a_s3trc/ovi_2503a_s3trc/Tools/MinGW/include/c++/3.3.1/bits/stl_list.h ****      *  consider using push_back(value_type()) instead.
 756:d:/software/ovi_2503a_s3trc/ovi_2503a_s3trc/Tools/MinGW/include/c++/3.3.1/bits/stl_list.h ****      *
 757:d:/software/ovi_2503a_s3trc/ovi_2503a_s3trc/Tools/MinGW/include/c++/3.3.1/bits/stl_list.h ****      *  @note This was deprecated in 3.2 and will be removed in 3.4.  You must
GAS LISTING d:/software/ovi_2503a_s3trc/ovi_2503a_s3trc/plutommi/Customer/ResGenerator/gcctmp/ccuadaaa.s 			page 88


 758:d:/software/ovi_2503a_s3trc/ovi_2503a_s3trc/Tools/MinGW/include/c++/3.3.1/bits/stl_list.h ****      *        define @c _GLIBCPP_DEPRECATED to make this visible in 3.2; see
 759:d:/software/ovi_2503a_s3trc/ovi_2503a_s3trc/Tools/MinGW/include/c++/3.3.1/bits/stl_list.h ****      *        c++config.h.
 760:d:/software/ovi_2503a_s3trc/ovi_2503a_s3trc/Tools/MinGW/include/c++/3.3.1/bits/stl_list.h ****     */
 761:d:/software/ovi_2503a_s3trc/ovi_2503a_s3trc/Tools/MinGW/include/c++/3.3.1/bits/stl_list.h ****     void
 762:d:/software/ovi_2503a_s3trc/ovi_2503a_s3trc/Tools/MinGW/include/c++/3.3.1/bits/stl_list.h ****     push_back() { this->insert(end(), value_type()); }
 763:d:/software/ovi_2503a_s3trc/ovi_2503a_s3trc/Tools/MinGW/include/c++/3.3.1/bits/stl_list.h ****   #endif
 764:d:/software/ovi_2503a_s3trc/ovi_2503a_s3trc/Tools/MinGW/include/c++/3.3.1/bits/stl_list.h ****   
 765:d:/software/ovi_2503a_s3trc/ovi_2503a_s3trc/Tools/MinGW/include/c++/3.3.1/bits/stl_list.h ****     /**
 766:d:/software/ovi_2503a_s3trc/ovi_2503a_s3trc/Tools/MinGW/include/c++/3.3.1/bits/stl_list.h ****      *  @brief  Removes last element.
 767:d:/software/ovi_2503a_s3trc/ovi_2503a_s3trc/Tools/MinGW/include/c++/3.3.1/bits/stl_list.h ****      *
 768:d:/software/ovi_2503a_s3trc/ovi_2503a_s3trc/Tools/MinGW/include/c++/3.3.1/bits/stl_list.h ****      *  This is a typical stack operation.  It shrinks the %list by one.
 769:d:/software/ovi_2503a_s3trc/ovi_2503a_s3trc/Tools/MinGW/include/c++/3.3.1/bits/stl_list.h ****      *  Due to the nature of a %list this operation can be done in constant
 770:d:/software/ovi_2503a_s3trc/ovi_2503a_s3trc/Tools/MinGW/include/c++/3.3.1/bits/stl_list.h ****      *  time, and only invalidates iterators/references to the element being
 771:d:/software/ovi_2503a_s3trc/ovi_2503a_s3trc/Tools/MinGW/include/c++/3.3.1/bits/stl_list.h ****      *  removed.
 772:d:/software/ovi_2503a_s3trc/ovi_2503a_s3trc/Tools/MinGW/include/c++/3.3.1/bits/stl_list.h ****      *
 773:d:/software/ovi_2503a_s3trc/ovi_2503a_s3trc/Tools/MinGW/include/c++/3.3.1/bits/stl_list.h ****      *  Note that no data is returned, and if the last element's data is
 774:d:/software/ovi_2503a_s3trc/ovi_2503a_s3trc/Tools/MinGW/include/c++/3.3.1/bits/stl_list.h ****      *  needed, it should be retrieved before pop_back() is called.
 775:d:/software/ovi_2503a_s3trc/ovi_2503a_s3trc/Tools/MinGW/include/c++/3.3.1/bits/stl_list.h ****     */
 776:d:/software/ovi_2503a_s3trc/ovi_2503a_s3trc/Tools/MinGW/include/c++/3.3.1/bits/stl_list.h ****     void
 777:d:/software/ovi_2503a_s3trc/ovi_2503a_s3trc/Tools/MinGW/include/c++/3.3.1/bits/stl_list.h ****     pop_back()
 778:d:/software/ovi_2503a_s3trc/ovi_2503a_s3trc/Tools/MinGW/include/c++/3.3.1/bits/stl_list.h ****     {
 779:d:/software/ovi_2503a_s3trc/ovi_2503a_s3trc/Tools/MinGW/include/c++/3.3.1/bits/stl_list.h ****       iterator __tmp = end();
 780:d:/software/ovi_2503a_s3trc/ovi_2503a_s3trc/Tools/MinGW/include/c++/3.3.1/bits/stl_list.h ****       this->erase(--__tmp);
 781:d:/software/ovi_2503a_s3trc/ovi_2503a_s3trc/Tools/MinGW/include/c++/3.3.1/bits/stl_list.h ****     }
 782:d:/software/ovi_2503a_s3trc/ovi_2503a_s3trc/Tools/MinGW/include/c++/3.3.1/bits/stl_list.h ****   
 783:d:/software/ovi_2503a_s3trc/ovi_2503a_s3trc/Tools/MinGW/include/c++/3.3.1/bits/stl_list.h ****     /**
 784:d:/software/ovi_2503a_s3trc/ovi_2503a_s3trc/Tools/MinGW/include/c++/3.3.1/bits/stl_list.h ****      *  @brief  Inserts given value into %list before specified iterator.
 785:d:/software/ovi_2503a_s3trc/ovi_2503a_s3trc/Tools/MinGW/include/c++/3.3.1/bits/stl_list.h ****      *  @param  position  An iterator into the %list.
 786:d:/software/ovi_2503a_s3trc/ovi_2503a_s3trc/Tools/MinGW/include/c++/3.3.1/bits/stl_list.h ****      *  @param  x  Data to be inserted.
 787:d:/software/ovi_2503a_s3trc/ovi_2503a_s3trc/Tools/MinGW/include/c++/3.3.1/bits/stl_list.h ****      *  @return  An iterator that points to the inserted data.
 788:d:/software/ovi_2503a_s3trc/ovi_2503a_s3trc/Tools/MinGW/include/c++/3.3.1/bits/stl_list.h ****      *
 789:d:/software/ovi_2503a_s3trc/ovi_2503a_s3trc/Tools/MinGW/include/c++/3.3.1/bits/stl_list.h ****      *  This function will insert a copy of the given value before the specified
 790:d:/software/ovi_2503a_s3trc/ovi_2503a_s3trc/Tools/MinGW/include/c++/3.3.1/bits/stl_list.h ****      *  location.
 791:d:/software/ovi_2503a_s3trc/ovi_2503a_s3trc/Tools/MinGW/include/c++/3.3.1/bits/stl_list.h ****      *  Due to the nature of a %list this operation can be done in constant
 792:d:/software/ovi_2503a_s3trc/ovi_2503a_s3trc/Tools/MinGW/include/c++/3.3.1/bits/stl_list.h ****      *  time, and does not invalidate iterators and references.
 793:d:/software/ovi_2503a_s3trc/ovi_2503a_s3trc/Tools/MinGW/include/c++/3.3.1/bits/stl_list.h ****     */
 794:d:/software/ovi_2503a_s3trc/ovi_2503a_s3trc/Tools/MinGW/include/c++/3.3.1/bits/stl_list.h ****     iterator
 795:d:/software/ovi_2503a_s3trc/ovi_2503a_s3trc/Tools/MinGW/include/c++/3.3.1/bits/stl_list.h ****     insert(iterator __position, const value_type& __x);
 796:d:/software/ovi_2503a_s3trc/ovi_2503a_s3trc/Tools/MinGW/include/c++/3.3.1/bits/stl_list.h ****   
 797:d:/software/ovi_2503a_s3trc/ovi_2503a_s3trc/Tools/MinGW/include/c++/3.3.1/bits/stl_list.h ****   #ifdef _GLIBCPP_DEPRECATED
 798:d:/software/ovi_2503a_s3trc/ovi_2503a_s3trc/Tools/MinGW/include/c++/3.3.1/bits/stl_list.h ****     /**
 799:d:/software/ovi_2503a_s3trc/ovi_2503a_s3trc/Tools/MinGW/include/c++/3.3.1/bits/stl_list.h ****      *  @brief  Inserts an element into the %list.
 800:d:/software/ovi_2503a_s3trc/ovi_2503a_s3trc/Tools/MinGW/include/c++/3.3.1/bits/stl_list.h ****      *  @param  position  An iterator into the %list.
 801:d:/software/ovi_2503a_s3trc/ovi_2503a_s3trc/Tools/MinGW/include/c++/3.3.1/bits/stl_list.h ****      *  @return  An iterator that points to the inserted element.
 802:d:/software/ovi_2503a_s3trc/ovi_2503a_s3trc/Tools/MinGW/include/c++/3.3.1/bits/stl_list.h ****      *
 803:d:/software/ovi_2503a_s3trc/ovi_2503a_s3trc/Tools/MinGW/include/c++/3.3.1/bits/stl_list.h ****      *  This function will insert a default-constructed element before the
 804:d:/software/ovi_2503a_s3trc/ovi_2503a_s3trc/Tools/MinGW/include/c++/3.3.1/bits/stl_list.h ****      *  specified location.  You should consider using
 805:d:/software/ovi_2503a_s3trc/ovi_2503a_s3trc/Tools/MinGW/include/c++/3.3.1/bits/stl_list.h ****      *  insert(position,value_type()) instead.
 806:d:/software/ovi_2503a_s3trc/ovi_2503a_s3trc/Tools/MinGW/include/c++/3.3.1/bits/stl_list.h ****      *  Due to the nature of a %list this operation can be done in constant
 807:d:/software/ovi_2503a_s3trc/ovi_2503a_s3trc/Tools/MinGW/include/c++/3.3.1/bits/stl_list.h ****      *  time, and does not invalidate iterators and references.
 808:d:/software/ovi_2503a_s3trc/ovi_2503a_s3trc/Tools/MinGW/include/c++/3.3.1/bits/stl_list.h ****      *
 809:d:/software/ovi_2503a_s3trc/ovi_2503a_s3trc/Tools/MinGW/include/c++/3.3.1/bits/stl_list.h ****      *  @note This was deprecated in 3.2 and will be removed in 3.4.  You must
 810:d:/software/ovi_2503a_s3trc/ovi_2503a_s3trc/Tools/MinGW/include/c++/3.3.1/bits/stl_list.h ****      *        define @c _GLIBCPP_DEPRECATED to make this visible in 3.2; see
 811:d:/software/ovi_2503a_s3trc/ovi_2503a_s3trc/Tools/MinGW/include/c++/3.3.1/bits/stl_list.h ****      *        c++config.h.
 812:d:/software/ovi_2503a_s3trc/ovi_2503a_s3trc/Tools/MinGW/include/c++/3.3.1/bits/stl_list.h ****     */
 813:d:/software/ovi_2503a_s3trc/ovi_2503a_s3trc/Tools/MinGW/include/c++/3.3.1/bits/stl_list.h ****     iterator
 814:d:/software/ovi_2503a_s3trc/ovi_2503a_s3trc/Tools/MinGW/include/c++/3.3.1/bits/stl_list.h ****     insert(iterator __position) { return insert(__position, value_type()); }
GAS LISTING d:/software/ovi_2503a_s3trc/ovi_2503a_s3trc/plutommi/Customer/ResGenerator/gcctmp/ccuadaaa.s 			page 89


 815:d:/software/ovi_2503a_s3trc/ovi_2503a_s3trc/Tools/MinGW/include/c++/3.3.1/bits/stl_list.h ****   #endif
 816:d:/software/ovi_2503a_s3trc/ovi_2503a_s3trc/Tools/MinGW/include/c++/3.3.1/bits/stl_list.h ****   
 817:d:/software/ovi_2503a_s3trc/ovi_2503a_s3trc/Tools/MinGW/include/c++/3.3.1/bits/stl_list.h ****     /**
 818:d:/software/ovi_2503a_s3trc/ovi_2503a_s3trc/Tools/MinGW/include/c++/3.3.1/bits/stl_list.h ****      *  @brief  Inserts a number of copies of given data into the %list.
 819:d:/software/ovi_2503a_s3trc/ovi_2503a_s3trc/Tools/MinGW/include/c++/3.3.1/bits/stl_list.h ****      *  @param  position  An iterator into the %list.
 820:d:/software/ovi_2503a_s3trc/ovi_2503a_s3trc/Tools/MinGW/include/c++/3.3.1/bits/stl_list.h ****      *  @param  n  Number of elements to be inserted.
 821:d:/software/ovi_2503a_s3trc/ovi_2503a_s3trc/Tools/MinGW/include/c++/3.3.1/bits/stl_list.h ****      *  @param  x  Data to be inserted.
 822:d:/software/ovi_2503a_s3trc/ovi_2503a_s3trc/Tools/MinGW/include/c++/3.3.1/bits/stl_list.h ****      *
 823:d:/software/ovi_2503a_s3trc/ovi_2503a_s3trc/Tools/MinGW/include/c++/3.3.1/bits/stl_list.h ****      *  This function will insert a specified number of copies of the given data
 824:d:/software/ovi_2503a_s3trc/ovi_2503a_s3trc/Tools/MinGW/include/c++/3.3.1/bits/stl_list.h ****      *  before the location specified by @a position.
 825:d:/software/ovi_2503a_s3trc/ovi_2503a_s3trc/Tools/MinGW/include/c++/3.3.1/bits/stl_list.h ****      *
 826:d:/software/ovi_2503a_s3trc/ovi_2503a_s3trc/Tools/MinGW/include/c++/3.3.1/bits/stl_list.h ****      *  Due to the nature of a %list this operation can be done in constant
 827:d:/software/ovi_2503a_s3trc/ovi_2503a_s3trc/Tools/MinGW/include/c++/3.3.1/bits/stl_list.h ****      *  time, and does not invalidate iterators and references.
 828:d:/software/ovi_2503a_s3trc/ovi_2503a_s3trc/Tools/MinGW/include/c++/3.3.1/bits/stl_list.h ****     */
 829:d:/software/ovi_2503a_s3trc/ovi_2503a_s3trc/Tools/MinGW/include/c++/3.3.1/bits/stl_list.h ****     void
 830:d:/software/ovi_2503a_s3trc/ovi_2503a_s3trc/Tools/MinGW/include/c++/3.3.1/bits/stl_list.h ****     insert(iterator __pos, size_type __n, const value_type& __x)
 831:d:/software/ovi_2503a_s3trc/ovi_2503a_s3trc/Tools/MinGW/include/c++/3.3.1/bits/stl_list.h ****     { _M_fill_insert(__pos, __n, __x); }
 832:d:/software/ovi_2503a_s3trc/ovi_2503a_s3trc/Tools/MinGW/include/c++/3.3.1/bits/stl_list.h ****   
 833:d:/software/ovi_2503a_s3trc/ovi_2503a_s3trc/Tools/MinGW/include/c++/3.3.1/bits/stl_list.h ****     /**
 834:d:/software/ovi_2503a_s3trc/ovi_2503a_s3trc/Tools/MinGW/include/c++/3.3.1/bits/stl_list.h ****      *  @brief  Inserts a range into the %list.
 835:d:/software/ovi_2503a_s3trc/ovi_2503a_s3trc/Tools/MinGW/include/c++/3.3.1/bits/stl_list.h ****      *  @param  pos  An iterator into the %list.
 836:d:/software/ovi_2503a_s3trc/ovi_2503a_s3trc/Tools/MinGW/include/c++/3.3.1/bits/stl_list.h ****      *  @param  first  An input iterator.
 837:d:/software/ovi_2503a_s3trc/ovi_2503a_s3trc/Tools/MinGW/include/c++/3.3.1/bits/stl_list.h ****      *  @param  last   An input iterator.
 838:d:/software/ovi_2503a_s3trc/ovi_2503a_s3trc/Tools/MinGW/include/c++/3.3.1/bits/stl_list.h ****      *
 839:d:/software/ovi_2503a_s3trc/ovi_2503a_s3trc/Tools/MinGW/include/c++/3.3.1/bits/stl_list.h ****      *  This function will insert copies of the data in the range [first,last)
 840:d:/software/ovi_2503a_s3trc/ovi_2503a_s3trc/Tools/MinGW/include/c++/3.3.1/bits/stl_list.h ****      *  into the %list before the location specified by @a pos.
 841:d:/software/ovi_2503a_s3trc/ovi_2503a_s3trc/Tools/MinGW/include/c++/3.3.1/bits/stl_list.h ****      *
 842:d:/software/ovi_2503a_s3trc/ovi_2503a_s3trc/Tools/MinGW/include/c++/3.3.1/bits/stl_list.h ****      *  Due to the nature of a %list this operation can be done in constant
 843:d:/software/ovi_2503a_s3trc/ovi_2503a_s3trc/Tools/MinGW/include/c++/3.3.1/bits/stl_list.h ****      *  time, and does not invalidate iterators and references.
 844:d:/software/ovi_2503a_s3trc/ovi_2503a_s3trc/Tools/MinGW/include/c++/3.3.1/bits/stl_list.h ****     */
 845:d:/software/ovi_2503a_s3trc/ovi_2503a_s3trc/Tools/MinGW/include/c++/3.3.1/bits/stl_list.h ****     template<typename _InputIterator>
 846:d:/software/ovi_2503a_s3trc/ovi_2503a_s3trc/Tools/MinGW/include/c++/3.3.1/bits/stl_list.h ****       void
 847:d:/software/ovi_2503a_s3trc/ovi_2503a_s3trc/Tools/MinGW/include/c++/3.3.1/bits/stl_list.h ****       insert(iterator __pos, _InputIterator __first, _InputIterator __last)
 848:d:/software/ovi_2503a_s3trc/ovi_2503a_s3trc/Tools/MinGW/include/c++/3.3.1/bits/stl_list.h ****       {
 849:d:/software/ovi_2503a_s3trc/ovi_2503a_s3trc/Tools/MinGW/include/c++/3.3.1/bits/stl_list.h ****         // Check whether it's an integral type.  If so, it's not an iterator.
 850:d:/software/ovi_2503a_s3trc/ovi_2503a_s3trc/Tools/MinGW/include/c++/3.3.1/bits/stl_list.h ****         typedef typename _Is_integer<_InputIterator>::_Integral _Integral;
 851:d:/software/ovi_2503a_s3trc/ovi_2503a_s3trc/Tools/MinGW/include/c++/3.3.1/bits/stl_list.h ****         _M_insert_dispatch(__pos, __first, __last, _Integral());
 852:d:/software/ovi_2503a_s3trc/ovi_2503a_s3trc/Tools/MinGW/include/c++/3.3.1/bits/stl_list.h ****       }
 853:d:/software/ovi_2503a_s3trc/ovi_2503a_s3trc/Tools/MinGW/include/c++/3.3.1/bits/stl_list.h ****   
 854:d:/software/ovi_2503a_s3trc/ovi_2503a_s3trc/Tools/MinGW/include/c++/3.3.1/bits/stl_list.h ****     /**
 855:d:/software/ovi_2503a_s3trc/ovi_2503a_s3trc/Tools/MinGW/include/c++/3.3.1/bits/stl_list.h ****      *  @brief  Remove element at given position.
 856:d:/software/ovi_2503a_s3trc/ovi_2503a_s3trc/Tools/MinGW/include/c++/3.3.1/bits/stl_list.h ****      *  @param  position  Iterator pointing to element to be erased.
 857:d:/software/ovi_2503a_s3trc/ovi_2503a_s3trc/Tools/MinGW/include/c++/3.3.1/bits/stl_list.h ****      *  @return  An iterator pointing to the next element (or end()).
 858:d:/software/ovi_2503a_s3trc/ovi_2503a_s3trc/Tools/MinGW/include/c++/3.3.1/bits/stl_list.h ****      *
 859:d:/software/ovi_2503a_s3trc/ovi_2503a_s3trc/Tools/MinGW/include/c++/3.3.1/bits/stl_list.h ****      *  This function will erase the element at the given position and thus
 860:d:/software/ovi_2503a_s3trc/ovi_2503a_s3trc/Tools/MinGW/include/c++/3.3.1/bits/stl_list.h ****      *  shorten the %list by one.
 861:d:/software/ovi_2503a_s3trc/ovi_2503a_s3trc/Tools/MinGW/include/c++/3.3.1/bits/stl_list.h ****      *
 862:d:/software/ovi_2503a_s3trc/ovi_2503a_s3trc/Tools/MinGW/include/c++/3.3.1/bits/stl_list.h ****      *  Due to the nature of a %list this operation can be done in constant
 863:d:/software/ovi_2503a_s3trc/ovi_2503a_s3trc/Tools/MinGW/include/c++/3.3.1/bits/stl_list.h ****      *  time, and only invalidates iterators/references to the element being
 864:d:/software/ovi_2503a_s3trc/ovi_2503a_s3trc/Tools/MinGW/include/c++/3.3.1/bits/stl_list.h ****      *  removed.
 865:d:/software/ovi_2503a_s3trc/ovi_2503a_s3trc/Tools/MinGW/include/c++/3.3.1/bits/stl_list.h ****      *  The user is also cautioned that
 866:d:/software/ovi_2503a_s3trc/ovi_2503a_s3trc/Tools/MinGW/include/c++/3.3.1/bits/stl_list.h ****      *  this function only erases the element, and that if the element is itself
 867:d:/software/ovi_2503a_s3trc/ovi_2503a_s3trc/Tools/MinGW/include/c++/3.3.1/bits/stl_list.h ****      *  a pointer, the pointed-to memory is not touched in any way.  Managing
 868:d:/software/ovi_2503a_s3trc/ovi_2503a_s3trc/Tools/MinGW/include/c++/3.3.1/bits/stl_list.h ****      *  the pointer is the user's responsibilty.
 869:d:/software/ovi_2503a_s3trc/ovi_2503a_s3trc/Tools/MinGW/include/c++/3.3.1/bits/stl_list.h ****     */
 870:d:/software/ovi_2503a_s3trc/ovi_2503a_s3trc/Tools/MinGW/include/c++/3.3.1/bits/stl_list.h ****     iterator
 871:d:/software/ovi_2503a_s3trc/ovi_2503a_s3trc/Tools/MinGW/include/c++/3.3.1/bits/stl_list.h ****     erase(iterator __position);
GAS LISTING d:/software/ovi_2503a_s3trc/ovi_2503a_s3trc/plutommi/Customer/ResGenerator/gcctmp/ccuadaaa.s 			page 90


 872:d:/software/ovi_2503a_s3trc/ovi_2503a_s3trc/Tools/MinGW/include/c++/3.3.1/bits/stl_list.h ****   
 873:d:/software/ovi_2503a_s3trc/ovi_2503a_s3trc/Tools/MinGW/include/c++/3.3.1/bits/stl_list.h ****     /**
 874:d:/software/ovi_2503a_s3trc/ovi_2503a_s3trc/Tools/MinGW/include/c++/3.3.1/bits/stl_list.h ****      *  @brief  Remove a range of elements.
 875:d:/software/ovi_2503a_s3trc/ovi_2503a_s3trc/Tools/MinGW/include/c++/3.3.1/bits/stl_list.h ****      *  @param  first  Iterator pointing to the first element to be erased.
 876:d:/software/ovi_2503a_s3trc/ovi_2503a_s3trc/Tools/MinGW/include/c++/3.3.1/bits/stl_list.h ****      *  @param  last  Iterator pointing to one past the last element to be
 877:d:/software/ovi_2503a_s3trc/ovi_2503a_s3trc/Tools/MinGW/include/c++/3.3.1/bits/stl_list.h ****      *                erased.
 878:d:/software/ovi_2503a_s3trc/ovi_2503a_s3trc/Tools/MinGW/include/c++/3.3.1/bits/stl_list.h ****      *  @return  An iterator pointing to the element pointed to by @a last
 879:d:/software/ovi_2503a_s3trc/ovi_2503a_s3trc/Tools/MinGW/include/c++/3.3.1/bits/stl_list.h ****      *           prior to erasing (or end()).
 880:d:/software/ovi_2503a_s3trc/ovi_2503a_s3trc/Tools/MinGW/include/c++/3.3.1/bits/stl_list.h ****      *
 881:d:/software/ovi_2503a_s3trc/ovi_2503a_s3trc/Tools/MinGW/include/c++/3.3.1/bits/stl_list.h ****      *  This function will erase the elements in the range [first,last) and
 882:d:/software/ovi_2503a_s3trc/ovi_2503a_s3trc/Tools/MinGW/include/c++/3.3.1/bits/stl_list.h ****      *  shorten the %list accordingly.
 883:d:/software/ovi_2503a_s3trc/ovi_2503a_s3trc/Tools/MinGW/include/c++/3.3.1/bits/stl_list.h ****      *
 884:d:/software/ovi_2503a_s3trc/ovi_2503a_s3trc/Tools/MinGW/include/c++/3.3.1/bits/stl_list.h ****      *  Due to the nature of a %list this operation can be done in constant
 885:d:/software/ovi_2503a_s3trc/ovi_2503a_s3trc/Tools/MinGW/include/c++/3.3.1/bits/stl_list.h ****      *  time, and only invalidates iterators/references to the element being
 886:d:/software/ovi_2503a_s3trc/ovi_2503a_s3trc/Tools/MinGW/include/c++/3.3.1/bits/stl_list.h ****      *  removed.
 887:d:/software/ovi_2503a_s3trc/ovi_2503a_s3trc/Tools/MinGW/include/c++/3.3.1/bits/stl_list.h ****      *  The user is also cautioned that
 888:d:/software/ovi_2503a_s3trc/ovi_2503a_s3trc/Tools/MinGW/include/c++/3.3.1/bits/stl_list.h ****      *  this function only erases the elements, and that if the elements
 889:d:/software/ovi_2503a_s3trc/ovi_2503a_s3trc/Tools/MinGW/include/c++/3.3.1/bits/stl_list.h ****      *  themselves are pointers, the pointed-to memory is not touched in any
 890:d:/software/ovi_2503a_s3trc/ovi_2503a_s3trc/Tools/MinGW/include/c++/3.3.1/bits/stl_list.h ****      *  way.  Managing the pointer is the user's responsibilty.
 891:d:/software/ovi_2503a_s3trc/ovi_2503a_s3trc/Tools/MinGW/include/c++/3.3.1/bits/stl_list.h ****     */
 892:d:/software/ovi_2503a_s3trc/ovi_2503a_s3trc/Tools/MinGW/include/c++/3.3.1/bits/stl_list.h ****     iterator
 893:d:/software/ovi_2503a_s3trc/ovi_2503a_s3trc/Tools/MinGW/include/c++/3.3.1/bits/stl_list.h ****     erase(iterator __first, iterator __last)
 894:d:/software/ovi_2503a_s3trc/ovi_2503a_s3trc/Tools/MinGW/include/c++/3.3.1/bits/stl_list.h ****     {
 895:d:/software/ovi_2503a_s3trc/ovi_2503a_s3trc/Tools/MinGW/include/c++/3.3.1/bits/stl_list.h ****       while (__first != __last)
 896:d:/software/ovi_2503a_s3trc/ovi_2503a_s3trc/Tools/MinGW/include/c++/3.3.1/bits/stl_list.h ****         erase(__first++);
 897:d:/software/ovi_2503a_s3trc/ovi_2503a_s3trc/Tools/MinGW/include/c++/3.3.1/bits/stl_list.h ****       return __last;
 898:d:/software/ovi_2503a_s3trc/ovi_2503a_s3trc/Tools/MinGW/include/c++/3.3.1/bits/stl_list.h ****     }
 899:d:/software/ovi_2503a_s3trc/ovi_2503a_s3trc/Tools/MinGW/include/c++/3.3.1/bits/stl_list.h ****   
 900:d:/software/ovi_2503a_s3trc/ovi_2503a_s3trc/Tools/MinGW/include/c++/3.3.1/bits/stl_list.h ****     /**
 901:d:/software/ovi_2503a_s3trc/ovi_2503a_s3trc/Tools/MinGW/include/c++/3.3.1/bits/stl_list.h ****      *  @brief  Swaps data with another %list.
 902:d:/software/ovi_2503a_s3trc/ovi_2503a_s3trc/Tools/MinGW/include/c++/3.3.1/bits/stl_list.h ****      *  @param  x  A %list of the same element and allocator types.
 903:d:/software/ovi_2503a_s3trc/ovi_2503a_s3trc/Tools/MinGW/include/c++/3.3.1/bits/stl_list.h ****      *
 904:d:/software/ovi_2503a_s3trc/ovi_2503a_s3trc/Tools/MinGW/include/c++/3.3.1/bits/stl_list.h ****      *  This exchanges the elements between two lists in constant time.
 905:d:/software/ovi_2503a_s3trc/ovi_2503a_s3trc/Tools/MinGW/include/c++/3.3.1/bits/stl_list.h ****      *  (It is only swapping a single pointer, so it should be quite fast.)
 906:d:/software/ovi_2503a_s3trc/ovi_2503a_s3trc/Tools/MinGW/include/c++/3.3.1/bits/stl_list.h ****      *  Note that the global std::swap() function is specialized such that
 907:d:/software/ovi_2503a_s3trc/ovi_2503a_s3trc/Tools/MinGW/include/c++/3.3.1/bits/stl_list.h ****      *  std::swap(l1,l2) will feed to this function.
 908:d:/software/ovi_2503a_s3trc/ovi_2503a_s3trc/Tools/MinGW/include/c++/3.3.1/bits/stl_list.h ****     */
 909:d:/software/ovi_2503a_s3trc/ovi_2503a_s3trc/Tools/MinGW/include/c++/3.3.1/bits/stl_list.h ****     void
 910:d:/software/ovi_2503a_s3trc/ovi_2503a_s3trc/Tools/MinGW/include/c++/3.3.1/bits/stl_list.h ****     swap(list& __x) { std::swap(_M_node, __x._M_node); }
 911:d:/software/ovi_2503a_s3trc/ovi_2503a_s3trc/Tools/MinGW/include/c++/3.3.1/bits/stl_list.h ****   
 912:d:/software/ovi_2503a_s3trc/ovi_2503a_s3trc/Tools/MinGW/include/c++/3.3.1/bits/stl_list.h ****     /**
 913:d:/software/ovi_2503a_s3trc/ovi_2503a_s3trc/Tools/MinGW/include/c++/3.3.1/bits/stl_list.h ****      *  Erases all the elements.  Note that this function only erases the
 914:d:/software/ovi_2503a_s3trc/ovi_2503a_s3trc/Tools/MinGW/include/c++/3.3.1/bits/stl_list.h ****      *  elements, and that if the elements themselves are pointers, the
 915:d:/software/ovi_2503a_s3trc/ovi_2503a_s3trc/Tools/MinGW/include/c++/3.3.1/bits/stl_list.h ****      *  pointed-to memory is not touched in any way.  Managing the pointer is
 916:d:/software/ovi_2503a_s3trc/ovi_2503a_s3trc/Tools/MinGW/include/c++/3.3.1/bits/stl_list.h ****      *  the user's responsibilty.
 917:d:/software/ovi_2503a_s3trc/ovi_2503a_s3trc/Tools/MinGW/include/c++/3.3.1/bits/stl_list.h ****     */
 918:d:/software/ovi_2503a_s3trc/ovi_2503a_s3trc/Tools/MinGW/include/c++/3.3.1/bits/stl_list.h ****     void
 919:d:/software/ovi_2503a_s3trc/ovi_2503a_s3trc/Tools/MinGW/include/c++/3.3.1/bits/stl_list.h ****     clear() { _Base::__clear(); }
 5746              	LM268:
 5747 0000 55       		pushl	%ebp
 5748 0001 89E5     		movl	%esp, %ebp
 5749 0003 83EC08   		subl	$8, %esp
 5751              	LM269:
 5752              	LBB51:
 5753 0006 8B4508   		movl	8(%ebp), %eax
 5754 0009 890424   		movl	%eax, (%esp)
 5755 000c E8000000 		call	__ZNSt10_List_baseI16ProcessImageDataSaIS0_EE7__clearEv
GAS LISTING d:/software/ovi_2503a_s3trc/ovi_2503a_s3trc/plutommi/Customer/ResGenerator/gcctmp/ccuadaaa.s 			page 91


 5755      00
 5756 0011 C9       		leave
 5757 0012 C3       		ret
 5758              	LBE51:
 5759              	Lscope25:
 5762 0013 90       		.section	.text$_ZNSt4listI13LogBinaryDataSaIS0_EE9push_backERKS0_,"x"
 5763              		.linkonce discard
 5764              		.align 2
 5768              	.globl __ZNSt4listI13LogBinaryDataSaIS0_EE9push_backERKS0_
 5770              	__ZNSt4listI13LogBinaryDataSaIS0_EE9push_backERKS0_:
 5772              	LM270:
 5773 0000 55       		pushl	%ebp
 5774 0001 89E5     		movl	%esp, %ebp
 5775 0003 53       		pushl	%ebx
 5776 0004 83EC34   		subl	$52, %esp
 5778              	LM271:
 5779              	LBB52:
 5780 0007 8D5DE8   		leal	-24(%ebp), %ebx
 5781 000a 8D55D8   		leal	-40(%ebp), %edx
 5782 000d 8B4508   		movl	8(%ebp), %eax
 5783 0010 89442404 		movl	%eax, 4(%esp)
 5784 0014 891424   		movl	%edx, (%esp)
 5785 0017 E8000000 		call	__ZNSt4listI13LogBinaryDataSaIS0_EE3endEv
 5785      00
 5786 001c 83EC04   		subl	$4, %esp
 5787 001f 8D55D8   		leal	-40(%ebp), %edx
 5788 0022 8B450C   		movl	12(%ebp), %eax
 5789 0025 8944240C 		movl	%eax, 12(%esp)
 5790 0029 89542408 		movl	%edx, 8(%esp)
 5791 002d 8B4508   		movl	8(%ebp), %eax
 5792 0030 89442404 		movl	%eax, 4(%esp)
 5793 0034 891C24   		movl	%ebx, (%esp)
 5794 0037 E8000000 		call	__ZNSt4listI13LogBinaryDataSaIS0_EE6insertESt14_List_iteratorIS0_RS0_PS0_ERKS0_
 5794      00
 5795 003c 83EC04   		subl	$4, %esp
 5796 003f 8B5DFC   		movl	-4(%ebp), %ebx
 5797 0042 C9       		leave
 5798 0043 C3       		ret
 5799              	LBE52:
 5800              	Lscope26:
 5803              		.text
 5804 2279 90       		.align 2
 5809              	__Z41__static_initialization_and_destruction_0ii:
 5811              	Ltext2:
 5813              	LM272:
 5814 227a 55       		pushl	%ebp
 5815 227b 89E5     		movl	%esp, %ebp
 5816 227d 57       		pushl	%edi
 5817 227e 56       		pushl	%esi
 5818 227f 53       		pushl	%ebx
 5819 2280 83EC6C   		subl	$108, %esp
 5820 2283 C745C400 		movl	$___gxx_personality_sj0, -60(%ebp)
 5820      000000
 5821 228a C745C81C 		movl	$LLSDA2342, -56(%ebp)
 5821      000000
 5822 2291 8D45CC   		leal	-52(%ebp), %eax
 5823 2294 8D55E8   		leal	-24(%ebp), %edx
GAS LISTING d:/software/ovi_2503a_s3trc/ovi_2503a_s3trc/plutommi/Customer/ResGenerator/gcctmp/ccuadaaa.s 			page 92


 5824 2297 8910     		movl	%edx, (%eax)
 5825 2299 BA712300 		movl	$L183, %edx
 5825      00
 5826 229e 895004   		movl	%edx, 4(%eax)
 5827 22a1 896008   		movl	%esp, 8(%eax)
 5828 22a4 8D45AC   		leal	-84(%ebp), %eax
 5829 22a7 890424   		movl	%eax, (%esp)
 5830 22aa E8000000 		call	__Unwind_SjLj_Register
 5830      00
 5832              	Ltext3:
   1:d:/software/ovi_2503a_s3trc/ovi_2503a_s3trc/Tools/MinGW/include/c++/3.3.1/iostream **** // Standard iostream objects -*- C++ -*-
   2:d:/software/ovi_2503a_s3trc/ovi_2503a_s3trc/Tools/MinGW/include/c++/3.3.1/iostream **** 
   3:d:/software/ovi_2503a_s3trc/ovi_2503a_s3trc/Tools/MinGW/include/c++/3.3.1/iostream **** // Copyright (C) 1997, 1998, 1999, 2001, 2002 Free Software Foundation, Inc.
   4:d:/software/ovi_2503a_s3trc/ovi_2503a_s3trc/Tools/MinGW/include/c++/3.3.1/iostream **** //
   5:d:/software/ovi_2503a_s3trc/ovi_2503a_s3trc/Tools/MinGW/include/c++/3.3.1/iostream **** // This file is part of the GNU ISO C++ Library.  This library is free
   6:d:/software/ovi_2503a_s3trc/ovi_2503a_s3trc/Tools/MinGW/include/c++/3.3.1/iostream **** // software; you can redistribute it and/or modify it under the
   7:d:/software/ovi_2503a_s3trc/ovi_2503a_s3trc/Tools/MinGW/include/c++/3.3.1/iostream **** // terms of the GNU General Public License as published by the
   8:d:/software/ovi_2503a_s3trc/ovi_2503a_s3trc/Tools/MinGW/include/c++/3.3.1/iostream **** // Free Software Foundation; either version 2, or (at your option)
   9:d:/software/ovi_2503a_s3trc/ovi_2503a_s3trc/Tools/MinGW/include/c++/3.3.1/iostream **** // any later version.
  10:d:/software/ovi_2503a_s3trc/ovi_2503a_s3trc/Tools/MinGW/include/c++/3.3.1/iostream **** 
  11:d:/software/ovi_2503a_s3trc/ovi_2503a_s3trc/Tools/MinGW/include/c++/3.3.1/iostream **** // This library is distributed in the hope that it will be useful,
  12:d:/software/ovi_2503a_s3trc/ovi_2503a_s3trc/Tools/MinGW/include/c++/3.3.1/iostream **** // but WITHOUT ANY WARRANTY; without even the implied warranty of
  13:d:/software/ovi_2503a_s3trc/ovi_2503a_s3trc/Tools/MinGW/include/c++/3.3.1/iostream **** // MERCHANTABILITY or FITNESS FOR A PARTICULAR PURPOSE.  See the
  14:d:/software/ovi_2503a_s3trc/ovi_2503a_s3trc/Tools/MinGW/include/c++/3.3.1/iostream **** // GNU General Public License for more details.
  15:d:/software/ovi_2503a_s3trc/ovi_2503a_s3trc/Tools/MinGW/include/c++/3.3.1/iostream **** 
  16:d:/software/ovi_2503a_s3trc/ovi_2503a_s3trc/Tools/MinGW/include/c++/3.3.1/iostream **** // You should have received a copy of the GNU General Public License along
  17:d:/software/ovi_2503a_s3trc/ovi_2503a_s3trc/Tools/MinGW/include/c++/3.3.1/iostream **** // with this library; see the file COPYING.  If not, write to the Free
  18:d:/software/ovi_2503a_s3trc/ovi_2503a_s3trc/Tools/MinGW/include/c++/3.3.1/iostream **** // Software Foundation, 59 Temple Place - Suite 330, Boston, MA 02111-1307,
  19:d:/software/ovi_2503a_s3trc/ovi_2503a_s3trc/Tools/MinGW/include/c++/3.3.1/iostream **** // USA.
  20:d:/software/ovi_2503a_s3trc/ovi_2503a_s3trc/Tools/MinGW/include/c++/3.3.1/iostream **** 
  21:d:/software/ovi_2503a_s3trc/ovi_2503a_s3trc/Tools/MinGW/include/c++/3.3.1/iostream **** // As a special exception, you may use this file as part of a free software
  22:d:/software/ovi_2503a_s3trc/ovi_2503a_s3trc/Tools/MinGW/include/c++/3.3.1/iostream **** // library without restriction.  Specifically, if other files instantiate
  23:d:/software/ovi_2503a_s3trc/ovi_2503a_s3trc/Tools/MinGW/include/c++/3.3.1/iostream **** // templates or use macros or inline functions from this file, or you compile
  24:d:/software/ovi_2503a_s3trc/ovi_2503a_s3trc/Tools/MinGW/include/c++/3.3.1/iostream **** // this file and link it with other files to produce an executable, this
  25:d:/software/ovi_2503a_s3trc/ovi_2503a_s3trc/Tools/MinGW/include/c++/3.3.1/iostream **** // file does not by itself cause the resulting executable to be covered by
  26:d:/software/ovi_2503a_s3trc/ovi_2503a_s3trc/Tools/MinGW/include/c++/3.3.1/iostream **** // the GNU General Public License.  This exception does not however
  27:d:/software/ovi_2503a_s3trc/ovi_2503a_s3trc/Tools/MinGW/include/c++/3.3.1/iostream **** // invalidate any other reasons why the executable file might be covered by
  28:d:/software/ovi_2503a_s3trc/ovi_2503a_s3trc/Tools/MinGW/include/c++/3.3.1/iostream **** // the GNU General Public License.
  29:d:/software/ovi_2503a_s3trc/ovi_2503a_s3trc/Tools/MinGW/include/c++/3.3.1/iostream **** 
  30:d:/software/ovi_2503a_s3trc/ovi_2503a_s3trc/Tools/MinGW/include/c++/3.3.1/iostream **** //
  31:d:/software/ovi_2503a_s3trc/ovi_2503a_s3trc/Tools/MinGW/include/c++/3.3.1/iostream **** // ISO C++ 14882: 27.3  Standard iostream objects
  32:d:/software/ovi_2503a_s3trc/ovi_2503a_s3trc/Tools/MinGW/include/c++/3.3.1/iostream **** //
  33:d:/software/ovi_2503a_s3trc/ovi_2503a_s3trc/Tools/MinGW/include/c++/3.3.1/iostream **** 
  34:d:/software/ovi_2503a_s3trc/ovi_2503a_s3trc/Tools/MinGW/include/c++/3.3.1/iostream **** /** @file iostream
  35:d:/software/ovi_2503a_s3trc/ovi_2503a_s3trc/Tools/MinGW/include/c++/3.3.1/iostream ****  *  This is a Standard C++ Library header.  You should @c #include this header
  36:d:/software/ovi_2503a_s3trc/ovi_2503a_s3trc/Tools/MinGW/include/c++/3.3.1/iostream ****  *  in your programs, rather than any of the "st[dl]_*.h" implementation files.
  37:d:/software/ovi_2503a_s3trc/ovi_2503a_s3trc/Tools/MinGW/include/c++/3.3.1/iostream ****  */
  38:d:/software/ovi_2503a_s3trc/ovi_2503a_s3trc/Tools/MinGW/include/c++/3.3.1/iostream **** 
  39:d:/software/ovi_2503a_s3trc/ovi_2503a_s3trc/Tools/MinGW/include/c++/3.3.1/iostream **** #ifndef _CPP_IOSTREAM
  40:d:/software/ovi_2503a_s3trc/ovi_2503a_s3trc/Tools/MinGW/include/c++/3.3.1/iostream **** #define _CPP_IOSTREAM	1
  41:d:/software/ovi_2503a_s3trc/ovi_2503a_s3trc/Tools/MinGW/include/c++/3.3.1/iostream **** 
  42:d:/software/ovi_2503a_s3trc/ovi_2503a_s3trc/Tools/MinGW/include/c++/3.3.1/iostream **** #pragma GCC system_header
  43:d:/software/ovi_2503a_s3trc/ovi_2503a_s3trc/Tools/MinGW/include/c++/3.3.1/iostream **** 
  44:d:/software/ovi_2503a_s3trc/ovi_2503a_s3trc/Tools/MinGW/include/c++/3.3.1/iostream **** #include <bits/c++config.h>
  45:d:/software/ovi_2503a_s3trc/ovi_2503a_s3trc/Tools/MinGW/include/c++/3.3.1/iostream **** #include <ostream>
  46:d:/software/ovi_2503a_s3trc/ovi_2503a_s3trc/Tools/MinGW/include/c++/3.3.1/iostream **** #include <istream>
  47:d:/software/ovi_2503a_s3trc/ovi_2503a_s3trc/Tools/MinGW/include/c++/3.3.1/iostream **** 
GAS LISTING d:/software/ovi_2503a_s3trc/ovi_2503a_s3trc/plutommi/Customer/ResGenerator/gcctmp/ccuadaaa.s 			page 93


  48:d:/software/ovi_2503a_s3trc/ovi_2503a_s3trc/Tools/MinGW/include/c++/3.3.1/iostream **** namespace std 
  49:d:/software/ovi_2503a_s3trc/ovi_2503a_s3trc/Tools/MinGW/include/c++/3.3.1/iostream **** {
  50:d:/software/ovi_2503a_s3trc/ovi_2503a_s3trc/Tools/MinGW/include/c++/3.3.1/iostream ****   /**
  51:d:/software/ovi_2503a_s3trc/ovi_2503a_s3trc/Tools/MinGW/include/c++/3.3.1/iostream ****    *  @name Standard Stream Objects
  52:d:/software/ovi_2503a_s3trc/ovi_2503a_s3trc/Tools/MinGW/include/c++/3.3.1/iostream ****    *
  53:d:/software/ovi_2503a_s3trc/ovi_2503a_s3trc/Tools/MinGW/include/c++/3.3.1/iostream ****    *  The &lt;iostream&gt; header declares the eight <em>standard stream
  54:d:/software/ovi_2503a_s3trc/ovi_2503a_s3trc/Tools/MinGW/include/c++/3.3.1/iostream ****    *  objects</em>.  For other declarations, see
  55:d:/software/ovi_2503a_s3trc/ovi_2503a_s3trc/Tools/MinGW/include/c++/3.3.1/iostream ****    *  http://gcc.gnu.org/onlinedocs/libstdc++/27_io/howto.html#10 and the
  56:d:/software/ovi_2503a_s3trc/ovi_2503a_s3trc/Tools/MinGW/include/c++/3.3.1/iostream ****    *  @link s27_2_iosfwd I/O forward declarations @endlink
  57:d:/software/ovi_2503a_s3trc/ovi_2503a_s3trc/Tools/MinGW/include/c++/3.3.1/iostream ****    *
  58:d:/software/ovi_2503a_s3trc/ovi_2503a_s3trc/Tools/MinGW/include/c++/3.3.1/iostream ****    *  They are required by default to cooperate with the global C library's
  59:d:/software/ovi_2503a_s3trc/ovi_2503a_s3trc/Tools/MinGW/include/c++/3.3.1/iostream ****    *  @c FILE streams, and to be available during program startup and
  60:d:/software/ovi_2503a_s3trc/ovi_2503a_s3trc/Tools/MinGW/include/c++/3.3.1/iostream ****    *  termination.  For more information, see the HOWTO linked to above.
  61:d:/software/ovi_2503a_s3trc/ovi_2503a_s3trc/Tools/MinGW/include/c++/3.3.1/iostream ****   */
  62:d:/software/ovi_2503a_s3trc/ovi_2503a_s3trc/Tools/MinGW/include/c++/3.3.1/iostream ****   //@{
  63:d:/software/ovi_2503a_s3trc/ovi_2503a_s3trc/Tools/MinGW/include/c++/3.3.1/iostream ****   extern istream cin;		///< Linked to standard input
  64:d:/software/ovi_2503a_s3trc/ovi_2503a_s3trc/Tools/MinGW/include/c++/3.3.1/iostream ****   extern ostream cout;		///< Linked to standard output
  65:d:/software/ovi_2503a_s3trc/ovi_2503a_s3trc/Tools/MinGW/include/c++/3.3.1/iostream ****   extern ostream cerr;		///< Linked to standard error (unbuffered)
  66:d:/software/ovi_2503a_s3trc/ovi_2503a_s3trc/Tools/MinGW/include/c++/3.3.1/iostream ****   extern ostream clog;		///< Linked to standard error (buffered)
  67:d:/software/ovi_2503a_s3trc/ovi_2503a_s3trc/Tools/MinGW/include/c++/3.3.1/iostream **** 
  68:d:/software/ovi_2503a_s3trc/ovi_2503a_s3trc/Tools/MinGW/include/c++/3.3.1/iostream **** #ifdef _GLIBCPP_USE_WCHAR_T
  69:d:/software/ovi_2503a_s3trc/ovi_2503a_s3trc/Tools/MinGW/include/c++/3.3.1/iostream ****   extern wistream wcin;		///< Linked to standard input
  70:d:/software/ovi_2503a_s3trc/ovi_2503a_s3trc/Tools/MinGW/include/c++/3.3.1/iostream ****   extern wostream wcout;	///< Linked to standard output
  71:d:/software/ovi_2503a_s3trc/ovi_2503a_s3trc/Tools/MinGW/include/c++/3.3.1/iostream ****   extern wostream wcerr;	///< Linked to standard error (unbuffered)
  72:d:/software/ovi_2503a_s3trc/ovi_2503a_s3trc/Tools/MinGW/include/c++/3.3.1/iostream ****   extern wostream wclog;	///< Linked to standard error (buffered)
  73:d:/software/ovi_2503a_s3trc/ovi_2503a_s3trc/Tools/MinGW/include/c++/3.3.1/iostream **** #endif
  74:d:/software/ovi_2503a_s3trc/ovi_2503a_s3trc/Tools/MinGW/include/c++/3.3.1/iostream ****   //@}
  75:d:/software/ovi_2503a_s3trc/ovi_2503a_s3trc/Tools/MinGW/include/c++/3.3.1/iostream **** 
  76:d:/software/ovi_2503a_s3trc/ovi_2503a_s3trc/Tools/MinGW/include/c++/3.3.1/iostream ****   // For construction of filebuffers for cout, cin, cerr, clog et. al.
  77:d:/software/ovi_2503a_s3trc/ovi_2503a_s3trc/Tools/MinGW/include/c++/3.3.1/iostream ****   static ios_base::Init __ioinit;
 5834              	LM273:
 5835 22af 817D0CFF 		cmpl	$65535, 12(%ebp)
 5835      FF0000
 5836 22b6 7519     		jne	L169
 5837 22b8 837D0801 		cmpl	$1, 8(%ebp)
 5838 22bc 7513     		jne	L169
 5839 22be C7042400 		movl	$__ZSt8__ioinit, (%esp)
 5839      000000
 5840 22c5 C745B0FF 		movl	$-1, -80(%ebp)
 5840      FFFFFF
 5841 22cc E8000000 		call	__ZNSt8ios_base4InitC1Ev
 5841      00
 5842              	L169:
 5844              	Ltext4:
 5846              	LM274:
 5847 22d1 817D0CFF 		cmpl	$65535, 12(%ebp)
 5847      FF0000
 5848 22d8 7561     		jne	L170
 5849 22da 837D0801 		cmpl	$1, 8(%ebp)
 5850 22de 755B     		jne	L170
 5851 22e0 8D45D8   		leal	-40(%ebp), %eax
 5852 22e3 890424   		movl	%eax, (%esp)
 5853 22e6 E8000000 		call	__ZNSaI16ProcessImageDataEC1Ev
 5853      00
 5854 22eb 8D45D8   		leal	-40(%ebp), %eax
 5855 22ee 89442404 		movl	%eax, 4(%esp)
 5856 22f2 C7042410 		movl	$_g_resgen_png_image_list, (%esp)
GAS LISTING d:/software/ovi_2503a_s3trc/ovi_2503a_s3trc/plutommi/Customer/ResGenerator/gcctmp/ccuadaaa.s 			page 94


 5856      000000
 5857 22f9 C745B002 		movl	$2, -80(%ebp)
 5857      000000
 5858 2300 E8000000 		call	__ZNSt4listI16ProcessImageDataSaIS0_EEC1ERKS1_
 5858      00
 5859 2305 EB29     		jmp	L172
 5860              	L171:
 5861 2307 8B45A4   		movl	-92(%ebp), %eax
 5862 230a 8945A8   		movl	%eax, -88(%ebp)
 5863 230d 8D45D8   		leal	-40(%ebp), %eax
 5864 2310 890424   		movl	%eax, (%esp)
 5865 2313 E8000000 		call	__ZNSaI16ProcessImageDataED1Ev
 5865      00
 5866 2318 8B55A8   		movl	-88(%ebp), %edx
 5867 231b 8955A4   		movl	%edx, -92(%ebp)
 5868              	L173:
 5869 231e 8B45A4   		movl	-92(%ebp), %eax
 5870 2321 890424   		movl	%eax, (%esp)
 5871 2324 C745B0FF 		movl	$-1, -80(%ebp)
 5871      FFFFFF
 5872 232b E8000000 		call	__Unwind_SjLj_Resume
 5872      00
 5873              	L172:
 5874 2330 8D45D8   		leal	-40(%ebp), %eax
 5875 2333 890424   		movl	%eax, (%esp)
 5876 2336 E8000000 		call	__ZNSaI16ProcessImageDataED1Ev
 5876      00
 5877              	L170:
 5879              	LM275:
 5880 233b 817D0CFF 		cmpl	$65535, 12(%ebp)
 5880      FF0000
 5881 2342 7572     		jne	L175
 5882 2344 837D0801 		cmpl	$1, 8(%ebp)
 5883 2348 756C     		jne	L175
 5884 234a 8D45D8   		leal	-40(%ebp), %eax
 5885 234d 890424   		movl	%eax, (%esp)
 5886 2350 E8000000 		call	__ZNSaI13LogBinaryDataEC1Ev
 5886      00
 5887 2355 8D45D8   		leal	-40(%ebp), %eax
 5888 2358 89442404 		movl	%eax, 4(%esp)
 5889 235c C7042420 		movl	$_g_log_binary_data_list, (%esp)
 5889      000000
 5890 2363 C745B001 		movl	$1, -80(%ebp)
 5890      000000
 5891 236a E8000000 		call	__ZNSt4listI13LogBinaryDataSaIS0_EEC1ERKS1_
 5891      00
 5892 236f EB3A     		jmp	L177
 5893              	L183:
 5894 2371 8D6D18   		leal	24(%ebp), %ebp
 5895 2374 8B45B0   		movl	-80(%ebp), %eax
 5896 2377 8B55B4   		movl	-76(%ebp), %edx
 5897 237a 8955A4   		movl	%edx, -92(%ebp)
 5898 237d 83F801   		cmpl	$1, %eax
 5899 2380 7485     		je	L171
 5900              	L176:
 5901 2382 8B45A4   		movl	-92(%ebp), %eax
 5902 2385 8945A0   		movl	%eax, -96(%ebp)
GAS LISTING d:/software/ovi_2503a_s3trc/ovi_2503a_s3trc/plutommi/Customer/ResGenerator/gcctmp/ccuadaaa.s 			page 95


 5903 2388 8D45D8   		leal	-40(%ebp), %eax
 5904 238b 890424   		movl	%eax, (%esp)
 5905 238e E8000000 		call	__ZNSaI13LogBinaryDataED1Ev
 5905      00
 5906 2393 8B55A0   		movl	-96(%ebp), %edx
 5907 2396 8955A4   		movl	%edx, -92(%ebp)
 5908              	L178:
 5909 2399 8B45A4   		movl	-92(%ebp), %eax
 5910 239c 890424   		movl	%eax, (%esp)
 5911 239f C745B0FF 		movl	$-1, -80(%ebp)
 5911      FFFFFF
 5912 23a6 E8000000 		call	__Unwind_SjLj_Resume
 5912      00
 5913              	L177:
 5914 23ab 8D45D8   		leal	-40(%ebp), %eax
 5915 23ae 890424   		movl	%eax, (%esp)
 5916 23b1 E8000000 		call	__ZNSaI13LogBinaryDataED1Ev
 5916      00
 5917              	L175:
 5918 23b6 817D0CFF 		cmpl	$65535, 12(%ebp)
 5918      FF0000
 5919 23bd 7519     		jne	L180
 5920 23bf 837D0800 		cmpl	$0, 8(%ebp)
 5921 23c3 7513     		jne	L180
 5922 23c5 C7042420 		movl	$_g_log_binary_data_list, (%esp)
 5922      000000
 5923 23cc C745B0FF 		movl	$-1, -80(%ebp)
 5923      FFFFFF
 5924 23d3 E8000000 		call	__ZNSt4listI13LogBinaryDataSaIS0_EED1Ev
 5924      00
 5925              	L180:
 5927              	LM276:
 5928 23d8 817D0CFF 		cmpl	$65535, 12(%ebp)
 5928      FF0000
 5929 23df 7519     		jne	L181
 5930 23e1 837D0800 		cmpl	$0, 8(%ebp)
 5931 23e5 7513     		jne	L181
 5932 23e7 C7042410 		movl	$_g_resgen_png_image_list, (%esp)
 5932      000000
 5933 23ee C745B0FF 		movl	$-1, -80(%ebp)
 5933      FFFFFF
 5934 23f5 E8000000 		call	__ZNSt4listI16ProcessImageDataSaIS0_EED1Ev
 5934      00
 5935              	L181:
 5937              	Ltext5:
 5939              	LM277:
 5940 23fa 817D0CFF 		cmpl	$65535, 12(%ebp)
 5940      FF0000
 5941 2401 7519     		jne	L168
 5942 2403 837D0800 		cmpl	$0, 8(%ebp)
 5943 2407 7513     		jne	L168
 5944 2409 C7042400 		movl	$__ZSt8__ioinit, (%esp)
 5944      000000
 5945 2410 C745B0FF 		movl	$-1, -80(%ebp)
 5945      FFFFFF
 5946 2417 E8000000 		call	__ZNSt8ios_base4InitD1Ev
 5946      00
GAS LISTING d:/software/ovi_2503a_s3trc/ovi_2503a_s3trc/plutommi/Customer/ResGenerator/gcctmp/ccuadaaa.s 			page 96


 5947              	L168:
 5948 241c 8D45AC   		leal	-84(%ebp), %eax
 5949 241f 890424   		movl	%eax, (%esp)
 5950 2422 E8000000 		call	__Unwind_SjLj_Unregister
 5950      00
 5951 2427 83C46C   		addl	$108, %esp
 5952 242a 5B       		popl	%ebx
 5953 242b 5E       		popl	%esi
 5954 242c 5F       		popl	%edi
 5955 242d 5D       		popl	%ebp
 5956 242e C3       		ret
 5957              		.section	.gcc_except_table,""
 5958              	LLSDA2342:
 5959 001c FF       		.byte	0xff
 5960 001d FF       		.byte	0xff
 5961 001e 01       		.byte	0x1
 5962 001f 04       		.uleb128 LLSDACSE2342-LLSDACSB2342
 5963              	LLSDACSB2342:
 5964 0020 00       		.uleb128 0x0
 5965 0021 00       		.uleb128 0x0
 5966 0022 01       		.uleb128 0x1
 5967 0023 00       		.uleb128 0x0
 5968              	LLSDACSE2342:
 5969              		.text
 5970              	Lscope27:
 5972              		.section	.text$_ZNSt19_List_iterator_base7_M_incrEv,"x"
 5973              		.linkonce discard
 5974              		.align 2
 5977              	.globl __ZNSt19_List_iterator_base7_M_incrEv
 5979              	__ZNSt19_List_iterator_base7_M_incrEv:
 5981              	Ltext6:
 5983              	LM278:
 5984 0000 55       		pushl	%ebp
 5985 0001 89E5     		movl	%esp, %ebp
 5987              	LM279:
 5988              	LBB53:
 5989 0003 8B5508   		movl	8(%ebp), %edx
 5990 0006 8B4508   		movl	8(%ebp), %eax
 5991 0009 8B00     		movl	(%eax), %eax
 5992 000b 8B00     		movl	(%eax), %eax
 5993 000d 8902     		movl	%eax, (%edx)
 5994 000f 5D       		popl	%ebp
 5995 0010 C3       		ret
 5996              	LBE53:
 5997              	Lscope28:
 5999 0011 909090   		.section	.text$_ZNKSt19_List_iterator_baseneERKS_,"x"
 6000              		.linkonce discard
 6001              		.align 2
 6005              	.globl __ZNKSt19_List_iterator_baseneERKS_
 6007              	__ZNKSt19_List_iterator_baseneERKS_:
 6009              	LM280:
 6010 0000 55       		pushl	%ebp
 6011 0001 89E5     		movl	%esp, %ebp
 6013              	LM281:
 6014              	LBB54:
 6015 0003 8B4508   		movl	8(%ebp), %eax
 6016 0006 8B550C   		movl	12(%ebp), %edx
GAS LISTING d:/software/ovi_2503a_s3trc/ovi_2503a_s3trc/plutommi/Customer/ResGenerator/gcctmp/ccuadaaa.s 			page 97


 6017 0009 8B00     		movl	(%eax), %eax
 6018 000b 3B02     		cmpl	(%edx), %eax
 6019 000d 0F95C0   		setne	%al
 6020 0010 0FB6C0   		movzbl	%al, %eax
 6021 0013 5D       		popl	%ebp
 6022 0014 C3       		ret
 6023              	LBE54:
 6024              	Lscope29:
 6026 0015 909090   		.section	.text$_ZN10ThreadPool3RunEPNS_10IRunObjectENS_14ThreadPriorityE,"x"
 6027              		.linkonce discard
 6028              		.align 2
 6033              	.globl __ZN10ThreadPool3RunEPNS_10IRunObjectENS_14ThreadPriorityE
 6035              	__ZN10ThreadPool3RunEPNS_10IRunObjectENS_14ThreadPriorityE:
 6037              	Ltext7:
   1:../../mmi/resource/inc/ThreadPool.h **** #pragma once
   2:../../mmi/resource/inc/ThreadPool.h **** // Filename     : ThreadPool.h
   3:../../mmi/resource/inc/ThreadPool.h **** // Author       : Siddharth Barman
   4:../../mmi/resource/inc/ThreadPool.h **** // Date         : 18 Sept 2005
   5:../../mmi/resource/inc/ThreadPool.h **** // Refactored   : 29 Sept 2010 by Greg Labute
   6:../../mmi/resource/inc/ThreadPool.h **** /* Description  : Defines ThreadPool class. How to use the Thread Pool. First
   7:../../mmi/resource/inc/ThreadPool.h ****                 create a ThreadPool object. The default constructor will
   8:../../mmi/resource/inc/ThreadPool.h ****                 create 10 threads in the pool. To defer creation of the pool
   9:../../mmi/resource/inc/ThreadPool.h ****                 pass a pool size of 0 to the constructor.
  10:../../mmi/resource/inc/ThreadPool.h **** 
  11:../../mmi/resource/inc/ThreadPool.h ****                 You can use two approaches while working with the thread
  12:../../mmi/resource/inc/ThreadPool.h ****                 pool.
  13:../../mmi/resource/inc/ThreadPool.h **** 
  14:../../mmi/resource/inc/ThreadPool.h ****                 1. To make use of the thread pool, you will need to first
  15:../../mmi/resource/inc/ThreadPool.h ****                 create a function having the following signature
  16:../../mmi/resource/inc/ThreadPool.h ****                 DWORD WINAPI ThreadProc(LPVOID); Check the CreateThread
  17:../../mmi/resource/inc/ThreadPool.h ****                 documentation in MSDN to get details. Add this function to
  18:../../mmi/resource/inc/ThreadPool.h ****                 the pool by calling the Run() method and pass in the function
  19:../../mmi/resource/inc/ThreadPool.h ****                 name and a void* pointer to any object you want. The pool will
  20:../../mmi/resource/inc/ThreadPool.h ****                 pick up the function passed into Run() method and execute as
  21:../../mmi/resource/inc/ThreadPool.h ****                 threads in the pool become free.
  22:../../mmi/resource/inc/ThreadPool.h **** 
  23:../../mmi/resource/inc/ThreadPool.h ****                 2. Instead of using a function pointer, you can use an object
  24:../../mmi/resource/inc/ThreadPool.h ****                 of a class which derives from IRunObject. Pass a pointer to
  25:../../mmi/resource/inc/ThreadPool.h ****                 this object in the Run() method of the thread pool. As threads
  26:../../mmi/resource/inc/ThreadPool.h ****                 become free, the thread pool will call the Run() method of you
  27:../../mmi/resource/inc/ThreadPool.h ****                 r class. You will also need to write a body for AutoDelete() f
  28:../../mmi/resource/inc/ThreadPool.h ****                 unction. If the return value is true, the thread pool will use
  29:../../mmi/resource/inc/ThreadPool.h ****                 'delete' to free the object you pass in. If it returns false,
  30:../../mmi/resource/inc/ThreadPool.h ****                 the thread pool will not do anything else to the object after
  31:../../mmi/resource/inc/ThreadPool.h ****                 calling the Run() function.
  32:../../mmi/resource/inc/ThreadPool.h **** 
  33:../../mmi/resource/inc/ThreadPool.h ****                 It is possible to destroy the pool whenever you want by
  34:../../mmi/resource/inc/ThreadPool.h ****                 calling the Destroy() method. If you want to create a new pool
  35:../../mmi/resource/inc/ThreadPool.h ****                 call the Create() method.
  36:../../mmi/resource/inc/ThreadPool.h **** 
  37:../../mmi/resource/inc/ThreadPool.h ****                 If this code works, it was written by Siddharth Barman, email
  38:../../mmi/resource/inc/ThreadPool.h ****                 siddharth_b@yahoo.com.
  39:../../mmi/resource/inc/ThreadPool.h ****                 _____ _                        _  ______           _
  40:../../mmi/resource/inc/ThreadPool.h ****                 |_   _| |                      | | | ___ \         | |
  41:../../mmi/resource/inc/ThreadPool.h ****                 | | | |__  _ __ ___  __ _  __| | | |_/ /__   ___ | |
  42:../../mmi/resource/inc/ThreadPool.h ****                 | | | '_ \| '__/ _ \/ _` |/ _` | |  __/ _ \ / _ \| |
  43:../../mmi/resource/inc/ThreadPool.h ****                 | | | | | | | |  __/ (_| | (_| | | | | (_) | (_) | |
GAS LISTING d:/software/ovi_2503a_s3trc/ovi_2503a_s3trc/plutommi/Customer/ResGenerator/gcctmp/ccuadaaa.s 			page 98


  44:../../mmi/resource/inc/ThreadPool.h ****                 \_/ |_| |_|_|  \___|\__,_|\__,_| \_|  \___/ \___/|_|
  45:../../mmi/resource/inc/ThreadPool.h **** ------------------------------------------------------------------------------*/
  46:../../mmi/resource/inc/ThreadPool.h **** 
  47:../../mmi/resource/inc/ThreadPool.h **** #include <list>
  48:../../mmi/resource/inc/ThreadPool.h **** #include <vector>
  49:../../mmi/resource/inc/ThreadPool.h **** 
  50:../../mmi/resource/inc/ThreadPool.h **** class ThreadPool
  51:../../mmi/resource/inc/ThreadPool.h **** {
  52:../../mmi/resource/inc/ThreadPool.h **** public:
  53:../../mmi/resource/inc/ThreadPool.h ****     // PoolSize is the number of worker threads that will be created.
  54:../../mmi/resource/inc/ThreadPool.h ****     ThreadPool(int poolSize = 10, int waitTimeForThreadsToCompleteMS = 5000);
  55:../../mmi/resource/inc/ThreadPool.h ****     virtual ~ThreadPool();
  56:../../mmi/resource/inc/ThreadPool.h **** 
  57:../../mmi/resource/inc/ThreadPool.h ****     // Use this method to create the worker threads if you specified a poolSize
  58:../../mmi/resource/inc/ThreadPool.h ****     // of 0 in the constructor, or if you want to change the number of worker threads.
  59:../../mmi/resource/inc/ThreadPool.h ****     // Returns: true if no error.
  60:../../mmi/resource/inc/ThreadPool.h ****     bool Create(int poolSize);
  61:../../mmi/resource/inc/ThreadPool.h **** 
  62:../../mmi/resource/inc/ThreadPool.h ****     // Use this method to destroy the worker threads. The destructor of
  63:../../mmi/resource/inc/ThreadPool.h ****     // this class will destroy the threads automatically.
  64:../../mmi/resource/inc/ThreadPool.h ****     void Destroy();
  65:../../mmi/resource/inc/ThreadPool.h **** 
  66:../../mmi/resource/inc/ThreadPool.h ****     // How many worker threads are in the pool?
  67:../../mmi/resource/inc/ThreadPool.h ****     int GetPoolSize() { return m_threads.size(); }
  68:../../mmi/resource/inc/ThreadPool.h **** 
  69:../../mmi/resource/inc/ThreadPool.h ****     // This decides whether a job is added to the front or back of the queue.
  70:../../mmi/resource/inc/ThreadPool.h ****     enum ThreadPriority { High, Low };
  71:../../mmi/resource/inc/ThreadPool.h **** 
  72:../../mmi/resource/inc/ThreadPool.h ****     // Run a job
  73:../../mmi/resource/inc/ThreadPool.h ****     void Run(LPTHREAD_START_ROUTINE pFunc, LPVOID pData, ThreadPriority priority = Low)
  74:../../mmi/resource/inc/ThreadPool.h ****         { AddJobToQueue(pFunc, pData, NULL, priority); }
  75:../../mmi/resource/inc/ThreadPool.h ****     struct IRunObject
  76:../../mmi/resource/inc/ThreadPool.h ****     {
  77:../../mmi/resource/inc/ThreadPool.h ****         virtual ~IRunObject() {}
  78:../../mmi/resource/inc/ThreadPool.h ****         virtual void Run() = 0;
  79:../../mmi/resource/inc/ThreadPool.h ****         virtual bool AutoDelete() = 0;
  80:../../mmi/resource/inc/ThreadPool.h ****     };
  81:../../mmi/resource/inc/ThreadPool.h ****     void Run(IRunObject* job, ThreadPriority priority = Low)
  82:../../mmi/resource/inc/ThreadPool.h ****         { AddJobToQueue(NULL, NULL, job, priority); }
 6039              	LM282:
 6040 0000 55       		pushl	%ebp
 6041 0001 89E5     		movl	%esp, %ebp
 6042 0003 83EC18   		subl	$24, %esp
 6044              	LM283:
 6045              	LBB55:
 6046 0006 8B4510   		movl	16(%ebp), %eax
 6047 0009 89442410 		movl	%eax, 16(%esp)
 6048 000d 8B450C   		movl	12(%ebp), %eax
 6049 0010 8944240C 		movl	%eax, 12(%esp)
 6050 0014 C7442408 		movl	$0, 8(%esp)
 6050      00000000 
 6051 001c C7442404 		movl	$0, 4(%esp)
 6051      00000000 
 6052 0024 8B4508   		movl	8(%ebp), %eax
 6053 0027 890424   		movl	%eax, (%esp)
 6054 002a E8000000 		call	__ZN10ThreadPool13AddJobToQueueEPFmPvES0_PNS_10IRunObjectENS_14ThreadPriorityE
 6054      00
GAS LISTING d:/software/ovi_2503a_s3trc/ovi_2503a_s3trc/plutommi/Customer/ResGenerator/gcctmp/ccuadaaa.s 			page 99


 6055 002f C9       		leave
 6056 0030 C3       		ret
 6057              	LBE55:
 6058              	Lscope30:
 6060 0031 909090   		.section	.text$_ZN21_ResgenImageOutStreamC1Ev,"x"
 6061              		.linkonce discard
 6062              		.align 2
 6065              	.globl __ZN21_ResgenImageOutStreamC1Ev
 6067              	__ZN21_ResgenImageOutStreamC1Ev:
 6069              	Ltext8:
 6071              	LM284:
 6072 0000 55       		pushl	%ebp
 6073 0001 89E5     		movl	%esp, %ebp
 6075              	LM285:
 6076              	LBB56:
 6077 0003 8B4508   		movl	8(%ebp), %eax
 6078 0006 C7000000 		movl	$0, (%eax)
 6078      0000
 6079 000c 8B4508   		movl	8(%ebp), %eax
 6080 000f C7400400 		movl	$0, 4(%eax)
 6080      000000
 6082              	LM286:
 6083 0016 5D       		popl	%ebp
 6084 0017 C3       		ret
 6085              	LBE56:
 6086              	Lscope31:
 6088              		.section	.text$_ZN21_ResgenImageOutStreamD1Ev,"x"
 6089              		.linkonce discard
 6090              		.align 2
 6093              	.globl __ZN21_ResgenImageOutStreamD1Ev
 6095              	__ZN21_ResgenImageOutStreamD1Ev:
 6097              	LM287:
 6098 0000 55       		pushl	%ebp
 6099 0001 89E5     		movl	%esp, %ebp
 6100 0003 83EC08   		subl	$8, %esp
 6102              	LM288:
 6103              	LBB57:
 6104 0006 8B4508   		movl	8(%ebp), %eax
 6105 0009 8B4004   		movl	4(%eax), %eax
 6106 000c 890424   		movl	%eax, (%esp)
 6107 000f E8000000 		call	__ZdlPv
 6107      00
 6109              	LM289:
 6110 0014 C9       		leave
 6111 0015 C3       		ret
 6112              	LBE57:
 6113              	Lscope32:
 6115 0016 9090     		.section	.text$_ZN16ProcessImageDataD1Ev,"x"
 6116              		.linkonce discard
 6117              		.align 2
 6120              	.globl __ZN16ProcessImageDataD1Ev
 6122              	__ZN16ProcessImageDataD1Ev:
 6124              	LM290:
 6125              	L193:
 6126 0000 55       		pushl	%ebp
 6127 0001 89E5     		movl	%esp, %ebp
 6128 0003 83EC08   		subl	$8, %esp
GAS LISTING d:/software/ovi_2503a_s3trc/ovi_2503a_s3trc/plutommi/Customer/ResGenerator/gcctmp/ccuadaaa.s 			page 100


 6130              	LM291:
 6131 0006 8B4508   		movl	8(%ebp), %eax
 6132              	LBB58:
 6133 0009 05300200 		addl	$560, %eax
 6133      00
 6134 000e 890424   		movl	%eax, (%esp)
 6135 0011 E8000000 		call	__ZN21_ResgenImageOutStreamD1Ev
 6135      00
 6136              	L195:
 6137 0016 8B4508   		movl	8(%ebp), %eax
 6138 0019 83C008   		addl	$8, %eax
 6139 001c 890424   		movl	%eax, (%esp)
 6140 001f E8000000 		call	__ZNSsD1Ev
 6140      00
 6141              	L197:
 6142 0024 8B4508   		movl	8(%ebp), %eax
 6143 0027 83C004   		addl	$4, %eax
 6144 002a 890424   		movl	%eax, (%esp)
 6145 002d E8000000 		call	__ZNSsD1Ev
 6145      00
 6146 0032 C9       		leave
 6147 0033 C3       		ret
 6148              	L191:
 6149              	LBE58:
 6150              	Lscope33:
 6152              		.section	.text$_ZN16ProcessImageDataC1EtPcS0_iii,"x"
 6153              		.linkonce discard
 6154              		.align 2
 6163              	.globl __ZN16ProcessImageDataC1EtPcS0_iii
 6165              	__ZN16ProcessImageDataC1EtPcS0_iii:
 6167              	LM292:
 6168 0000 55       		pushl	%ebp
 6169 0001 89E5     		movl	%esp, %ebp
 6170 0003 57       		pushl	%edi
 6171 0004 56       		pushl	%esi
 6172 0005 53       		pushl	%ebx
 6173 0006 81EC8C00 		subl	$140, %esp
 6173      0000
 6174 000c 8B450C   		movl	12(%ebp), %eax
 6175 000f 668945E6 		movw	%ax, -26(%ebp)
 6176 0013 C745B400 		movl	$___gxx_personality_sj0, -76(%ebp)
 6176      000000
 6177 001a C745B824 		movl	$LLSDA2349, -72(%ebp)
 6177      000000
 6178 0021 8D45BC   		leal	-68(%ebp), %eax
 6179 0024 8D55E8   		leal	-24(%ebp), %edx
 6180 0027 8910     		movl	%edx, (%eax)
 6181 0029 BA5D0100 		movl	$L221, %edx
 6181      00
 6182 002e 895004   		movl	%edx, 4(%eax)
 6183 0031 896008   		movl	%esp, 8(%eax)
 6184 0034 8D459C   		leal	-100(%ebp), %eax
 6185 0037 890424   		movl	%eax, (%esp)
 6186 003a E8000000 		call	__Unwind_SjLj_Register
 6186      00
 6188              	LM293:
 6189              	LBB59:
GAS LISTING d:/software/ovi_2503a_s3trc/ovi_2503a_s3trc/plutommi/Customer/ResGenerator/gcctmp/ccuadaaa.s 			page 101


 6190 003f 8B5508   		movl	8(%ebp), %edx
 6191 0042 0FB745E6 		movzwl	-26(%ebp), %eax
 6192 0046 668902   		movw	%ax, (%edx)
 6193 0049 8D45C8   		leal	-56(%ebp), %eax
 6194 004c 890424   		movl	%eax, (%esp)
 6195 004f E8000000 		call	__ZNSaIcEC1Ev
 6195      00
 6196 0054 8D45C8   		leal	-56(%ebp), %eax
 6197 0057 89442408 		movl	%eax, 8(%esp)
 6198 005b 8B4510   		movl	16(%ebp), %eax
 6199 005e 89442404 		movl	%eax, 4(%esp)
 6200 0062 8B4508   		movl	8(%ebp), %eax
 6201 0065 83C004   		addl	$4, %eax
 6202 0068 890424   		movl	%eax, (%esp)
 6203 006b C745A003 		movl	$3, -96(%ebp)
 6203      000000
 6204 0072 E8000000 		call	__ZNSsC1EPKcRKSaIcE
 6204      00
 6205 0077 EB29     		jmp	L202
 6206              	L201:
 6207 0079 8B4594   		movl	-108(%ebp), %eax
 6208 007c 894598   		movl	%eax, -104(%ebp)
 6209 007f 8D45C8   		leal	-56(%ebp), %eax
 6210 0082 890424   		movl	%eax, (%esp)
 6211 0085 E8000000 		call	__ZNSaIcED1Ev
 6211      00
 6212 008a 8B5598   		movl	-104(%ebp), %edx
 6213 008d 895594   		movl	%edx, -108(%ebp)
 6214              	L203:
 6215 0090 8B4594   		movl	-108(%ebp), %eax
 6216 0093 890424   		movl	%eax, (%esp)
 6217 0096 C745A0FF 		movl	$-1, -96(%ebp)
 6217      FFFFFF
 6218 009d E8000000 		call	__Unwind_SjLj_Resume
 6218      00
 6219              	L202:
 6220 00a2 8D45C8   		leal	-56(%ebp), %eax
 6221 00a5 890424   		movl	%eax, (%esp)
 6222 00a8 E8000000 		call	__ZNSaIcED1Ev
 6222      00
 6223 00ad 8D45C8   		leal	-56(%ebp), %eax
 6224 00b0 890424   		movl	%eax, (%esp)
 6225 00b3 E8000000 		call	__ZNSaIcEC1Ev
 6225      00
 6226 00b8 8D45C8   		leal	-56(%ebp), %eax
 6227 00bb 89442408 		movl	%eax, 8(%esp)
 6228 00bf 8B4514   		movl	20(%ebp), %eax
 6229 00c2 89442404 		movl	%eax, 4(%esp)
 6230 00c6 8B4508   		movl	8(%ebp), %eax
 6231 00c9 83C008   		addl	$8, %eax
 6232 00cc 890424   		movl	%eax, (%esp)
 6233 00cf C745A002 		movl	$2, -96(%ebp)
 6233      000000
 6234 00d6 E8000000 		call	__ZNSsC1EPKcRKSaIcE
 6234      00
 6235 00db EB1C     		jmp	L206
 6236              	L205:
GAS LISTING d:/software/ovi_2503a_s3trc/ovi_2503a_s3trc/plutommi/Customer/ResGenerator/gcctmp/ccuadaaa.s 			page 102


 6237 00dd 8B5594   		movl	-108(%ebp), %edx
 6238 00e0 895590   		movl	%edx, -112(%ebp)
 6239 00e3 8D45C8   		leal	-56(%ebp), %eax
 6240 00e6 890424   		movl	%eax, (%esp)
 6241 00e9 E8000000 		call	__ZNSaIcED1Ev
 6241      00
 6242 00ee 8B4590   		movl	-112(%ebp), %eax
 6243 00f1 894594   		movl	%eax, -108(%ebp)
 6244              	L207:
 6245 00f4 E9BD0000 		jmp	L217
 6245      00
 6246              	L206:
 6247 00f9 8D45C8   		leal	-56(%ebp), %eax
 6248 00fc 890424   		movl	%eax, (%esp)
 6249 00ff E8000000 		call	__ZNSaIcED1Ev
 6249      00
 6250 0104 8B5508   		movl	8(%ebp), %edx
 6251 0107 8B4518   		movl	24(%ebp), %eax
 6252 010a 89420C   		movl	%eax, 12(%edx)
 6253 010d 8B5508   		movl	8(%ebp), %edx
 6254 0110 8B451C   		movl	28(%ebp), %eax
 6255 0113 894210   		movl	%eax, 16(%edx)
 6256 0116 8B4508   		movl	8(%ebp), %eax
 6257 0119 05300200 		addl	$560, %eax
 6257      00
 6258 011e 890424   		movl	%eax, (%esp)
 6259 0121 E8000000 		call	__ZN21_ResgenImageOutStreamC1Ev
 6259      00
 6261              	LM294:
 6262 0126 8B4508   		movl	8(%ebp), %eax
 6263 0129 83C014   		addl	$20, %eax
 6264 012c 890424   		movl	%eax, (%esp)
 6265 012f C745A001 		movl	$1, -96(%ebp)
 6265      000000
 6266 0136 E82C0000 		call	_initImageProcessData
 6266      00
 6268              	LM295:
 6269 013b 8B5508   		movl	8(%ebp), %edx
 6270 013e 8B4508   		movl	8(%ebp), %eax
 6271 0141 05300200 		addl	$560, %eax
 6271      00
 6272 0146 89821802 		movl	%eax, 536(%edx)
 6272      0000
 6274              	LM296:
 6275 014c 8B5508   		movl	8(%ebp), %edx
 6276 014f 8B4520   		movl	32(%ebp), %eax
 6277 0152 89822802 		movl	%eax, 552(%edx)
 6277      0000
 6278 0158 E9850000 		jmp	L200
 6278      00
 6279              	L221:
 6280 015d 8D6D18   		leal	24(%ebp), %ebp
 6281 0160 8B55A0   		movl	-96(%ebp), %edx
 6282 0163 895580   		movl	%edx, -128(%ebp)
 6283 0166 8B45A4   		movl	-92(%ebp), %eax
 6284 0169 894594   		movl	%eax, -108(%ebp)
 6285 016c 837D8001 		cmpl	$1, -128(%ebp)
GAS LISTING d:/software/ovi_2503a_s3trc/ovi_2503a_s3trc/plutommi/Customer/ResGenerator/gcctmp/ccuadaaa.s 			page 103


 6286 0170 0F8467FF 		je	L205
 6286      FFFF
 6287 0176 837D8002 		cmpl	$2, -128(%ebp)
 6288 017a 0F84F9FE 		je	L201
 6288      FFFF
 6289              	L209:
 6290 0180 8B5594   		movl	-108(%ebp), %edx
 6291 0183 89558C   		movl	%edx, -116(%ebp)
 6292 0186 8B4508   		movl	8(%ebp), %eax
 6293 0189 05300200 		addl	$560, %eax
 6293      00
 6294 018e 890424   		movl	%eax, (%esp)
 6295 0191 E8000000 		call	__ZN21_ResgenImageOutStreamD1Ev
 6295      00
 6296 0196 8B458C   		movl	-116(%ebp), %eax
 6297 0199 894594   		movl	%eax, -108(%ebp)
 6298              	L211:
 6299              	L213:
 6300 019c 8B5594   		movl	-108(%ebp), %edx
 6301 019f 895588   		movl	%edx, -120(%ebp)
 6302 01a2 8B4508   		movl	8(%ebp), %eax
 6303 01a5 83C008   		addl	$8, %eax
 6304 01a8 890424   		movl	%eax, (%esp)
 6305 01ab E8000000 		call	__ZNSsD1Ev
 6305      00
 6306 01b0 8B4588   		movl	-120(%ebp), %eax
 6307 01b3 894594   		movl	%eax, -108(%ebp)
 6308              	L215:
 6309              	L217:
 6310 01b6 8B5594   		movl	-108(%ebp), %edx
 6311 01b9 895584   		movl	%edx, -124(%ebp)
 6312 01bc 8B4508   		movl	8(%ebp), %eax
 6313 01bf 83C004   		addl	$4, %eax
 6314 01c2 890424   		movl	%eax, (%esp)
 6315 01c5 E8000000 		call	__ZNSsD1Ev
 6315      00
 6316 01ca 8B4584   		movl	-124(%ebp), %eax
 6317 01cd 894594   		movl	%eax, -108(%ebp)
 6318              	L219:
 6319 01d0 8B5594   		movl	-108(%ebp), %edx
 6320 01d3 891424   		movl	%edx, (%esp)
 6321 01d6 C745A0FF 		movl	$-1, -96(%ebp)
 6321      FFFFFF
 6322 01dd E8000000 		call	__Unwind_SjLj_Resume
 6322      00
 6324              	LM297:
 6325              	L200:
 6326 01e2 8D459C   		leal	-100(%ebp), %eax
 6327 01e5 890424   		movl	%eax, (%esp)
 6328 01e8 E8000000 		call	__Unwind_SjLj_Unregister
 6328      00
 6329 01ed 81C48C00 		addl	$140, %esp
 6329      0000
 6330 01f3 5B       		popl	%ebx
 6331 01f4 5E       		popl	%esi
 6332 01f5 5F       		popl	%edi
 6333 01f6 5D       		popl	%ebp
GAS LISTING d:/software/ovi_2503a_s3trc/ovi_2503a_s3trc/plutommi/Customer/ResGenerator/gcctmp/ccuadaaa.s 			page 104


 6334 01f7 C3       		ret
 6335              	LBE59:
 6336              		.section	.gcc_except_table,""
 6337              	LLSDA2349:
 6338 0024 FF       		.byte	0xff
 6339 0025 FF       		.byte	0xff
 6340 0026 01       		.byte	0x1
 6341 0027 06       		.uleb128 LLSDACSE2349-LLSDACSB2349
 6342              	LLSDACSB2349:
 6343 0028 00       		.uleb128 0x0
 6344 0029 00       		.uleb128 0x0
 6345 002a 01       		.uleb128 0x1
 6346 002b 00       		.uleb128 0x0
 6347 002c 02       		.uleb128 0x2
 6348 002d 00       		.uleb128 0x0
 6349              	LLSDACSE2349:
 6350              		.section	.text$_ZN16ProcessImageDataC1EtPcS0_iii,"x"
 6351              		.linkonce discard
 6353              	Lscope34:
 6355              		.section	.text$_ZNSaI16ProcessImageDataEC1Ev,"x"
 6356              		.linkonce discard
 6357              		.align 2
 6360              	.globl __ZNSaI16ProcessImageDataEC1Ev
 6362              	__ZNSaI16ProcessImageDataEC1Ev:
 6364              	Ltext9:
   1:d:/software/ovi_2503a_s3trc/ovi_2503a_s3trc/Tools/MinGW/include/c++/3.3.1/bits/stl_alloc.h **** // Allocators -*- C++ -*-
   2:d:/software/ovi_2503a_s3trc/ovi_2503a_s3trc/Tools/MinGW/include/c++/3.3.1/bits/stl_alloc.h **** 
   3:d:/software/ovi_2503a_s3trc/ovi_2503a_s3trc/Tools/MinGW/include/c++/3.3.1/bits/stl_alloc.h **** // Copyright (C) 2001, 2002, 2003 Free Software Foundation, Inc.
   4:d:/software/ovi_2503a_s3trc/ovi_2503a_s3trc/Tools/MinGW/include/c++/3.3.1/bits/stl_alloc.h **** //
   5:d:/software/ovi_2503a_s3trc/ovi_2503a_s3trc/Tools/MinGW/include/c++/3.3.1/bits/stl_alloc.h **** // This file is part of the GNU ISO C++ Library.  This library is free
   6:d:/software/ovi_2503a_s3trc/ovi_2503a_s3trc/Tools/MinGW/include/c++/3.3.1/bits/stl_alloc.h **** // software; you can redistribute it and/or modify it under the
   7:d:/software/ovi_2503a_s3trc/ovi_2503a_s3trc/Tools/MinGW/include/c++/3.3.1/bits/stl_alloc.h **** // terms of the GNU General Public License as published by the
   8:d:/software/ovi_2503a_s3trc/ovi_2503a_s3trc/Tools/MinGW/include/c++/3.3.1/bits/stl_alloc.h **** // Free Software Foundation; either version 2, or (at your option)
   9:d:/software/ovi_2503a_s3trc/ovi_2503a_s3trc/Tools/MinGW/include/c++/3.3.1/bits/stl_alloc.h **** // any later version.
  10:d:/software/ovi_2503a_s3trc/ovi_2503a_s3trc/Tools/MinGW/include/c++/3.3.1/bits/stl_alloc.h **** 
  11:d:/software/ovi_2503a_s3trc/ovi_2503a_s3trc/Tools/MinGW/include/c++/3.3.1/bits/stl_alloc.h **** // This library is distributed in the hope that it will be useful,
  12:d:/software/ovi_2503a_s3trc/ovi_2503a_s3trc/Tools/MinGW/include/c++/3.3.1/bits/stl_alloc.h **** // but WITHOUT ANY WARRANTY; without even the implied warranty of
  13:d:/software/ovi_2503a_s3trc/ovi_2503a_s3trc/Tools/MinGW/include/c++/3.3.1/bits/stl_alloc.h **** // MERCHANTABILITY or FITNESS FOR A PARTICULAR PURPOSE.  See the
  14:d:/software/ovi_2503a_s3trc/ovi_2503a_s3trc/Tools/MinGW/include/c++/3.3.1/bits/stl_alloc.h **** // GNU General Public License for more details.
  15:d:/software/ovi_2503a_s3trc/ovi_2503a_s3trc/Tools/MinGW/include/c++/3.3.1/bits/stl_alloc.h **** 
  16:d:/software/ovi_2503a_s3trc/ovi_2503a_s3trc/Tools/MinGW/include/c++/3.3.1/bits/stl_alloc.h **** // You should have received a copy of the GNU General Public License along
  17:d:/software/ovi_2503a_s3trc/ovi_2503a_s3trc/Tools/MinGW/include/c++/3.3.1/bits/stl_alloc.h **** // with this library; see the file COPYING.  If not, write to the Free
  18:d:/software/ovi_2503a_s3trc/ovi_2503a_s3trc/Tools/MinGW/include/c++/3.3.1/bits/stl_alloc.h **** // Software Foundation, 59 Temple Place - Suite 330, Boston, MA 02111-1307,
  19:d:/software/ovi_2503a_s3trc/ovi_2503a_s3trc/Tools/MinGW/include/c++/3.3.1/bits/stl_alloc.h **** // USA.
  20:d:/software/ovi_2503a_s3trc/ovi_2503a_s3trc/Tools/MinGW/include/c++/3.3.1/bits/stl_alloc.h **** 
  21:d:/software/ovi_2503a_s3trc/ovi_2503a_s3trc/Tools/MinGW/include/c++/3.3.1/bits/stl_alloc.h **** // As a special exception, you may use this file as part of a free software
  22:d:/software/ovi_2503a_s3trc/ovi_2503a_s3trc/Tools/MinGW/include/c++/3.3.1/bits/stl_alloc.h **** // library without restriction.  Specifically, if other files instantiate
  23:d:/software/ovi_2503a_s3trc/ovi_2503a_s3trc/Tools/MinGW/include/c++/3.3.1/bits/stl_alloc.h **** // templates or use macros or inline functions from this file, or you compile
  24:d:/software/ovi_2503a_s3trc/ovi_2503a_s3trc/Tools/MinGW/include/c++/3.3.1/bits/stl_alloc.h **** // this file and link it with other files to produce an executable, this
  25:d:/software/ovi_2503a_s3trc/ovi_2503a_s3trc/Tools/MinGW/include/c++/3.3.1/bits/stl_alloc.h **** // file does not by itself cause the resulting executable to be covered by
  26:d:/software/ovi_2503a_s3trc/ovi_2503a_s3trc/Tools/MinGW/include/c++/3.3.1/bits/stl_alloc.h **** // the GNU General Public License.  This exception does not however
  27:d:/software/ovi_2503a_s3trc/ovi_2503a_s3trc/Tools/MinGW/include/c++/3.3.1/bits/stl_alloc.h **** // invalidate any other reasons why the executable file might be covered by
  28:d:/software/ovi_2503a_s3trc/ovi_2503a_s3trc/Tools/MinGW/include/c++/3.3.1/bits/stl_alloc.h **** // the GNU General Public License.
  29:d:/software/ovi_2503a_s3trc/ovi_2503a_s3trc/Tools/MinGW/include/c++/3.3.1/bits/stl_alloc.h **** 
  30:d:/software/ovi_2503a_s3trc/ovi_2503a_s3trc/Tools/MinGW/include/c++/3.3.1/bits/stl_alloc.h **** /*
  31:d:/software/ovi_2503a_s3trc/ovi_2503a_s3trc/Tools/MinGW/include/c++/3.3.1/bits/stl_alloc.h ****  * Copyright (c) 1996-1997
  32:d:/software/ovi_2503a_s3trc/ovi_2503a_s3trc/Tools/MinGW/include/c++/3.3.1/bits/stl_alloc.h ****  * Silicon Graphics Computer Systems, Inc.
GAS LISTING d:/software/ovi_2503a_s3trc/ovi_2503a_s3trc/plutommi/Customer/ResGenerator/gcctmp/ccuadaaa.s 			page 105


  33:d:/software/ovi_2503a_s3trc/ovi_2503a_s3trc/Tools/MinGW/include/c++/3.3.1/bits/stl_alloc.h ****  *
  34:d:/software/ovi_2503a_s3trc/ovi_2503a_s3trc/Tools/MinGW/include/c++/3.3.1/bits/stl_alloc.h ****  * Permission to use, copy, modify, distribute and sell this software
  35:d:/software/ovi_2503a_s3trc/ovi_2503a_s3trc/Tools/MinGW/include/c++/3.3.1/bits/stl_alloc.h ****  * and its documentation for any purpose is hereby granted without fee,
  36:d:/software/ovi_2503a_s3trc/ovi_2503a_s3trc/Tools/MinGW/include/c++/3.3.1/bits/stl_alloc.h ****  * provided that the above copyright notice appear in all copies and
  37:d:/software/ovi_2503a_s3trc/ovi_2503a_s3trc/Tools/MinGW/include/c++/3.3.1/bits/stl_alloc.h ****  * that both that copyright notice and this permission notice appear
  38:d:/software/ovi_2503a_s3trc/ovi_2503a_s3trc/Tools/MinGW/include/c++/3.3.1/bits/stl_alloc.h ****  * in supporting documentation.  Silicon Graphics makes no
  39:d:/software/ovi_2503a_s3trc/ovi_2503a_s3trc/Tools/MinGW/include/c++/3.3.1/bits/stl_alloc.h ****  * representations about the suitability of this software for any
  40:d:/software/ovi_2503a_s3trc/ovi_2503a_s3trc/Tools/MinGW/include/c++/3.3.1/bits/stl_alloc.h ****  * purpose.  It is provided "as is" without express or implied warranty.
  41:d:/software/ovi_2503a_s3trc/ovi_2503a_s3trc/Tools/MinGW/include/c++/3.3.1/bits/stl_alloc.h ****  */
  42:d:/software/ovi_2503a_s3trc/ovi_2503a_s3trc/Tools/MinGW/include/c++/3.3.1/bits/stl_alloc.h **** 
  43:d:/software/ovi_2503a_s3trc/ovi_2503a_s3trc/Tools/MinGW/include/c++/3.3.1/bits/stl_alloc.h **** /** @file stl_alloc.h
  44:d:/software/ovi_2503a_s3trc/ovi_2503a_s3trc/Tools/MinGW/include/c++/3.3.1/bits/stl_alloc.h ****  *  This is an internal header file, included by other library headers.
  45:d:/software/ovi_2503a_s3trc/ovi_2503a_s3trc/Tools/MinGW/include/c++/3.3.1/bits/stl_alloc.h ****  *  You should not attempt to use it directly.
  46:d:/software/ovi_2503a_s3trc/ovi_2503a_s3trc/Tools/MinGW/include/c++/3.3.1/bits/stl_alloc.h ****  */
  47:d:/software/ovi_2503a_s3trc/ovi_2503a_s3trc/Tools/MinGW/include/c++/3.3.1/bits/stl_alloc.h **** 
  48:d:/software/ovi_2503a_s3trc/ovi_2503a_s3trc/Tools/MinGW/include/c++/3.3.1/bits/stl_alloc.h **** #ifndef __GLIBCPP_INTERNAL_ALLOC_H
  49:d:/software/ovi_2503a_s3trc/ovi_2503a_s3trc/Tools/MinGW/include/c++/3.3.1/bits/stl_alloc.h **** #define __GLIBCPP_INTERNAL_ALLOC_H
  50:d:/software/ovi_2503a_s3trc/ovi_2503a_s3trc/Tools/MinGW/include/c++/3.3.1/bits/stl_alloc.h **** 
  51:d:/software/ovi_2503a_s3trc/ovi_2503a_s3trc/Tools/MinGW/include/c++/3.3.1/bits/stl_alloc.h **** /**
  52:d:/software/ovi_2503a_s3trc/ovi_2503a_s3trc/Tools/MinGW/include/c++/3.3.1/bits/stl_alloc.h ****  *  @defgroup Allocators Memory Allocators
  53:d:/software/ovi_2503a_s3trc/ovi_2503a_s3trc/Tools/MinGW/include/c++/3.3.1/bits/stl_alloc.h ****  *  @if maint
  54:d:/software/ovi_2503a_s3trc/ovi_2503a_s3trc/Tools/MinGW/include/c++/3.3.1/bits/stl_alloc.h ****  *  stl_alloc.h implements some node allocators.  These are NOT the same as
  55:d:/software/ovi_2503a_s3trc/ovi_2503a_s3trc/Tools/MinGW/include/c++/3.3.1/bits/stl_alloc.h ****  *  allocators in the C++ standard, nor in the original H-P STL.  They do not
  56:d:/software/ovi_2503a_s3trc/ovi_2503a_s3trc/Tools/MinGW/include/c++/3.3.1/bits/stl_alloc.h ****  *  encapsulate different pointer types; we assume that there is only one
  57:d:/software/ovi_2503a_s3trc/ovi_2503a_s3trc/Tools/MinGW/include/c++/3.3.1/bits/stl_alloc.h ****  *  pointer type.  The C++ standard allocators are intended to allocate
  58:d:/software/ovi_2503a_s3trc/ovi_2503a_s3trc/Tools/MinGW/include/c++/3.3.1/bits/stl_alloc.h ****  *  individual objects, not pools or arenas.
  59:d:/software/ovi_2503a_s3trc/ovi_2503a_s3trc/Tools/MinGW/include/c++/3.3.1/bits/stl_alloc.h ****  *
  60:d:/software/ovi_2503a_s3trc/ovi_2503a_s3trc/Tools/MinGW/include/c++/3.3.1/bits/stl_alloc.h ****  *  In this file allocators are of two different styles:  "standard" and
  61:d:/software/ovi_2503a_s3trc/ovi_2503a_s3trc/Tools/MinGW/include/c++/3.3.1/bits/stl_alloc.h ****  *  "SGI" (quotes included).  "Standard" allocators conform to 20.4.  "SGI"
  62:d:/software/ovi_2503a_s3trc/ovi_2503a_s3trc/Tools/MinGW/include/c++/3.3.1/bits/stl_alloc.h ****  *  allocators differ in AT LEAST the following ways (add to this list as you
  63:d:/software/ovi_2503a_s3trc/ovi_2503a_s3trc/Tools/MinGW/include/c++/3.3.1/bits/stl_alloc.h ****  *  discover them):
  64:d:/software/ovi_2503a_s3trc/ovi_2503a_s3trc/Tools/MinGW/include/c++/3.3.1/bits/stl_alloc.h ****  *
  65:d:/software/ovi_2503a_s3trc/ovi_2503a_s3trc/Tools/MinGW/include/c++/3.3.1/bits/stl_alloc.h ****  *   - "Standard" allocate() takes two parameters (n_count,hint=0) but "SGI"
  66:d:/software/ovi_2503a_s3trc/ovi_2503a_s3trc/Tools/MinGW/include/c++/3.3.1/bits/stl_alloc.h ****  *     allocate() takes one paramter (n_size).
  67:d:/software/ovi_2503a_s3trc/ovi_2503a_s3trc/Tools/MinGW/include/c++/3.3.1/bits/stl_alloc.h ****  *   - Likewise, "standard" deallocate()'s argument is a count, but in "SGI"
  68:d:/software/ovi_2503a_s3trc/ovi_2503a_s3trc/Tools/MinGW/include/c++/3.3.1/bits/stl_alloc.h ****  *     is a byte size.
  69:d:/software/ovi_2503a_s3trc/ovi_2503a_s3trc/Tools/MinGW/include/c++/3.3.1/bits/stl_alloc.h ****  *   - max_size(), construct(), and destroy() are missing in "SGI" allocators.
  70:d:/software/ovi_2503a_s3trc/ovi_2503a_s3trc/Tools/MinGW/include/c++/3.3.1/bits/stl_alloc.h ****  *   - reallocate(p,oldsz,newsz) is added in "SGI", and behaves as
  71:d:/software/ovi_2503a_s3trc/ovi_2503a_s3trc/Tools/MinGW/include/c++/3.3.1/bits/stl_alloc.h ****  *     if p=realloc(p,newsz).
  72:d:/software/ovi_2503a_s3trc/ovi_2503a_s3trc/Tools/MinGW/include/c++/3.3.1/bits/stl_alloc.h ****  *
  73:d:/software/ovi_2503a_s3trc/ovi_2503a_s3trc/Tools/MinGW/include/c++/3.3.1/bits/stl_alloc.h ****  *  "SGI" allocators may be wrapped in __allocator to convert the interface
  74:d:/software/ovi_2503a_s3trc/ovi_2503a_s3trc/Tools/MinGW/include/c++/3.3.1/bits/stl_alloc.h ****  *  into a "standard" one.
  75:d:/software/ovi_2503a_s3trc/ovi_2503a_s3trc/Tools/MinGW/include/c++/3.3.1/bits/stl_alloc.h ****  *  @endif
  76:d:/software/ovi_2503a_s3trc/ovi_2503a_s3trc/Tools/MinGW/include/c++/3.3.1/bits/stl_alloc.h ****  *
  77:d:/software/ovi_2503a_s3trc/ovi_2503a_s3trc/Tools/MinGW/include/c++/3.3.1/bits/stl_alloc.h ****  *  @note The @c reallocate member functions have been deprecated for 3.2
  78:d:/software/ovi_2503a_s3trc/ovi_2503a_s3trc/Tools/MinGW/include/c++/3.3.1/bits/stl_alloc.h ****  *        and will be removed in 3.4.  You must define @c _GLIBCPP_DEPRECATED
  79:d:/software/ovi_2503a_s3trc/ovi_2503a_s3trc/Tools/MinGW/include/c++/3.3.1/bits/stl_alloc.h ****  *        to make this visible in 3.2; see c++config.h.
  80:d:/software/ovi_2503a_s3trc/ovi_2503a_s3trc/Tools/MinGW/include/c++/3.3.1/bits/stl_alloc.h ****  *
  81:d:/software/ovi_2503a_s3trc/ovi_2503a_s3trc/Tools/MinGW/include/c++/3.3.1/bits/stl_alloc.h ****  *  The canonical description of these classes is in docs/html/ext/howto.html
  82:d:/software/ovi_2503a_s3trc/ovi_2503a_s3trc/Tools/MinGW/include/c++/3.3.1/bits/stl_alloc.h ****  *  or online at http://gcc.gnu.org/onlinedocs/libstdc++/ext/howto.html#3
  83:d:/software/ovi_2503a_s3trc/ovi_2503a_s3trc/Tools/MinGW/include/c++/3.3.1/bits/stl_alloc.h **** */
  84:d:/software/ovi_2503a_s3trc/ovi_2503a_s3trc/Tools/MinGW/include/c++/3.3.1/bits/stl_alloc.h **** 
  85:d:/software/ovi_2503a_s3trc/ovi_2503a_s3trc/Tools/MinGW/include/c++/3.3.1/bits/stl_alloc.h **** #include <cstddef>
  86:d:/software/ovi_2503a_s3trc/ovi_2503a_s3trc/Tools/MinGW/include/c++/3.3.1/bits/stl_alloc.h **** #include <cstdlib>
  87:d:/software/ovi_2503a_s3trc/ovi_2503a_s3trc/Tools/MinGW/include/c++/3.3.1/bits/stl_alloc.h **** #include <cstring>
  88:d:/software/ovi_2503a_s3trc/ovi_2503a_s3trc/Tools/MinGW/include/c++/3.3.1/bits/stl_alloc.h **** #include <bits/functexcept.h>   // For __throw_bad_alloc
  89:d:/software/ovi_2503a_s3trc/ovi_2503a_s3trc/Tools/MinGW/include/c++/3.3.1/bits/stl_alloc.h **** #include <bits/stl_threads.h>
GAS LISTING d:/software/ovi_2503a_s3trc/ovi_2503a_s3trc/plutommi/Customer/ResGenerator/gcctmp/ccuadaaa.s 			page 106


  90:d:/software/ovi_2503a_s3trc/ovi_2503a_s3trc/Tools/MinGW/include/c++/3.3.1/bits/stl_alloc.h **** 
  91:d:/software/ovi_2503a_s3trc/ovi_2503a_s3trc/Tools/MinGW/include/c++/3.3.1/bits/stl_alloc.h **** #include <bits/atomicity.h>
  92:d:/software/ovi_2503a_s3trc/ovi_2503a_s3trc/Tools/MinGW/include/c++/3.3.1/bits/stl_alloc.h **** 
  93:d:/software/ovi_2503a_s3trc/ovi_2503a_s3trc/Tools/MinGW/include/c++/3.3.1/bits/stl_alloc.h **** namespace std
  94:d:/software/ovi_2503a_s3trc/ovi_2503a_s3trc/Tools/MinGW/include/c++/3.3.1/bits/stl_alloc.h **** {
  95:d:/software/ovi_2503a_s3trc/ovi_2503a_s3trc/Tools/MinGW/include/c++/3.3.1/bits/stl_alloc.h ****   /**
  96:d:/software/ovi_2503a_s3trc/ovi_2503a_s3trc/Tools/MinGW/include/c++/3.3.1/bits/stl_alloc.h ****    *  @if maint
  97:d:/software/ovi_2503a_s3trc/ovi_2503a_s3trc/Tools/MinGW/include/c++/3.3.1/bits/stl_alloc.h ****    *  A new-based allocator, as required by the standard.  Allocation and
  98:d:/software/ovi_2503a_s3trc/ovi_2503a_s3trc/Tools/MinGW/include/c++/3.3.1/bits/stl_alloc.h ****    *  deallocation forward to global new and delete.  "SGI" style, minus
  99:d:/software/ovi_2503a_s3trc/ovi_2503a_s3trc/Tools/MinGW/include/c++/3.3.1/bits/stl_alloc.h ****    *  reallocate().
 100:d:/software/ovi_2503a_s3trc/ovi_2503a_s3trc/Tools/MinGW/include/c++/3.3.1/bits/stl_alloc.h ****    *  @endif
 101:d:/software/ovi_2503a_s3trc/ovi_2503a_s3trc/Tools/MinGW/include/c++/3.3.1/bits/stl_alloc.h ****    *  (See @link Allocators allocators info @endlink for more.)
 102:d:/software/ovi_2503a_s3trc/ovi_2503a_s3trc/Tools/MinGW/include/c++/3.3.1/bits/stl_alloc.h ****    */
 103:d:/software/ovi_2503a_s3trc/ovi_2503a_s3trc/Tools/MinGW/include/c++/3.3.1/bits/stl_alloc.h ****   class __new_alloc
 104:d:/software/ovi_2503a_s3trc/ovi_2503a_s3trc/Tools/MinGW/include/c++/3.3.1/bits/stl_alloc.h ****   {
 105:d:/software/ovi_2503a_s3trc/ovi_2503a_s3trc/Tools/MinGW/include/c++/3.3.1/bits/stl_alloc.h ****   public:
 106:d:/software/ovi_2503a_s3trc/ovi_2503a_s3trc/Tools/MinGW/include/c++/3.3.1/bits/stl_alloc.h ****     static void*
 107:d:/software/ovi_2503a_s3trc/ovi_2503a_s3trc/Tools/MinGW/include/c++/3.3.1/bits/stl_alloc.h ****     allocate(size_t __n)
 108:d:/software/ovi_2503a_s3trc/ovi_2503a_s3trc/Tools/MinGW/include/c++/3.3.1/bits/stl_alloc.h ****     { return ::operator new(__n); }
 109:d:/software/ovi_2503a_s3trc/ovi_2503a_s3trc/Tools/MinGW/include/c++/3.3.1/bits/stl_alloc.h **** 
 110:d:/software/ovi_2503a_s3trc/ovi_2503a_s3trc/Tools/MinGW/include/c++/3.3.1/bits/stl_alloc.h ****     static void
 111:d:/software/ovi_2503a_s3trc/ovi_2503a_s3trc/Tools/MinGW/include/c++/3.3.1/bits/stl_alloc.h ****     deallocate(void* __p, size_t)
 112:d:/software/ovi_2503a_s3trc/ovi_2503a_s3trc/Tools/MinGW/include/c++/3.3.1/bits/stl_alloc.h ****     { ::operator delete(__p); }
 113:d:/software/ovi_2503a_s3trc/ovi_2503a_s3trc/Tools/MinGW/include/c++/3.3.1/bits/stl_alloc.h ****   };
 114:d:/software/ovi_2503a_s3trc/ovi_2503a_s3trc/Tools/MinGW/include/c++/3.3.1/bits/stl_alloc.h **** 
 115:d:/software/ovi_2503a_s3trc/ovi_2503a_s3trc/Tools/MinGW/include/c++/3.3.1/bits/stl_alloc.h **** 
 116:d:/software/ovi_2503a_s3trc/ovi_2503a_s3trc/Tools/MinGW/include/c++/3.3.1/bits/stl_alloc.h ****   /**
 117:d:/software/ovi_2503a_s3trc/ovi_2503a_s3trc/Tools/MinGW/include/c++/3.3.1/bits/stl_alloc.h ****    *  @if maint
 118:d:/software/ovi_2503a_s3trc/ovi_2503a_s3trc/Tools/MinGW/include/c++/3.3.1/bits/stl_alloc.h ****    *  A malloc-based allocator.  Typically slower than the
 119:d:/software/ovi_2503a_s3trc/ovi_2503a_s3trc/Tools/MinGW/include/c++/3.3.1/bits/stl_alloc.h ****    *  __default_alloc_template (below).  Typically thread-safe and more
 120:d:/software/ovi_2503a_s3trc/ovi_2503a_s3trc/Tools/MinGW/include/c++/3.3.1/bits/stl_alloc.h ****    *  storage efficient.  The template argument is unused and is only present
 121:d:/software/ovi_2503a_s3trc/ovi_2503a_s3trc/Tools/MinGW/include/c++/3.3.1/bits/stl_alloc.h ****    *  to permit multiple instantiations (but see __default_alloc_template
 122:d:/software/ovi_2503a_s3trc/ovi_2503a_s3trc/Tools/MinGW/include/c++/3.3.1/bits/stl_alloc.h ****    *  for caveats).  "SGI" style, plus __set_malloc_handler for OOM conditions.
 123:d:/software/ovi_2503a_s3trc/ovi_2503a_s3trc/Tools/MinGW/include/c++/3.3.1/bits/stl_alloc.h ****    *  @endif
 124:d:/software/ovi_2503a_s3trc/ovi_2503a_s3trc/Tools/MinGW/include/c++/3.3.1/bits/stl_alloc.h ****    *  (See @link Allocators allocators info @endlink for more.)
 125:d:/software/ovi_2503a_s3trc/ovi_2503a_s3trc/Tools/MinGW/include/c++/3.3.1/bits/stl_alloc.h ****    */
 126:d:/software/ovi_2503a_s3trc/ovi_2503a_s3trc/Tools/MinGW/include/c++/3.3.1/bits/stl_alloc.h ****   template<int __inst>
 127:d:/software/ovi_2503a_s3trc/ovi_2503a_s3trc/Tools/MinGW/include/c++/3.3.1/bits/stl_alloc.h ****     class __malloc_alloc_template
 128:d:/software/ovi_2503a_s3trc/ovi_2503a_s3trc/Tools/MinGW/include/c++/3.3.1/bits/stl_alloc.h ****     {
 129:d:/software/ovi_2503a_s3trc/ovi_2503a_s3trc/Tools/MinGW/include/c++/3.3.1/bits/stl_alloc.h ****     private:
 130:d:/software/ovi_2503a_s3trc/ovi_2503a_s3trc/Tools/MinGW/include/c++/3.3.1/bits/stl_alloc.h ****       static void* _S_oom_malloc(size_t);
 131:d:/software/ovi_2503a_s3trc/ovi_2503a_s3trc/Tools/MinGW/include/c++/3.3.1/bits/stl_alloc.h ****       static void* _S_oom_realloc(void*, size_t);
 132:d:/software/ovi_2503a_s3trc/ovi_2503a_s3trc/Tools/MinGW/include/c++/3.3.1/bits/stl_alloc.h ****       static void (* __malloc_alloc_oom_handler)();
 133:d:/software/ovi_2503a_s3trc/ovi_2503a_s3trc/Tools/MinGW/include/c++/3.3.1/bits/stl_alloc.h **** 
 134:d:/software/ovi_2503a_s3trc/ovi_2503a_s3trc/Tools/MinGW/include/c++/3.3.1/bits/stl_alloc.h ****     public:
 135:d:/software/ovi_2503a_s3trc/ovi_2503a_s3trc/Tools/MinGW/include/c++/3.3.1/bits/stl_alloc.h ****       static void*
 136:d:/software/ovi_2503a_s3trc/ovi_2503a_s3trc/Tools/MinGW/include/c++/3.3.1/bits/stl_alloc.h ****       allocate(size_t __n)
 137:d:/software/ovi_2503a_s3trc/ovi_2503a_s3trc/Tools/MinGW/include/c++/3.3.1/bits/stl_alloc.h ****       {
 138:d:/software/ovi_2503a_s3trc/ovi_2503a_s3trc/Tools/MinGW/include/c++/3.3.1/bits/stl_alloc.h ****         void* __result = malloc(__n);
 139:d:/software/ovi_2503a_s3trc/ovi_2503a_s3trc/Tools/MinGW/include/c++/3.3.1/bits/stl_alloc.h ****         if (__builtin_expect(__result == 0, 0))
 140:d:/software/ovi_2503a_s3trc/ovi_2503a_s3trc/Tools/MinGW/include/c++/3.3.1/bits/stl_alloc.h **** 	  __result = _S_oom_malloc(__n);
 141:d:/software/ovi_2503a_s3trc/ovi_2503a_s3trc/Tools/MinGW/include/c++/3.3.1/bits/stl_alloc.h ****         return __result;
 142:d:/software/ovi_2503a_s3trc/ovi_2503a_s3trc/Tools/MinGW/include/c++/3.3.1/bits/stl_alloc.h ****       }
 143:d:/software/ovi_2503a_s3trc/ovi_2503a_s3trc/Tools/MinGW/include/c++/3.3.1/bits/stl_alloc.h **** 
 144:d:/software/ovi_2503a_s3trc/ovi_2503a_s3trc/Tools/MinGW/include/c++/3.3.1/bits/stl_alloc.h ****       static void
 145:d:/software/ovi_2503a_s3trc/ovi_2503a_s3trc/Tools/MinGW/include/c++/3.3.1/bits/stl_alloc.h ****       deallocate(void* __p, size_t /* __n */)
 146:d:/software/ovi_2503a_s3trc/ovi_2503a_s3trc/Tools/MinGW/include/c++/3.3.1/bits/stl_alloc.h ****       { free(__p); }
GAS LISTING d:/software/ovi_2503a_s3trc/ovi_2503a_s3trc/plutommi/Customer/ResGenerator/gcctmp/ccuadaaa.s 			page 107


 147:d:/software/ovi_2503a_s3trc/ovi_2503a_s3trc/Tools/MinGW/include/c++/3.3.1/bits/stl_alloc.h **** 
 148:d:/software/ovi_2503a_s3trc/ovi_2503a_s3trc/Tools/MinGW/include/c++/3.3.1/bits/stl_alloc.h ****       static void*
 149:d:/software/ovi_2503a_s3trc/ovi_2503a_s3trc/Tools/MinGW/include/c++/3.3.1/bits/stl_alloc.h ****       reallocate(void* __p, size_t /* old_sz */, size_t __new_sz)
 150:d:/software/ovi_2503a_s3trc/ovi_2503a_s3trc/Tools/MinGW/include/c++/3.3.1/bits/stl_alloc.h ****       {
 151:d:/software/ovi_2503a_s3trc/ovi_2503a_s3trc/Tools/MinGW/include/c++/3.3.1/bits/stl_alloc.h ****         void* __result = realloc(__p, __new_sz);
 152:d:/software/ovi_2503a_s3trc/ovi_2503a_s3trc/Tools/MinGW/include/c++/3.3.1/bits/stl_alloc.h ****         if (__builtin_expect(__result == 0, 0))
 153:d:/software/ovi_2503a_s3trc/ovi_2503a_s3trc/Tools/MinGW/include/c++/3.3.1/bits/stl_alloc.h ****           __result = _S_oom_realloc(__p, __new_sz);
 154:d:/software/ovi_2503a_s3trc/ovi_2503a_s3trc/Tools/MinGW/include/c++/3.3.1/bits/stl_alloc.h ****         return __result;
 155:d:/software/ovi_2503a_s3trc/ovi_2503a_s3trc/Tools/MinGW/include/c++/3.3.1/bits/stl_alloc.h ****       }
 156:d:/software/ovi_2503a_s3trc/ovi_2503a_s3trc/Tools/MinGW/include/c++/3.3.1/bits/stl_alloc.h **** 
 157:d:/software/ovi_2503a_s3trc/ovi_2503a_s3trc/Tools/MinGW/include/c++/3.3.1/bits/stl_alloc.h ****       static void (* __set_malloc_handler(void (*__f)()))()
 158:d:/software/ovi_2503a_s3trc/ovi_2503a_s3trc/Tools/MinGW/include/c++/3.3.1/bits/stl_alloc.h ****       {
 159:d:/software/ovi_2503a_s3trc/ovi_2503a_s3trc/Tools/MinGW/include/c++/3.3.1/bits/stl_alloc.h ****         void (* __old)() = __malloc_alloc_oom_handler;
 160:d:/software/ovi_2503a_s3trc/ovi_2503a_s3trc/Tools/MinGW/include/c++/3.3.1/bits/stl_alloc.h ****         __malloc_alloc_oom_handler = __f;
 161:d:/software/ovi_2503a_s3trc/ovi_2503a_s3trc/Tools/MinGW/include/c++/3.3.1/bits/stl_alloc.h ****         return __old;
 162:d:/software/ovi_2503a_s3trc/ovi_2503a_s3trc/Tools/MinGW/include/c++/3.3.1/bits/stl_alloc.h ****       }
 163:d:/software/ovi_2503a_s3trc/ovi_2503a_s3trc/Tools/MinGW/include/c++/3.3.1/bits/stl_alloc.h ****     };
 164:d:/software/ovi_2503a_s3trc/ovi_2503a_s3trc/Tools/MinGW/include/c++/3.3.1/bits/stl_alloc.h **** 
 165:d:/software/ovi_2503a_s3trc/ovi_2503a_s3trc/Tools/MinGW/include/c++/3.3.1/bits/stl_alloc.h ****   // malloc_alloc out-of-memory handling
 166:d:/software/ovi_2503a_s3trc/ovi_2503a_s3trc/Tools/MinGW/include/c++/3.3.1/bits/stl_alloc.h ****   template<int __inst>
 167:d:/software/ovi_2503a_s3trc/ovi_2503a_s3trc/Tools/MinGW/include/c++/3.3.1/bits/stl_alloc.h ****     void (* __malloc_alloc_template<__inst>::__malloc_alloc_oom_handler)() = 0;
 168:d:/software/ovi_2503a_s3trc/ovi_2503a_s3trc/Tools/MinGW/include/c++/3.3.1/bits/stl_alloc.h **** 
 169:d:/software/ovi_2503a_s3trc/ovi_2503a_s3trc/Tools/MinGW/include/c++/3.3.1/bits/stl_alloc.h ****   template<int __inst>
 170:d:/software/ovi_2503a_s3trc/ovi_2503a_s3trc/Tools/MinGW/include/c++/3.3.1/bits/stl_alloc.h ****     void*
 171:d:/software/ovi_2503a_s3trc/ovi_2503a_s3trc/Tools/MinGW/include/c++/3.3.1/bits/stl_alloc.h ****     __malloc_alloc_template<__inst>::
 172:d:/software/ovi_2503a_s3trc/ovi_2503a_s3trc/Tools/MinGW/include/c++/3.3.1/bits/stl_alloc.h ****     _S_oom_malloc(size_t __n)
 173:d:/software/ovi_2503a_s3trc/ovi_2503a_s3trc/Tools/MinGW/include/c++/3.3.1/bits/stl_alloc.h ****     {
 174:d:/software/ovi_2503a_s3trc/ovi_2503a_s3trc/Tools/MinGW/include/c++/3.3.1/bits/stl_alloc.h ****       void (* __my_malloc_handler)();
 175:d:/software/ovi_2503a_s3trc/ovi_2503a_s3trc/Tools/MinGW/include/c++/3.3.1/bits/stl_alloc.h ****       void* __result;
 176:d:/software/ovi_2503a_s3trc/ovi_2503a_s3trc/Tools/MinGW/include/c++/3.3.1/bits/stl_alloc.h **** 
 177:d:/software/ovi_2503a_s3trc/ovi_2503a_s3trc/Tools/MinGW/include/c++/3.3.1/bits/stl_alloc.h ****       for (;;)
 178:d:/software/ovi_2503a_s3trc/ovi_2503a_s3trc/Tools/MinGW/include/c++/3.3.1/bits/stl_alloc.h ****         {
 179:d:/software/ovi_2503a_s3trc/ovi_2503a_s3trc/Tools/MinGW/include/c++/3.3.1/bits/stl_alloc.h ****           __my_malloc_handler = __malloc_alloc_oom_handler;
 180:d:/software/ovi_2503a_s3trc/ovi_2503a_s3trc/Tools/MinGW/include/c++/3.3.1/bits/stl_alloc.h ****           if (__builtin_expect(__my_malloc_handler == 0, 0))
 181:d:/software/ovi_2503a_s3trc/ovi_2503a_s3trc/Tools/MinGW/include/c++/3.3.1/bits/stl_alloc.h ****             __throw_bad_alloc();
 182:d:/software/ovi_2503a_s3trc/ovi_2503a_s3trc/Tools/MinGW/include/c++/3.3.1/bits/stl_alloc.h ****           (*__my_malloc_handler)();
 183:d:/software/ovi_2503a_s3trc/ovi_2503a_s3trc/Tools/MinGW/include/c++/3.3.1/bits/stl_alloc.h ****           __result = malloc(__n);
 184:d:/software/ovi_2503a_s3trc/ovi_2503a_s3trc/Tools/MinGW/include/c++/3.3.1/bits/stl_alloc.h ****           if (__result)
 185:d:/software/ovi_2503a_s3trc/ovi_2503a_s3trc/Tools/MinGW/include/c++/3.3.1/bits/stl_alloc.h ****             return __result;
 186:d:/software/ovi_2503a_s3trc/ovi_2503a_s3trc/Tools/MinGW/include/c++/3.3.1/bits/stl_alloc.h ****         }
 187:d:/software/ovi_2503a_s3trc/ovi_2503a_s3trc/Tools/MinGW/include/c++/3.3.1/bits/stl_alloc.h ****     }
 188:d:/software/ovi_2503a_s3trc/ovi_2503a_s3trc/Tools/MinGW/include/c++/3.3.1/bits/stl_alloc.h **** 
 189:d:/software/ovi_2503a_s3trc/ovi_2503a_s3trc/Tools/MinGW/include/c++/3.3.1/bits/stl_alloc.h ****   template<int __inst>
 190:d:/software/ovi_2503a_s3trc/ovi_2503a_s3trc/Tools/MinGW/include/c++/3.3.1/bits/stl_alloc.h ****     void*
 191:d:/software/ovi_2503a_s3trc/ovi_2503a_s3trc/Tools/MinGW/include/c++/3.3.1/bits/stl_alloc.h ****     __malloc_alloc_template<__inst>::
 192:d:/software/ovi_2503a_s3trc/ovi_2503a_s3trc/Tools/MinGW/include/c++/3.3.1/bits/stl_alloc.h ****     _S_oom_realloc(void* __p, size_t __n)
 193:d:/software/ovi_2503a_s3trc/ovi_2503a_s3trc/Tools/MinGW/include/c++/3.3.1/bits/stl_alloc.h ****     {
 194:d:/software/ovi_2503a_s3trc/ovi_2503a_s3trc/Tools/MinGW/include/c++/3.3.1/bits/stl_alloc.h ****       void (* __my_malloc_handler)();
 195:d:/software/ovi_2503a_s3trc/ovi_2503a_s3trc/Tools/MinGW/include/c++/3.3.1/bits/stl_alloc.h ****       void* __result;
 196:d:/software/ovi_2503a_s3trc/ovi_2503a_s3trc/Tools/MinGW/include/c++/3.3.1/bits/stl_alloc.h **** 
 197:d:/software/ovi_2503a_s3trc/ovi_2503a_s3trc/Tools/MinGW/include/c++/3.3.1/bits/stl_alloc.h ****       for (;;)
 198:d:/software/ovi_2503a_s3trc/ovi_2503a_s3trc/Tools/MinGW/include/c++/3.3.1/bits/stl_alloc.h ****         {
 199:d:/software/ovi_2503a_s3trc/ovi_2503a_s3trc/Tools/MinGW/include/c++/3.3.1/bits/stl_alloc.h ****           __my_malloc_handler = __malloc_alloc_oom_handler;
 200:d:/software/ovi_2503a_s3trc/ovi_2503a_s3trc/Tools/MinGW/include/c++/3.3.1/bits/stl_alloc.h ****           if (__builtin_expect(__my_malloc_handler == 0, 0))
 201:d:/software/ovi_2503a_s3trc/ovi_2503a_s3trc/Tools/MinGW/include/c++/3.3.1/bits/stl_alloc.h ****             __throw_bad_alloc();
 202:d:/software/ovi_2503a_s3trc/ovi_2503a_s3trc/Tools/MinGW/include/c++/3.3.1/bits/stl_alloc.h ****           (*__my_malloc_handler)();
 203:d:/software/ovi_2503a_s3trc/ovi_2503a_s3trc/Tools/MinGW/include/c++/3.3.1/bits/stl_alloc.h ****           __result = realloc(__p, __n);
GAS LISTING d:/software/ovi_2503a_s3trc/ovi_2503a_s3trc/plutommi/Customer/ResGenerator/gcctmp/ccuadaaa.s 			page 108


 204:d:/software/ovi_2503a_s3trc/ovi_2503a_s3trc/Tools/MinGW/include/c++/3.3.1/bits/stl_alloc.h ****           if (__result)
 205:d:/software/ovi_2503a_s3trc/ovi_2503a_s3trc/Tools/MinGW/include/c++/3.3.1/bits/stl_alloc.h ****             return __result;
 206:d:/software/ovi_2503a_s3trc/ovi_2503a_s3trc/Tools/MinGW/include/c++/3.3.1/bits/stl_alloc.h ****         }
 207:d:/software/ovi_2503a_s3trc/ovi_2503a_s3trc/Tools/MinGW/include/c++/3.3.1/bits/stl_alloc.h ****     }
 208:d:/software/ovi_2503a_s3trc/ovi_2503a_s3trc/Tools/MinGW/include/c++/3.3.1/bits/stl_alloc.h **** 
 209:d:/software/ovi_2503a_s3trc/ovi_2503a_s3trc/Tools/MinGW/include/c++/3.3.1/bits/stl_alloc.h ****   // Should not be referenced within the library anymore.
 210:d:/software/ovi_2503a_s3trc/ovi_2503a_s3trc/Tools/MinGW/include/c++/3.3.1/bits/stl_alloc.h ****   typedef __new_alloc                 __mem_interface;
 211:d:/software/ovi_2503a_s3trc/ovi_2503a_s3trc/Tools/MinGW/include/c++/3.3.1/bits/stl_alloc.h **** 
 212:d:/software/ovi_2503a_s3trc/ovi_2503a_s3trc/Tools/MinGW/include/c++/3.3.1/bits/stl_alloc.h ****   /**
 213:d:/software/ovi_2503a_s3trc/ovi_2503a_s3trc/Tools/MinGW/include/c++/3.3.1/bits/stl_alloc.h ****    *  @if maint
 214:d:/software/ovi_2503a_s3trc/ovi_2503a_s3trc/Tools/MinGW/include/c++/3.3.1/bits/stl_alloc.h ****    *  This is used primarily (only?) in _Alloc_traits and other places to
 215:d:/software/ovi_2503a_s3trc/ovi_2503a_s3trc/Tools/MinGW/include/c++/3.3.1/bits/stl_alloc.h ****    *  help provide the _Alloc_type typedef.  All it does is forward the
 216:d:/software/ovi_2503a_s3trc/ovi_2503a_s3trc/Tools/MinGW/include/c++/3.3.1/bits/stl_alloc.h ****    *  requests after some minimal checking.
 217:d:/software/ovi_2503a_s3trc/ovi_2503a_s3trc/Tools/MinGW/include/c++/3.3.1/bits/stl_alloc.h ****    *
 218:d:/software/ovi_2503a_s3trc/ovi_2503a_s3trc/Tools/MinGW/include/c++/3.3.1/bits/stl_alloc.h ****    *  This is neither "standard"-conforming nor "SGI".  The _Alloc parameter
 219:d:/software/ovi_2503a_s3trc/ovi_2503a_s3trc/Tools/MinGW/include/c++/3.3.1/bits/stl_alloc.h ****    *  must be "SGI" style.
 220:d:/software/ovi_2503a_s3trc/ovi_2503a_s3trc/Tools/MinGW/include/c++/3.3.1/bits/stl_alloc.h ****    *  @endif
 221:d:/software/ovi_2503a_s3trc/ovi_2503a_s3trc/Tools/MinGW/include/c++/3.3.1/bits/stl_alloc.h ****    *  (See @link Allocators allocators info @endlink for more.)
 222:d:/software/ovi_2503a_s3trc/ovi_2503a_s3trc/Tools/MinGW/include/c++/3.3.1/bits/stl_alloc.h ****    */
 223:d:/software/ovi_2503a_s3trc/ovi_2503a_s3trc/Tools/MinGW/include/c++/3.3.1/bits/stl_alloc.h ****   template<typename _Tp, typename _Alloc>
 224:d:/software/ovi_2503a_s3trc/ovi_2503a_s3trc/Tools/MinGW/include/c++/3.3.1/bits/stl_alloc.h ****     class __simple_alloc
 225:d:/software/ovi_2503a_s3trc/ovi_2503a_s3trc/Tools/MinGW/include/c++/3.3.1/bits/stl_alloc.h ****     {
 226:d:/software/ovi_2503a_s3trc/ovi_2503a_s3trc/Tools/MinGW/include/c++/3.3.1/bits/stl_alloc.h ****     public:
 227:d:/software/ovi_2503a_s3trc/ovi_2503a_s3trc/Tools/MinGW/include/c++/3.3.1/bits/stl_alloc.h ****       static _Tp*
 228:d:/software/ovi_2503a_s3trc/ovi_2503a_s3trc/Tools/MinGW/include/c++/3.3.1/bits/stl_alloc.h ****       allocate(size_t __n)
 229:d:/software/ovi_2503a_s3trc/ovi_2503a_s3trc/Tools/MinGW/include/c++/3.3.1/bits/stl_alloc.h ****       {
 230:d:/software/ovi_2503a_s3trc/ovi_2503a_s3trc/Tools/MinGW/include/c++/3.3.1/bits/stl_alloc.h **** 	_Tp* __ret = 0;
 231:d:/software/ovi_2503a_s3trc/ovi_2503a_s3trc/Tools/MinGW/include/c++/3.3.1/bits/stl_alloc.h **** 	if (__n)
 232:d:/software/ovi_2503a_s3trc/ovi_2503a_s3trc/Tools/MinGW/include/c++/3.3.1/bits/stl_alloc.h **** 	  __ret = static_cast<_Tp*>(_Alloc::allocate(__n * sizeof(_Tp)));
 233:d:/software/ovi_2503a_s3trc/ovi_2503a_s3trc/Tools/MinGW/include/c++/3.3.1/bits/stl_alloc.h **** 	return __ret;
 234:d:/software/ovi_2503a_s3trc/ovi_2503a_s3trc/Tools/MinGW/include/c++/3.3.1/bits/stl_alloc.h ****       }
 235:d:/software/ovi_2503a_s3trc/ovi_2503a_s3trc/Tools/MinGW/include/c++/3.3.1/bits/stl_alloc.h ****   
 236:d:/software/ovi_2503a_s3trc/ovi_2503a_s3trc/Tools/MinGW/include/c++/3.3.1/bits/stl_alloc.h ****       static _Tp*
 237:d:/software/ovi_2503a_s3trc/ovi_2503a_s3trc/Tools/MinGW/include/c++/3.3.1/bits/stl_alloc.h ****       allocate()
 238:d:/software/ovi_2503a_s3trc/ovi_2503a_s3trc/Tools/MinGW/include/c++/3.3.1/bits/stl_alloc.h ****       { return (_Tp*) _Alloc::allocate(sizeof (_Tp)); }
 239:d:/software/ovi_2503a_s3trc/ovi_2503a_s3trc/Tools/MinGW/include/c++/3.3.1/bits/stl_alloc.h ****   
 240:d:/software/ovi_2503a_s3trc/ovi_2503a_s3trc/Tools/MinGW/include/c++/3.3.1/bits/stl_alloc.h ****       static void
 241:d:/software/ovi_2503a_s3trc/ovi_2503a_s3trc/Tools/MinGW/include/c++/3.3.1/bits/stl_alloc.h ****       deallocate(_Tp* __p, size_t __n)
 242:d:/software/ovi_2503a_s3trc/ovi_2503a_s3trc/Tools/MinGW/include/c++/3.3.1/bits/stl_alloc.h ****       { if (0 != __n) _Alloc::deallocate(__p, __n * sizeof (_Tp)); }
 243:d:/software/ovi_2503a_s3trc/ovi_2503a_s3trc/Tools/MinGW/include/c++/3.3.1/bits/stl_alloc.h ****   
 244:d:/software/ovi_2503a_s3trc/ovi_2503a_s3trc/Tools/MinGW/include/c++/3.3.1/bits/stl_alloc.h ****       static void
 245:d:/software/ovi_2503a_s3trc/ovi_2503a_s3trc/Tools/MinGW/include/c++/3.3.1/bits/stl_alloc.h ****       deallocate(_Tp* __p)
 246:d:/software/ovi_2503a_s3trc/ovi_2503a_s3trc/Tools/MinGW/include/c++/3.3.1/bits/stl_alloc.h ****       { _Alloc::deallocate(__p, sizeof (_Tp)); }
 247:d:/software/ovi_2503a_s3trc/ovi_2503a_s3trc/Tools/MinGW/include/c++/3.3.1/bits/stl_alloc.h ****     };
 248:d:/software/ovi_2503a_s3trc/ovi_2503a_s3trc/Tools/MinGW/include/c++/3.3.1/bits/stl_alloc.h **** 
 249:d:/software/ovi_2503a_s3trc/ovi_2503a_s3trc/Tools/MinGW/include/c++/3.3.1/bits/stl_alloc.h **** 
 250:d:/software/ovi_2503a_s3trc/ovi_2503a_s3trc/Tools/MinGW/include/c++/3.3.1/bits/stl_alloc.h ****   /**
 251:d:/software/ovi_2503a_s3trc/ovi_2503a_s3trc/Tools/MinGW/include/c++/3.3.1/bits/stl_alloc.h ****    *  @if maint
 252:d:/software/ovi_2503a_s3trc/ovi_2503a_s3trc/Tools/MinGW/include/c++/3.3.1/bits/stl_alloc.h ****    *  An adaptor for an underlying allocator (_Alloc) to check the size
 253:d:/software/ovi_2503a_s3trc/ovi_2503a_s3trc/Tools/MinGW/include/c++/3.3.1/bits/stl_alloc.h ****    *  arguments for debugging.
 254:d:/software/ovi_2503a_s3trc/ovi_2503a_s3trc/Tools/MinGW/include/c++/3.3.1/bits/stl_alloc.h ****    *
 255:d:/software/ovi_2503a_s3trc/ovi_2503a_s3trc/Tools/MinGW/include/c++/3.3.1/bits/stl_alloc.h ****    *  "There is some evidence that this can confuse Purify." - SGI comment
 256:d:/software/ovi_2503a_s3trc/ovi_2503a_s3trc/Tools/MinGW/include/c++/3.3.1/bits/stl_alloc.h ****    *
 257:d:/software/ovi_2503a_s3trc/ovi_2503a_s3trc/Tools/MinGW/include/c++/3.3.1/bits/stl_alloc.h ****    *  This adaptor is "SGI" style.  The _Alloc parameter must also be "SGI".
 258:d:/software/ovi_2503a_s3trc/ovi_2503a_s3trc/Tools/MinGW/include/c++/3.3.1/bits/stl_alloc.h ****    *  @endif
 259:d:/software/ovi_2503a_s3trc/ovi_2503a_s3trc/Tools/MinGW/include/c++/3.3.1/bits/stl_alloc.h ****    *  (See @link Allocators allocators info @endlink for more.)
 260:d:/software/ovi_2503a_s3trc/ovi_2503a_s3trc/Tools/MinGW/include/c++/3.3.1/bits/stl_alloc.h ****    */
GAS LISTING d:/software/ovi_2503a_s3trc/ovi_2503a_s3trc/plutommi/Customer/ResGenerator/gcctmp/ccuadaaa.s 			page 109


 261:d:/software/ovi_2503a_s3trc/ovi_2503a_s3trc/Tools/MinGW/include/c++/3.3.1/bits/stl_alloc.h ****   template<typename _Alloc>
 262:d:/software/ovi_2503a_s3trc/ovi_2503a_s3trc/Tools/MinGW/include/c++/3.3.1/bits/stl_alloc.h ****     class __debug_alloc
 263:d:/software/ovi_2503a_s3trc/ovi_2503a_s3trc/Tools/MinGW/include/c++/3.3.1/bits/stl_alloc.h ****     {
 264:d:/software/ovi_2503a_s3trc/ovi_2503a_s3trc/Tools/MinGW/include/c++/3.3.1/bits/stl_alloc.h ****     private:
 265:d:/software/ovi_2503a_s3trc/ovi_2503a_s3trc/Tools/MinGW/include/c++/3.3.1/bits/stl_alloc.h ****       // Size of space used to store size.  Note that this must be
 266:d:/software/ovi_2503a_s3trc/ovi_2503a_s3trc/Tools/MinGW/include/c++/3.3.1/bits/stl_alloc.h ****       // large enough to preserve alignment.
 267:d:/software/ovi_2503a_s3trc/ovi_2503a_s3trc/Tools/MinGW/include/c++/3.3.1/bits/stl_alloc.h ****       enum {_S_extra = 8};
 268:d:/software/ovi_2503a_s3trc/ovi_2503a_s3trc/Tools/MinGW/include/c++/3.3.1/bits/stl_alloc.h **** 
 269:d:/software/ovi_2503a_s3trc/ovi_2503a_s3trc/Tools/MinGW/include/c++/3.3.1/bits/stl_alloc.h ****     public:
 270:d:/software/ovi_2503a_s3trc/ovi_2503a_s3trc/Tools/MinGW/include/c++/3.3.1/bits/stl_alloc.h ****       static void*
 271:d:/software/ovi_2503a_s3trc/ovi_2503a_s3trc/Tools/MinGW/include/c++/3.3.1/bits/stl_alloc.h ****       allocate(size_t __n)
 272:d:/software/ovi_2503a_s3trc/ovi_2503a_s3trc/Tools/MinGW/include/c++/3.3.1/bits/stl_alloc.h ****       {
 273:d:/software/ovi_2503a_s3trc/ovi_2503a_s3trc/Tools/MinGW/include/c++/3.3.1/bits/stl_alloc.h ****         char* __result = (char*)_Alloc::allocate(__n + (int) _S_extra);
 274:d:/software/ovi_2503a_s3trc/ovi_2503a_s3trc/Tools/MinGW/include/c++/3.3.1/bits/stl_alloc.h ****         *(size_t*)__result = __n;
 275:d:/software/ovi_2503a_s3trc/ovi_2503a_s3trc/Tools/MinGW/include/c++/3.3.1/bits/stl_alloc.h ****         return __result + (int) _S_extra;
 276:d:/software/ovi_2503a_s3trc/ovi_2503a_s3trc/Tools/MinGW/include/c++/3.3.1/bits/stl_alloc.h ****       }
 277:d:/software/ovi_2503a_s3trc/ovi_2503a_s3trc/Tools/MinGW/include/c++/3.3.1/bits/stl_alloc.h **** 
 278:d:/software/ovi_2503a_s3trc/ovi_2503a_s3trc/Tools/MinGW/include/c++/3.3.1/bits/stl_alloc.h ****       static void
 279:d:/software/ovi_2503a_s3trc/ovi_2503a_s3trc/Tools/MinGW/include/c++/3.3.1/bits/stl_alloc.h ****       deallocate(void* __p, size_t __n)
 280:d:/software/ovi_2503a_s3trc/ovi_2503a_s3trc/Tools/MinGW/include/c++/3.3.1/bits/stl_alloc.h ****       {
 281:d:/software/ovi_2503a_s3trc/ovi_2503a_s3trc/Tools/MinGW/include/c++/3.3.1/bits/stl_alloc.h ****         char* __real_p = (char*)__p - (int) _S_extra;
 282:d:/software/ovi_2503a_s3trc/ovi_2503a_s3trc/Tools/MinGW/include/c++/3.3.1/bits/stl_alloc.h ****         if (*(size_t*)__real_p != __n)
 283:d:/software/ovi_2503a_s3trc/ovi_2503a_s3trc/Tools/MinGW/include/c++/3.3.1/bits/stl_alloc.h **** 	  abort();
 284:d:/software/ovi_2503a_s3trc/ovi_2503a_s3trc/Tools/MinGW/include/c++/3.3.1/bits/stl_alloc.h ****         _Alloc::deallocate(__real_p, __n + (int) _S_extra);
 285:d:/software/ovi_2503a_s3trc/ovi_2503a_s3trc/Tools/MinGW/include/c++/3.3.1/bits/stl_alloc.h ****       }
 286:d:/software/ovi_2503a_s3trc/ovi_2503a_s3trc/Tools/MinGW/include/c++/3.3.1/bits/stl_alloc.h **** 
 287:d:/software/ovi_2503a_s3trc/ovi_2503a_s3trc/Tools/MinGW/include/c++/3.3.1/bits/stl_alloc.h ****       static void*
 288:d:/software/ovi_2503a_s3trc/ovi_2503a_s3trc/Tools/MinGW/include/c++/3.3.1/bits/stl_alloc.h ****       reallocate(void* __p, size_t __old_sz, size_t __new_sz)
 289:d:/software/ovi_2503a_s3trc/ovi_2503a_s3trc/Tools/MinGW/include/c++/3.3.1/bits/stl_alloc.h ****       {
 290:d:/software/ovi_2503a_s3trc/ovi_2503a_s3trc/Tools/MinGW/include/c++/3.3.1/bits/stl_alloc.h ****         char* __real_p = (char*)__p - (int) _S_extra;
 291:d:/software/ovi_2503a_s3trc/ovi_2503a_s3trc/Tools/MinGW/include/c++/3.3.1/bits/stl_alloc.h ****         if (*(size_t*)__real_p != __old_sz)
 292:d:/software/ovi_2503a_s3trc/ovi_2503a_s3trc/Tools/MinGW/include/c++/3.3.1/bits/stl_alloc.h **** 	  abort();
 293:d:/software/ovi_2503a_s3trc/ovi_2503a_s3trc/Tools/MinGW/include/c++/3.3.1/bits/stl_alloc.h ****         char* __result = (char*) _Alloc::reallocate(__real_p, 
 294:d:/software/ovi_2503a_s3trc/ovi_2503a_s3trc/Tools/MinGW/include/c++/3.3.1/bits/stl_alloc.h **** 						    __old_sz + (int) _S_extra,
 295:d:/software/ovi_2503a_s3trc/ovi_2503a_s3trc/Tools/MinGW/include/c++/3.3.1/bits/stl_alloc.h **** 						    __new_sz + (int) _S_extra);
 296:d:/software/ovi_2503a_s3trc/ovi_2503a_s3trc/Tools/MinGW/include/c++/3.3.1/bits/stl_alloc.h ****         *(size_t*)__result = __new_sz;
 297:d:/software/ovi_2503a_s3trc/ovi_2503a_s3trc/Tools/MinGW/include/c++/3.3.1/bits/stl_alloc.h ****         return __result + (int) _S_extra;
 298:d:/software/ovi_2503a_s3trc/ovi_2503a_s3trc/Tools/MinGW/include/c++/3.3.1/bits/stl_alloc.h ****       }
 299:d:/software/ovi_2503a_s3trc/ovi_2503a_s3trc/Tools/MinGW/include/c++/3.3.1/bits/stl_alloc.h ****     };
 300:d:/software/ovi_2503a_s3trc/ovi_2503a_s3trc/Tools/MinGW/include/c++/3.3.1/bits/stl_alloc.h **** 
 301:d:/software/ovi_2503a_s3trc/ovi_2503a_s3trc/Tools/MinGW/include/c++/3.3.1/bits/stl_alloc.h **** 
 302:d:/software/ovi_2503a_s3trc/ovi_2503a_s3trc/Tools/MinGW/include/c++/3.3.1/bits/stl_alloc.h ****   /**
 303:d:/software/ovi_2503a_s3trc/ovi_2503a_s3trc/Tools/MinGW/include/c++/3.3.1/bits/stl_alloc.h ****    *  @if maint
 304:d:/software/ovi_2503a_s3trc/ovi_2503a_s3trc/Tools/MinGW/include/c++/3.3.1/bits/stl_alloc.h ****    *  Default node allocator.  "SGI" style.  Uses various allocators to
 305:d:/software/ovi_2503a_s3trc/ovi_2503a_s3trc/Tools/MinGW/include/c++/3.3.1/bits/stl_alloc.h ****    *  fulfill underlying requests (and makes as few requests as possible
 306:d:/software/ovi_2503a_s3trc/ovi_2503a_s3trc/Tools/MinGW/include/c++/3.3.1/bits/stl_alloc.h ****    *  when in default high-speed pool mode).
 307:d:/software/ovi_2503a_s3trc/ovi_2503a_s3trc/Tools/MinGW/include/c++/3.3.1/bits/stl_alloc.h ****    *
 308:d:/software/ovi_2503a_s3trc/ovi_2503a_s3trc/Tools/MinGW/include/c++/3.3.1/bits/stl_alloc.h ****    *  Important implementation properties:
 309:d:/software/ovi_2503a_s3trc/ovi_2503a_s3trc/Tools/MinGW/include/c++/3.3.1/bits/stl_alloc.h ****    *  0. If globally mandated, then allocate objects from __new_alloc
 310:d:/software/ovi_2503a_s3trc/ovi_2503a_s3trc/Tools/MinGW/include/c++/3.3.1/bits/stl_alloc.h ****    *  1. If the clients request an object of size > _MAX_BYTES, the resulting
 311:d:/software/ovi_2503a_s3trc/ovi_2503a_s3trc/Tools/MinGW/include/c++/3.3.1/bits/stl_alloc.h ****    *     object will be obtained directly from __new_alloc
 312:d:/software/ovi_2503a_s3trc/ovi_2503a_s3trc/Tools/MinGW/include/c++/3.3.1/bits/stl_alloc.h ****    *  2. In all other cases, we allocate an object of size exactly
 313:d:/software/ovi_2503a_s3trc/ovi_2503a_s3trc/Tools/MinGW/include/c++/3.3.1/bits/stl_alloc.h ****    *     _S_round_up(requested_size).  Thus the client has enough size
 314:d:/software/ovi_2503a_s3trc/ovi_2503a_s3trc/Tools/MinGW/include/c++/3.3.1/bits/stl_alloc.h ****    *     information that we can return the object to the proper free list
 315:d:/software/ovi_2503a_s3trc/ovi_2503a_s3trc/Tools/MinGW/include/c++/3.3.1/bits/stl_alloc.h ****    *     without permanently losing part of the object.
 316:d:/software/ovi_2503a_s3trc/ovi_2503a_s3trc/Tools/MinGW/include/c++/3.3.1/bits/stl_alloc.h ****    *
 317:d:/software/ovi_2503a_s3trc/ovi_2503a_s3trc/Tools/MinGW/include/c++/3.3.1/bits/stl_alloc.h ****    *  The first template parameter specifies whether more than one thread may
GAS LISTING d:/software/ovi_2503a_s3trc/ovi_2503a_s3trc/plutommi/Customer/ResGenerator/gcctmp/ccuadaaa.s 			page 110


 318:d:/software/ovi_2503a_s3trc/ovi_2503a_s3trc/Tools/MinGW/include/c++/3.3.1/bits/stl_alloc.h ****    *  use this allocator.  It is safe to allocate an object from one instance
 319:d:/software/ovi_2503a_s3trc/ovi_2503a_s3trc/Tools/MinGW/include/c++/3.3.1/bits/stl_alloc.h ****    *  of a default_alloc and deallocate it with another one.  This effectively
 320:d:/software/ovi_2503a_s3trc/ovi_2503a_s3trc/Tools/MinGW/include/c++/3.3.1/bits/stl_alloc.h ****    *  transfers its ownership to the second one.  This may have undesirable
 321:d:/software/ovi_2503a_s3trc/ovi_2503a_s3trc/Tools/MinGW/include/c++/3.3.1/bits/stl_alloc.h ****    *  effects on reference locality.
 322:d:/software/ovi_2503a_s3trc/ovi_2503a_s3trc/Tools/MinGW/include/c++/3.3.1/bits/stl_alloc.h ****    *
 323:d:/software/ovi_2503a_s3trc/ovi_2503a_s3trc/Tools/MinGW/include/c++/3.3.1/bits/stl_alloc.h ****    *  The second parameter is unused and serves only to allow the creation of
 324:d:/software/ovi_2503a_s3trc/ovi_2503a_s3trc/Tools/MinGW/include/c++/3.3.1/bits/stl_alloc.h ****    *  multiple default_alloc instances.  Note that containers built on different
 325:d:/software/ovi_2503a_s3trc/ovi_2503a_s3trc/Tools/MinGW/include/c++/3.3.1/bits/stl_alloc.h ****    *  allocator instances have different types, limiting the utility of this
 326:d:/software/ovi_2503a_s3trc/ovi_2503a_s3trc/Tools/MinGW/include/c++/3.3.1/bits/stl_alloc.h ****    *  approach.  If you do not wish to share the free lists with the main
 327:d:/software/ovi_2503a_s3trc/ovi_2503a_s3trc/Tools/MinGW/include/c++/3.3.1/bits/stl_alloc.h ****    *  default_alloc instance, instantiate this with a non-zero __inst.
 328:d:/software/ovi_2503a_s3trc/ovi_2503a_s3trc/Tools/MinGW/include/c++/3.3.1/bits/stl_alloc.h ****    *
 329:d:/software/ovi_2503a_s3trc/ovi_2503a_s3trc/Tools/MinGW/include/c++/3.3.1/bits/stl_alloc.h ****    *  @endif
 330:d:/software/ovi_2503a_s3trc/ovi_2503a_s3trc/Tools/MinGW/include/c++/3.3.1/bits/stl_alloc.h ****    *  (See @link Allocators allocators info @endlink for more.)
 331:d:/software/ovi_2503a_s3trc/ovi_2503a_s3trc/Tools/MinGW/include/c++/3.3.1/bits/stl_alloc.h ****    */
 332:d:/software/ovi_2503a_s3trc/ovi_2503a_s3trc/Tools/MinGW/include/c++/3.3.1/bits/stl_alloc.h ****   template<bool __threads, int __inst>
 333:d:/software/ovi_2503a_s3trc/ovi_2503a_s3trc/Tools/MinGW/include/c++/3.3.1/bits/stl_alloc.h ****     class __default_alloc_template
 334:d:/software/ovi_2503a_s3trc/ovi_2503a_s3trc/Tools/MinGW/include/c++/3.3.1/bits/stl_alloc.h ****     {
 335:d:/software/ovi_2503a_s3trc/ovi_2503a_s3trc/Tools/MinGW/include/c++/3.3.1/bits/stl_alloc.h ****     private:
 336:d:/software/ovi_2503a_s3trc/ovi_2503a_s3trc/Tools/MinGW/include/c++/3.3.1/bits/stl_alloc.h ****       enum {_ALIGN = 8};
 337:d:/software/ovi_2503a_s3trc/ovi_2503a_s3trc/Tools/MinGW/include/c++/3.3.1/bits/stl_alloc.h ****       enum {_MAX_BYTES = 128};
 338:d:/software/ovi_2503a_s3trc/ovi_2503a_s3trc/Tools/MinGW/include/c++/3.3.1/bits/stl_alloc.h ****       enum {_NFREELISTS = _MAX_BYTES / _ALIGN};
 339:d:/software/ovi_2503a_s3trc/ovi_2503a_s3trc/Tools/MinGW/include/c++/3.3.1/bits/stl_alloc.h **** 
 340:d:/software/ovi_2503a_s3trc/ovi_2503a_s3trc/Tools/MinGW/include/c++/3.3.1/bits/stl_alloc.h ****       union _Obj
 341:d:/software/ovi_2503a_s3trc/ovi_2503a_s3trc/Tools/MinGW/include/c++/3.3.1/bits/stl_alloc.h ****       {
 342:d:/software/ovi_2503a_s3trc/ovi_2503a_s3trc/Tools/MinGW/include/c++/3.3.1/bits/stl_alloc.h ****         union _Obj* _M_free_list_link;
 343:d:/software/ovi_2503a_s3trc/ovi_2503a_s3trc/Tools/MinGW/include/c++/3.3.1/bits/stl_alloc.h ****         char        _M_client_data[1];    // The client sees this.
 344:d:/software/ovi_2503a_s3trc/ovi_2503a_s3trc/Tools/MinGW/include/c++/3.3.1/bits/stl_alloc.h ****       };
 345:d:/software/ovi_2503a_s3trc/ovi_2503a_s3trc/Tools/MinGW/include/c++/3.3.1/bits/stl_alloc.h **** 
 346:d:/software/ovi_2503a_s3trc/ovi_2503a_s3trc/Tools/MinGW/include/c++/3.3.1/bits/stl_alloc.h ****       static _Obj* volatile         _S_free_list[_NFREELISTS];
 347:d:/software/ovi_2503a_s3trc/ovi_2503a_s3trc/Tools/MinGW/include/c++/3.3.1/bits/stl_alloc.h **** 
 348:d:/software/ovi_2503a_s3trc/ovi_2503a_s3trc/Tools/MinGW/include/c++/3.3.1/bits/stl_alloc.h ****       // Chunk allocation state.
 349:d:/software/ovi_2503a_s3trc/ovi_2503a_s3trc/Tools/MinGW/include/c++/3.3.1/bits/stl_alloc.h ****       static char*                  _S_start_free;
 350:d:/software/ovi_2503a_s3trc/ovi_2503a_s3trc/Tools/MinGW/include/c++/3.3.1/bits/stl_alloc.h ****       static char*                  _S_end_free;
 351:d:/software/ovi_2503a_s3trc/ovi_2503a_s3trc/Tools/MinGW/include/c++/3.3.1/bits/stl_alloc.h ****       static size_t                 _S_heap_size;
 352:d:/software/ovi_2503a_s3trc/ovi_2503a_s3trc/Tools/MinGW/include/c++/3.3.1/bits/stl_alloc.h **** 
 353:d:/software/ovi_2503a_s3trc/ovi_2503a_s3trc/Tools/MinGW/include/c++/3.3.1/bits/stl_alloc.h ****       static _STL_mutex_lock        _S_node_allocator_lock;
 354:d:/software/ovi_2503a_s3trc/ovi_2503a_s3trc/Tools/MinGW/include/c++/3.3.1/bits/stl_alloc.h **** 
 355:d:/software/ovi_2503a_s3trc/ovi_2503a_s3trc/Tools/MinGW/include/c++/3.3.1/bits/stl_alloc.h ****       static size_t
 356:d:/software/ovi_2503a_s3trc/ovi_2503a_s3trc/Tools/MinGW/include/c++/3.3.1/bits/stl_alloc.h ****       _S_round_up(size_t __bytes)
 357:d:/software/ovi_2503a_s3trc/ovi_2503a_s3trc/Tools/MinGW/include/c++/3.3.1/bits/stl_alloc.h ****       { return (((__bytes) + (size_t) _ALIGN-1) & ~((size_t) _ALIGN - 1)); }
 358:d:/software/ovi_2503a_s3trc/ovi_2503a_s3trc/Tools/MinGW/include/c++/3.3.1/bits/stl_alloc.h **** 
 359:d:/software/ovi_2503a_s3trc/ovi_2503a_s3trc/Tools/MinGW/include/c++/3.3.1/bits/stl_alloc.h ****       static size_t
 360:d:/software/ovi_2503a_s3trc/ovi_2503a_s3trc/Tools/MinGW/include/c++/3.3.1/bits/stl_alloc.h ****       _S_freelist_index(size_t __bytes)
 361:d:/software/ovi_2503a_s3trc/ovi_2503a_s3trc/Tools/MinGW/include/c++/3.3.1/bits/stl_alloc.h ****       { return (((__bytes) + (size_t)_ALIGN - 1)/(size_t)_ALIGN - 1); }
 362:d:/software/ovi_2503a_s3trc/ovi_2503a_s3trc/Tools/MinGW/include/c++/3.3.1/bits/stl_alloc.h **** 
 363:d:/software/ovi_2503a_s3trc/ovi_2503a_s3trc/Tools/MinGW/include/c++/3.3.1/bits/stl_alloc.h ****       // Returns an object of size __n, and optionally adds to size __n
 364:d:/software/ovi_2503a_s3trc/ovi_2503a_s3trc/Tools/MinGW/include/c++/3.3.1/bits/stl_alloc.h ****       // free list.
 365:d:/software/ovi_2503a_s3trc/ovi_2503a_s3trc/Tools/MinGW/include/c++/3.3.1/bits/stl_alloc.h ****       static void*
 366:d:/software/ovi_2503a_s3trc/ovi_2503a_s3trc/Tools/MinGW/include/c++/3.3.1/bits/stl_alloc.h ****       _S_refill(size_t __n);
 367:d:/software/ovi_2503a_s3trc/ovi_2503a_s3trc/Tools/MinGW/include/c++/3.3.1/bits/stl_alloc.h **** 
 368:d:/software/ovi_2503a_s3trc/ovi_2503a_s3trc/Tools/MinGW/include/c++/3.3.1/bits/stl_alloc.h ****       // Allocates a chunk for nobjs of size size.  nobjs may be reduced
 369:d:/software/ovi_2503a_s3trc/ovi_2503a_s3trc/Tools/MinGW/include/c++/3.3.1/bits/stl_alloc.h ****       // if it is inconvenient to allocate the requested number.
 370:d:/software/ovi_2503a_s3trc/ovi_2503a_s3trc/Tools/MinGW/include/c++/3.3.1/bits/stl_alloc.h ****       static char*
 371:d:/software/ovi_2503a_s3trc/ovi_2503a_s3trc/Tools/MinGW/include/c++/3.3.1/bits/stl_alloc.h ****       _S_chunk_alloc(size_t __size, int& __nobjs);
 372:d:/software/ovi_2503a_s3trc/ovi_2503a_s3trc/Tools/MinGW/include/c++/3.3.1/bits/stl_alloc.h **** 
 373:d:/software/ovi_2503a_s3trc/ovi_2503a_s3trc/Tools/MinGW/include/c++/3.3.1/bits/stl_alloc.h ****       // It would be nice to use _STL_auto_lock here.  But we need a
 374:d:/software/ovi_2503a_s3trc/ovi_2503a_s3trc/Tools/MinGW/include/c++/3.3.1/bits/stl_alloc.h ****       // test whether threads are in use.
GAS LISTING d:/software/ovi_2503a_s3trc/ovi_2503a_s3trc/plutommi/Customer/ResGenerator/gcctmp/ccuadaaa.s 			page 111


 375:d:/software/ovi_2503a_s3trc/ovi_2503a_s3trc/Tools/MinGW/include/c++/3.3.1/bits/stl_alloc.h ****       struct _Lock
 376:d:/software/ovi_2503a_s3trc/ovi_2503a_s3trc/Tools/MinGW/include/c++/3.3.1/bits/stl_alloc.h ****       {
 377:d:/software/ovi_2503a_s3trc/ovi_2503a_s3trc/Tools/MinGW/include/c++/3.3.1/bits/stl_alloc.h ****         _Lock() { if (__threads) _S_node_allocator_lock._M_acquire_lock(); }
 378:d:/software/ovi_2503a_s3trc/ovi_2503a_s3trc/Tools/MinGW/include/c++/3.3.1/bits/stl_alloc.h ****         ~_Lock() { if (__threads) _S_node_allocator_lock._M_release_lock(); }
 379:d:/software/ovi_2503a_s3trc/ovi_2503a_s3trc/Tools/MinGW/include/c++/3.3.1/bits/stl_alloc.h ****       } __attribute__ ((__unused__));
 380:d:/software/ovi_2503a_s3trc/ovi_2503a_s3trc/Tools/MinGW/include/c++/3.3.1/bits/stl_alloc.h ****       friend struct _Lock;
 381:d:/software/ovi_2503a_s3trc/ovi_2503a_s3trc/Tools/MinGW/include/c++/3.3.1/bits/stl_alloc.h **** 
 382:d:/software/ovi_2503a_s3trc/ovi_2503a_s3trc/Tools/MinGW/include/c++/3.3.1/bits/stl_alloc.h ****       static _Atomic_word _S_force_new;
 383:d:/software/ovi_2503a_s3trc/ovi_2503a_s3trc/Tools/MinGW/include/c++/3.3.1/bits/stl_alloc.h **** 
 384:d:/software/ovi_2503a_s3trc/ovi_2503a_s3trc/Tools/MinGW/include/c++/3.3.1/bits/stl_alloc.h ****     public:
 385:d:/software/ovi_2503a_s3trc/ovi_2503a_s3trc/Tools/MinGW/include/c++/3.3.1/bits/stl_alloc.h ****       // __n must be > 0
 386:d:/software/ovi_2503a_s3trc/ovi_2503a_s3trc/Tools/MinGW/include/c++/3.3.1/bits/stl_alloc.h ****       static void*
 387:d:/software/ovi_2503a_s3trc/ovi_2503a_s3trc/Tools/MinGW/include/c++/3.3.1/bits/stl_alloc.h ****       allocate(size_t __n)
 388:d:/software/ovi_2503a_s3trc/ovi_2503a_s3trc/Tools/MinGW/include/c++/3.3.1/bits/stl_alloc.h ****       {
 389:d:/software/ovi_2503a_s3trc/ovi_2503a_s3trc/Tools/MinGW/include/c++/3.3.1/bits/stl_alloc.h **** 	void* __ret = 0;
 390:d:/software/ovi_2503a_s3trc/ovi_2503a_s3trc/Tools/MinGW/include/c++/3.3.1/bits/stl_alloc.h **** 
 391:d:/software/ovi_2503a_s3trc/ovi_2503a_s3trc/Tools/MinGW/include/c++/3.3.1/bits/stl_alloc.h **** 	// If there is a race through here, assume answer from getenv
 392:d:/software/ovi_2503a_s3trc/ovi_2503a_s3trc/Tools/MinGW/include/c++/3.3.1/bits/stl_alloc.h **** 	// will resolve in same direction.  Inspired by techniques
 393:d:/software/ovi_2503a_s3trc/ovi_2503a_s3trc/Tools/MinGW/include/c++/3.3.1/bits/stl_alloc.h **** 	// to efficiently support threading found in basic_string.h.
 394:d:/software/ovi_2503a_s3trc/ovi_2503a_s3trc/Tools/MinGW/include/c++/3.3.1/bits/stl_alloc.h **** 	if (_S_force_new == 0)
 395:d:/software/ovi_2503a_s3trc/ovi_2503a_s3trc/Tools/MinGW/include/c++/3.3.1/bits/stl_alloc.h **** 	  {
 396:d:/software/ovi_2503a_s3trc/ovi_2503a_s3trc/Tools/MinGW/include/c++/3.3.1/bits/stl_alloc.h **** 	    if (getenv("GLIBCPP_FORCE_NEW"))
 397:d:/software/ovi_2503a_s3trc/ovi_2503a_s3trc/Tools/MinGW/include/c++/3.3.1/bits/stl_alloc.h **** 	      __atomic_add(&_S_force_new, 1);
 398:d:/software/ovi_2503a_s3trc/ovi_2503a_s3trc/Tools/MinGW/include/c++/3.3.1/bits/stl_alloc.h **** 	    else
 399:d:/software/ovi_2503a_s3trc/ovi_2503a_s3trc/Tools/MinGW/include/c++/3.3.1/bits/stl_alloc.h **** 	      __atomic_add(&_S_force_new, -1);
 400:d:/software/ovi_2503a_s3trc/ovi_2503a_s3trc/Tools/MinGW/include/c++/3.3.1/bits/stl_alloc.h **** 	  }
 401:d:/software/ovi_2503a_s3trc/ovi_2503a_s3trc/Tools/MinGW/include/c++/3.3.1/bits/stl_alloc.h **** 
 402:d:/software/ovi_2503a_s3trc/ovi_2503a_s3trc/Tools/MinGW/include/c++/3.3.1/bits/stl_alloc.h **** 	if ((__n > (size_t) _MAX_BYTES) || (_S_force_new > 0))
 403:d:/software/ovi_2503a_s3trc/ovi_2503a_s3trc/Tools/MinGW/include/c++/3.3.1/bits/stl_alloc.h **** 	  __ret = __new_alloc::allocate(__n);
 404:d:/software/ovi_2503a_s3trc/ovi_2503a_s3trc/Tools/MinGW/include/c++/3.3.1/bits/stl_alloc.h **** 	else
 405:d:/software/ovi_2503a_s3trc/ovi_2503a_s3trc/Tools/MinGW/include/c++/3.3.1/bits/stl_alloc.h **** 	  {
 406:d:/software/ovi_2503a_s3trc/ovi_2503a_s3trc/Tools/MinGW/include/c++/3.3.1/bits/stl_alloc.h **** 	    _Obj* volatile* __my_free_list = _S_free_list
 407:d:/software/ovi_2503a_s3trc/ovi_2503a_s3trc/Tools/MinGW/include/c++/3.3.1/bits/stl_alloc.h **** 	      + _S_freelist_index(__n);
 408:d:/software/ovi_2503a_s3trc/ovi_2503a_s3trc/Tools/MinGW/include/c++/3.3.1/bits/stl_alloc.h **** 	    // Acquire the lock here with a constructor call.  This
 409:d:/software/ovi_2503a_s3trc/ovi_2503a_s3trc/Tools/MinGW/include/c++/3.3.1/bits/stl_alloc.h **** 	    // ensures that it is released in exit or during stack
 410:d:/software/ovi_2503a_s3trc/ovi_2503a_s3trc/Tools/MinGW/include/c++/3.3.1/bits/stl_alloc.h **** 	    // unwinding.
 411:d:/software/ovi_2503a_s3trc/ovi_2503a_s3trc/Tools/MinGW/include/c++/3.3.1/bits/stl_alloc.h **** 	    _Lock __lock_instance;
 412:d:/software/ovi_2503a_s3trc/ovi_2503a_s3trc/Tools/MinGW/include/c++/3.3.1/bits/stl_alloc.h **** 	    _Obj* __restrict__ __result = *__my_free_list;
 413:d:/software/ovi_2503a_s3trc/ovi_2503a_s3trc/Tools/MinGW/include/c++/3.3.1/bits/stl_alloc.h **** 	    if (__builtin_expect(__result == 0, 0))
 414:d:/software/ovi_2503a_s3trc/ovi_2503a_s3trc/Tools/MinGW/include/c++/3.3.1/bits/stl_alloc.h **** 	      __ret = _S_refill(_S_round_up(__n));
 415:d:/software/ovi_2503a_s3trc/ovi_2503a_s3trc/Tools/MinGW/include/c++/3.3.1/bits/stl_alloc.h **** 	    else
 416:d:/software/ovi_2503a_s3trc/ovi_2503a_s3trc/Tools/MinGW/include/c++/3.3.1/bits/stl_alloc.h **** 	      {
 417:d:/software/ovi_2503a_s3trc/ovi_2503a_s3trc/Tools/MinGW/include/c++/3.3.1/bits/stl_alloc.h **** 		*__my_free_list = __result -> _M_free_list_link;
 418:d:/software/ovi_2503a_s3trc/ovi_2503a_s3trc/Tools/MinGW/include/c++/3.3.1/bits/stl_alloc.h **** 		__ret = __result;
 419:d:/software/ovi_2503a_s3trc/ovi_2503a_s3trc/Tools/MinGW/include/c++/3.3.1/bits/stl_alloc.h **** 	      }	    
 420:d:/software/ovi_2503a_s3trc/ovi_2503a_s3trc/Tools/MinGW/include/c++/3.3.1/bits/stl_alloc.h **** 	    if (__builtin_expect(__ret == 0, 0))
 421:d:/software/ovi_2503a_s3trc/ovi_2503a_s3trc/Tools/MinGW/include/c++/3.3.1/bits/stl_alloc.h **** 	      __throw_bad_alloc();
 422:d:/software/ovi_2503a_s3trc/ovi_2503a_s3trc/Tools/MinGW/include/c++/3.3.1/bits/stl_alloc.h **** 	  }
 423:d:/software/ovi_2503a_s3trc/ovi_2503a_s3trc/Tools/MinGW/include/c++/3.3.1/bits/stl_alloc.h **** 	return __ret;
 424:d:/software/ovi_2503a_s3trc/ovi_2503a_s3trc/Tools/MinGW/include/c++/3.3.1/bits/stl_alloc.h ****       }
 425:d:/software/ovi_2503a_s3trc/ovi_2503a_s3trc/Tools/MinGW/include/c++/3.3.1/bits/stl_alloc.h **** 
 426:d:/software/ovi_2503a_s3trc/ovi_2503a_s3trc/Tools/MinGW/include/c++/3.3.1/bits/stl_alloc.h ****       // __p may not be 0
 427:d:/software/ovi_2503a_s3trc/ovi_2503a_s3trc/Tools/MinGW/include/c++/3.3.1/bits/stl_alloc.h ****       static void
 428:d:/software/ovi_2503a_s3trc/ovi_2503a_s3trc/Tools/MinGW/include/c++/3.3.1/bits/stl_alloc.h ****       deallocate(void* __p, size_t __n)
 429:d:/software/ovi_2503a_s3trc/ovi_2503a_s3trc/Tools/MinGW/include/c++/3.3.1/bits/stl_alloc.h ****       {
 430:d:/software/ovi_2503a_s3trc/ovi_2503a_s3trc/Tools/MinGW/include/c++/3.3.1/bits/stl_alloc.h **** 	if ((__n > (size_t) _MAX_BYTES) || (_S_force_new > 0))
 431:d:/software/ovi_2503a_s3trc/ovi_2503a_s3trc/Tools/MinGW/include/c++/3.3.1/bits/stl_alloc.h **** 	  __new_alloc::deallocate(__p, __n);
GAS LISTING d:/software/ovi_2503a_s3trc/ovi_2503a_s3trc/plutommi/Customer/ResGenerator/gcctmp/ccuadaaa.s 			page 112


 432:d:/software/ovi_2503a_s3trc/ovi_2503a_s3trc/Tools/MinGW/include/c++/3.3.1/bits/stl_alloc.h **** 	else
 433:d:/software/ovi_2503a_s3trc/ovi_2503a_s3trc/Tools/MinGW/include/c++/3.3.1/bits/stl_alloc.h **** 	  {
 434:d:/software/ovi_2503a_s3trc/ovi_2503a_s3trc/Tools/MinGW/include/c++/3.3.1/bits/stl_alloc.h **** 	    _Obj* volatile*  __my_free_list = _S_free_list
 435:d:/software/ovi_2503a_s3trc/ovi_2503a_s3trc/Tools/MinGW/include/c++/3.3.1/bits/stl_alloc.h **** 	      + _S_freelist_index(__n);
 436:d:/software/ovi_2503a_s3trc/ovi_2503a_s3trc/Tools/MinGW/include/c++/3.3.1/bits/stl_alloc.h **** 	    _Obj* __q = (_Obj*)__p;
 437:d:/software/ovi_2503a_s3trc/ovi_2503a_s3trc/Tools/MinGW/include/c++/3.3.1/bits/stl_alloc.h **** 
 438:d:/software/ovi_2503a_s3trc/ovi_2503a_s3trc/Tools/MinGW/include/c++/3.3.1/bits/stl_alloc.h **** 	    // Acquire the lock here with a constructor call.  This
 439:d:/software/ovi_2503a_s3trc/ovi_2503a_s3trc/Tools/MinGW/include/c++/3.3.1/bits/stl_alloc.h **** 	    // ensures that it is released in exit or during stack
 440:d:/software/ovi_2503a_s3trc/ovi_2503a_s3trc/Tools/MinGW/include/c++/3.3.1/bits/stl_alloc.h **** 	    // unwinding.
 441:d:/software/ovi_2503a_s3trc/ovi_2503a_s3trc/Tools/MinGW/include/c++/3.3.1/bits/stl_alloc.h **** 	    _Lock __lock_instance;
 442:d:/software/ovi_2503a_s3trc/ovi_2503a_s3trc/Tools/MinGW/include/c++/3.3.1/bits/stl_alloc.h **** 	    __q -> _M_free_list_link = *__my_free_list;
 443:d:/software/ovi_2503a_s3trc/ovi_2503a_s3trc/Tools/MinGW/include/c++/3.3.1/bits/stl_alloc.h **** 	    *__my_free_list = __q;
 444:d:/software/ovi_2503a_s3trc/ovi_2503a_s3trc/Tools/MinGW/include/c++/3.3.1/bits/stl_alloc.h **** 	  }
 445:d:/software/ovi_2503a_s3trc/ovi_2503a_s3trc/Tools/MinGW/include/c++/3.3.1/bits/stl_alloc.h ****       }
 446:d:/software/ovi_2503a_s3trc/ovi_2503a_s3trc/Tools/MinGW/include/c++/3.3.1/bits/stl_alloc.h **** 
 447:d:/software/ovi_2503a_s3trc/ovi_2503a_s3trc/Tools/MinGW/include/c++/3.3.1/bits/stl_alloc.h ****       static void*
 448:d:/software/ovi_2503a_s3trc/ovi_2503a_s3trc/Tools/MinGW/include/c++/3.3.1/bits/stl_alloc.h ****       reallocate(void* __p, size_t __old_sz, size_t __new_sz);
 449:d:/software/ovi_2503a_s3trc/ovi_2503a_s3trc/Tools/MinGW/include/c++/3.3.1/bits/stl_alloc.h ****     };
 450:d:/software/ovi_2503a_s3trc/ovi_2503a_s3trc/Tools/MinGW/include/c++/3.3.1/bits/stl_alloc.h **** 
 451:d:/software/ovi_2503a_s3trc/ovi_2503a_s3trc/Tools/MinGW/include/c++/3.3.1/bits/stl_alloc.h ****   template<bool __threads, int __inst> _Atomic_word
 452:d:/software/ovi_2503a_s3trc/ovi_2503a_s3trc/Tools/MinGW/include/c++/3.3.1/bits/stl_alloc.h ****   __default_alloc_template<__threads, __inst>::_S_force_new = 0;
 453:d:/software/ovi_2503a_s3trc/ovi_2503a_s3trc/Tools/MinGW/include/c++/3.3.1/bits/stl_alloc.h **** 
 454:d:/software/ovi_2503a_s3trc/ovi_2503a_s3trc/Tools/MinGW/include/c++/3.3.1/bits/stl_alloc.h ****   template<bool __threads, int __inst>
 455:d:/software/ovi_2503a_s3trc/ovi_2503a_s3trc/Tools/MinGW/include/c++/3.3.1/bits/stl_alloc.h ****     inline bool
 456:d:/software/ovi_2503a_s3trc/ovi_2503a_s3trc/Tools/MinGW/include/c++/3.3.1/bits/stl_alloc.h ****     operator==(const __default_alloc_template<__threads,__inst>&,
 457:d:/software/ovi_2503a_s3trc/ovi_2503a_s3trc/Tools/MinGW/include/c++/3.3.1/bits/stl_alloc.h ****                const __default_alloc_template<__threads,__inst>&)
 458:d:/software/ovi_2503a_s3trc/ovi_2503a_s3trc/Tools/MinGW/include/c++/3.3.1/bits/stl_alloc.h ****     { return true; }
 459:d:/software/ovi_2503a_s3trc/ovi_2503a_s3trc/Tools/MinGW/include/c++/3.3.1/bits/stl_alloc.h **** 
 460:d:/software/ovi_2503a_s3trc/ovi_2503a_s3trc/Tools/MinGW/include/c++/3.3.1/bits/stl_alloc.h ****   template<bool __threads, int __inst>
 461:d:/software/ovi_2503a_s3trc/ovi_2503a_s3trc/Tools/MinGW/include/c++/3.3.1/bits/stl_alloc.h ****     inline bool
 462:d:/software/ovi_2503a_s3trc/ovi_2503a_s3trc/Tools/MinGW/include/c++/3.3.1/bits/stl_alloc.h ****     operator!=(const __default_alloc_template<__threads,__inst>&,
 463:d:/software/ovi_2503a_s3trc/ovi_2503a_s3trc/Tools/MinGW/include/c++/3.3.1/bits/stl_alloc.h ****                const __default_alloc_template<__threads,__inst>&)
 464:d:/software/ovi_2503a_s3trc/ovi_2503a_s3trc/Tools/MinGW/include/c++/3.3.1/bits/stl_alloc.h ****     { return false; }
 465:d:/software/ovi_2503a_s3trc/ovi_2503a_s3trc/Tools/MinGW/include/c++/3.3.1/bits/stl_alloc.h **** 
 466:d:/software/ovi_2503a_s3trc/ovi_2503a_s3trc/Tools/MinGW/include/c++/3.3.1/bits/stl_alloc.h **** 
 467:d:/software/ovi_2503a_s3trc/ovi_2503a_s3trc/Tools/MinGW/include/c++/3.3.1/bits/stl_alloc.h ****   // We allocate memory in large chunks in order to avoid fragmenting the
 468:d:/software/ovi_2503a_s3trc/ovi_2503a_s3trc/Tools/MinGW/include/c++/3.3.1/bits/stl_alloc.h ****   // heap too much.  We assume that __size is properly aligned.  We hold
 469:d:/software/ovi_2503a_s3trc/ovi_2503a_s3trc/Tools/MinGW/include/c++/3.3.1/bits/stl_alloc.h ****   // the allocation lock.
 470:d:/software/ovi_2503a_s3trc/ovi_2503a_s3trc/Tools/MinGW/include/c++/3.3.1/bits/stl_alloc.h ****   template<bool __threads, int __inst>
 471:d:/software/ovi_2503a_s3trc/ovi_2503a_s3trc/Tools/MinGW/include/c++/3.3.1/bits/stl_alloc.h ****     char*
 472:d:/software/ovi_2503a_s3trc/ovi_2503a_s3trc/Tools/MinGW/include/c++/3.3.1/bits/stl_alloc.h ****     __default_alloc_template<__threads, __inst>::
 473:d:/software/ovi_2503a_s3trc/ovi_2503a_s3trc/Tools/MinGW/include/c++/3.3.1/bits/stl_alloc.h ****     _S_chunk_alloc(size_t __size, int& __nobjs)
 474:d:/software/ovi_2503a_s3trc/ovi_2503a_s3trc/Tools/MinGW/include/c++/3.3.1/bits/stl_alloc.h ****     {
 475:d:/software/ovi_2503a_s3trc/ovi_2503a_s3trc/Tools/MinGW/include/c++/3.3.1/bits/stl_alloc.h ****       char* __result;
 476:d:/software/ovi_2503a_s3trc/ovi_2503a_s3trc/Tools/MinGW/include/c++/3.3.1/bits/stl_alloc.h ****       size_t __total_bytes = __size * __nobjs;
 477:d:/software/ovi_2503a_s3trc/ovi_2503a_s3trc/Tools/MinGW/include/c++/3.3.1/bits/stl_alloc.h ****       size_t __bytes_left = _S_end_free - _S_start_free;
 478:d:/software/ovi_2503a_s3trc/ovi_2503a_s3trc/Tools/MinGW/include/c++/3.3.1/bits/stl_alloc.h **** 
 479:d:/software/ovi_2503a_s3trc/ovi_2503a_s3trc/Tools/MinGW/include/c++/3.3.1/bits/stl_alloc.h ****       if (__bytes_left >= __total_bytes)
 480:d:/software/ovi_2503a_s3trc/ovi_2503a_s3trc/Tools/MinGW/include/c++/3.3.1/bits/stl_alloc.h ****         {
 481:d:/software/ovi_2503a_s3trc/ovi_2503a_s3trc/Tools/MinGW/include/c++/3.3.1/bits/stl_alloc.h ****           __result = _S_start_free;
 482:d:/software/ovi_2503a_s3trc/ovi_2503a_s3trc/Tools/MinGW/include/c++/3.3.1/bits/stl_alloc.h ****           _S_start_free += __total_bytes;
 483:d:/software/ovi_2503a_s3trc/ovi_2503a_s3trc/Tools/MinGW/include/c++/3.3.1/bits/stl_alloc.h ****           return __result ;
 484:d:/software/ovi_2503a_s3trc/ovi_2503a_s3trc/Tools/MinGW/include/c++/3.3.1/bits/stl_alloc.h ****         }
 485:d:/software/ovi_2503a_s3trc/ovi_2503a_s3trc/Tools/MinGW/include/c++/3.3.1/bits/stl_alloc.h ****       else if (__bytes_left >= __size)
 486:d:/software/ovi_2503a_s3trc/ovi_2503a_s3trc/Tools/MinGW/include/c++/3.3.1/bits/stl_alloc.h ****         {
 487:d:/software/ovi_2503a_s3trc/ovi_2503a_s3trc/Tools/MinGW/include/c++/3.3.1/bits/stl_alloc.h ****           __nobjs = (int)(__bytes_left/__size);
 488:d:/software/ovi_2503a_s3trc/ovi_2503a_s3trc/Tools/MinGW/include/c++/3.3.1/bits/stl_alloc.h ****           __total_bytes = __size * __nobjs;
GAS LISTING d:/software/ovi_2503a_s3trc/ovi_2503a_s3trc/plutommi/Customer/ResGenerator/gcctmp/ccuadaaa.s 			page 113


 489:d:/software/ovi_2503a_s3trc/ovi_2503a_s3trc/Tools/MinGW/include/c++/3.3.1/bits/stl_alloc.h ****           __result = _S_start_free;
 490:d:/software/ovi_2503a_s3trc/ovi_2503a_s3trc/Tools/MinGW/include/c++/3.3.1/bits/stl_alloc.h ****           _S_start_free += __total_bytes;
 491:d:/software/ovi_2503a_s3trc/ovi_2503a_s3trc/Tools/MinGW/include/c++/3.3.1/bits/stl_alloc.h ****           return __result;
 492:d:/software/ovi_2503a_s3trc/ovi_2503a_s3trc/Tools/MinGW/include/c++/3.3.1/bits/stl_alloc.h ****         }
 493:d:/software/ovi_2503a_s3trc/ovi_2503a_s3trc/Tools/MinGW/include/c++/3.3.1/bits/stl_alloc.h ****       else
 494:d:/software/ovi_2503a_s3trc/ovi_2503a_s3trc/Tools/MinGW/include/c++/3.3.1/bits/stl_alloc.h ****         {
 495:d:/software/ovi_2503a_s3trc/ovi_2503a_s3trc/Tools/MinGW/include/c++/3.3.1/bits/stl_alloc.h ****           size_t __bytes_to_get =
 496:d:/software/ovi_2503a_s3trc/ovi_2503a_s3trc/Tools/MinGW/include/c++/3.3.1/bits/stl_alloc.h ****             2 * __total_bytes + _S_round_up(_S_heap_size >> 4);
 497:d:/software/ovi_2503a_s3trc/ovi_2503a_s3trc/Tools/MinGW/include/c++/3.3.1/bits/stl_alloc.h ****           // Try to make use of the left-over piece.
 498:d:/software/ovi_2503a_s3trc/ovi_2503a_s3trc/Tools/MinGW/include/c++/3.3.1/bits/stl_alloc.h ****           if (__bytes_left > 0)
 499:d:/software/ovi_2503a_s3trc/ovi_2503a_s3trc/Tools/MinGW/include/c++/3.3.1/bits/stl_alloc.h ****             {
 500:d:/software/ovi_2503a_s3trc/ovi_2503a_s3trc/Tools/MinGW/include/c++/3.3.1/bits/stl_alloc.h ****               _Obj* volatile* __my_free_list =
 501:d:/software/ovi_2503a_s3trc/ovi_2503a_s3trc/Tools/MinGW/include/c++/3.3.1/bits/stl_alloc.h ****                 _S_free_list + _S_freelist_index(__bytes_left);
 502:d:/software/ovi_2503a_s3trc/ovi_2503a_s3trc/Tools/MinGW/include/c++/3.3.1/bits/stl_alloc.h **** 
 503:d:/software/ovi_2503a_s3trc/ovi_2503a_s3trc/Tools/MinGW/include/c++/3.3.1/bits/stl_alloc.h ****               ((_Obj*)(void*)_S_start_free) -> _M_free_list_link = *__my_free_list;
 504:d:/software/ovi_2503a_s3trc/ovi_2503a_s3trc/Tools/MinGW/include/c++/3.3.1/bits/stl_alloc.h ****               *__my_free_list = (_Obj*)(void*)_S_start_free;
 505:d:/software/ovi_2503a_s3trc/ovi_2503a_s3trc/Tools/MinGW/include/c++/3.3.1/bits/stl_alloc.h ****             }
 506:d:/software/ovi_2503a_s3trc/ovi_2503a_s3trc/Tools/MinGW/include/c++/3.3.1/bits/stl_alloc.h ****           _S_start_free = (char*) __new_alloc::allocate(__bytes_to_get);
 507:d:/software/ovi_2503a_s3trc/ovi_2503a_s3trc/Tools/MinGW/include/c++/3.3.1/bits/stl_alloc.h ****           if (_S_start_free == 0)
 508:d:/software/ovi_2503a_s3trc/ovi_2503a_s3trc/Tools/MinGW/include/c++/3.3.1/bits/stl_alloc.h ****             {
 509:d:/software/ovi_2503a_s3trc/ovi_2503a_s3trc/Tools/MinGW/include/c++/3.3.1/bits/stl_alloc.h ****               size_t __i;
 510:d:/software/ovi_2503a_s3trc/ovi_2503a_s3trc/Tools/MinGW/include/c++/3.3.1/bits/stl_alloc.h ****               _Obj* volatile* __my_free_list;
 511:d:/software/ovi_2503a_s3trc/ovi_2503a_s3trc/Tools/MinGW/include/c++/3.3.1/bits/stl_alloc.h ****               _Obj* __p;
 512:d:/software/ovi_2503a_s3trc/ovi_2503a_s3trc/Tools/MinGW/include/c++/3.3.1/bits/stl_alloc.h ****               // Try to make do with what we have.  That can't hurt.  We
 513:d:/software/ovi_2503a_s3trc/ovi_2503a_s3trc/Tools/MinGW/include/c++/3.3.1/bits/stl_alloc.h ****               // do not try smaller requests, since that tends to result
 514:d:/software/ovi_2503a_s3trc/ovi_2503a_s3trc/Tools/MinGW/include/c++/3.3.1/bits/stl_alloc.h ****               // in disaster on multi-process machines.
 515:d:/software/ovi_2503a_s3trc/ovi_2503a_s3trc/Tools/MinGW/include/c++/3.3.1/bits/stl_alloc.h ****               __i = __size;
 516:d:/software/ovi_2503a_s3trc/ovi_2503a_s3trc/Tools/MinGW/include/c++/3.3.1/bits/stl_alloc.h ****               for (; __i <= (size_t) _MAX_BYTES; __i += (size_t) _ALIGN)
 517:d:/software/ovi_2503a_s3trc/ovi_2503a_s3trc/Tools/MinGW/include/c++/3.3.1/bits/stl_alloc.h ****                 {
 518:d:/software/ovi_2503a_s3trc/ovi_2503a_s3trc/Tools/MinGW/include/c++/3.3.1/bits/stl_alloc.h ****                   __my_free_list = _S_free_list + _S_freelist_index(__i);
 519:d:/software/ovi_2503a_s3trc/ovi_2503a_s3trc/Tools/MinGW/include/c++/3.3.1/bits/stl_alloc.h ****                   __p = *__my_free_list;
 520:d:/software/ovi_2503a_s3trc/ovi_2503a_s3trc/Tools/MinGW/include/c++/3.3.1/bits/stl_alloc.h ****                   if (__p != 0)
 521:d:/software/ovi_2503a_s3trc/ovi_2503a_s3trc/Tools/MinGW/include/c++/3.3.1/bits/stl_alloc.h ****                     {
 522:d:/software/ovi_2503a_s3trc/ovi_2503a_s3trc/Tools/MinGW/include/c++/3.3.1/bits/stl_alloc.h ****                       *__my_free_list = __p -> _M_free_list_link;
 523:d:/software/ovi_2503a_s3trc/ovi_2503a_s3trc/Tools/MinGW/include/c++/3.3.1/bits/stl_alloc.h ****                       _S_start_free = (char*)__p;
 524:d:/software/ovi_2503a_s3trc/ovi_2503a_s3trc/Tools/MinGW/include/c++/3.3.1/bits/stl_alloc.h ****                       _S_end_free = _S_start_free + __i;
 525:d:/software/ovi_2503a_s3trc/ovi_2503a_s3trc/Tools/MinGW/include/c++/3.3.1/bits/stl_alloc.h ****                       return _S_chunk_alloc(__size, __nobjs);
 526:d:/software/ovi_2503a_s3trc/ovi_2503a_s3trc/Tools/MinGW/include/c++/3.3.1/bits/stl_alloc.h ****                       // Any leftover piece will eventually make it to the
 527:d:/software/ovi_2503a_s3trc/ovi_2503a_s3trc/Tools/MinGW/include/c++/3.3.1/bits/stl_alloc.h ****                       // right free list.
 528:d:/software/ovi_2503a_s3trc/ovi_2503a_s3trc/Tools/MinGW/include/c++/3.3.1/bits/stl_alloc.h ****                     }
 529:d:/software/ovi_2503a_s3trc/ovi_2503a_s3trc/Tools/MinGW/include/c++/3.3.1/bits/stl_alloc.h ****                 }
 530:d:/software/ovi_2503a_s3trc/ovi_2503a_s3trc/Tools/MinGW/include/c++/3.3.1/bits/stl_alloc.h ****               _S_end_free = 0;        // In case of exception.
 531:d:/software/ovi_2503a_s3trc/ovi_2503a_s3trc/Tools/MinGW/include/c++/3.3.1/bits/stl_alloc.h ****               _S_start_free = (char*)__new_alloc::allocate(__bytes_to_get);
 532:d:/software/ovi_2503a_s3trc/ovi_2503a_s3trc/Tools/MinGW/include/c++/3.3.1/bits/stl_alloc.h ****               // This should either throw an exception or remedy the situation.
 533:d:/software/ovi_2503a_s3trc/ovi_2503a_s3trc/Tools/MinGW/include/c++/3.3.1/bits/stl_alloc.h ****               // Thus we assume it succeeded.
 534:d:/software/ovi_2503a_s3trc/ovi_2503a_s3trc/Tools/MinGW/include/c++/3.3.1/bits/stl_alloc.h ****             }
 535:d:/software/ovi_2503a_s3trc/ovi_2503a_s3trc/Tools/MinGW/include/c++/3.3.1/bits/stl_alloc.h ****           _S_heap_size += __bytes_to_get;
 536:d:/software/ovi_2503a_s3trc/ovi_2503a_s3trc/Tools/MinGW/include/c++/3.3.1/bits/stl_alloc.h ****           _S_end_free = _S_start_free + __bytes_to_get;
 537:d:/software/ovi_2503a_s3trc/ovi_2503a_s3trc/Tools/MinGW/include/c++/3.3.1/bits/stl_alloc.h ****           return _S_chunk_alloc(__size, __nobjs);
 538:d:/software/ovi_2503a_s3trc/ovi_2503a_s3trc/Tools/MinGW/include/c++/3.3.1/bits/stl_alloc.h ****         }
 539:d:/software/ovi_2503a_s3trc/ovi_2503a_s3trc/Tools/MinGW/include/c++/3.3.1/bits/stl_alloc.h ****     }
 540:d:/software/ovi_2503a_s3trc/ovi_2503a_s3trc/Tools/MinGW/include/c++/3.3.1/bits/stl_alloc.h **** 
 541:d:/software/ovi_2503a_s3trc/ovi_2503a_s3trc/Tools/MinGW/include/c++/3.3.1/bits/stl_alloc.h **** 
 542:d:/software/ovi_2503a_s3trc/ovi_2503a_s3trc/Tools/MinGW/include/c++/3.3.1/bits/stl_alloc.h ****   // Returns an object of size __n, and optionally adds to "size
 543:d:/software/ovi_2503a_s3trc/ovi_2503a_s3trc/Tools/MinGW/include/c++/3.3.1/bits/stl_alloc.h ****   // __n"'s free list.  We assume that __n is properly aligned.  We
 544:d:/software/ovi_2503a_s3trc/ovi_2503a_s3trc/Tools/MinGW/include/c++/3.3.1/bits/stl_alloc.h ****   // hold the allocation lock.
 545:d:/software/ovi_2503a_s3trc/ovi_2503a_s3trc/Tools/MinGW/include/c++/3.3.1/bits/stl_alloc.h ****   template<bool __threads, int __inst>
GAS LISTING d:/software/ovi_2503a_s3trc/ovi_2503a_s3trc/plutommi/Customer/ResGenerator/gcctmp/ccuadaaa.s 			page 114


 546:d:/software/ovi_2503a_s3trc/ovi_2503a_s3trc/Tools/MinGW/include/c++/3.3.1/bits/stl_alloc.h ****     void*
 547:d:/software/ovi_2503a_s3trc/ovi_2503a_s3trc/Tools/MinGW/include/c++/3.3.1/bits/stl_alloc.h ****     __default_alloc_template<__threads, __inst>::_S_refill(size_t __n)
 548:d:/software/ovi_2503a_s3trc/ovi_2503a_s3trc/Tools/MinGW/include/c++/3.3.1/bits/stl_alloc.h ****     {
 549:d:/software/ovi_2503a_s3trc/ovi_2503a_s3trc/Tools/MinGW/include/c++/3.3.1/bits/stl_alloc.h ****       int __nobjs = 20;
 550:d:/software/ovi_2503a_s3trc/ovi_2503a_s3trc/Tools/MinGW/include/c++/3.3.1/bits/stl_alloc.h ****       char* __chunk = _S_chunk_alloc(__n, __nobjs);
 551:d:/software/ovi_2503a_s3trc/ovi_2503a_s3trc/Tools/MinGW/include/c++/3.3.1/bits/stl_alloc.h ****       _Obj* volatile* __my_free_list;
 552:d:/software/ovi_2503a_s3trc/ovi_2503a_s3trc/Tools/MinGW/include/c++/3.3.1/bits/stl_alloc.h ****       _Obj* __result;
 553:d:/software/ovi_2503a_s3trc/ovi_2503a_s3trc/Tools/MinGW/include/c++/3.3.1/bits/stl_alloc.h ****       _Obj* __current_obj;
 554:d:/software/ovi_2503a_s3trc/ovi_2503a_s3trc/Tools/MinGW/include/c++/3.3.1/bits/stl_alloc.h ****       _Obj* __next_obj;
 555:d:/software/ovi_2503a_s3trc/ovi_2503a_s3trc/Tools/MinGW/include/c++/3.3.1/bits/stl_alloc.h ****       int __i;
 556:d:/software/ovi_2503a_s3trc/ovi_2503a_s3trc/Tools/MinGW/include/c++/3.3.1/bits/stl_alloc.h **** 
 557:d:/software/ovi_2503a_s3trc/ovi_2503a_s3trc/Tools/MinGW/include/c++/3.3.1/bits/stl_alloc.h ****       if (1 == __nobjs)
 558:d:/software/ovi_2503a_s3trc/ovi_2503a_s3trc/Tools/MinGW/include/c++/3.3.1/bits/stl_alloc.h ****         return __chunk;
 559:d:/software/ovi_2503a_s3trc/ovi_2503a_s3trc/Tools/MinGW/include/c++/3.3.1/bits/stl_alloc.h ****       __my_free_list = _S_free_list + _S_freelist_index(__n);
 560:d:/software/ovi_2503a_s3trc/ovi_2503a_s3trc/Tools/MinGW/include/c++/3.3.1/bits/stl_alloc.h **** 
 561:d:/software/ovi_2503a_s3trc/ovi_2503a_s3trc/Tools/MinGW/include/c++/3.3.1/bits/stl_alloc.h ****       // Build free list in chunk.
 562:d:/software/ovi_2503a_s3trc/ovi_2503a_s3trc/Tools/MinGW/include/c++/3.3.1/bits/stl_alloc.h ****       __result = (_Obj*)(void*)__chunk;
 563:d:/software/ovi_2503a_s3trc/ovi_2503a_s3trc/Tools/MinGW/include/c++/3.3.1/bits/stl_alloc.h ****       *__my_free_list = __next_obj = (_Obj*)(void*)(__chunk + __n);
 564:d:/software/ovi_2503a_s3trc/ovi_2503a_s3trc/Tools/MinGW/include/c++/3.3.1/bits/stl_alloc.h ****       for (__i = 1; ; __i++)
 565:d:/software/ovi_2503a_s3trc/ovi_2503a_s3trc/Tools/MinGW/include/c++/3.3.1/bits/stl_alloc.h ****         {
 566:d:/software/ovi_2503a_s3trc/ovi_2503a_s3trc/Tools/MinGW/include/c++/3.3.1/bits/stl_alloc.h **** 	  __current_obj = __next_obj;
 567:d:/software/ovi_2503a_s3trc/ovi_2503a_s3trc/Tools/MinGW/include/c++/3.3.1/bits/stl_alloc.h ****           __next_obj = (_Obj*)(void*)((char*)__next_obj + __n);
 568:d:/software/ovi_2503a_s3trc/ovi_2503a_s3trc/Tools/MinGW/include/c++/3.3.1/bits/stl_alloc.h **** 	  if (__nobjs - 1 == __i)
 569:d:/software/ovi_2503a_s3trc/ovi_2503a_s3trc/Tools/MinGW/include/c++/3.3.1/bits/stl_alloc.h **** 	    {
 570:d:/software/ovi_2503a_s3trc/ovi_2503a_s3trc/Tools/MinGW/include/c++/3.3.1/bits/stl_alloc.h **** 	      __current_obj -> _M_free_list_link = 0;
 571:d:/software/ovi_2503a_s3trc/ovi_2503a_s3trc/Tools/MinGW/include/c++/3.3.1/bits/stl_alloc.h **** 	      break;
 572:d:/software/ovi_2503a_s3trc/ovi_2503a_s3trc/Tools/MinGW/include/c++/3.3.1/bits/stl_alloc.h **** 	    }
 573:d:/software/ovi_2503a_s3trc/ovi_2503a_s3trc/Tools/MinGW/include/c++/3.3.1/bits/stl_alloc.h **** 	  else
 574:d:/software/ovi_2503a_s3trc/ovi_2503a_s3trc/Tools/MinGW/include/c++/3.3.1/bits/stl_alloc.h **** 	    __current_obj -> _M_free_list_link = __next_obj;
 575:d:/software/ovi_2503a_s3trc/ovi_2503a_s3trc/Tools/MinGW/include/c++/3.3.1/bits/stl_alloc.h **** 	}
 576:d:/software/ovi_2503a_s3trc/ovi_2503a_s3trc/Tools/MinGW/include/c++/3.3.1/bits/stl_alloc.h ****       return __result;
 577:d:/software/ovi_2503a_s3trc/ovi_2503a_s3trc/Tools/MinGW/include/c++/3.3.1/bits/stl_alloc.h ****     }
 578:d:/software/ovi_2503a_s3trc/ovi_2503a_s3trc/Tools/MinGW/include/c++/3.3.1/bits/stl_alloc.h **** 
 579:d:/software/ovi_2503a_s3trc/ovi_2503a_s3trc/Tools/MinGW/include/c++/3.3.1/bits/stl_alloc.h **** 
 580:d:/software/ovi_2503a_s3trc/ovi_2503a_s3trc/Tools/MinGW/include/c++/3.3.1/bits/stl_alloc.h ****   template<bool threads, int inst>
 581:d:/software/ovi_2503a_s3trc/ovi_2503a_s3trc/Tools/MinGW/include/c++/3.3.1/bits/stl_alloc.h ****     void*
 582:d:/software/ovi_2503a_s3trc/ovi_2503a_s3trc/Tools/MinGW/include/c++/3.3.1/bits/stl_alloc.h ****     __default_alloc_template<threads, inst>::
 583:d:/software/ovi_2503a_s3trc/ovi_2503a_s3trc/Tools/MinGW/include/c++/3.3.1/bits/stl_alloc.h ****     reallocate(void* __p, size_t __old_sz, size_t __new_sz)
 584:d:/software/ovi_2503a_s3trc/ovi_2503a_s3trc/Tools/MinGW/include/c++/3.3.1/bits/stl_alloc.h ****     {
 585:d:/software/ovi_2503a_s3trc/ovi_2503a_s3trc/Tools/MinGW/include/c++/3.3.1/bits/stl_alloc.h ****       void* __result;
 586:d:/software/ovi_2503a_s3trc/ovi_2503a_s3trc/Tools/MinGW/include/c++/3.3.1/bits/stl_alloc.h ****       size_t __copy_sz;
 587:d:/software/ovi_2503a_s3trc/ovi_2503a_s3trc/Tools/MinGW/include/c++/3.3.1/bits/stl_alloc.h **** 
 588:d:/software/ovi_2503a_s3trc/ovi_2503a_s3trc/Tools/MinGW/include/c++/3.3.1/bits/stl_alloc.h ****       if (__old_sz > (size_t) _MAX_BYTES && __new_sz > (size_t) _MAX_BYTES)
 589:d:/software/ovi_2503a_s3trc/ovi_2503a_s3trc/Tools/MinGW/include/c++/3.3.1/bits/stl_alloc.h ****         return(realloc(__p, __new_sz));
 590:d:/software/ovi_2503a_s3trc/ovi_2503a_s3trc/Tools/MinGW/include/c++/3.3.1/bits/stl_alloc.h ****       if (_S_round_up(__old_sz) == _S_round_up(__new_sz))
 591:d:/software/ovi_2503a_s3trc/ovi_2503a_s3trc/Tools/MinGW/include/c++/3.3.1/bits/stl_alloc.h ****         return(__p);
 592:d:/software/ovi_2503a_s3trc/ovi_2503a_s3trc/Tools/MinGW/include/c++/3.3.1/bits/stl_alloc.h ****       __result = allocate(__new_sz);
 593:d:/software/ovi_2503a_s3trc/ovi_2503a_s3trc/Tools/MinGW/include/c++/3.3.1/bits/stl_alloc.h ****       __copy_sz = __new_sz > __old_sz? __old_sz : __new_sz;
 594:d:/software/ovi_2503a_s3trc/ovi_2503a_s3trc/Tools/MinGW/include/c++/3.3.1/bits/stl_alloc.h ****       memcpy(__result, __p, __copy_sz);
 595:d:/software/ovi_2503a_s3trc/ovi_2503a_s3trc/Tools/MinGW/include/c++/3.3.1/bits/stl_alloc.h ****       deallocate(__p, __old_sz);
 596:d:/software/ovi_2503a_s3trc/ovi_2503a_s3trc/Tools/MinGW/include/c++/3.3.1/bits/stl_alloc.h ****       return __result;
 597:d:/software/ovi_2503a_s3trc/ovi_2503a_s3trc/Tools/MinGW/include/c++/3.3.1/bits/stl_alloc.h ****     }
 598:d:/software/ovi_2503a_s3trc/ovi_2503a_s3trc/Tools/MinGW/include/c++/3.3.1/bits/stl_alloc.h **** 
 599:d:/software/ovi_2503a_s3trc/ovi_2503a_s3trc/Tools/MinGW/include/c++/3.3.1/bits/stl_alloc.h ****   template<bool __threads, int __inst>
 600:d:/software/ovi_2503a_s3trc/ovi_2503a_s3trc/Tools/MinGW/include/c++/3.3.1/bits/stl_alloc.h ****     _STL_mutex_lock
 601:d:/software/ovi_2503a_s3trc/ovi_2503a_s3trc/Tools/MinGW/include/c++/3.3.1/bits/stl_alloc.h ****     __default_alloc_template<__threads,__inst>::_S_node_allocator_lock
 602:d:/software/ovi_2503a_s3trc/ovi_2503a_s3trc/Tools/MinGW/include/c++/3.3.1/bits/stl_alloc.h ****     __STL_MUTEX_INITIALIZER;
GAS LISTING d:/software/ovi_2503a_s3trc/ovi_2503a_s3trc/plutommi/Customer/ResGenerator/gcctmp/ccuadaaa.s 			page 115


 603:d:/software/ovi_2503a_s3trc/ovi_2503a_s3trc/Tools/MinGW/include/c++/3.3.1/bits/stl_alloc.h **** 
 604:d:/software/ovi_2503a_s3trc/ovi_2503a_s3trc/Tools/MinGW/include/c++/3.3.1/bits/stl_alloc.h ****   template<bool __threads, int __inst>
 605:d:/software/ovi_2503a_s3trc/ovi_2503a_s3trc/Tools/MinGW/include/c++/3.3.1/bits/stl_alloc.h ****     char* __default_alloc_template<__threads,__inst>::_S_start_free = 0;
 606:d:/software/ovi_2503a_s3trc/ovi_2503a_s3trc/Tools/MinGW/include/c++/3.3.1/bits/stl_alloc.h **** 
 607:d:/software/ovi_2503a_s3trc/ovi_2503a_s3trc/Tools/MinGW/include/c++/3.3.1/bits/stl_alloc.h ****   template<bool __threads, int __inst>
 608:d:/software/ovi_2503a_s3trc/ovi_2503a_s3trc/Tools/MinGW/include/c++/3.3.1/bits/stl_alloc.h ****     char* __default_alloc_template<__threads,__inst>::_S_end_free = 0;
 609:d:/software/ovi_2503a_s3trc/ovi_2503a_s3trc/Tools/MinGW/include/c++/3.3.1/bits/stl_alloc.h **** 
 610:d:/software/ovi_2503a_s3trc/ovi_2503a_s3trc/Tools/MinGW/include/c++/3.3.1/bits/stl_alloc.h ****   template<bool __threads, int __inst>
 611:d:/software/ovi_2503a_s3trc/ovi_2503a_s3trc/Tools/MinGW/include/c++/3.3.1/bits/stl_alloc.h ****     size_t __default_alloc_template<__threads,__inst>::_S_heap_size = 0;
 612:d:/software/ovi_2503a_s3trc/ovi_2503a_s3trc/Tools/MinGW/include/c++/3.3.1/bits/stl_alloc.h **** 
 613:d:/software/ovi_2503a_s3trc/ovi_2503a_s3trc/Tools/MinGW/include/c++/3.3.1/bits/stl_alloc.h ****   template<bool __threads, int __inst>
 614:d:/software/ovi_2503a_s3trc/ovi_2503a_s3trc/Tools/MinGW/include/c++/3.3.1/bits/stl_alloc.h ****     typename __default_alloc_template<__threads,__inst>::_Obj* volatile
 615:d:/software/ovi_2503a_s3trc/ovi_2503a_s3trc/Tools/MinGW/include/c++/3.3.1/bits/stl_alloc.h ****     __default_alloc_template<__threads,__inst>::_S_free_list[_NFREELISTS];
 616:d:/software/ovi_2503a_s3trc/ovi_2503a_s3trc/Tools/MinGW/include/c++/3.3.1/bits/stl_alloc.h **** 
 617:d:/software/ovi_2503a_s3trc/ovi_2503a_s3trc/Tools/MinGW/include/c++/3.3.1/bits/stl_alloc.h ****   typedef __default_alloc_template<true,0>    __alloc;
 618:d:/software/ovi_2503a_s3trc/ovi_2503a_s3trc/Tools/MinGW/include/c++/3.3.1/bits/stl_alloc.h ****   typedef __default_alloc_template<false,0>   __single_client_alloc;
 619:d:/software/ovi_2503a_s3trc/ovi_2503a_s3trc/Tools/MinGW/include/c++/3.3.1/bits/stl_alloc.h **** 
 620:d:/software/ovi_2503a_s3trc/ovi_2503a_s3trc/Tools/MinGW/include/c++/3.3.1/bits/stl_alloc.h **** 
 621:d:/software/ovi_2503a_s3trc/ovi_2503a_s3trc/Tools/MinGW/include/c++/3.3.1/bits/stl_alloc.h ****   /**
 622:d:/software/ovi_2503a_s3trc/ovi_2503a_s3trc/Tools/MinGW/include/c++/3.3.1/bits/stl_alloc.h ****    *  @brief  The "standard" allocator, as per [20.4].
 623:d:/software/ovi_2503a_s3trc/ovi_2503a_s3trc/Tools/MinGW/include/c++/3.3.1/bits/stl_alloc.h ****    *
 624:d:/software/ovi_2503a_s3trc/ovi_2503a_s3trc/Tools/MinGW/include/c++/3.3.1/bits/stl_alloc.h ****    *  The private _Alloc is "SGI" style.  (See comments at the top
 625:d:/software/ovi_2503a_s3trc/ovi_2503a_s3trc/Tools/MinGW/include/c++/3.3.1/bits/stl_alloc.h ****    *  of stl_alloc.h.)
 626:d:/software/ovi_2503a_s3trc/ovi_2503a_s3trc/Tools/MinGW/include/c++/3.3.1/bits/stl_alloc.h ****    *
 627:d:/software/ovi_2503a_s3trc/ovi_2503a_s3trc/Tools/MinGW/include/c++/3.3.1/bits/stl_alloc.h ****    *  The underlying allocator behaves as follows.
 628:d:/software/ovi_2503a_s3trc/ovi_2503a_s3trc/Tools/MinGW/include/c++/3.3.1/bits/stl_alloc.h ****    *    - __default_alloc_template is used via two typedefs
 629:d:/software/ovi_2503a_s3trc/ovi_2503a_s3trc/Tools/MinGW/include/c++/3.3.1/bits/stl_alloc.h ****    *    - "__single_client_alloc" typedef does no locking for threads
 630:d:/software/ovi_2503a_s3trc/ovi_2503a_s3trc/Tools/MinGW/include/c++/3.3.1/bits/stl_alloc.h ****    *    - "__alloc" typedef is threadsafe via the locks
 631:d:/software/ovi_2503a_s3trc/ovi_2503a_s3trc/Tools/MinGW/include/c++/3.3.1/bits/stl_alloc.h ****    *    - __new_alloc is used for memory requests
 632:d:/software/ovi_2503a_s3trc/ovi_2503a_s3trc/Tools/MinGW/include/c++/3.3.1/bits/stl_alloc.h ****    *
 633:d:/software/ovi_2503a_s3trc/ovi_2503a_s3trc/Tools/MinGW/include/c++/3.3.1/bits/stl_alloc.h ****    *  (See @link Allocators allocators info @endlink for more.)
 634:d:/software/ovi_2503a_s3trc/ovi_2503a_s3trc/Tools/MinGW/include/c++/3.3.1/bits/stl_alloc.h ****    */
 635:d:/software/ovi_2503a_s3trc/ovi_2503a_s3trc/Tools/MinGW/include/c++/3.3.1/bits/stl_alloc.h ****   template<typename _Tp>
 636:d:/software/ovi_2503a_s3trc/ovi_2503a_s3trc/Tools/MinGW/include/c++/3.3.1/bits/stl_alloc.h ****     class allocator
 637:d:/software/ovi_2503a_s3trc/ovi_2503a_s3trc/Tools/MinGW/include/c++/3.3.1/bits/stl_alloc.h ****     {
 638:d:/software/ovi_2503a_s3trc/ovi_2503a_s3trc/Tools/MinGW/include/c++/3.3.1/bits/stl_alloc.h ****       typedef __alloc _Alloc;          // The underlying allocator.
 639:d:/software/ovi_2503a_s3trc/ovi_2503a_s3trc/Tools/MinGW/include/c++/3.3.1/bits/stl_alloc.h ****     public:
 640:d:/software/ovi_2503a_s3trc/ovi_2503a_s3trc/Tools/MinGW/include/c++/3.3.1/bits/stl_alloc.h ****       typedef size_t     size_type;
 641:d:/software/ovi_2503a_s3trc/ovi_2503a_s3trc/Tools/MinGW/include/c++/3.3.1/bits/stl_alloc.h ****       typedef ptrdiff_t  difference_type;
 642:d:/software/ovi_2503a_s3trc/ovi_2503a_s3trc/Tools/MinGW/include/c++/3.3.1/bits/stl_alloc.h ****       typedef _Tp*       pointer;
 643:d:/software/ovi_2503a_s3trc/ovi_2503a_s3trc/Tools/MinGW/include/c++/3.3.1/bits/stl_alloc.h ****       typedef const _Tp* const_pointer;
 644:d:/software/ovi_2503a_s3trc/ovi_2503a_s3trc/Tools/MinGW/include/c++/3.3.1/bits/stl_alloc.h ****       typedef _Tp&       reference;
 645:d:/software/ovi_2503a_s3trc/ovi_2503a_s3trc/Tools/MinGW/include/c++/3.3.1/bits/stl_alloc.h ****       typedef const _Tp& const_reference;
 646:d:/software/ovi_2503a_s3trc/ovi_2503a_s3trc/Tools/MinGW/include/c++/3.3.1/bits/stl_alloc.h ****       typedef _Tp        value_type;
 647:d:/software/ovi_2503a_s3trc/ovi_2503a_s3trc/Tools/MinGW/include/c++/3.3.1/bits/stl_alloc.h **** 
 648:d:/software/ovi_2503a_s3trc/ovi_2503a_s3trc/Tools/MinGW/include/c++/3.3.1/bits/stl_alloc.h ****       template<typename _Tp1>
 649:d:/software/ovi_2503a_s3trc/ovi_2503a_s3trc/Tools/MinGW/include/c++/3.3.1/bits/stl_alloc.h ****         struct rebind
 650:d:/software/ovi_2503a_s3trc/ovi_2503a_s3trc/Tools/MinGW/include/c++/3.3.1/bits/stl_alloc.h ****         { typedef allocator<_Tp1> other; };
 651:d:/software/ovi_2503a_s3trc/ovi_2503a_s3trc/Tools/MinGW/include/c++/3.3.1/bits/stl_alloc.h **** 
 652:d:/software/ovi_2503a_s3trc/ovi_2503a_s3trc/Tools/MinGW/include/c++/3.3.1/bits/stl_alloc.h ****       allocator() throw() {}
 6366              	LM298:
 6367              	L223:
 6368              	L222:
 6369 0000 55       		pushl	%ebp
 6370 0001 89E5     		movl	%esp, %ebp
 6372              	LM299:
 6373 0003 5D       		popl	%ebp
GAS LISTING d:/software/ovi_2503a_s3trc/ovi_2503a_s3trc/plutommi/Customer/ResGenerator/gcctmp/ccuadaaa.s 			page 116


 6374 0004 C3       		ret
 6375              	Lscope35:
 6377 0005 909090   		.section	.text$_ZNSaI16ProcessImageDataED1Ev,"x"
 6378              		.linkonce discard
 6379              		.align 2
 6382              	.globl __ZNSaI16ProcessImageDataED1Ev
 6384              	__ZNSaI16ProcessImageDataED1Ev:
 653:d:/software/ovi_2503a_s3trc/ovi_2503a_s3trc/Tools/MinGW/include/c++/3.3.1/bits/stl_alloc.h ****       allocator(const allocator&) throw() {}
 654:d:/software/ovi_2503a_s3trc/ovi_2503a_s3trc/Tools/MinGW/include/c++/3.3.1/bits/stl_alloc.h ****       template<typename _Tp1>
 655:d:/software/ovi_2503a_s3trc/ovi_2503a_s3trc/Tools/MinGW/include/c++/3.3.1/bits/stl_alloc.h ****         allocator(const allocator<_Tp1>&) throw() {}
 656:d:/software/ovi_2503a_s3trc/ovi_2503a_s3trc/Tools/MinGW/include/c++/3.3.1/bits/stl_alloc.h ****       ~allocator() throw() {}
 6386              	LM300:
 6387 0000 55       		pushl	%ebp
 6388 0001 89E5     		movl	%esp, %ebp
 6390              	LM301:
 6391 0003 5D       		popl	%ebp
 6392 0004 C3       		ret
 6393              	L228:
 6394              	L225:
 6395              	Lscope36:
 6397 0005 909090   		.section	.text$_ZNSt4listI16ProcessImageDataSaIS0_EEC1ERKS1_,"x"
 6398              		.linkonce discard
 6399              		.align 2
 6403              	.globl __ZNSt4listI16ProcessImageDataSaIS0_EEC1ERKS1_
 6405              	__ZNSt4listI16ProcessImageDataSaIS0_EEC1ERKS1_:
 6407              	Ltext10:
 6409              	LM302:
 6410 0000 55       		pushl	%ebp
 6411 0001 89E5     		movl	%esp, %ebp
 6412 0003 83EC08   		subl	$8, %esp
 6414              	LM303:
 6415              	LBB60:
 6416 0006 8B450C   		movl	12(%ebp), %eax
 6417 0009 89442404 		movl	%eax, 4(%esp)
 6418 000d 8B4508   		movl	8(%ebp), %eax
 6419 0010 890424   		movl	%eax, (%esp)
 6420 0013 E8000000 		call	__ZNSt10_List_baseI16ProcessImageDataSaIS0_EEC2ERKS1_
 6420      00
 6421 0018 C9       		leave
 6422 0019 C3       		ret
 6423              	L231:
 6424              	L230:
 6425              	LBE60:
 6426              	Lscope37:
 6428 001a 9090     		.section	.text$_ZN13LogBinaryDataD1Ev,"x"
 6429              		.linkonce discard
 6430              		.align 2
 6433              	.globl __ZN13LogBinaryDataD1Ev
 6435              	__ZN13LogBinaryDataD1Ev:
 6437              	Ltext11:
 6439              	LM304:
 6440              	L235:
 6441 0000 55       		pushl	%ebp
 6442 0001 89E5     		movl	%esp, %ebp
 6443 0003 83EC08   		subl	$8, %esp
 6445              	LM305:
 6446 0006 8B4508   		movl	8(%ebp), %eax
GAS LISTING d:/software/ovi_2503a_s3trc/ovi_2503a_s3trc/plutommi/Customer/ResGenerator/gcctmp/ccuadaaa.s 			page 117


 6447              	LBB61:
 6448 0009 83C004   		addl	$4, %eax
 6449 000c 890424   		movl	%eax, (%esp)
 6450 000f E8000000 		call	__ZNSsD1Ev
 6450      00
 6451 0014 C9       		leave
 6452 0015 C3       		ret
 6453              	L233:
 6454              	LBE61:
 6455              	Lscope38:
 6457 0016 9090     		.section	.text$_ZN13LogBinaryDataC1EtPci,"x"
 6458              		.linkonce discard
 6459              		.align 2
 6465              	.globl __ZN13LogBinaryDataC1EtPci
 6467              	__ZN13LogBinaryDataC1EtPci:
 6469              	LM306:
 6470 0000 55       		pushl	%ebp
 6471 0001 89E5     		movl	%esp, %ebp
 6472 0003 57       		pushl	%edi
 6473 0004 56       		pushl	%esi
 6474 0005 53       		pushl	%ebx
 6475 0006 83EC7C   		subl	$124, %esp
 6476 0009 8B450C   		movl	12(%ebp), %eax
 6477 000c 668945E6 		movw	%ax, -26(%ebp)
 6478 0010 C745B400 		movl	$___gxx_personality_sj0, -76(%ebp)
 6478      000000
 6479 0017 C745B82E 		movl	$LLSDA2354, -72(%ebp)
 6479      000000
 6480 001e 8D45BC   		leal	-68(%ebp), %eax
 6481 0021 8D55E8   		leal	-24(%ebp), %edx
 6482 0024 8910     		movl	%edx, (%eax)
 6483 0026 BA760000 		movl	$L245, %edx
 6483      00
 6484 002b 895004   		movl	%edx, 4(%eax)
 6485 002e 896008   		movl	%esp, 8(%eax)
 6486 0031 8D459C   		leal	-100(%ebp), %eax
 6487 0034 890424   		movl	%eax, (%esp)
 6488 0037 E8000000 		call	__Unwind_SjLj_Register
 6488      00
 6490              	LM307:
 6491              	LBB62:
 6492 003c 8B5508   		movl	8(%ebp), %edx
 6493 003f 0FB745E6 		movzwl	-26(%ebp), %eax
 6494 0043 668902   		movw	%ax, (%edx)
 6495 0046 8D45C8   		leal	-56(%ebp), %eax
 6496 0049 890424   		movl	%eax, (%esp)
 6497 004c E8000000 		call	__ZNSaIcEC1Ev
 6497      00
 6498 0051 8D45C8   		leal	-56(%ebp), %eax
 6499 0054 89442408 		movl	%eax, 8(%esp)
 6500 0058 8B4510   		movl	16(%ebp), %eax
 6501 005b 89442404 		movl	%eax, 4(%esp)
 6502 005f 8B4508   		movl	8(%ebp), %eax
 6503 0062 83C004   		addl	$4, %eax
 6504 0065 890424   		movl	%eax, (%esp)
 6505 0068 C745A001 		movl	$1, -96(%ebp)
 6505      000000
GAS LISTING d:/software/ovi_2503a_s3trc/ovi_2503a_s3trc/plutommi/Customer/ResGenerator/gcctmp/ccuadaaa.s 			page 118


 6506 006f E8000000 		call	__ZNSsC1EPKcRKSaIcE
 6506      00
 6507 0074 EB32     		jmp	L240
 6508              	L245:
 6509 0076 8D6D18   		leal	24(%ebp), %ebp
 6510 0079 8B45A4   		movl	-92(%ebp), %eax
 6511 007c 894594   		movl	%eax, -108(%ebp)
 6512              	L239:
 6513 007f 8B5594   		movl	-108(%ebp), %edx
 6514 0082 895598   		movl	%edx, -104(%ebp)
 6515 0085 8D45C8   		leal	-56(%ebp), %eax
 6516 0088 890424   		movl	%eax, (%esp)
 6517 008b E8000000 		call	__ZNSaIcED1Ev
 6517      00
 6518 0090 8B4598   		movl	-104(%ebp), %eax
 6519 0093 894594   		movl	%eax, -108(%ebp)
 6520              	L241:
 6521 0096 8B5594   		movl	-108(%ebp), %edx
 6522 0099 891424   		movl	%edx, (%esp)
 6523 009c C745A0FF 		movl	$-1, -96(%ebp)
 6523      FFFFFF
 6524 00a3 E8000000 		call	__Unwind_SjLj_Resume
 6524      00
 6525              	L240:
 6526 00a8 8D45C8   		leal	-56(%ebp), %eax
 6527 00ab 890424   		movl	%eax, (%esp)
 6528 00ae E8000000 		call	__ZNSaIcED1Ev
 6528      00
 6529 00b3 8B5508   		movl	8(%ebp), %edx
 6530 00b6 8B4514   		movl	20(%ebp), %eax
 6531 00b9 894208   		movl	%eax, 8(%edx)
 6532              	L243:
 6534              	LM308:
 6535              	L238:
 6536 00bc 8D459C   		leal	-100(%ebp), %eax
 6537 00bf 890424   		movl	%eax, (%esp)
 6538 00c2 E8000000 		call	__Unwind_SjLj_Unregister
 6538      00
 6539 00c7 83C47C   		addl	$124, %esp
 6540 00ca 5B       		popl	%ebx
 6541 00cb 5E       		popl	%esi
 6542 00cc 5F       		popl	%edi
 6543 00cd 5D       		popl	%ebp
 6544 00ce C3       		ret
 6545              	LBE62:
 6546              		.section	.gcc_except_table,""
 6547              	LLSDA2354:
 6548 002e FF       		.byte	0xff
 6549 002f FF       		.byte	0xff
 6550 0030 01       		.byte	0x1
 6551 0031 02       		.uleb128 LLSDACSE2354-LLSDACSB2354
 6552              	LLSDACSB2354:
 6553 0032 00       		.uleb128 0x0
 6554 0033 00       		.uleb128 0x0
 6555              	LLSDACSE2354:
 6556              		.section	.text$_ZN13LogBinaryDataC1EtPci,"x"
 6557              		.linkonce discard
GAS LISTING d:/software/ovi_2503a_s3trc/ovi_2503a_s3trc/plutommi/Customer/ResGenerator/gcctmp/ccuadaaa.s 			page 119


 6559              	Lscope39:
 6561 00cf 90       		.section	.text$_ZNSaI13LogBinaryDataEC1Ev,"x"
 6562              		.linkonce discard
 6563              		.align 2
 6566              	.globl __ZNSaI13LogBinaryDataEC1Ev
 6568              	__ZNSaI13LogBinaryDataEC1Ev:
 6570              	Ltext12:
 6572              	LM309:
 6573              	L247:
 6574              	L246:
 6575 0000 55       		pushl	%ebp
 6576 0001 89E5     		movl	%esp, %ebp
 6578              	LM310:
 6579 0003 5D       		popl	%ebp
 6580 0004 C3       		ret
 6581              	Lscope40:
 6583 0005 909090   		.section	.text$_ZNSaI13LogBinaryDataED1Ev,"x"
 6584              		.linkonce discard
 6585              		.align 2
 6588              	.globl __ZNSaI13LogBinaryDataED1Ev
 6590              	__ZNSaI13LogBinaryDataED1Ev:
 6592              	LM311:
 6593 0000 55       		pushl	%ebp
 6594 0001 89E5     		movl	%esp, %ebp
 6596              	LM312:
 6597 0003 5D       		popl	%ebp
 6598 0004 C3       		ret
 6599              	L252:
 6600              	L249:
 6601              	Lscope41:
 6603 0005 909090   		.section	.text$_ZNSt4listI13LogBinaryDataSaIS0_EEC1ERKS1_,"x"
 6604              		.linkonce discard
 6605              		.align 2
 6609              	.globl __ZNSt4listI13LogBinaryDataSaIS0_EEC1ERKS1_
 6611              	__ZNSt4listI13LogBinaryDataSaIS0_EEC1ERKS1_:
 6613              	Ltext13:
 6615              	LM313:
 6616 0000 55       		pushl	%ebp
 6617 0001 89E5     		movl	%esp, %ebp
 6618 0003 83EC08   		subl	$8, %esp
 6620              	LM314:
 6621              	LBB63:
 6622 0006 8B450C   		movl	12(%ebp), %eax
 6623 0009 89442404 		movl	%eax, 4(%esp)
 6624 000d 8B4508   		movl	8(%ebp), %eax
 6625 0010 890424   		movl	%eax, (%esp)
 6626 0013 E8000000 		call	__ZNSt10_List_baseI13LogBinaryDataSaIS0_EEC2ERKS1_
 6626      00
 6627 0018 C9       		leave
 6628 0019 C3       		ret
 6629              	L255:
 6630              	L254:
 6631              	LBE63:
 6632              	Lscope42:
 6634 001a 9090     		.section	.text$_ZN14ConvertRequestC1ER16ProcessImageData,"x"
 6635              		.linkonce discard
 6636              		.align 2
GAS LISTING d:/software/ovi_2503a_s3trc/ovi_2503a_s3trc/plutommi/Customer/ResGenerator/gcctmp/ccuadaaa.s 			page 120


 6640              	.globl __ZN14ConvertRequestC1ER16ProcessImageData
 6642              	__ZN14ConvertRequestC1ER16ProcessImageData:
 6644              	Ltext14:
 6646              	LM315:
 6647 0000 55       		pushl	%ebp
 6648 0001 89E5     		movl	%esp, %ebp
 6649 0003 83EC08   		subl	$8, %esp
 6651              	LM316:
 6652              	LBB64:
 6653 0006 8B4508   		movl	8(%ebp), %eax
 6654 0009 890424   		movl	%eax, (%esp)
 6655 000c E8000000 		call	__ZN10ThreadPool10IRunObjectC2Ev
 6655      00
 6656 0011 8B4508   		movl	8(%ebp), %eax
 6657 0014 C7000800 		movl	$__ZTV14ConvertRequest+8, (%eax)
 6657      0000
 6658 001a 8B5508   		movl	8(%ebp), %edx
 6659 001d 8B450C   		movl	12(%ebp), %eax
 6660 0020 894204   		movl	%eax, 4(%edx)
 6662              	LM317:
 6663 0023 C9       		leave
 6664 0024 C3       		ret
 6665              	L258:
 6666              	L257:
 6667              	LBE64:
 6668              	Lscope43:
 6670 0025 909090   		.section	.text$_ZNSt10_List_baseI16ProcessImageDataSaIS0_EEC2ERKS1_,"x"
 6671              		.linkonce discard
 6672              		.align 2
 6676              	.globl __ZNSt10_List_baseI16ProcessImageDataSaIS0_EEC2ERKS1_
 6678              	__ZNSt10_List_baseI16ProcessImageDataSaIS0_EEC2ERKS1_:
 6680              	Ltext15:
 6682              	LM318:
 6683 0000 55       		pushl	%ebp
 6684 0001 89E5     		movl	%esp, %ebp
 6685 0003 53       		pushl	%ebx
 6686 0004 83EC14   		subl	$20, %esp
 6688              	LM319:
 6689              	LBB65:
 6690 0007 8B450C   		movl	12(%ebp), %eax
 6691 000a 89442404 		movl	%eax, 4(%esp)
 6692 000e 8B4508   		movl	8(%ebp), %eax
 6693 0011 890424   		movl	%eax, (%esp)
 6694 0014 E8000000 		call	__ZNSt16_List_alloc_baseI16ProcessImageDataSaIS0_ELb1EEC2ERKS1_
 6694      00
 6696              	LM320:
 6697 0019 8B5D08   		movl	8(%ebp), %ebx
 6698 001c 8B4508   		movl	8(%ebp), %eax
 6699 001f 890424   		movl	%eax, (%esp)
 6700 0022 E8000000 		call	__ZNSt16_List_alloc_baseI16ProcessImageDataSaIS0_ELb1EE11_M_get_nodeEv
 6700      00
 6701 0027 8903     		movl	%eax, (%ebx)
 6703              	LM321:
 6704 0029 8B4508   		movl	8(%ebp), %eax
 6705 002c 8B10     		movl	(%eax), %edx
 6706 002e 8B4508   		movl	8(%ebp), %eax
 6707 0031 8B00     		movl	(%eax), %eax
GAS LISTING d:/software/ovi_2503a_s3trc/ovi_2503a_s3trc/plutommi/Customer/ResGenerator/gcctmp/ccuadaaa.s 			page 121


 6708 0033 8902     		movl	%eax, (%edx)
 6710              	LM322:
 6711 0035 8B4508   		movl	8(%ebp), %eax
 6712 0038 8B10     		movl	(%eax), %edx
 6713 003a 8B4508   		movl	8(%ebp), %eax
 6714 003d 8B00     		movl	(%eax), %eax
 6715 003f 894204   		movl	%eax, 4(%edx)
 6716 0042 83C414   		addl	$20, %esp
 6717 0045 5B       		popl	%ebx
 6718 0046 5D       		popl	%ebp
 6719 0047 C3       		ret
 6720              	LBE65:
 6721              	Lscope44:
 6723              		.section	.text$_ZNSt16_List_alloc_baseI16ProcessImageDataSaIS0_ELb1EEC2ERKS1_,"x"
 6724              		.linkonce discard
 6725              		.align 2
 6728              	.globl __ZNSt16_List_alloc_baseI16ProcessImageDataSaIS0_ELb1EEC2ERKS1_
 6730              	__ZNSt16_List_alloc_baseI16ProcessImageDataSaIS0_ELb1EEC2ERKS1_:
 6732              	LM323:
 6733 0000 55       		pushl	%ebp
 6734 0001 89E5     		movl	%esp, %ebp
 6736              	LM324:
 6737 0003 5D       		popl	%ebp
 6738 0004 C3       		ret
 6739              	Lscope45:
 6741 0005 909090   		.section	.text$_ZNSt16_List_alloc_baseI16ProcessImageDataSaIS0_ELb1EE11_M_get_nodeEv,"x"
 6742              		.linkonce discard
 6743              		.align 2
 6746              	.globl __ZNSt16_List_alloc_baseI16ProcessImageDataSaIS0_ELb1EE11_M_get_nodeEv
 6748              	__ZNSt16_List_alloc_baseI16ProcessImageDataSaIS0_ELb1EE11_M_get_nodeEv:
 6750              	LM325:
 6751 0000 55       		pushl	%ebp
 6752 0001 89E5     		movl	%esp, %ebp
 6753 0003 83EC08   		subl	$8, %esp
 6755              	LM326:
 6756              	LBB66:
 6757 0006 C7042401 		movl	$1, (%esp)
 6757      000000
 6758 000d E8000000 		call	__ZNSt14__simple_allocISt10_List_nodeI16ProcessImageDataESt24__default_alloc_templateILb1ELi0
 6758      00
 6759 0012 C9       		leave
 6760 0013 C3       		ret
 6761              	LBE66:
 6762              	Lscope46:
 6764              		.section	.text$_ZNSt14__simple_allocISt10_List_nodeI16ProcessImageDataESt24__default_alloc_templat
 6765              		.linkonce discard
 6766              		.align 2
 6769              	.globl __ZNSt14__simple_allocISt10_List_nodeI16ProcessImageDataESt24__default_alloc_templateILb1ELi
 6771              	__ZNSt14__simple_allocISt10_List_nodeI16ProcessImageDataESt24__default_alloc_templateILb1ELi0EEE8al
 6773              	Ltext16:
 6775              	LM327:
 6776 0000 55       		pushl	%ebp
 6777 0001 89E5     		movl	%esp, %ebp
 6778 0003 83EC08   		subl	$8, %esp
 6780              	LM328:
 6781              	LBB67:
 6782 0006 C745FC00 		movl	$0, -4(%ebp)
GAS LISTING d:/software/ovi_2503a_s3trc/ovi_2503a_s3trc/plutommi/Customer/ResGenerator/gcctmp/ccuadaaa.s 			page 122


 6782      000000
 6784              	LM329:
 6785 000d 837D0800 		cmpl	$0, 8(%ebp)
 6786 0011 741A     		je	L264
 6788              	LM330:
 6789 0013 8B4508   		movl	8(%ebp), %eax
 6790 0016 89C2     		movl	%eax, %edx
 6791 0018 C1E203   		sall	$3, %edx
 6792 001b 01C2     		addl	%eax, %edx
 6793 001d 89D0     		movl	%edx, %eax
 6794 001f C1E006   		sall	$6, %eax
 6795 0022 890424   		movl	%eax, (%esp)
 6796 0025 E8000000 		call	__ZNSt24__default_alloc_templateILb1ELi0EE8allocateEj
 6796      00
 6797 002a 8945FC   		movl	%eax, -4(%ebp)
 6798              	L264:
 6800              	LM331:
 6801 002d 8B45FC   		movl	-4(%ebp), %eax
 6802 0030 C9       		leave
 6803 0031 C3       		ret
 6804              	LBE67:
 6808              	Lscope47:
 6810 0032 9090     		.section	.text$_ZNSt10_List_baseI13LogBinaryDataSaIS0_EEC2ERKS1_,"x"
 6811              		.linkonce discard
 6812              		.align 2
 6816              	.globl __ZNSt10_List_baseI13LogBinaryDataSaIS0_EEC2ERKS1_
 6818              	__ZNSt10_List_baseI13LogBinaryDataSaIS0_EEC2ERKS1_:
 6820              	Ltext17:
 6822              	LM332:
 6823 0000 55       		pushl	%ebp
 6824 0001 89E5     		movl	%esp, %ebp
 6825 0003 53       		pushl	%ebx
 6826 0004 83EC14   		subl	$20, %esp
 6828              	LM333:
 6829              	LBB68:
 6830 0007 8B450C   		movl	12(%ebp), %eax
 6831 000a 89442404 		movl	%eax, 4(%esp)
 6832 000e 8B4508   		movl	8(%ebp), %eax
 6833 0011 890424   		movl	%eax, (%esp)
 6834 0014 E8000000 		call	__ZNSt16_List_alloc_baseI13LogBinaryDataSaIS0_ELb1EEC2ERKS1_
 6834      00
 6836              	LM334:
 6837 0019 8B5D08   		movl	8(%ebp), %ebx
 6838 001c 8B4508   		movl	8(%ebp), %eax
 6839 001f 890424   		movl	%eax, (%esp)
 6840 0022 E8000000 		call	__ZNSt16_List_alloc_baseI13LogBinaryDataSaIS0_ELb1EE11_M_get_nodeEv
 6840      00
 6841 0027 8903     		movl	%eax, (%ebx)
 6843              	LM335:
 6844 0029 8B4508   		movl	8(%ebp), %eax
 6845 002c 8B10     		movl	(%eax), %edx
 6846 002e 8B4508   		movl	8(%ebp), %eax
 6847 0031 8B00     		movl	(%eax), %eax
 6848 0033 8902     		movl	%eax, (%edx)
 6850              	LM336:
 6851 0035 8B4508   		movl	8(%ebp), %eax
 6852 0038 8B10     		movl	(%eax), %edx
GAS LISTING d:/software/ovi_2503a_s3trc/ovi_2503a_s3trc/plutommi/Customer/ResGenerator/gcctmp/ccuadaaa.s 			page 123


 6853 003a 8B4508   		movl	8(%ebp), %eax
 6854 003d 8B00     		movl	(%eax), %eax
 6855 003f 894204   		movl	%eax, 4(%edx)
 6856 0042 83C414   		addl	$20, %esp
 6857 0045 5B       		popl	%ebx
 6858 0046 5D       		popl	%ebp
 6859 0047 C3       		ret
 6860              	LBE68:
 6861              	Lscope48:
 6863              		.section	.text$_ZNSt16_List_alloc_baseI13LogBinaryDataSaIS0_ELb1EEC2ERKS1_,"x"
 6864              		.linkonce discard
 6865              		.align 2
 6868              	.globl __ZNSt16_List_alloc_baseI13LogBinaryDataSaIS0_ELb1EEC2ERKS1_
 6870              	__ZNSt16_List_alloc_baseI13LogBinaryDataSaIS0_ELb1EEC2ERKS1_:
 6872              	LM337:
 6873 0000 55       		pushl	%ebp
 6874 0001 89E5     		movl	%esp, %ebp
 6876              	LM338:
 6877 0003 5D       		popl	%ebp
 6878 0004 C3       		ret
 6879              	Lscope49:
 6881 0005 909090   		.section	.text$_ZNSt16_List_alloc_baseI13LogBinaryDataSaIS0_ELb1EE11_M_get_nodeEv,"x"
 6882              		.linkonce discard
 6883              		.align 2
 6886              	.globl __ZNSt16_List_alloc_baseI13LogBinaryDataSaIS0_ELb1EE11_M_get_nodeEv
 6888              	__ZNSt16_List_alloc_baseI13LogBinaryDataSaIS0_ELb1EE11_M_get_nodeEv:
 6890              	LM339:
 6891 0000 55       		pushl	%ebp
 6892 0001 89E5     		movl	%esp, %ebp
 6893 0003 83EC08   		subl	$8, %esp
 6895              	LM340:
 6896              	LBB69:
 6897 0006 C7042401 		movl	$1, (%esp)
 6897      000000
 6898 000d E8000000 		call	__ZNSt14__simple_allocISt10_List_nodeI13LogBinaryDataESt24__default_alloc_templateILb1ELi0EEE
 6898      00
 6899 0012 C9       		leave
 6900 0013 C3       		ret
 6901              	LBE69:
 6902              	Lscope50:
 6904              		.section	.text$_ZNSt14__simple_allocISt10_List_nodeI13LogBinaryDataESt24__default_alloc_templateIL
 6905              		.linkonce discard
 6906              		.align 2
 6909              	.globl __ZNSt14__simple_allocISt10_List_nodeI13LogBinaryDataESt24__default_alloc_templateILb1ELi0EE
 6911              	__ZNSt14__simple_allocISt10_List_nodeI13LogBinaryDataESt24__default_alloc_templateILb1ELi0EEE8alloc
 6913              	Ltext18:
 6915              	LM341:
 6916 0000 55       		pushl	%ebp
 6917 0001 89E5     		movl	%esp, %ebp
 6918 0003 83EC08   		subl	$8, %esp
 6920              	LM342:
 6921              	LBB70:
 6922 0006 C745FC00 		movl	$0, -4(%ebp)
 6922      000000
 6924              	LM343:
 6925 000d 837D0800 		cmpl	$0, 8(%ebp)
 6926 0011 741C     		je	L269
GAS LISTING d:/software/ovi_2503a_s3trc/ovi_2503a_s3trc/plutommi/Customer/ResGenerator/gcctmp/ccuadaaa.s 			page 124


 6928              	LM344:
 6929 0013 8B4508   		movl	8(%ebp), %eax
 6930 0016 89C2     		movl	%eax, %edx
 6931 0018 C1E202   		sall	$2, %edx
 6932 001b 01C2     		addl	%eax, %edx
 6933 001d 8D049500 		leal	0(,%edx,4), %eax
 6933      000000
 6934 0024 890424   		movl	%eax, (%esp)
 6935 0027 E8000000 		call	__ZNSt24__default_alloc_templateILb1ELi0EE8allocateEj
 6935      00
 6936 002c 8945FC   		movl	%eax, -4(%ebp)
 6937              	L269:
 6939              	LM345:
 6940 002f 8B45FC   		movl	-4(%ebp), %eax
 6941 0032 C9       		leave
 6942 0033 C3       		ret
 6943              	LBE70:
 6947              	Lscope51:
 6949              		.section	.text$_ZNSt14_List_iteratorI16ProcessImageDataRS0_PS0_EC1EPSt10_List_nodeIS0_E,"x"
 6950              		.linkonce discard
 6951              		.align 2
 6955              	.globl __ZNSt14_List_iteratorI16ProcessImageDataRS0_PS0_EC1EPSt10_List_nodeIS0_E
 6957              	__ZNSt14_List_iteratorI16ProcessImageDataRS0_PS0_EC1EPSt10_List_nodeIS0_E:
 6959              	Ltext19:
 6961              	LM346:
 6962 0000 55       		pushl	%ebp
 6963 0001 89E5     		movl	%esp, %ebp
 6964 0003 83EC08   		subl	$8, %esp
 6966              	LM347:
 6967              	LBB71:
 6968 0006 8B450C   		movl	12(%ebp), %eax
 6969 0009 89442404 		movl	%eax, 4(%esp)
 6970 000d 8B4508   		movl	8(%ebp), %eax
 6971 0010 890424   		movl	%eax, (%esp)
 6972 0013 E8000000 		call	__ZNSt19_List_iterator_baseC2EPSt15_List_node_base
 6972      00
 6973 0018 C9       		leave
 6974 0019 C3       		ret
 6975              	LBE71:
 6976              	Lscope52:
 6978 001a 9090     		.section	.text$_ZNSt4listI16ProcessImageDataSaIS0_EE6insertESt14_List_iteratorIS0_RS0_PS0_ERKS0_,"
 6979              		.linkonce discard
 6980              		.align 2
 6985              	.globl __ZNSt4listI16ProcessImageDataSaIS0_EE6insertESt14_List_iteratorIS0_RS0_PS0_ERKS0_
 6987              	__ZNSt4listI16ProcessImageDataSaIS0_EE6insertESt14_List_iteratorIS0_RS0_PS0_ERKS0_:
 6989              	Ltext20:
   1:d:/software/ovi_2503a_s3trc/ovi_2503a_s3trc/Tools/MinGW/include/c++/3.3.1/bits/list.tcc **** // List implementation (out of line) -*- C++ -*-
   2:d:/software/ovi_2503a_s3trc/ovi_2503a_s3trc/Tools/MinGW/include/c++/3.3.1/bits/list.tcc **** 
   3:d:/software/ovi_2503a_s3trc/ovi_2503a_s3trc/Tools/MinGW/include/c++/3.3.1/bits/list.tcc **** // Copyright (C) 2001, 2002 Free Software Foundation, Inc.
   4:d:/software/ovi_2503a_s3trc/ovi_2503a_s3trc/Tools/MinGW/include/c++/3.3.1/bits/list.tcc **** //
   5:d:/software/ovi_2503a_s3trc/ovi_2503a_s3trc/Tools/MinGW/include/c++/3.3.1/bits/list.tcc **** // This file is part of the GNU ISO C++ Library.  This library is free
   6:d:/software/ovi_2503a_s3trc/ovi_2503a_s3trc/Tools/MinGW/include/c++/3.3.1/bits/list.tcc **** // software; you can redistribute it and/or modify it under the
   7:d:/software/ovi_2503a_s3trc/ovi_2503a_s3trc/Tools/MinGW/include/c++/3.3.1/bits/list.tcc **** // terms of the GNU General Public License as published by the
   8:d:/software/ovi_2503a_s3trc/ovi_2503a_s3trc/Tools/MinGW/include/c++/3.3.1/bits/list.tcc **** // Free Software Foundation; either version 2, or (at your option)
   9:d:/software/ovi_2503a_s3trc/ovi_2503a_s3trc/Tools/MinGW/include/c++/3.3.1/bits/list.tcc **** // any later version.
  10:d:/software/ovi_2503a_s3trc/ovi_2503a_s3trc/Tools/MinGW/include/c++/3.3.1/bits/list.tcc **** 
  11:d:/software/ovi_2503a_s3trc/ovi_2503a_s3trc/Tools/MinGW/include/c++/3.3.1/bits/list.tcc **** // This library is distributed in the hope that it will be useful,
GAS LISTING d:/software/ovi_2503a_s3trc/ovi_2503a_s3trc/plutommi/Customer/ResGenerator/gcctmp/ccuadaaa.s 			page 125


  12:d:/software/ovi_2503a_s3trc/ovi_2503a_s3trc/Tools/MinGW/include/c++/3.3.1/bits/list.tcc **** // but WITHOUT ANY WARRANTY; without even the implied warranty of
  13:d:/software/ovi_2503a_s3trc/ovi_2503a_s3trc/Tools/MinGW/include/c++/3.3.1/bits/list.tcc **** // MERCHANTABILITY or FITNESS FOR A PARTICULAR PURPOSE.  See the
  14:d:/software/ovi_2503a_s3trc/ovi_2503a_s3trc/Tools/MinGW/include/c++/3.3.1/bits/list.tcc **** // GNU General Public License for more details.
  15:d:/software/ovi_2503a_s3trc/ovi_2503a_s3trc/Tools/MinGW/include/c++/3.3.1/bits/list.tcc **** 
  16:d:/software/ovi_2503a_s3trc/ovi_2503a_s3trc/Tools/MinGW/include/c++/3.3.1/bits/list.tcc **** // You should have received a copy of the GNU General Public License along
  17:d:/software/ovi_2503a_s3trc/ovi_2503a_s3trc/Tools/MinGW/include/c++/3.3.1/bits/list.tcc **** // with this library; see the file COPYING.  If not, write to the Free
  18:d:/software/ovi_2503a_s3trc/ovi_2503a_s3trc/Tools/MinGW/include/c++/3.3.1/bits/list.tcc **** // Software Foundation, 59 Temple Place - Suite 330, Boston, MA 02111-1307,
  19:d:/software/ovi_2503a_s3trc/ovi_2503a_s3trc/Tools/MinGW/include/c++/3.3.1/bits/list.tcc **** // USA.
  20:d:/software/ovi_2503a_s3trc/ovi_2503a_s3trc/Tools/MinGW/include/c++/3.3.1/bits/list.tcc **** 
  21:d:/software/ovi_2503a_s3trc/ovi_2503a_s3trc/Tools/MinGW/include/c++/3.3.1/bits/list.tcc **** // As a special exception, you may use this file as part of a free software
  22:d:/software/ovi_2503a_s3trc/ovi_2503a_s3trc/Tools/MinGW/include/c++/3.3.1/bits/list.tcc **** // library without restriction.  Specifically, if other files instantiate
  23:d:/software/ovi_2503a_s3trc/ovi_2503a_s3trc/Tools/MinGW/include/c++/3.3.1/bits/list.tcc **** // templates or use macros or inline functions from this file, or you compile
  24:d:/software/ovi_2503a_s3trc/ovi_2503a_s3trc/Tools/MinGW/include/c++/3.3.1/bits/list.tcc **** // this file and link it with other files to produce an executable, this
  25:d:/software/ovi_2503a_s3trc/ovi_2503a_s3trc/Tools/MinGW/include/c++/3.3.1/bits/list.tcc **** // file does not by itself cause the resulting executable to be covered by
  26:d:/software/ovi_2503a_s3trc/ovi_2503a_s3trc/Tools/MinGW/include/c++/3.3.1/bits/list.tcc **** // the GNU General Public License.  This exception does not however
  27:d:/software/ovi_2503a_s3trc/ovi_2503a_s3trc/Tools/MinGW/include/c++/3.3.1/bits/list.tcc **** // invalidate any other reasons why the executable file might be covered by
  28:d:/software/ovi_2503a_s3trc/ovi_2503a_s3trc/Tools/MinGW/include/c++/3.3.1/bits/list.tcc **** // the GNU General Public License.
  29:d:/software/ovi_2503a_s3trc/ovi_2503a_s3trc/Tools/MinGW/include/c++/3.3.1/bits/list.tcc **** 
  30:d:/software/ovi_2503a_s3trc/ovi_2503a_s3trc/Tools/MinGW/include/c++/3.3.1/bits/list.tcc **** /*
  31:d:/software/ovi_2503a_s3trc/ovi_2503a_s3trc/Tools/MinGW/include/c++/3.3.1/bits/list.tcc ****  *
  32:d:/software/ovi_2503a_s3trc/ovi_2503a_s3trc/Tools/MinGW/include/c++/3.3.1/bits/list.tcc ****  * Copyright (c) 1994
  33:d:/software/ovi_2503a_s3trc/ovi_2503a_s3trc/Tools/MinGW/include/c++/3.3.1/bits/list.tcc ****  * Hewlett-Packard Company
  34:d:/software/ovi_2503a_s3trc/ovi_2503a_s3trc/Tools/MinGW/include/c++/3.3.1/bits/list.tcc ****  *
  35:d:/software/ovi_2503a_s3trc/ovi_2503a_s3trc/Tools/MinGW/include/c++/3.3.1/bits/list.tcc ****  * Permission to use, copy, modify, distribute and sell this software
  36:d:/software/ovi_2503a_s3trc/ovi_2503a_s3trc/Tools/MinGW/include/c++/3.3.1/bits/list.tcc ****  * and its documentation for any purpose is hereby granted without fee,
  37:d:/software/ovi_2503a_s3trc/ovi_2503a_s3trc/Tools/MinGW/include/c++/3.3.1/bits/list.tcc ****  * provided that the above copyright notice appear in all copies and
  38:d:/software/ovi_2503a_s3trc/ovi_2503a_s3trc/Tools/MinGW/include/c++/3.3.1/bits/list.tcc ****  * that both that copyright notice and this permission notice appear
  39:d:/software/ovi_2503a_s3trc/ovi_2503a_s3trc/Tools/MinGW/include/c++/3.3.1/bits/list.tcc ****  * in supporting documentation.  Hewlett-Packard Company makes no
  40:d:/software/ovi_2503a_s3trc/ovi_2503a_s3trc/Tools/MinGW/include/c++/3.3.1/bits/list.tcc ****  * representations about the suitability of this software for any
  41:d:/software/ovi_2503a_s3trc/ovi_2503a_s3trc/Tools/MinGW/include/c++/3.3.1/bits/list.tcc ****  * purpose.  It is provided "as is" without express or implied warranty.
  42:d:/software/ovi_2503a_s3trc/ovi_2503a_s3trc/Tools/MinGW/include/c++/3.3.1/bits/list.tcc ****  *
  43:d:/software/ovi_2503a_s3trc/ovi_2503a_s3trc/Tools/MinGW/include/c++/3.3.1/bits/list.tcc ****  *
  44:d:/software/ovi_2503a_s3trc/ovi_2503a_s3trc/Tools/MinGW/include/c++/3.3.1/bits/list.tcc ****  * Copyright (c) 1996,1997
  45:d:/software/ovi_2503a_s3trc/ovi_2503a_s3trc/Tools/MinGW/include/c++/3.3.1/bits/list.tcc ****  * Silicon Graphics Computer Systems, Inc.
  46:d:/software/ovi_2503a_s3trc/ovi_2503a_s3trc/Tools/MinGW/include/c++/3.3.1/bits/list.tcc ****  *
  47:d:/software/ovi_2503a_s3trc/ovi_2503a_s3trc/Tools/MinGW/include/c++/3.3.1/bits/list.tcc ****  * Permission to use, copy, modify, distribute and sell this software
  48:d:/software/ovi_2503a_s3trc/ovi_2503a_s3trc/Tools/MinGW/include/c++/3.3.1/bits/list.tcc ****  * and its documentation for any purpose is hereby granted without fee,
  49:d:/software/ovi_2503a_s3trc/ovi_2503a_s3trc/Tools/MinGW/include/c++/3.3.1/bits/list.tcc ****  * provided that the above copyright notice appear in all copies and
  50:d:/software/ovi_2503a_s3trc/ovi_2503a_s3trc/Tools/MinGW/include/c++/3.3.1/bits/list.tcc ****  * that both that copyright notice and this permission notice appear
  51:d:/software/ovi_2503a_s3trc/ovi_2503a_s3trc/Tools/MinGW/include/c++/3.3.1/bits/list.tcc ****  * in supporting documentation.  Silicon Graphics makes no
  52:d:/software/ovi_2503a_s3trc/ovi_2503a_s3trc/Tools/MinGW/include/c++/3.3.1/bits/list.tcc ****  * representations about the suitability of this software for any
  53:d:/software/ovi_2503a_s3trc/ovi_2503a_s3trc/Tools/MinGW/include/c++/3.3.1/bits/list.tcc ****  * purpose.  It is provided "as is" without express or implied warranty.
  54:d:/software/ovi_2503a_s3trc/ovi_2503a_s3trc/Tools/MinGW/include/c++/3.3.1/bits/list.tcc ****  */
  55:d:/software/ovi_2503a_s3trc/ovi_2503a_s3trc/Tools/MinGW/include/c++/3.3.1/bits/list.tcc **** 
  56:d:/software/ovi_2503a_s3trc/ovi_2503a_s3trc/Tools/MinGW/include/c++/3.3.1/bits/list.tcc **** /** @file list.tcc
  57:d:/software/ovi_2503a_s3trc/ovi_2503a_s3trc/Tools/MinGW/include/c++/3.3.1/bits/list.tcc ****  *  This is an internal header file, included by other library headers.
  58:d:/software/ovi_2503a_s3trc/ovi_2503a_s3trc/Tools/MinGW/include/c++/3.3.1/bits/list.tcc ****  *  You should not attempt to use it directly.
  59:d:/software/ovi_2503a_s3trc/ovi_2503a_s3trc/Tools/MinGW/include/c++/3.3.1/bits/list.tcc ****  */
  60:d:/software/ovi_2503a_s3trc/ovi_2503a_s3trc/Tools/MinGW/include/c++/3.3.1/bits/list.tcc **** 
  61:d:/software/ovi_2503a_s3trc/ovi_2503a_s3trc/Tools/MinGW/include/c++/3.3.1/bits/list.tcc **** #ifndef __GLIBCPP_INTERNAL_LIST_TCC
  62:d:/software/ovi_2503a_s3trc/ovi_2503a_s3trc/Tools/MinGW/include/c++/3.3.1/bits/list.tcc **** #define __GLIBCPP_INTERNAL_LIST_TCC
  63:d:/software/ovi_2503a_s3trc/ovi_2503a_s3trc/Tools/MinGW/include/c++/3.3.1/bits/list.tcc **** 
  64:d:/software/ovi_2503a_s3trc/ovi_2503a_s3trc/Tools/MinGW/include/c++/3.3.1/bits/list.tcc **** namespace std
  65:d:/software/ovi_2503a_s3trc/ovi_2503a_s3trc/Tools/MinGW/include/c++/3.3.1/bits/list.tcc **** {
  66:d:/software/ovi_2503a_s3trc/ovi_2503a_s3trc/Tools/MinGW/include/c++/3.3.1/bits/list.tcc ****   template<typename _Tp, typename _Alloc>
  67:d:/software/ovi_2503a_s3trc/ovi_2503a_s3trc/Tools/MinGW/include/c++/3.3.1/bits/list.tcc ****     void
  68:d:/software/ovi_2503a_s3trc/ovi_2503a_s3trc/Tools/MinGW/include/c++/3.3.1/bits/list.tcc ****     _List_base<_Tp,_Alloc>::
GAS LISTING d:/software/ovi_2503a_s3trc/ovi_2503a_s3trc/plutommi/Customer/ResGenerator/gcctmp/ccuadaaa.s 			page 126


  69:d:/software/ovi_2503a_s3trc/ovi_2503a_s3trc/Tools/MinGW/include/c++/3.3.1/bits/list.tcc ****     __clear()
  70:d:/software/ovi_2503a_s3trc/ovi_2503a_s3trc/Tools/MinGW/include/c++/3.3.1/bits/list.tcc ****     {
  71:d:/software/ovi_2503a_s3trc/ovi_2503a_s3trc/Tools/MinGW/include/c++/3.3.1/bits/list.tcc ****       typedef _List_node<_Tp>  _Node;
  72:d:/software/ovi_2503a_s3trc/ovi_2503a_s3trc/Tools/MinGW/include/c++/3.3.1/bits/list.tcc ****       _Node* __cur = static_cast<_Node*>(_M_node->_M_next);
  73:d:/software/ovi_2503a_s3trc/ovi_2503a_s3trc/Tools/MinGW/include/c++/3.3.1/bits/list.tcc ****       while (__cur != _M_node)
  74:d:/software/ovi_2503a_s3trc/ovi_2503a_s3trc/Tools/MinGW/include/c++/3.3.1/bits/list.tcc ****       {
  75:d:/software/ovi_2503a_s3trc/ovi_2503a_s3trc/Tools/MinGW/include/c++/3.3.1/bits/list.tcc ****         _Node* __tmp = __cur;
  76:d:/software/ovi_2503a_s3trc/ovi_2503a_s3trc/Tools/MinGW/include/c++/3.3.1/bits/list.tcc ****         __cur = static_cast<_Node*>(__cur->_M_next);
  77:d:/software/ovi_2503a_s3trc/ovi_2503a_s3trc/Tools/MinGW/include/c++/3.3.1/bits/list.tcc ****         _Destroy(&__tmp->_M_data);
  78:d:/software/ovi_2503a_s3trc/ovi_2503a_s3trc/Tools/MinGW/include/c++/3.3.1/bits/list.tcc ****         _M_put_node(__tmp);
  79:d:/software/ovi_2503a_s3trc/ovi_2503a_s3trc/Tools/MinGW/include/c++/3.3.1/bits/list.tcc ****       }
  80:d:/software/ovi_2503a_s3trc/ovi_2503a_s3trc/Tools/MinGW/include/c++/3.3.1/bits/list.tcc ****       _M_node->_M_next = _M_node;
  81:d:/software/ovi_2503a_s3trc/ovi_2503a_s3trc/Tools/MinGW/include/c++/3.3.1/bits/list.tcc ****       _M_node->_M_prev = _M_node;
  82:d:/software/ovi_2503a_s3trc/ovi_2503a_s3trc/Tools/MinGW/include/c++/3.3.1/bits/list.tcc ****     }
  83:d:/software/ovi_2503a_s3trc/ovi_2503a_s3trc/Tools/MinGW/include/c++/3.3.1/bits/list.tcc ****   
  84:d:/software/ovi_2503a_s3trc/ovi_2503a_s3trc/Tools/MinGW/include/c++/3.3.1/bits/list.tcc ****   template<typename _Tp, typename _Alloc>
  85:d:/software/ovi_2503a_s3trc/ovi_2503a_s3trc/Tools/MinGW/include/c++/3.3.1/bits/list.tcc ****     typename list<_Tp,_Alloc>::iterator
  86:d:/software/ovi_2503a_s3trc/ovi_2503a_s3trc/Tools/MinGW/include/c++/3.3.1/bits/list.tcc ****     list<_Tp,_Alloc>::
  87:d:/software/ovi_2503a_s3trc/ovi_2503a_s3trc/Tools/MinGW/include/c++/3.3.1/bits/list.tcc ****     insert(iterator __position, const value_type& __x)
  88:d:/software/ovi_2503a_s3trc/ovi_2503a_s3trc/Tools/MinGW/include/c++/3.3.1/bits/list.tcc ****     {
 6991              	LM348:
 6992 0000 55       		pushl	%ebp
 6993 0001 89E5     		movl	%esp, %ebp
 6994 0003 56       		pushl	%esi
 6995 0004 53       		pushl	%ebx
 6996 0005 83EC10   		subl	$16, %esp
 6997 0008 8B7508   		movl	8(%ebp), %esi
 6998 000b 8B5D10   		movl	16(%ebp), %ebx
  89:d:/software/ovi_2503a_s3trc/ovi_2503a_s3trc/Tools/MinGW/include/c++/3.3.1/bits/list.tcc ****       _Node* __tmp = _M_create_node(__x);
 7000              	LM349:
 7001              	LBB72:
 7002 000e 8B4514   		movl	20(%ebp), %eax
 7003 0011 89442404 		movl	%eax, 4(%esp)
 7004 0015 8B450C   		movl	12(%ebp), %eax
 7005 0018 890424   		movl	%eax, (%esp)
 7006 001b E8000000 		call	__ZNSt4listI16ProcessImageDataSaIS0_EE14_M_create_nodeERKS0_
 7006      00
 7007 0020 8945F4   		movl	%eax, -12(%ebp)
  90:d:/software/ovi_2503a_s3trc/ovi_2503a_s3trc/Tools/MinGW/include/c++/3.3.1/bits/list.tcc ****       __tmp->_M_next = __position._M_node;
 7009              	LM350:
 7010 0023 8B55F4   		movl	-12(%ebp), %edx
 7011 0026 8B03     		movl	(%ebx), %eax
 7012 0028 8902     		movl	%eax, (%edx)
  91:d:/software/ovi_2503a_s3trc/ovi_2503a_s3trc/Tools/MinGW/include/c++/3.3.1/bits/list.tcc ****       __tmp->_M_prev = __position._M_node->_M_prev;
 7014              	LM351:
 7015 002a 8B55F4   		movl	-12(%ebp), %edx
 7016 002d 8B03     		movl	(%ebx), %eax
 7017 002f 8B4004   		movl	4(%eax), %eax
 7018 0032 894204   		movl	%eax, 4(%edx)
  92:d:/software/ovi_2503a_s3trc/ovi_2503a_s3trc/Tools/MinGW/include/c++/3.3.1/bits/list.tcc ****       __position._M_node->_M_prev->_M_next = __tmp;
 7020              	LM352:
 7021 0035 8B03     		movl	(%ebx), %eax
 7022 0037 8B5004   		movl	4(%eax), %edx
 7023 003a 8B45F4   		movl	-12(%ebp), %eax
 7024 003d 8902     		movl	%eax, (%edx)
  93:d:/software/ovi_2503a_s3trc/ovi_2503a_s3trc/Tools/MinGW/include/c++/3.3.1/bits/list.tcc ****       __position._M_node->_M_prev = __tmp;
 7026              	LM353:
GAS LISTING d:/software/ovi_2503a_s3trc/ovi_2503a_s3trc/plutommi/Customer/ResGenerator/gcctmp/ccuadaaa.s 			page 127


 7027 003f 8B13     		movl	(%ebx), %edx
 7028 0041 8B45F4   		movl	-12(%ebp), %eax
 7029 0044 894204   		movl	%eax, 4(%edx)
  94:d:/software/ovi_2503a_s3trc/ovi_2503a_s3trc/Tools/MinGW/include/c++/3.3.1/bits/list.tcc ****       return __tmp;
 7031              	LM354:
 7032 0047 8B45F4   		movl	-12(%ebp), %eax
 7033 004a 89442404 		movl	%eax, 4(%esp)
 7034 004e 893424   		movl	%esi, (%esp)
 7035 0051 E8000000 		call	__ZNSt14_List_iteratorI16ProcessImageDataRS0_PS0_EC1EPSt10_List_nodeIS0_E
 7035      00
 7036              	LBE72:
 7037 0056 89F0     		movl	%esi, %eax
 7038 0058 83C410   		addl	$16, %esp
 7039 005b 5B       		popl	%ebx
 7040 005c 5E       		popl	%esi
 7041 005d 5D       		popl	%ebp
 7042 005e C20400   		ret	$4
 7047              	Lscope53:
 7049 0061 909090   		.section	.text$_ZNSt10_List_baseI16ProcessImageDataSaIS0_EE7__clearEv,"x"
 7050              		.linkonce discard
 7051              		.align 2
 7054              	.globl __ZNSt10_List_baseI16ProcessImageDataSaIS0_EE7__clearEv
 7056              	__ZNSt10_List_baseI16ProcessImageDataSaIS0_EE7__clearEv:
 7058              	LM355:
 7059 0000 55       		pushl	%ebp
 7060 0001 89E5     		movl	%esp, %ebp
 7061 0003 83EC18   		subl	$24, %esp
 7063              	LM356:
 7064              	LBB73:
 7065 0006 8B4508   		movl	8(%ebp), %eax
 7066 0009 8B00     		movl	(%eax), %eax
 7067 000b 8B00     		movl	(%eax), %eax
 7068 000d 8945FC   		movl	%eax, -4(%ebp)
 7070              	LM357:
 7071              	L273:
 7072 0010 8B5508   		movl	8(%ebp), %edx
 7073 0013 8B45FC   		movl	-4(%ebp), %eax
 7074 0016 3B02     		cmpl	(%edx), %eax
 7075 0018 7502     		jne	L275
 7076 001a EB30     		jmp	L274
 7077              	L275:
 7079              	LM358:
 7080              	LBB74:
 7081              	LBB75:
 7082 001c 8B45FC   		movl	-4(%ebp), %eax
 7083 001f 8945F8   		movl	%eax, -8(%ebp)
 7085              	LM359:
 7086 0022 8B45FC   		movl	-4(%ebp), %eax
 7087 0025 8B00     		movl	(%eax), %eax
 7088 0027 8945FC   		movl	%eax, -4(%ebp)
 7090              	LM360:
 7091 002a 8B45F8   		movl	-8(%ebp), %eax
 7092 002d 83C008   		addl	$8, %eax
 7093 0030 890424   		movl	%eax, (%esp)
 7094 0033 E8000000 		call	__ZSt8_DestroyI16ProcessImageDataEvPT_
 7094      00
 7096              	LM361:
GAS LISTING d:/software/ovi_2503a_s3trc/ovi_2503a_s3trc/plutommi/Customer/ResGenerator/gcctmp/ccuadaaa.s 			page 128


 7097 0038 8B45F8   		movl	-8(%ebp), %eax
 7098 003b 89442404 		movl	%eax, 4(%esp)
 7099 003f 8B4508   		movl	8(%ebp), %eax
 7100 0042 890424   		movl	%eax, (%esp)
 7101 0045 E8000000 		call	__ZNSt16_List_alloc_baseI16ProcessImageDataSaIS0_ELb1EE11_M_put_nodeEPSt10_List_nodeIS0_E
 7101      00
 7102              	LBE75:
 7103              	LBE74:
 7104 004a EBC4     		jmp	L273
 7105              	L274:
 7107              	LM362:
 7108 004c 8B4508   		movl	8(%ebp), %eax
 7109 004f 8B10     		movl	(%eax), %edx
 7110 0051 8B4508   		movl	8(%ebp), %eax
 7111 0054 8B00     		movl	(%eax), %eax
 7112 0056 8902     		movl	%eax, (%edx)
 7114              	LM363:
 7115 0058 8B4508   		movl	8(%ebp), %eax
 7116 005b 8B10     		movl	(%eax), %edx
 7117 005d 8B4508   		movl	8(%ebp), %eax
 7118 0060 8B00     		movl	(%eax), %eax
 7119 0062 894204   		movl	%eax, 4(%edx)
 7120 0065 C9       		leave
 7121 0066 C3       		ret
 7122              	LBE73:
 7129              	Lscope54:
 7131 0067 90       		.section	.text$_ZNSt4listI13LogBinaryDataSaIS0_EE3endEv,"x"
 7132              		.linkonce discard
 7133              		.align 2
 7136              	.globl __ZNSt4listI13LogBinaryDataSaIS0_EE3endEv
 7138              	__ZNSt4listI13LogBinaryDataSaIS0_EE3endEv:
 7140              	Ltext21:
 7142              	LM364:
 7143 0000 55       		pushl	%ebp
 7144 0001 89E5     		movl	%esp, %ebp
 7145 0003 53       		pushl	%ebx
 7146 0004 83EC14   		subl	$20, %esp
 7147 0007 8B5D08   		movl	8(%ebp), %ebx
 7149              	LM365:
 7150              	LBB76:
 7151 000a 8B450C   		movl	12(%ebp), %eax
 7152 000d 8B00     		movl	(%eax), %eax
 7153 000f 89442404 		movl	%eax, 4(%esp)
 7154 0013 891C24   		movl	%ebx, (%esp)
 7155 0016 E8000000 		call	__ZNSt14_List_iteratorI13LogBinaryDataRS0_PS0_EC1EPSt10_List_nodeIS0_E
 7155      00
 7156              	LBE76:
 7157 001b 89D8     		movl	%ebx, %eax
 7158 001d 83C414   		addl	$20, %esp
 7159 0020 5B       		popl	%ebx
 7160 0021 5D       		popl	%ebp
 7161 0022 C20400   		ret	$4
 7162              	Lscope55:
 7164 0025 909090   		.section	.text$_ZNSt14_List_iteratorI13LogBinaryDataRS0_PS0_EC1EPSt10_List_nodeIS0_E,"x"
 7165              		.linkonce discard
 7166              		.align 2
 7170              	.globl __ZNSt14_List_iteratorI13LogBinaryDataRS0_PS0_EC1EPSt10_List_nodeIS0_E
GAS LISTING d:/software/ovi_2503a_s3trc/ovi_2503a_s3trc/plutommi/Customer/ResGenerator/gcctmp/ccuadaaa.s 			page 129


 7172              	__ZNSt14_List_iteratorI13LogBinaryDataRS0_PS0_EC1EPSt10_List_nodeIS0_E:
 7174              	LM366:
 7175 0000 55       		pushl	%ebp
 7176 0001 89E5     		movl	%esp, %ebp
 7177 0003 83EC08   		subl	$8, %esp
 7179              	LM367:
 7180              	LBB77:
 7181 0006 8B450C   		movl	12(%ebp), %eax
 7182 0009 89442404 		movl	%eax, 4(%esp)
 7183 000d 8B4508   		movl	8(%ebp), %eax
 7184 0010 890424   		movl	%eax, (%esp)
 7185 0013 E8000000 		call	__ZNSt19_List_iterator_baseC2EPSt15_List_node_base
 7185      00
 7186 0018 C9       		leave
 7187 0019 C3       		ret
 7188              	LBE77:
 7189              	Lscope56:
 7191 001a 9090     		.section	.text$_ZNSt4listI13LogBinaryDataSaIS0_EE6insertESt14_List_iteratorIS0_RS0_PS0_ERKS0_,"x"
 7192              		.linkonce discard
 7193              		.align 2
 7198              	.globl __ZNSt4listI13LogBinaryDataSaIS0_EE6insertESt14_List_iteratorIS0_RS0_PS0_ERKS0_
 7200              	__ZNSt4listI13LogBinaryDataSaIS0_EE6insertESt14_List_iteratorIS0_RS0_PS0_ERKS0_:
 7202              	Ltext22:
 7204              	LM368:
 7205 0000 55       		pushl	%ebp
 7206 0001 89E5     		movl	%esp, %ebp
 7207 0003 56       		pushl	%esi
 7208 0004 53       		pushl	%ebx
 7209 0005 83EC10   		subl	$16, %esp
 7210 0008 8B7508   		movl	8(%ebp), %esi
 7211 000b 8B5D10   		movl	16(%ebp), %ebx
 7213              	LM369:
 7214              	LBB78:
 7215 000e 8B4514   		movl	20(%ebp), %eax
 7216 0011 89442404 		movl	%eax, 4(%esp)
 7217 0015 8B450C   		movl	12(%ebp), %eax
 7218 0018 890424   		movl	%eax, (%esp)
 7219 001b E8000000 		call	__ZNSt4listI13LogBinaryDataSaIS0_EE14_M_create_nodeERKS0_
 7219      00
 7220 0020 8945F4   		movl	%eax, -12(%ebp)
 7222              	LM370:
 7223 0023 8B55F4   		movl	-12(%ebp), %edx
 7224 0026 8B03     		movl	(%ebx), %eax
 7225 0028 8902     		movl	%eax, (%edx)
 7227              	LM371:
 7228 002a 8B55F4   		movl	-12(%ebp), %edx
 7229 002d 8B03     		movl	(%ebx), %eax
 7230 002f 8B4004   		movl	4(%eax), %eax
 7231 0032 894204   		movl	%eax, 4(%edx)
 7233              	LM372:
 7234 0035 8B03     		movl	(%ebx), %eax
 7235 0037 8B5004   		movl	4(%eax), %edx
 7236 003a 8B45F4   		movl	-12(%ebp), %eax
 7237 003d 8902     		movl	%eax, (%edx)
 7239              	LM373:
 7240 003f 8B13     		movl	(%ebx), %edx
 7241 0041 8B45F4   		movl	-12(%ebp), %eax
GAS LISTING d:/software/ovi_2503a_s3trc/ovi_2503a_s3trc/plutommi/Customer/ResGenerator/gcctmp/ccuadaaa.s 			page 130


 7242 0044 894204   		movl	%eax, 4(%edx)
 7244              	LM374:
 7245 0047 8B45F4   		movl	-12(%ebp), %eax
 7246 004a 89442404 		movl	%eax, 4(%esp)
 7247 004e 893424   		movl	%esi, (%esp)
 7248 0051 E8000000 		call	__ZNSt14_List_iteratorI13LogBinaryDataRS0_PS0_EC1EPSt10_List_nodeIS0_E
 7248      00
 7249              	LBE78:
 7250 0056 89F0     		movl	%esi, %eax
 7251 0058 83C410   		addl	$16, %esp
 7252 005b 5B       		popl	%ebx
 7253 005c 5E       		popl	%esi
 7254 005d 5D       		popl	%ebp
 7255 005e C20400   		ret	$4
 7260              	Lscope57:
 7262 0061 909090   		.section	.text$_ZNSt4listI13LogBinaryDataSaIS0_EED1Ev,"x"
 7263              		.linkonce discard
 7264              		.align 2
 7267              	.globl __ZNSt4listI13LogBinaryDataSaIS0_EED1Ev
 7269              	__ZNSt4listI13LogBinaryDataSaIS0_EED1Ev:
 7271              	Ltext23:
 7273              	LM375:
 7274              	L281:
 7275 0000 55       		pushl	%ebp
 7276 0001 89E5     		movl	%esp, %ebp
 7277 0003 83EC08   		subl	$8, %esp
 7279              	LM376:
 7280              	LBB79:
 7281 0006 8B4508   		movl	8(%ebp), %eax
 7282 0009 890424   		movl	%eax, (%esp)
 7283 000c E8000000 		call	__ZNSt10_List_baseI13LogBinaryDataSaIS0_EED2Ev
 7283      00
 7284 0011 C9       		leave
 7285 0012 C3       		ret
 7286              	L279:
 7287              	LBE79:
 7288              	Lscope58:
 7290 0013 90       		.text
 7291              	LC38:
 7292 242f 424D5000 		.ascii "BMP\0"
 7293              	LC39:
 7294 2433 50424D00 		.ascii "PBM\0"
 7295              	LC40:
 7296 2437 4A504700 		.ascii "JPG\0"
 7297              	LC41:
 7298 243b 47494600 		.ascii "GIF\0"
 7299              	LC42:
 7300 243f 41424D00 		.ascii "ABM\0"
 7301              	LC43:
 7302 2443 41564900 		.ascii "AVI\0"
 7303              	LC44:
 7304 2447 33475000 		.ascii "3GP\0"
 7305              	LC45:
 7306 244b 4D503400 		.ascii "MP4\0"
 7307              	LC46:
 7308 244f 525600   		.ascii "RV\0"
 7309              	LC47:
GAS LISTING d:/software/ovi_2503a_s3trc/ovi_2503a_s3trc/plutommi/Customer/ResGenerator/gcctmp/ccuadaaa.s 			page 131


 7310 2452 524D00   		.ascii "RM\0"
 7311              	LC48:
 7312 2455 524D5642 		.ascii "RMVB\0"
 7312      00
 7313              	LC49:
 7314 245a 504E4700 		.ascii "PNG\0"
 7315              	LC50:
 7316 245e 50504E00 		.ascii "PPN\0"
 7317              	LC51:
 7318 2462 4D334400 		.ascii "M3D\0"
 7319              	LC52:
 7320 2466 434D5000 		.ascii "CMP\0"
 7321              	LC53:
 7322 246a 56495300 		.ascii "VIS\0"
 7323              	LC54:
 7324 246e 53564700 		.ascii "SVG\0"
 7325              	LC55:
 7326 2472 54544600 		.ascii "TTF\0"
 7327              	LC56:
 7328 2476 53544600 		.ascii "STF\0"
 7329              	LC57:
 7330 247a 43434300 		.ascii "CCC\0"
 7331              	LC58:
 7332 247e 4B545800 		.ascii "KTX\0"
 7333 2482 90909090 		.align 32
 7333      90909090 
 7333      90909090 
 7333      90909090 
 7333      90909090 
 7334              	_image_resource_info:
 7335 24a0 2F240000 		.long	LC38
 7336 24a4 01       		.byte	1
 7337 24a5 000000   		.space 3
 7338 24a8 33240000 		.long	LC39
 7339 24ac 04       		.byte	4
 7340 24ad 000000   		.space 3
 7341 24b0 37240000 		.long	LC40
 7342 24b4 09       		.byte	9
 7343 24b5 000000   		.space 3
 7344 24b8 3B240000 		.long	LC41
 7345 24bc 03       		.byte	3
 7346 24bd 000000   		.space 3
 7347 24c0 3F240000 		.long	LC42
 7348 24c4 28       		.byte	40
 7349 24c5 000000   		.space 3
 7350 24c8 43240000 		.long	LC43
 7351 24cc 0C       		.byte	12
 7352 24cd 000000   		.space 3
 7353 24d0 47240000 		.long	LC44
 7354 24d4 0E       		.byte	14
 7355 24d5 000000   		.space 3
 7356 24d8 4B240000 		.long	LC45
 7357 24dc 10       		.byte	16
 7358 24dd 000000   		.space 3
 7359 24e0 4F240000 		.long	LC46
 7360 24e4 4A       		.byte	74
 7361 24e5 000000   		.space 3
GAS LISTING d:/software/ovi_2503a_s3trc/ovi_2503a_s3trc/plutommi/Customer/ResGenerator/gcctmp/ccuadaaa.s 			page 132


 7362 24e8 52240000 		.long	LC47
 7363 24ec 4C       		.byte	76
 7364 24ed 000000   		.space 3
 7365 24f0 55240000 		.long	LC48
 7366 24f4 4E       		.byte	78
 7367 24f5 000000   		.space 3
 7368 24f8 5A240000 		.long	LC49
 7369 24fc 13       		.byte	19
 7370 24fd 000000   		.space 3
 7371 2500 5E240000 		.long	LC50
 7372 2504 48       		.byte	72
 7373 2505 000000   		.space 3
 7374 2508 62240000 		.long	LC51
 7375 250c 19       		.byte	25
 7376 250d 000000   		.space 3
 7377 2510 66240000 		.long	LC52
 7378 2514 1D       		.byte	29
 7379 2515 000000   		.space 3
 7380 2518 6A240000 		.long	LC53
 7381 251c 31       		.byte	49
 7382 251d 000000   		.space 3
 7383 2520 6E240000 		.long	LC54
 7384 2524 1B       		.byte	27
 7385 2525 000000   		.space 3
 7386 2528 72240000 		.long	LC55
 7387 252c 49       		.byte	73
 7388 252d 000000   		.space 3
 7389 2530 76240000 		.long	LC56
 7390 2534 49       		.byte	73
 7391 2535 000000   		.space 3
 7392 2538 7A240000 		.long	LC57
 7393 253c 49       		.byte	73
 7394 253d 000000   		.space 3
 7395 2540 7E240000 		.long	LC58
 7396 2544 43       		.byte	67
 7397 2545 000000   		.space 3
 7398              	.globl __ZNSt15basic_streambufIcSt11char_traitsIcEE13_S_pback_sizeE
 7399              		.section	.rdata$_ZNSt15basic_streambufIcSt11char_traitsIcEE13_S_pback_sizeE,""
 7400              		.linkonce same_size
 7401              		.align 4
 7402              	__ZNSt15basic_streambufIcSt11char_traitsIcEE13_S_pback_sizeE:
 7403 0000 01000000 		.long	1
 7404              		.section	.text$_ZNSt4listI16ProcessImageDataSaIS0_EED1Ev,"x"
 7405              		.linkonce discard
 7406              		.align 2
 7409              	.globl __ZNSt4listI16ProcessImageDataSaIS0_EED1Ev
 7411              	__ZNSt4listI16ProcessImageDataSaIS0_EED1Ev:
 7413              	LM377:
 7414              	L286:
 7415 0000 55       		pushl	%ebp
 7416 0001 89E5     		movl	%esp, %ebp
 7417 0003 83EC08   		subl	$8, %esp
 7419              	LM378:
 7420              	LBB80:
 7421 0006 8B4508   		movl	8(%ebp), %eax
 7422 0009 890424   		movl	%eax, (%esp)
 7423 000c E8000000 		call	__ZNSt10_List_baseI16ProcessImageDataSaIS0_EED2Ev
GAS LISTING d:/software/ovi_2503a_s3trc/ovi_2503a_s3trc/plutommi/Customer/ResGenerator/gcctmp/ccuadaaa.s 			page 133


 7423      00
 7424 0011 C9       		leave
 7425 0012 C3       		ret
 7426              	L284:
 7427              	LBE80:
 7428              	Lscope59:
 7430              	.globl __ZTV14ConvertRequest
 7431 0013 90       		.section	.rdata$_ZTV14ConvertRequest,""
 7432              		.linkonce same_size
 7433              		.align 8
 7434              	__ZTV14ConvertRequest:
 7435 0000 00000000 		.long	0
 7436 0004 00000000 		.long	__ZTI14ConvertRequest
 7437 0008 00000000 		.long	__ZN14ConvertRequestD1Ev
 7438 000c 00000000 		.long	__ZN14ConvertRequestD0Ev
 7439 0010 00000000 		.long	__ZN14ConvertRequest3RunEv
 7440 0014 00000000 		.long	__ZN14ConvertRequest10AutoDeleteEv
 7443              		.section	.text$_ZNSt19_List_iterator_baseC2EPSt15_List_node_base,"x"
 7444              		.linkonce discard
 7445              		.align 2
 7449              	.globl __ZNSt19_List_iterator_baseC2EPSt15_List_node_base
 7451              	__ZNSt19_List_iterator_baseC2EPSt15_List_node_base:
 7453              	LM379:
 7454 0000 55       		pushl	%ebp
 7455 0001 89E5     		movl	%esp, %ebp
 7457              	LM380:
 7458              	LBB81:
 7459 0003 8B5508   		movl	8(%ebp), %edx
 7460 0006 8B450C   		movl	12(%ebp), %eax
 7461 0009 8902     		movl	%eax, (%edx)
 7462 000b 5D       		popl	%ebp
 7463 000c C3       		ret
 7464              	LBE81:
 7465              	Lscope60:
 7467 000d 909090   		.section	.text$_ZN10ThreadPool10IRunObjectC2Ev,"x"
 7468              		.linkonce discard
 7469              		.align 2
 7472              	.globl __ZN10ThreadPool10IRunObjectC2Ev
 7474              	__ZN10ThreadPool10IRunObjectC2Ev:
 7476              	Ltext24:
 7478              	LM381:
 7479 0000 55       		pushl	%ebp
 7480 0001 89E5     		movl	%esp, %ebp
 7482              	LM382:
 7483              	LBB82:
 7484 0003 8B4508   		movl	8(%ebp), %eax
 7485 0006 C7000800 		movl	$__ZTVN10ThreadPool10IRunObjectE+8, (%eax)
 7485      0000
 7486 000c 5D       		popl	%ebp
 7487 000d C3       		ret
 7488              	L291:
 7489              	L290:
 7490              	LBE82:
 7491              	Lscope61:
 7493 000e 9090     		.section	.text$_ZN14ConvertRequestD0Ev,"x"
 7494              		.linkonce discard
 7495              		.align 2
GAS LISTING d:/software/ovi_2503a_s3trc/ovi_2503a_s3trc/plutommi/Customer/ResGenerator/gcctmp/ccuadaaa.s 			page 134


 7498              	.globl __ZN14ConvertRequestD0Ev
 7500              	__ZN14ConvertRequestD0Ev:
 7502              	LM383:
 7503 0000 55       		pushl	%ebp
 7504 0001 89E5     		movl	%esp, %ebp
 7505 0003 83EC08   		subl	$8, %esp
 7507              	LM384:
 7508              	LBB83:
 7509 0006 8B4508   		movl	8(%ebp), %eax
 7510 0009 C7000800 		movl	$__ZTV14ConvertRequest+8, (%eax)
 7510      0000
 7511              	L295:
 7512 000f 8B4508   		movl	8(%ebp), %eax
 7513 0012 890424   		movl	%eax, (%esp)
 7514 0015 E8000000 		call	__ZN10ThreadPool10IRunObjectD2Ev
 7514      00
 7515              	LBE83:
 7516 001a B8010000 		movl	$1, %eax
 7516      00
 7517 001f 83E003   		andl	$3, %eax
 7518 0022 84C0     		testb	%al, %al
 7519 0024 740B     		je	L293
 7520 0026 8B4508   		movl	8(%ebp), %eax
 7521 0029 890424   		movl	%eax, (%esp)
 7522 002c E8000000 		call	__ZdlPv
 7522      00
 7523              	L293:
 7524 0031 C9       		leave
 7525 0032 C3       		ret
 7526              	Lscope62:
 7528 0033 90       		.section	.text$_ZN14ConvertRequestD1Ev,"x"
 7529              		.linkonce discard
 7530              		.align 2
 7533              	.globl __ZN14ConvertRequestD1Ev
 7535              	__ZN14ConvertRequestD1Ev:
 7537              	LM385:
 7538 0000 55       		pushl	%ebp
 7539 0001 89E5     		movl	%esp, %ebp
 7540 0003 83EC08   		subl	$8, %esp
 7542              	LM386:
 7543              	LBB84:
 7544 0006 8B4508   		movl	8(%ebp), %eax
 7545 0009 C7000800 		movl	$__ZTV14ConvertRequest+8, (%eax)
 7545      0000
 7546              	L301:
 7547 000f 8B4508   		movl	8(%ebp), %eax
 7548 0012 890424   		movl	%eax, (%esp)
 7549 0015 E8000000 		call	__ZN10ThreadPool10IRunObjectD2Ev
 7549      00
 7550              	LBE84:
 7551 001a B8010000 		movl	$1, %eax
 7551      00
 7552 001f 83E002   		andl	$2, %eax
 7553 0022 84C0     		testb	%al, %al
 7554 0024 740B     		je	L299
 7555 0026 8B4508   		movl	8(%ebp), %eax
 7556 0029 890424   		movl	%eax, (%esp)
GAS LISTING d:/software/ovi_2503a_s3trc/ovi_2503a_s3trc/plutommi/Customer/ResGenerator/gcctmp/ccuadaaa.s 			page 135


 7557 002c E8000000 		call	__ZdlPv
 7557      00
 7558              	L299:
 7559 0031 C9       		leave
 7560 0032 C3       		ret
 7561              	Lscope63:
 7563 0033 90       		.section	.text$_ZN14ConvertRequest3RunEv,"x"
 7564              		.linkonce discard
 7565              		.align 2
 7568              	.globl __ZN14ConvertRequest3RunEv
 7570              	__ZN14ConvertRequest3RunEv:
 7572              	LM387:
 7573 0000 55       		pushl	%ebp
 7574 0001 89E5     		movl	%esp, %ebp
 7575 0003 53       		pushl	%ebx
 7576 0004 83EC24   		subl	$36, %esp
 7578              	LM388:
 7579              	LBB85:
 7580 0007 8B4508   		movl	8(%ebp), %eax
 7581 000a 8B4004   		movl	4(%eax), %eax
 7582 000d 83C008   		addl	$8, %eax
 7583 0010 890424   		movl	%eax, (%esp)
 7584 0013 E8000000 		call	__ZNKSs5c_strEv
 7584      00
 7585 0018 89C3     		movl	%eax, %ebx
 7586 001a 8B4508   		movl	8(%ebp), %eax
 7587 001d 8B4004   		movl	4(%eax), %eax
 7588 0020 83C004   		addl	$4, %eax
 7589 0023 890424   		movl	%eax, (%esp)
 7590 0026 E8000000 		call	__ZNKSs5c_strEv
 7590      00
 7591 002b 89C2     		movl	%eax, %edx
 7592 002d 8B4508   		movl	8(%ebp), %eax
 7593 0030 8B4004   		movl	4(%eax), %eax
 7594 0033 83C014   		addl	$20, %eax
 7595 0036 89442414 		movl	%eax, 20(%esp)
 7596 003a 8B4508   		movl	8(%ebp), %eax
 7597 003d 8B4004   		movl	4(%eax), %eax
 7598 0040 8B4010   		movl	16(%eax), %eax
 7599 0043 89442410 		movl	%eax, 16(%esp)
 7600 0047 8B4508   		movl	8(%ebp), %eax
 7601 004a 8B4004   		movl	4(%eax), %eax
 7602 004d 8B400C   		movl	12(%eax), %eax
 7603 0050 8944240C 		movl	%eax, 12(%esp)
 7604 0054 895C2408 		movl	%ebx, 8(%esp)
 7605 0058 89542404 		movl	%edx, 4(%esp)
 7606 005c 8B4508   		movl	8(%ebp), %eax
 7607 005f 8B4004   		movl	4(%eax), %eax
 7608 0062 0FB700   		movzwl	(%eax), %eax
 7609 0065 890424   		movl	%eax, (%esp)
 7610 0068 E8000000 		call	_SetImageWithBufferExImp
 7610      00
 7612              	LM389:
 7613 006d 837D0800 		cmpl	$0, 8(%ebp)
 7614 0071 7412     		je	L305
 7615 0073 8B4508   		movl	8(%ebp), %eax
 7616 0076 8B10     		movl	(%eax), %edx
GAS LISTING d:/software/ovi_2503a_s3trc/ovi_2503a_s3trc/plutommi/Customer/ResGenerator/gcctmp/ccuadaaa.s 			page 136


 7617 0078 83C204   		addl	$4, %edx
 7618 007b 8B4508   		movl	8(%ebp), %eax
 7619 007e 890424   		movl	%eax, (%esp)
 7620 0081 8B02     		movl	(%edx), %eax
 7621 0083 FFD0     		call	*%eax
 7623              	LM390:
 7624              	L305:
 7625 0085 83C424   		addl	$36, %esp
 7626 0088 5B       		popl	%ebx
 7627 0089 5D       		popl	%ebp
 7628 008a C3       		ret
 7629              	LBE85:
 7630              	Lscope64:
 7632 008b 90       		.section	.text$_ZN14ConvertRequest10AutoDeleteEv,"x"
 7633              		.linkonce discard
 7634              		.align 2
 7637              	.globl __ZN14ConvertRequest10AutoDeleteEv
 7639              	__ZN14ConvertRequest10AutoDeleteEv:
 7641              	LM391:
 7642 0000 55       		pushl	%ebp
 7643 0001 89E5     		movl	%esp, %ebp
 7645              	LM392:
 7646              	LBB86:
 7647 0003 B8000000 		movl	$0, %eax
 7647      00
 7649              	LM393:
 7650 0008 5D       		popl	%ebp
 7651 0009 C3       		ret
 7652              	LBE86:
 7653              	Lscope65:
 7655 000a 9090     		.section	.text$_ZNSt10_List_baseI16ProcessImageDataSaIS0_EED2Ev,"x"
 7656              		.linkonce discard
 7657              		.align 2
 7660              	.globl __ZNSt10_List_baseI16ProcessImageDataSaIS0_EED2Ev
 7662              	__ZNSt10_List_baseI16ProcessImageDataSaIS0_EED2Ev:
 7664              	Ltext25:
 7666              	LM394:
 7667 0000 55       		pushl	%ebp
 7668 0001 89E5     		movl	%esp, %ebp
 7669 0003 83EC08   		subl	$8, %esp
 7671              	LM395:
 7672              	LBB87:
 7673 0006 8B4508   		movl	8(%ebp), %eax
 7674 0009 890424   		movl	%eax, (%esp)
 7675 000c E8000000 		call	__ZNSt10_List_baseI16ProcessImageDataSaIS0_EE7__clearEv
 7675      00
 7677              	LM396:
 7678 0011 8B4508   		movl	8(%ebp), %eax
 7679 0014 8B00     		movl	(%eax), %eax
 7680 0016 89442404 		movl	%eax, 4(%esp)
 7681 001a 8B4508   		movl	8(%ebp), %eax
 7682 001d 890424   		movl	%eax, (%esp)
 7683 0020 E8000000 		call	__ZNSt16_List_alloc_baseI16ProcessImageDataSaIS0_ELb1EE11_M_put_nodeEPSt10_List_nodeIS0_E
 7683      00
 7684 0025 C9       		leave
 7685 0026 C3       		ret
 7686              	LBE87:
GAS LISTING d:/software/ovi_2503a_s3trc/ovi_2503a_s3trc/plutommi/Customer/ResGenerator/gcctmp/ccuadaaa.s 			page 137


 7687              	Lscope66:
 7689 0027 90       		.section	.text$_ZNSt10_List_baseI13LogBinaryDataSaIS0_EED2Ev,"x"
 7690              		.linkonce discard
 7691              		.align 2
 7694              	.globl __ZNSt10_List_baseI13LogBinaryDataSaIS0_EED2Ev
 7696              	__ZNSt10_List_baseI13LogBinaryDataSaIS0_EED2Ev:
 7698              	LM397:
 7699 0000 55       		pushl	%ebp
 7700 0001 89E5     		movl	%esp, %ebp
 7701 0003 83EC08   		subl	$8, %esp
 7703              	LM398:
 7704              	LBB88:
 7705 0006 8B4508   		movl	8(%ebp), %eax
 7706 0009 890424   		movl	%eax, (%esp)
 7707 000c E8000000 		call	__ZNSt10_List_baseI13LogBinaryDataSaIS0_EE7__clearEv
 7707      00
 7709              	LM399:
 7710 0011 8B4508   		movl	8(%ebp), %eax
 7711 0014 8B00     		movl	(%eax), %eax
 7712 0016 89442404 		movl	%eax, 4(%esp)
 7713 001a 8B4508   		movl	8(%ebp), %eax
 7714 001d 890424   		movl	%eax, (%esp)
 7715 0020 E8000000 		call	__ZNSt16_List_alloc_baseI13LogBinaryDataSaIS0_ELb1EE11_M_put_nodeEPSt10_List_nodeIS0_E
 7715      00
 7716 0025 C9       		leave
 7717 0026 C3       		ret
 7718              	LBE88:
 7719              	Lscope67:
 7721 0027 90       		.section	.text$_ZNSt4listI16ProcessImageDataSaIS0_EE14_M_create_nodeERKS0_,"x"
 7722              		.linkonce discard
 7723              		.align 2
 7727              	.globl __ZNSt4listI16ProcessImageDataSaIS0_EE14_M_create_nodeERKS0_
 7729              	__ZNSt4listI16ProcessImageDataSaIS0_EE14_M_create_nodeERKS0_:
 7731              	LM400:
 7732 0000 55       		pushl	%ebp
 7733 0001 89E5     		movl	%esp, %ebp
 7734 0003 57       		pushl	%edi
 7735 0004 56       		pushl	%esi
 7736 0005 53       		pushl	%ebx
 7737 0006 83EC4C   		subl	$76, %esp
 7738 0009 C745DC00 		movl	$___gxx_personality_sj0, -36(%ebp)
 7738      000000
 7739 0010 C745E034 		movl	$LLSDA2386, -32(%ebp)
 7739      000000
 7740 0017 8D45E4   		leal	-28(%ebp), %eax
 7741 001a 8D55F4   		leal	-12(%ebp), %edx
 7742 001d 8910     		movl	%edx, (%eax)
 7743 001f BA910000 		movl	$L323, %edx
 7743      00
 7744 0024 895004   		movl	%edx, 4(%eax)
 7745 0027 896008   		movl	%esp, 8(%eax)
 7746 002a 8D45C4   		leal	-60(%ebp), %eax
 7747 002d 890424   		movl	%eax, (%esp)
 7748 0030 E8000000 		call	__Unwind_SjLj_Register
 7748      00
 7750              	LM401:
 7751              	LBB89:
GAS LISTING d:/software/ovi_2503a_s3trc/ovi_2503a_s3trc/plutommi/Customer/ResGenerator/gcctmp/ccuadaaa.s 			page 138


 7752 0035 8B4508   		movl	8(%ebp), %eax
 7753 0038 890424   		movl	%eax, (%esp)
 7754 003b C745C8FF 		movl	$-1, -56(%ebp)
 7754      FFFFFF
 7755 0042 E8000000 		call	__ZNSt16_List_alloc_baseI16ProcessImageDataSaIS0_ELb1EE11_M_get_nodeEv
 7755      00
 7756 0047 8945F0   		movl	%eax, -16(%ebp)
 7758              	LM402:
 7759 004a 8B450C   		movl	12(%ebp), %eax
 7760 004d 89442404 		movl	%eax, 4(%esp)
 7761 0051 8B45F0   		movl	-16(%ebp), %eax
 7762 0054 83C008   		addl	$8, %eax
 7763 0057 890424   		movl	%eax, (%esp)
 7764 005a C745C802 		movl	$2, -56(%ebp)
 7764      000000
 7765 0061 E8000000 		call	__ZSt10_ConstructI16ProcessImageDataS0_EvPT_RKT0_
 7765      00
 7766 0066 EB64     		jmp	L316
 7768              	LM403:
 7769              	L322:
 7770              	L317:
 7771 0068 8B45BC   		movl	-68(%ebp), %eax
 7772 006b 890424   		movl	%eax, (%esp)
 7773 006e E8000000 		call	___cxa_begin_catch
 7773      00
 7775              	LM404:
 7776 0073 8B45F0   		movl	-16(%ebp), %eax
 7777 0076 89442404 		movl	%eax, 4(%esp)
 7778 007a 8B4508   		movl	8(%ebp), %eax
 7779 007d 890424   		movl	%eax, (%esp)
 7780 0080 C745C801 		movl	$1, -56(%ebp)
 7780      000000
 7781 0087 E8000000 		call	__ZNSt16_List_alloc_baseI16ProcessImageDataSaIS0_ELb1EE11_M_put_nodeEPSt10_List_nodeIS0_E
 7781      00
 7783              	LM405:
 7784 008c E8000000 		call	___cxa_rethrow
 7784      00
 7785              	L323:
 7786 0091 8D6D0C   		leal	12(%ebp), %ebp
 7787 0094 8B45C8   		movl	-56(%ebp), %eax
 7788 0097 8B55CC   		movl	-52(%ebp), %edx
 7789 009a 8955BC   		movl	%edx, -68(%ebp)
 7790 009d 83F801   		cmpl	$1, %eax
 7791 00a0 74C6     		je	L322
 7792              	L318:
 7793 00a2 8B45BC   		movl	-68(%ebp), %eax
 7794 00a5 8945B8   		movl	%eax, -72(%ebp)
 7795 00a8 C745C800 		movl	$0, -56(%ebp)
 7795      000000
 7796 00af E8000000 		call	___cxa_end_catch
 7796      00
 7797 00b4 8B55B8   		movl	-72(%ebp), %edx
 7798 00b7 8955BC   		movl	%edx, -68(%ebp)
 7799              	L320:
 7800 00ba 8B45BC   		movl	-68(%ebp), %eax
 7801 00bd 890424   		movl	%eax, (%esp)
 7802 00c0 C745C8FF 		movl	$-1, -56(%ebp)
GAS LISTING d:/software/ovi_2503a_s3trc/ovi_2503a_s3trc/plutommi/Customer/ResGenerator/gcctmp/ccuadaaa.s 			page 139


 7802      FFFFFF
 7803 00c7 E8000000 		call	__Unwind_SjLj_Resume
 7803      00
 7804              	L316:
 7806              	LM406:
 7807 00cc 8B45F0   		movl	-16(%ebp), %eax
 7808 00cf 8945C0   		movl	%eax, -64(%ebp)
 7809              	L315:
 7810 00d2 8D45C4   		leal	-60(%ebp), %eax
 7811 00d5 890424   		movl	%eax, (%esp)
 7812 00d8 E8000000 		call	__Unwind_SjLj_Unregister
 7812      00
 7813              	LBE89:
 7814 00dd 8B45C0   		movl	-64(%ebp), %eax
 7815 00e0 83C44C   		addl	$76, %esp
 7816 00e3 5B       		popl	%ebx
 7817 00e4 5E       		popl	%esi
 7818 00e5 5F       		popl	%edi
 7819 00e6 5D       		popl	%ebp
 7820 00e7 C3       		ret
 7821              		.section	.gcc_except_table,""
 7822              		.align 4
 7823              	LLSDA2386:
 7824 0034 FF       		.byte	0xff
 7825 0035 00       		.byte	0x0
 7826 0036 0D       		.uleb128 LLSDATT2386-LLSDATTD2386
 7827              	LLSDATTD2386:
 7828 0037 01       		.byte	0x1
 7829 0038 04       		.uleb128 LLSDACSE2386-LLSDACSB2386
 7830              	LLSDACSB2386:
 7831 0039 00       		.uleb128 0x0
 7832 003a 00       		.uleb128 0x0
 7833 003b 01       		.uleb128 0x1
 7834 003c 01       		.uleb128 0x1
 7835              	LLSDACSE2386:
 7836 003d 01       		.byte	0x1
 7837 003e 00       		.byte	0x0
 7838 003f 00       		.align 4
 7839 0040 00000000 		.long	0
 7840              	LLSDATT2386:
 7841              		.section	.text$_ZNSt4listI16ProcessImageDataSaIS0_EE14_M_create_nodeERKS0_,"x"
 7842              		.linkonce discard
 7846              	Lscope68:
 7848              		.section	.text$_ZSt10_ConstructI16ProcessImageDataS0_EvPT_RKT0_,"x"
 7849              		.linkonce discard
 7850              		.align 2
 7854              	.globl __ZSt10_ConstructI16ProcessImageDataS0_EvPT_RKT0_
 7856              	__ZSt10_ConstructI16ProcessImageDataS0_EvPT_RKT0_:
 7858              	Ltext26:
   1:d:/software/ovi_2503a_s3trc/ovi_2503a_s3trc/Tools/MinGW/include/c++/3.3.1/bits/stl_construct.h **** // nonstandard construct and destroy functions -*- C++ -*-
   2:d:/software/ovi_2503a_s3trc/ovi_2503a_s3trc/Tools/MinGW/include/c++/3.3.1/bits/stl_construct.h **** 
   3:d:/software/ovi_2503a_s3trc/ovi_2503a_s3trc/Tools/MinGW/include/c++/3.3.1/bits/stl_construct.h **** // Copyright (C) 2001, 2002 Free Software Foundation, Inc.
   4:d:/software/ovi_2503a_s3trc/ovi_2503a_s3trc/Tools/MinGW/include/c++/3.3.1/bits/stl_construct.h **** //
   5:d:/software/ovi_2503a_s3trc/ovi_2503a_s3trc/Tools/MinGW/include/c++/3.3.1/bits/stl_construct.h **** // This file is part of the GNU ISO C++ Library.  This library is free
   6:d:/software/ovi_2503a_s3trc/ovi_2503a_s3trc/Tools/MinGW/include/c++/3.3.1/bits/stl_construct.h **** // software; you can redistribute it and/or modify it under the
   7:d:/software/ovi_2503a_s3trc/ovi_2503a_s3trc/Tools/MinGW/include/c++/3.3.1/bits/stl_construct.h **** // terms of the GNU General Public License as published by the
   8:d:/software/ovi_2503a_s3trc/ovi_2503a_s3trc/Tools/MinGW/include/c++/3.3.1/bits/stl_construct.h **** // Free Software Foundation; either version 2, or (at your option)
GAS LISTING d:/software/ovi_2503a_s3trc/ovi_2503a_s3trc/plutommi/Customer/ResGenerator/gcctmp/ccuadaaa.s 			page 140


   9:d:/software/ovi_2503a_s3trc/ovi_2503a_s3trc/Tools/MinGW/include/c++/3.3.1/bits/stl_construct.h **** // any later version.
  10:d:/software/ovi_2503a_s3trc/ovi_2503a_s3trc/Tools/MinGW/include/c++/3.3.1/bits/stl_construct.h **** 
  11:d:/software/ovi_2503a_s3trc/ovi_2503a_s3trc/Tools/MinGW/include/c++/3.3.1/bits/stl_construct.h **** // This library is distributed in the hope that it will be useful,
  12:d:/software/ovi_2503a_s3trc/ovi_2503a_s3trc/Tools/MinGW/include/c++/3.3.1/bits/stl_construct.h **** // but WITHOUT ANY WARRANTY; without even the implied warranty of
  13:d:/software/ovi_2503a_s3trc/ovi_2503a_s3trc/Tools/MinGW/include/c++/3.3.1/bits/stl_construct.h **** // MERCHANTABILITY or FITNESS FOR A PARTICULAR PURPOSE.  See the
  14:d:/software/ovi_2503a_s3trc/ovi_2503a_s3trc/Tools/MinGW/include/c++/3.3.1/bits/stl_construct.h **** // GNU General Public License for more details.
  15:d:/software/ovi_2503a_s3trc/ovi_2503a_s3trc/Tools/MinGW/include/c++/3.3.1/bits/stl_construct.h **** 
  16:d:/software/ovi_2503a_s3trc/ovi_2503a_s3trc/Tools/MinGW/include/c++/3.3.1/bits/stl_construct.h **** // You should have received a copy of the GNU General Public License along
  17:d:/software/ovi_2503a_s3trc/ovi_2503a_s3trc/Tools/MinGW/include/c++/3.3.1/bits/stl_construct.h **** // with this library; see the file COPYING.  If not, write to the Free
  18:d:/software/ovi_2503a_s3trc/ovi_2503a_s3trc/Tools/MinGW/include/c++/3.3.1/bits/stl_construct.h **** // Software Foundation, 59 Temple Place - Suite 330, Boston, MA 02111-1307,
  19:d:/software/ovi_2503a_s3trc/ovi_2503a_s3trc/Tools/MinGW/include/c++/3.3.1/bits/stl_construct.h **** // USA.
  20:d:/software/ovi_2503a_s3trc/ovi_2503a_s3trc/Tools/MinGW/include/c++/3.3.1/bits/stl_construct.h **** 
  21:d:/software/ovi_2503a_s3trc/ovi_2503a_s3trc/Tools/MinGW/include/c++/3.3.1/bits/stl_construct.h **** // As a special exception, you may use this file as part of a free software
  22:d:/software/ovi_2503a_s3trc/ovi_2503a_s3trc/Tools/MinGW/include/c++/3.3.1/bits/stl_construct.h **** // library without restriction.  Specifically, if other files instantiate
  23:d:/software/ovi_2503a_s3trc/ovi_2503a_s3trc/Tools/MinGW/include/c++/3.3.1/bits/stl_construct.h **** // templates or use macros or inline functions from this file, or you compile
  24:d:/software/ovi_2503a_s3trc/ovi_2503a_s3trc/Tools/MinGW/include/c++/3.3.1/bits/stl_construct.h **** // this file and link it with other files to produce an executable, this
  25:d:/software/ovi_2503a_s3trc/ovi_2503a_s3trc/Tools/MinGW/include/c++/3.3.1/bits/stl_construct.h **** // file does not by itself cause the resulting executable to be covered by
  26:d:/software/ovi_2503a_s3trc/ovi_2503a_s3trc/Tools/MinGW/include/c++/3.3.1/bits/stl_construct.h **** // the GNU General Public License.  This exception does not however
  27:d:/software/ovi_2503a_s3trc/ovi_2503a_s3trc/Tools/MinGW/include/c++/3.3.1/bits/stl_construct.h **** // invalidate any other reasons why the executable file might be covered by
  28:d:/software/ovi_2503a_s3trc/ovi_2503a_s3trc/Tools/MinGW/include/c++/3.3.1/bits/stl_construct.h **** // the GNU General Public License.
  29:d:/software/ovi_2503a_s3trc/ovi_2503a_s3trc/Tools/MinGW/include/c++/3.3.1/bits/stl_construct.h **** 
  30:d:/software/ovi_2503a_s3trc/ovi_2503a_s3trc/Tools/MinGW/include/c++/3.3.1/bits/stl_construct.h **** /*
  31:d:/software/ovi_2503a_s3trc/ovi_2503a_s3trc/Tools/MinGW/include/c++/3.3.1/bits/stl_construct.h ****  *
  32:d:/software/ovi_2503a_s3trc/ovi_2503a_s3trc/Tools/MinGW/include/c++/3.3.1/bits/stl_construct.h ****  * Copyright (c) 1994
  33:d:/software/ovi_2503a_s3trc/ovi_2503a_s3trc/Tools/MinGW/include/c++/3.3.1/bits/stl_construct.h ****  * Hewlett-Packard Company
  34:d:/software/ovi_2503a_s3trc/ovi_2503a_s3trc/Tools/MinGW/include/c++/3.3.1/bits/stl_construct.h ****  *
  35:d:/software/ovi_2503a_s3trc/ovi_2503a_s3trc/Tools/MinGW/include/c++/3.3.1/bits/stl_construct.h ****  * Permission to use, copy, modify, distribute and sell this software
  36:d:/software/ovi_2503a_s3trc/ovi_2503a_s3trc/Tools/MinGW/include/c++/3.3.1/bits/stl_construct.h ****  * and its documentation for any purpose is hereby granted without fee,
  37:d:/software/ovi_2503a_s3trc/ovi_2503a_s3trc/Tools/MinGW/include/c++/3.3.1/bits/stl_construct.h ****  * provided that the above copyright notice appear in all copies and
  38:d:/software/ovi_2503a_s3trc/ovi_2503a_s3trc/Tools/MinGW/include/c++/3.3.1/bits/stl_construct.h ****  * that both that copyright notice and this permission notice appear
  39:d:/software/ovi_2503a_s3trc/ovi_2503a_s3trc/Tools/MinGW/include/c++/3.3.1/bits/stl_construct.h ****  * in supporting documentation.  Hewlett-Packard Company makes no
  40:d:/software/ovi_2503a_s3trc/ovi_2503a_s3trc/Tools/MinGW/include/c++/3.3.1/bits/stl_construct.h ****  * representations about the suitability of this software for any
  41:d:/software/ovi_2503a_s3trc/ovi_2503a_s3trc/Tools/MinGW/include/c++/3.3.1/bits/stl_construct.h ****  * purpose.  It is provided "as is" without express or implied warranty.
  42:d:/software/ovi_2503a_s3trc/ovi_2503a_s3trc/Tools/MinGW/include/c++/3.3.1/bits/stl_construct.h ****  *
  43:d:/software/ovi_2503a_s3trc/ovi_2503a_s3trc/Tools/MinGW/include/c++/3.3.1/bits/stl_construct.h ****  *
  44:d:/software/ovi_2503a_s3trc/ovi_2503a_s3trc/Tools/MinGW/include/c++/3.3.1/bits/stl_construct.h ****  * Copyright (c) 1996,1997
  45:d:/software/ovi_2503a_s3trc/ovi_2503a_s3trc/Tools/MinGW/include/c++/3.3.1/bits/stl_construct.h ****  * Silicon Graphics Computer Systems, Inc.
  46:d:/software/ovi_2503a_s3trc/ovi_2503a_s3trc/Tools/MinGW/include/c++/3.3.1/bits/stl_construct.h ****  *
  47:d:/software/ovi_2503a_s3trc/ovi_2503a_s3trc/Tools/MinGW/include/c++/3.3.1/bits/stl_construct.h ****  * Permission to use, copy, modify, distribute and sell this software
  48:d:/software/ovi_2503a_s3trc/ovi_2503a_s3trc/Tools/MinGW/include/c++/3.3.1/bits/stl_construct.h ****  * and its documentation for any purpose is hereby granted without fee,
  49:d:/software/ovi_2503a_s3trc/ovi_2503a_s3trc/Tools/MinGW/include/c++/3.3.1/bits/stl_construct.h ****  * provided that the above copyright notice appear in all copies and
  50:d:/software/ovi_2503a_s3trc/ovi_2503a_s3trc/Tools/MinGW/include/c++/3.3.1/bits/stl_construct.h ****  * that both that copyright notice and this permission notice appear
  51:d:/software/ovi_2503a_s3trc/ovi_2503a_s3trc/Tools/MinGW/include/c++/3.3.1/bits/stl_construct.h ****  * in supporting documentation.  Silicon Graphics makes no
  52:d:/software/ovi_2503a_s3trc/ovi_2503a_s3trc/Tools/MinGW/include/c++/3.3.1/bits/stl_construct.h ****  * representations about the suitability of this software for any
  53:d:/software/ovi_2503a_s3trc/ovi_2503a_s3trc/Tools/MinGW/include/c++/3.3.1/bits/stl_construct.h ****  * purpose.  It is provided "as is" without express or implied warranty.
  54:d:/software/ovi_2503a_s3trc/ovi_2503a_s3trc/Tools/MinGW/include/c++/3.3.1/bits/stl_construct.h ****  */
  55:d:/software/ovi_2503a_s3trc/ovi_2503a_s3trc/Tools/MinGW/include/c++/3.3.1/bits/stl_construct.h **** 
  56:d:/software/ovi_2503a_s3trc/ovi_2503a_s3trc/Tools/MinGW/include/c++/3.3.1/bits/stl_construct.h **** /** @file stl_construct.h
  57:d:/software/ovi_2503a_s3trc/ovi_2503a_s3trc/Tools/MinGW/include/c++/3.3.1/bits/stl_construct.h ****  *  This is an internal header file, included by other library headers.
  58:d:/software/ovi_2503a_s3trc/ovi_2503a_s3trc/Tools/MinGW/include/c++/3.3.1/bits/stl_construct.h ****  *  You should not attempt to use it directly.
  59:d:/software/ovi_2503a_s3trc/ovi_2503a_s3trc/Tools/MinGW/include/c++/3.3.1/bits/stl_construct.h ****  */
  60:d:/software/ovi_2503a_s3trc/ovi_2503a_s3trc/Tools/MinGW/include/c++/3.3.1/bits/stl_construct.h **** 
  61:d:/software/ovi_2503a_s3trc/ovi_2503a_s3trc/Tools/MinGW/include/c++/3.3.1/bits/stl_construct.h **** #ifndef _CPP_BITS_STL_CONSTRUCT_H
  62:d:/software/ovi_2503a_s3trc/ovi_2503a_s3trc/Tools/MinGW/include/c++/3.3.1/bits/stl_construct.h **** #define _CPP_BITS_STL_CONSTRUCT_H 1
  63:d:/software/ovi_2503a_s3trc/ovi_2503a_s3trc/Tools/MinGW/include/c++/3.3.1/bits/stl_construct.h **** 
  64:d:/software/ovi_2503a_s3trc/ovi_2503a_s3trc/Tools/MinGW/include/c++/3.3.1/bits/stl_construct.h **** #include <bits/type_traits.h>
  65:d:/software/ovi_2503a_s3trc/ovi_2503a_s3trc/Tools/MinGW/include/c++/3.3.1/bits/stl_construct.h **** #include <new>
GAS LISTING d:/software/ovi_2503a_s3trc/ovi_2503a_s3trc/plutommi/Customer/ResGenerator/gcctmp/ccuadaaa.s 			page 141


  66:d:/software/ovi_2503a_s3trc/ovi_2503a_s3trc/Tools/MinGW/include/c++/3.3.1/bits/stl_construct.h **** 
  67:d:/software/ovi_2503a_s3trc/ovi_2503a_s3trc/Tools/MinGW/include/c++/3.3.1/bits/stl_construct.h **** namespace std
  68:d:/software/ovi_2503a_s3trc/ovi_2503a_s3trc/Tools/MinGW/include/c++/3.3.1/bits/stl_construct.h **** {
  69:d:/software/ovi_2503a_s3trc/ovi_2503a_s3trc/Tools/MinGW/include/c++/3.3.1/bits/stl_construct.h ****   /**
  70:d:/software/ovi_2503a_s3trc/ovi_2503a_s3trc/Tools/MinGW/include/c++/3.3.1/bits/stl_construct.h ****    * @if maint
  71:d:/software/ovi_2503a_s3trc/ovi_2503a_s3trc/Tools/MinGW/include/c++/3.3.1/bits/stl_construct.h ****    * Constructs an object in existing memory by invoking an allocated
  72:d:/software/ovi_2503a_s3trc/ovi_2503a_s3trc/Tools/MinGW/include/c++/3.3.1/bits/stl_construct.h ****    * object's constructor with an initializer.
  73:d:/software/ovi_2503a_s3trc/ovi_2503a_s3trc/Tools/MinGW/include/c++/3.3.1/bits/stl_construct.h ****    * @endif
  74:d:/software/ovi_2503a_s3trc/ovi_2503a_s3trc/Tools/MinGW/include/c++/3.3.1/bits/stl_construct.h ****    */
  75:d:/software/ovi_2503a_s3trc/ovi_2503a_s3trc/Tools/MinGW/include/c++/3.3.1/bits/stl_construct.h ****   template <class _T1, class _T2>
  76:d:/software/ovi_2503a_s3trc/ovi_2503a_s3trc/Tools/MinGW/include/c++/3.3.1/bits/stl_construct.h ****     inline void
  77:d:/software/ovi_2503a_s3trc/ovi_2503a_s3trc/Tools/MinGW/include/c++/3.3.1/bits/stl_construct.h ****     _Construct(_T1* __p, const _T2& __value)
  78:d:/software/ovi_2503a_s3trc/ovi_2503a_s3trc/Tools/MinGW/include/c++/3.3.1/bits/stl_construct.h ****     { new (static_cast<void*>(__p)) _T1(__value); }
 7860              	LM407:
 7861 0000 55       		pushl	%ebp
 7862 0001 89E5     		movl	%esp, %ebp
 7863 0003 57       		pushl	%edi
 7864 0004 56       		pushl	%esi
 7865 0005 53       		pushl	%ebx
 7866 0006 83EC5C   		subl	$92, %esp
 7867 0009 C745E000 		movl	$___gxx_personality_sj0, -32(%ebp)
 7867      000000
 7868 0010 C745E444 		movl	$LLSDA2387, -28(%ebp)
 7868      000000
 7869 0017 8D45E8   		leal	-24(%ebp), %eax
 7870 001a 8D55F4   		leal	-12(%ebp), %edx
 7871 001d 8910     		movl	%edx, (%eax)
 7872 001f BA770000 		movl	$L335, %edx
 7872      00
 7873 0024 895004   		movl	%edx, 4(%eax)
 7874 0027 896008   		movl	%esp, 8(%eax)
 7875 002a 8D45C8   		leal	-56(%ebp), %eax
 7876 002d 890424   		movl	%eax, (%esp)
 7877 0030 E8000000 		call	__Unwind_SjLj_Register
 7877      00
 7879              	LM408:
 7880              	LBB90:
 7881 0035 8B4508   		movl	8(%ebp), %eax
 7882 0038 89442404 		movl	%eax, 4(%esp)
 7883 003c C7042438 		movl	$568, (%esp)
 7883      020000
 7884 0043 E8000000 		call	__ZnwjPv
 7884      00
 7885 0048 8945C4   		movl	%eax, -60(%ebp)
 7886 004b 837DC400 		cmpl	$0, -60(%ebp)
 7887 004f 746B     		je	L324
 7888 0051 C645C301 		movb	$1, -61(%ebp)
 7889 0055 C745BC01 		movl	$1, -68(%ebp)
 7889      000000
 7890 005c 8B450C   		movl	12(%ebp), %eax
 7891 005f 89442404 		movl	%eax, 4(%esp)
 7892 0063 8B45C4   		movl	-60(%ebp), %eax
 7893 0066 890424   		movl	%eax, (%esp)
 7894 0069 C745CC01 		movl	$1, -52(%ebp)
 7894      000000
 7895 0070 E8000000 		call	__ZN16ProcessImageDataC1ERKS_
 7895      00
GAS LISTING d:/software/ovi_2503a_s3trc/ovi_2503a_s3trc/plutommi/Customer/ResGenerator/gcctmp/ccuadaaa.s 			page 142


 7896 0075 EB45     		jmp	L324
 7897              	L335:
 7898 0077 8D6D0C   		leal	12(%ebp), %ebp
 7899 007a 8B55D0   		movl	-48(%ebp), %edx
 7900 007d 8955B4   		movl	%edx, -76(%ebp)
 7901              	L327:
 7902 0080 8B45B4   		movl	-76(%ebp), %eax
 7903 0083 8945B8   		movl	%eax, -72(%ebp)
 7904 0086 837DBC00 		cmpl	$0, -68(%ebp)
 7905 008a 7418     		je	L330
 7906 008c 807DC300 		cmpb	$0, -61(%ebp)
 7907 0090 7412     		je	L330
 7908 0092 8B4508   		movl	8(%ebp), %eax
 7909 0095 89442404 		movl	%eax, 4(%esp)
 7910 0099 8B55C4   		movl	-60(%ebp), %edx
 7911 009c 891424   		movl	%edx, (%esp)
 7912 009f E8000000 		call	__ZdlPvS_
 7912      00
 7913              	L330:
 7914 00a4 8B45B8   		movl	-72(%ebp), %eax
 7915 00a7 8945B4   		movl	%eax, -76(%ebp)
 7916              	L333:
 7917 00aa 8B55B4   		movl	-76(%ebp), %edx
 7918 00ad 891424   		movl	%edx, (%esp)
 7919 00b0 C745CCFF 		movl	$-1, -52(%ebp)
 7919      FFFFFF
 7920 00b7 E8000000 		call	__Unwind_SjLj_Resume
 7920      00
 7921              	L324:
 7922 00bc 8D45C8   		leal	-56(%ebp), %eax
 7923 00bf 890424   		movl	%eax, (%esp)
 7924 00c2 E8000000 		call	__Unwind_SjLj_Unregister
 7924      00
 7925 00c7 83C45C   		addl	$92, %esp
 7926 00ca 5B       		popl	%ebx
 7927 00cb 5E       		popl	%esi
 7928 00cc 5F       		popl	%edi
 7929 00cd 5D       		popl	%ebp
 7930 00ce C3       		ret
 7931              	LBE90:
 7932              		.section	.gcc_except_table,""
 7933              	LLSDA2387:
 7934 0044 FF       		.byte	0xff
 7935 0045 FF       		.byte	0xff
 7936 0046 01       		.byte	0x1
 7937 0047 02       		.uleb128 LLSDACSE2387-LLSDACSB2387
 7938              	LLSDACSB2387:
 7939 0048 00       		.uleb128 0x0
 7940 0049 00       		.uleb128 0x0
 7941              	LLSDACSE2387:
 7942              		.section	.text$_ZSt10_ConstructI16ProcessImageDataS0_EvPT_RKT0_,"x"
 7943              		.linkonce discard
 7944              	Lscope69:
 7946 00cf 90       		.section	.text$_ZNSt16_List_alloc_baseI16ProcessImageDataSaIS0_ELb1EE11_M_put_nodeEPSt10_List_node
 7947              		.linkonce discard
 7948              		.align 2
 7952              	.globl __ZNSt16_List_alloc_baseI16ProcessImageDataSaIS0_ELb1EE11_M_put_nodeEPSt10_List_nodeIS0_E
GAS LISTING d:/software/ovi_2503a_s3trc/ovi_2503a_s3trc/plutommi/Customer/ResGenerator/gcctmp/ccuadaaa.s 			page 143


 7954              	__ZNSt16_List_alloc_baseI16ProcessImageDataSaIS0_ELb1EE11_M_put_nodeEPSt10_List_nodeIS0_E:
 7956              	Ltext27:
 7958              	LM409:
 7959 0000 55       		pushl	%ebp
 7960 0001 89E5     		movl	%esp, %ebp
 7961 0003 83EC08   		subl	$8, %esp
 7963              	LM410:
 7964              	LBB91:
 7965 0006 C7442404 		movl	$1, 4(%esp)
 7965      01000000 
 7966 000e 8B450C   		movl	12(%ebp), %eax
 7967 0011 890424   		movl	%eax, (%esp)
 7968 0014 E8000000 		call	__ZNSt14__simple_allocISt10_List_nodeI16ProcessImageDataESt24__default_alloc_templateILb1ELi0
 7968      00
 7969 0019 C9       		leave
 7970 001a C3       		ret
 7971              	LBE91:
 7972              	Lscope70:
 7974 001b 90       		.section	.text$_ZSt8_DestroyI16ProcessImageDataEvPT_,"x"
 7975              		.linkonce discard
 7976              		.align 2
 7979              	.globl __ZSt8_DestroyI16ProcessImageDataEvPT_
 7981              	__ZSt8_DestroyI16ProcessImageDataEvPT_:
 7983              	Ltext28:
  79:d:/software/ovi_2503a_s3trc/ovi_2503a_s3trc/Tools/MinGW/include/c++/3.3.1/bits/stl_construct.h ****   
  80:d:/software/ovi_2503a_s3trc/ovi_2503a_s3trc/Tools/MinGW/include/c++/3.3.1/bits/stl_construct.h ****   /**
  81:d:/software/ovi_2503a_s3trc/ovi_2503a_s3trc/Tools/MinGW/include/c++/3.3.1/bits/stl_construct.h ****    * @if maint
  82:d:/software/ovi_2503a_s3trc/ovi_2503a_s3trc/Tools/MinGW/include/c++/3.3.1/bits/stl_construct.h ****    * Constructs an object in existing memory by invoking an allocated
  83:d:/software/ovi_2503a_s3trc/ovi_2503a_s3trc/Tools/MinGW/include/c++/3.3.1/bits/stl_construct.h ****    * object's default constructor (no initializers).
  84:d:/software/ovi_2503a_s3trc/ovi_2503a_s3trc/Tools/MinGW/include/c++/3.3.1/bits/stl_construct.h ****    * @endif
  85:d:/software/ovi_2503a_s3trc/ovi_2503a_s3trc/Tools/MinGW/include/c++/3.3.1/bits/stl_construct.h ****    */
  86:d:/software/ovi_2503a_s3trc/ovi_2503a_s3trc/Tools/MinGW/include/c++/3.3.1/bits/stl_construct.h ****   template <class _T1>
  87:d:/software/ovi_2503a_s3trc/ovi_2503a_s3trc/Tools/MinGW/include/c++/3.3.1/bits/stl_construct.h ****     inline void
  88:d:/software/ovi_2503a_s3trc/ovi_2503a_s3trc/Tools/MinGW/include/c++/3.3.1/bits/stl_construct.h ****     _Construct(_T1* __p)
  89:d:/software/ovi_2503a_s3trc/ovi_2503a_s3trc/Tools/MinGW/include/c++/3.3.1/bits/stl_construct.h ****     { new (static_cast<void*>(__p)) _T1(); }
  90:d:/software/ovi_2503a_s3trc/ovi_2503a_s3trc/Tools/MinGW/include/c++/3.3.1/bits/stl_construct.h **** 
  91:d:/software/ovi_2503a_s3trc/ovi_2503a_s3trc/Tools/MinGW/include/c++/3.3.1/bits/stl_construct.h ****   /**
  92:d:/software/ovi_2503a_s3trc/ovi_2503a_s3trc/Tools/MinGW/include/c++/3.3.1/bits/stl_construct.h ****    * @if maint
  93:d:/software/ovi_2503a_s3trc/ovi_2503a_s3trc/Tools/MinGW/include/c++/3.3.1/bits/stl_construct.h ****    * Destroy a range of objects with nontrivial destructors.  
  94:d:/software/ovi_2503a_s3trc/ovi_2503a_s3trc/Tools/MinGW/include/c++/3.3.1/bits/stl_construct.h ****    *
  95:d:/software/ovi_2503a_s3trc/ovi_2503a_s3trc/Tools/MinGW/include/c++/3.3.1/bits/stl_construct.h ****    * This is a helper function used only by _Destroy().
  96:d:/software/ovi_2503a_s3trc/ovi_2503a_s3trc/Tools/MinGW/include/c++/3.3.1/bits/stl_construct.h ****    * @endif
  97:d:/software/ovi_2503a_s3trc/ovi_2503a_s3trc/Tools/MinGW/include/c++/3.3.1/bits/stl_construct.h ****    */
  98:d:/software/ovi_2503a_s3trc/ovi_2503a_s3trc/Tools/MinGW/include/c++/3.3.1/bits/stl_construct.h ****   template <class _ForwardIterator>
  99:d:/software/ovi_2503a_s3trc/ovi_2503a_s3trc/Tools/MinGW/include/c++/3.3.1/bits/stl_construct.h ****     inline void
 100:d:/software/ovi_2503a_s3trc/ovi_2503a_s3trc/Tools/MinGW/include/c++/3.3.1/bits/stl_construct.h ****     __destroy_aux(_ForwardIterator __first, _ForwardIterator __last, __false_type)
 101:d:/software/ovi_2503a_s3trc/ovi_2503a_s3trc/Tools/MinGW/include/c++/3.3.1/bits/stl_construct.h ****     { for ( ; __first != __last; ++__first) _Destroy(&*__first); }
 102:d:/software/ovi_2503a_s3trc/ovi_2503a_s3trc/Tools/MinGW/include/c++/3.3.1/bits/stl_construct.h **** 
 103:d:/software/ovi_2503a_s3trc/ovi_2503a_s3trc/Tools/MinGW/include/c++/3.3.1/bits/stl_construct.h ****   /**
 104:d:/software/ovi_2503a_s3trc/ovi_2503a_s3trc/Tools/MinGW/include/c++/3.3.1/bits/stl_construct.h ****    * @if maint
 105:d:/software/ovi_2503a_s3trc/ovi_2503a_s3trc/Tools/MinGW/include/c++/3.3.1/bits/stl_construct.h ****    * Destroy a range of objects with trivial destructors.  Since the destructors
 106:d:/software/ovi_2503a_s3trc/ovi_2503a_s3trc/Tools/MinGW/include/c++/3.3.1/bits/stl_construct.h ****    * are trivial, there's nothing to do and hopefully this function will be
 107:d:/software/ovi_2503a_s3trc/ovi_2503a_s3trc/Tools/MinGW/include/c++/3.3.1/bits/stl_construct.h ****    * entirely optimized away.
 108:d:/software/ovi_2503a_s3trc/ovi_2503a_s3trc/Tools/MinGW/include/c++/3.3.1/bits/stl_construct.h ****    *
 109:d:/software/ovi_2503a_s3trc/ovi_2503a_s3trc/Tools/MinGW/include/c++/3.3.1/bits/stl_construct.h ****    * This is a helper function used only by _Destroy().
 110:d:/software/ovi_2503a_s3trc/ovi_2503a_s3trc/Tools/MinGW/include/c++/3.3.1/bits/stl_construct.h ****    * @endif
 111:d:/software/ovi_2503a_s3trc/ovi_2503a_s3trc/Tools/MinGW/include/c++/3.3.1/bits/stl_construct.h ****    */
GAS LISTING d:/software/ovi_2503a_s3trc/ovi_2503a_s3trc/plutommi/Customer/ResGenerator/gcctmp/ccuadaaa.s 			page 144


 112:d:/software/ovi_2503a_s3trc/ovi_2503a_s3trc/Tools/MinGW/include/c++/3.3.1/bits/stl_construct.h ****   template <class _ForwardIterator> 
 113:d:/software/ovi_2503a_s3trc/ovi_2503a_s3trc/Tools/MinGW/include/c++/3.3.1/bits/stl_construct.h ****     inline void
 114:d:/software/ovi_2503a_s3trc/ovi_2503a_s3trc/Tools/MinGW/include/c++/3.3.1/bits/stl_construct.h ****     __destroy_aux(_ForwardIterator, _ForwardIterator, __true_type)
 115:d:/software/ovi_2503a_s3trc/ovi_2503a_s3trc/Tools/MinGW/include/c++/3.3.1/bits/stl_construct.h ****     { }
 116:d:/software/ovi_2503a_s3trc/ovi_2503a_s3trc/Tools/MinGW/include/c++/3.3.1/bits/stl_construct.h **** 
 117:d:/software/ovi_2503a_s3trc/ovi_2503a_s3trc/Tools/MinGW/include/c++/3.3.1/bits/stl_construct.h ****   /**
 118:d:/software/ovi_2503a_s3trc/ovi_2503a_s3trc/Tools/MinGW/include/c++/3.3.1/bits/stl_construct.h ****    * @if maint
 119:d:/software/ovi_2503a_s3trc/ovi_2503a_s3trc/Tools/MinGW/include/c++/3.3.1/bits/stl_construct.h ****    * Destroy the object pointed to by a pointer type.
 120:d:/software/ovi_2503a_s3trc/ovi_2503a_s3trc/Tools/MinGW/include/c++/3.3.1/bits/stl_construct.h ****    * @endif
 121:d:/software/ovi_2503a_s3trc/ovi_2503a_s3trc/Tools/MinGW/include/c++/3.3.1/bits/stl_construct.h ****    */
 122:d:/software/ovi_2503a_s3trc/ovi_2503a_s3trc/Tools/MinGW/include/c++/3.3.1/bits/stl_construct.h ****   template <class _Tp>
 123:d:/software/ovi_2503a_s3trc/ovi_2503a_s3trc/Tools/MinGW/include/c++/3.3.1/bits/stl_construct.h ****     inline void
 124:d:/software/ovi_2503a_s3trc/ovi_2503a_s3trc/Tools/MinGW/include/c++/3.3.1/bits/stl_construct.h ****     _Destroy(_Tp* __pointer)
 125:d:/software/ovi_2503a_s3trc/ovi_2503a_s3trc/Tools/MinGW/include/c++/3.3.1/bits/stl_construct.h ****     { __pointer->~_Tp(); }
 7985              	LM411:
 7986 0000 55       		pushl	%ebp
 7987 0001 89E5     		movl	%esp, %ebp
 7988 0003 83EC08   		subl	$8, %esp
 7990              	LM412:
 7991              	LBB92:
 7992 0006 8B4508   		movl	8(%ebp), %eax
 7993 0009 890424   		movl	%eax, (%esp)
 7994 000c E8000000 		call	__ZN16ProcessImageDataD1Ev
 7994      00
 7995 0011 C9       		leave
 7996 0012 C3       		ret
 7997              	LBE92:
 7998              	Lscope71:
 8000 0013 90       		.section	.text$_ZNSt14__simple_allocISt10_List_nodeI16ProcessImageDataESt24__default_alloc_templat
 8001              		.linkonce discard
 8002              		.align 2
 8006              	.globl __ZNSt14__simple_allocISt10_List_nodeI16ProcessImageDataESt24__default_alloc_templateILb1ELi
 8008              	__ZNSt14__simple_allocISt10_List_nodeI16ProcessImageDataESt24__default_alloc_templateILb1ELi0EEE10d
 8010              	Ltext29:
 8012              	LM413:
 8013 0000 55       		pushl	%ebp
 8014 0001 89E5     		movl	%esp, %ebp
 8015 0003 83EC08   		subl	$8, %esp
 8017              	LM414:
 8018              	LBB93:
 8019 0006 837D0C00 		cmpl	$0, 12(%ebp)
 8020 000a 741C     		je	L338
 8021 000c 8B550C   		movl	12(%ebp), %edx
 8022 000f 89D0     		movl	%edx, %eax
 8023 0011 C1E003   		sall	$3, %eax
 8024 0014 01D0     		addl	%edx, %eax
 8025 0016 C1E006   		sall	$6, %eax
 8026 0019 89442404 		movl	%eax, 4(%esp)
 8027 001d 8B4508   		movl	8(%ebp), %eax
 8028 0020 890424   		movl	%eax, (%esp)
 8029 0023 E8000000 		call	__ZNSt24__default_alloc_templateILb1ELi0EE10deallocateEPvj
 8029      00
 8030              	L338:
 8031 0028 C9       		leave
 8032 0029 C3       		ret
 8033              	LBE93:
 8034              	Lscope72:
GAS LISTING d:/software/ovi_2503a_s3trc/ovi_2503a_s3trc/plutommi/Customer/ResGenerator/gcctmp/ccuadaaa.s 			page 145


 8036 002a 9090     		.section	.text$_ZNSt4listI13LogBinaryDataSaIS0_EE14_M_create_nodeERKS0_,"x"
 8037              		.linkonce discard
 8038              		.align 2
 8042              	.globl __ZNSt4listI13LogBinaryDataSaIS0_EE14_M_create_nodeERKS0_
 8044              	__ZNSt4listI13LogBinaryDataSaIS0_EE14_M_create_nodeERKS0_:
 8046              	Ltext30:
 8048              	LM415:
 8049 0000 55       		pushl	%ebp
 8050 0001 89E5     		movl	%esp, %ebp
 8051 0003 57       		pushl	%edi
 8052 0004 56       		pushl	%esi
 8053 0005 53       		pushl	%ebx
 8054 0006 83EC4C   		subl	$76, %esp
 8055 0009 C745DC00 		movl	$___gxx_personality_sj0, -36(%ebp)
 8055      000000
 8056 0010 C745E04C 		movl	$LLSDA2391, -32(%ebp)
 8056      000000
 8057 0017 8D45E4   		leal	-28(%ebp), %eax
 8058 001a 8D55F4   		leal	-12(%ebp), %edx
 8059 001d 8910     		movl	%edx, (%eax)
 8060 001f BA910000 		movl	$L348, %edx
 8060      00
 8061 0024 895004   		movl	%edx, 4(%eax)
 8062 0027 896008   		movl	%esp, 8(%eax)
 8063 002a 8D45C4   		leal	-60(%ebp), %eax
 8064 002d 890424   		movl	%eax, (%esp)
 8065 0030 E8000000 		call	__Unwind_SjLj_Register
 8065      00
 8067              	LM416:
 8068              	LBB94:
 8069 0035 8B4508   		movl	8(%ebp), %eax
 8070 0038 890424   		movl	%eax, (%esp)
 8071 003b C745C8FF 		movl	$-1, -56(%ebp)
 8071      FFFFFF
 8072 0042 E8000000 		call	__ZNSt16_List_alloc_baseI13LogBinaryDataSaIS0_ELb1EE11_M_get_nodeEv
 8072      00
 8073 0047 8945F0   		movl	%eax, -16(%ebp)
 8075              	LM417:
 8076 004a 8B450C   		movl	12(%ebp), %eax
 8077 004d 89442404 		movl	%eax, 4(%esp)
 8078 0051 8B45F0   		movl	-16(%ebp), %eax
 8079 0054 83C008   		addl	$8, %eax
 8080 0057 890424   		movl	%eax, (%esp)
 8081 005a C745C802 		movl	$2, -56(%ebp)
 8081      000000
 8082 0061 E8000000 		call	__ZSt10_ConstructI13LogBinaryDataS0_EvPT_RKT0_
 8082      00
 8083 0066 EB64     		jmp	L341
 8085              	LM418:
 8086              	L347:
 8087              	L342:
 8088 0068 8B45BC   		movl	-68(%ebp), %eax
 8089 006b 890424   		movl	%eax, (%esp)
 8090 006e E8000000 		call	___cxa_begin_catch
 8090      00
 8092              	LM419:
 8093 0073 8B45F0   		movl	-16(%ebp), %eax
GAS LISTING d:/software/ovi_2503a_s3trc/ovi_2503a_s3trc/plutommi/Customer/ResGenerator/gcctmp/ccuadaaa.s 			page 146


 8094 0076 89442404 		movl	%eax, 4(%esp)
 8095 007a 8B4508   		movl	8(%ebp), %eax
 8096 007d 890424   		movl	%eax, (%esp)
 8097 0080 C745C801 		movl	$1, -56(%ebp)
 8097      000000
 8098 0087 E8000000 		call	__ZNSt16_List_alloc_baseI13LogBinaryDataSaIS0_ELb1EE11_M_put_nodeEPSt10_List_nodeIS0_E
 8098      00
 8100              	LM420:
 8101 008c E8000000 		call	___cxa_rethrow
 8101      00
 8102              	L348:
 8103 0091 8D6D0C   		leal	12(%ebp), %ebp
 8104 0094 8B45C8   		movl	-56(%ebp), %eax
 8105 0097 8B55CC   		movl	-52(%ebp), %edx
 8106 009a 8955BC   		movl	%edx, -68(%ebp)
 8107 009d 83F801   		cmpl	$1, %eax
 8108 00a0 74C6     		je	L347
 8109              	L343:
 8110 00a2 8B45BC   		movl	-68(%ebp), %eax
 8111 00a5 8945B8   		movl	%eax, -72(%ebp)
 8112 00a8 C745C800 		movl	$0, -56(%ebp)
 8112      000000
 8113 00af E8000000 		call	___cxa_end_catch
 8113      00
 8114 00b4 8B55B8   		movl	-72(%ebp), %edx
 8115 00b7 8955BC   		movl	%edx, -68(%ebp)
 8116              	L345:
 8117 00ba 8B45BC   		movl	-68(%ebp), %eax
 8118 00bd 890424   		movl	%eax, (%esp)
 8119 00c0 C745C8FF 		movl	$-1, -56(%ebp)
 8119      FFFFFF
 8120 00c7 E8000000 		call	__Unwind_SjLj_Resume
 8120      00
 8121              	L341:
 8123              	LM421:
 8124 00cc 8B45F0   		movl	-16(%ebp), %eax
 8125 00cf 8945C0   		movl	%eax, -64(%ebp)
 8126              	L340:
 8127 00d2 8D45C4   		leal	-60(%ebp), %eax
 8128 00d5 890424   		movl	%eax, (%esp)
 8129 00d8 E8000000 		call	__Unwind_SjLj_Unregister
 8129      00
 8130              	LBE94:
 8131 00dd 8B45C0   		movl	-64(%ebp), %eax
 8132 00e0 83C44C   		addl	$76, %esp
 8133 00e3 5B       		popl	%ebx
 8134 00e4 5E       		popl	%esi
 8135 00e5 5F       		popl	%edi
 8136 00e6 5D       		popl	%ebp
 8137 00e7 C3       		ret
 8138              		.section	.gcc_except_table,""
 8139 004a 0000     		.align 4
 8140              	LLSDA2391:
 8141 004c FF       		.byte	0xff
 8142 004d 00       		.byte	0x0
 8143 004e 0D       		.uleb128 LLSDATT2391-LLSDATTD2391
 8144              	LLSDATTD2391:
GAS LISTING d:/software/ovi_2503a_s3trc/ovi_2503a_s3trc/plutommi/Customer/ResGenerator/gcctmp/ccuadaaa.s 			page 147


 8145 004f 01       		.byte	0x1
 8146 0050 04       		.uleb128 LLSDACSE2391-LLSDACSB2391
 8147              	LLSDACSB2391:
 8148 0051 00       		.uleb128 0x0
 8149 0052 00       		.uleb128 0x0
 8150 0053 01       		.uleb128 0x1
 8151 0054 01       		.uleb128 0x1
 8152              	LLSDACSE2391:
 8153 0055 01       		.byte	0x1
 8154 0056 00       		.byte	0x0
 8155 0057 00       		.align 4
 8156 0058 00000000 		.long	0
 8157              	LLSDATT2391:
 8158              		.section	.text$_ZNSt4listI13LogBinaryDataSaIS0_EE14_M_create_nodeERKS0_,"x"
 8159              		.linkonce discard
 8163              	Lscope73:
 8165              		.section	.text$_ZSt10_ConstructI13LogBinaryDataS0_EvPT_RKT0_,"x"
 8166              		.linkonce discard
 8167              		.align 2
 8171              	.globl __ZSt10_ConstructI13LogBinaryDataS0_EvPT_RKT0_
 8173              	__ZSt10_ConstructI13LogBinaryDataS0_EvPT_RKT0_:
 8175              	Ltext31:
 8177              	LM422:
 8178 0000 55       		pushl	%ebp
 8179 0001 89E5     		movl	%esp, %ebp
 8180 0003 57       		pushl	%edi
 8181 0004 56       		pushl	%esi
 8182 0005 53       		pushl	%ebx
 8183 0006 83EC5C   		subl	$92, %esp
 8184 0009 C745E000 		movl	$___gxx_personality_sj0, -32(%ebp)
 8184      000000
 8185 0010 C745E45C 		movl	$LLSDA2392, -28(%ebp)
 8185      000000
 8186 0017 8D45E8   		leal	-24(%ebp), %eax
 8187 001a 8D55F4   		leal	-12(%ebp), %edx
 8188 001d 8910     		movl	%edx, (%eax)
 8189 001f BA770000 		movl	$L360, %edx
 8189      00
 8190 0024 895004   		movl	%edx, 4(%eax)
 8191 0027 896008   		movl	%esp, 8(%eax)
 8192 002a 8D45C8   		leal	-56(%ebp), %eax
 8193 002d 890424   		movl	%eax, (%esp)
 8194 0030 E8000000 		call	__Unwind_SjLj_Register
 8194      00
 8196              	LM423:
 8197              	LBB95:
 8198 0035 8B4508   		movl	8(%ebp), %eax
 8199 0038 89442404 		movl	%eax, 4(%esp)
 8200 003c C704240C 		movl	$12, (%esp)
 8200      000000
 8201 0043 E8000000 		call	__ZnwjPv
 8201      00
 8202 0048 8945C4   		movl	%eax, -60(%ebp)
 8203 004b 837DC400 		cmpl	$0, -60(%ebp)
 8204 004f 746B     		je	L349
 8205 0051 C645C301 		movb	$1, -61(%ebp)
 8206 0055 C745BC01 		movl	$1, -68(%ebp)
GAS LISTING d:/software/ovi_2503a_s3trc/ovi_2503a_s3trc/plutommi/Customer/ResGenerator/gcctmp/ccuadaaa.s 			page 148


 8206      000000
 8207 005c 8B450C   		movl	12(%ebp), %eax
 8208 005f 89442404 		movl	%eax, 4(%esp)
 8209 0063 8B45C4   		movl	-60(%ebp), %eax
 8210 0066 890424   		movl	%eax, (%esp)
 8211 0069 C745CC01 		movl	$1, -52(%ebp)
 8211      000000
 8212 0070 E8000000 		call	__ZN13LogBinaryDataC1ERKS_
 8212      00
 8213 0075 EB45     		jmp	L349
 8214              	L360:
 8215 0077 8D6D0C   		leal	12(%ebp), %ebp
 8216 007a 8B55D0   		movl	-48(%ebp), %edx
 8217 007d 8955B4   		movl	%edx, -76(%ebp)
 8218              	L352:
 8219 0080 8B45B4   		movl	-76(%ebp), %eax
 8220 0083 8945B8   		movl	%eax, -72(%ebp)
 8221 0086 837DBC00 		cmpl	$0, -68(%ebp)
 8222 008a 7418     		je	L355
 8223 008c 807DC300 		cmpb	$0, -61(%ebp)
 8224 0090 7412     		je	L355
 8225 0092 8B4508   		movl	8(%ebp), %eax
 8226 0095 89442404 		movl	%eax, 4(%esp)
 8227 0099 8B55C4   		movl	-60(%ebp), %edx
 8228 009c 891424   		movl	%edx, (%esp)
 8229 009f E8000000 		call	__ZdlPvS_
 8229      00
 8230              	L355:
 8231 00a4 8B45B8   		movl	-72(%ebp), %eax
 8232 00a7 8945B4   		movl	%eax, -76(%ebp)
 8233              	L358:
 8234 00aa 8B55B4   		movl	-76(%ebp), %edx
 8235 00ad 891424   		movl	%edx, (%esp)
 8236 00b0 C745CCFF 		movl	$-1, -52(%ebp)
 8236      FFFFFF
 8237 00b7 E8000000 		call	__Unwind_SjLj_Resume
 8237      00
 8238              	L349:
 8239 00bc 8D45C8   		leal	-56(%ebp), %eax
 8240 00bf 890424   		movl	%eax, (%esp)
 8241 00c2 E8000000 		call	__Unwind_SjLj_Unregister
 8241      00
 8242 00c7 83C45C   		addl	$92, %esp
 8243 00ca 5B       		popl	%ebx
 8244 00cb 5E       		popl	%esi
 8245 00cc 5F       		popl	%edi
 8246 00cd 5D       		popl	%ebp
 8247 00ce C3       		ret
 8248              	LBE95:
 8249              		.section	.gcc_except_table,""
 8250              	LLSDA2392:
 8251 005c FF       		.byte	0xff
 8252 005d FF       		.byte	0xff
 8253 005e 01       		.byte	0x1
 8254 005f 02       		.uleb128 LLSDACSE2392-LLSDACSB2392
 8255              	LLSDACSB2392:
 8256 0060 00       		.uleb128 0x0
GAS LISTING d:/software/ovi_2503a_s3trc/ovi_2503a_s3trc/plutommi/Customer/ResGenerator/gcctmp/ccuadaaa.s 			page 149


 8257 0061 00       		.uleb128 0x0
 8258              	LLSDACSE2392:
 8259              		.section	.text$_ZSt10_ConstructI13LogBinaryDataS0_EvPT_RKT0_,"x"
 8260              		.linkonce discard
 8261              	Lscope74:
 8263 00cf 90       		.section	.text$_ZNSt16_List_alloc_baseI13LogBinaryDataSaIS0_ELb1EE11_M_put_nodeEPSt10_List_nodeIS0
 8264              		.linkonce discard
 8265              		.align 2
 8269              	.globl __ZNSt16_List_alloc_baseI13LogBinaryDataSaIS0_ELb1EE11_M_put_nodeEPSt10_List_nodeIS0_E
 8271              	__ZNSt16_List_alloc_baseI13LogBinaryDataSaIS0_ELb1EE11_M_put_nodeEPSt10_List_nodeIS0_E:
 8273              	Ltext32:
 8275              	LM424:
 8276 0000 55       		pushl	%ebp
 8277 0001 89E5     		movl	%esp, %ebp
 8278 0003 83EC08   		subl	$8, %esp
 8280              	LM425:
 8281              	LBB96:
 8282 0006 C7442404 		movl	$1, 4(%esp)
 8282      01000000 
 8283 000e 8B450C   		movl	12(%ebp), %eax
 8284 0011 890424   		movl	%eax, (%esp)
 8285 0014 E8000000 		call	__ZNSt14__simple_allocISt10_List_nodeI13LogBinaryDataESt24__default_alloc_templateILb1ELi0EEE
 8285      00
 8286 0019 C9       		leave
 8287 001a C3       		ret
 8288              	LBE96:
 8289              	Lscope75:
 8291 001b 90       		.section	.text$_ZNSt14__simple_allocISt10_List_nodeI13LogBinaryDataESt24__default_alloc_templateIL
 8292              		.linkonce discard
 8293              		.align 2
 8297              	.globl __ZNSt14__simple_allocISt10_List_nodeI13LogBinaryDataESt24__default_alloc_templateILb1ELi0EE
 8299              	__ZNSt14__simple_allocISt10_List_nodeI13LogBinaryDataESt24__default_alloc_templateILb1ELi0EEE10deal
 8301              	Ltext33:
 8303              	LM426:
 8304 0000 55       		pushl	%ebp
 8305 0001 89E5     		movl	%esp, %ebp
 8306 0003 83EC08   		subl	$8, %esp
 8308              	LM427:
 8309              	LBB97:
 8310 0006 837D0C00 		cmpl	$0, 12(%ebp)
 8311 000a 741C     		je	L362
 8312 000c 8B550C   		movl	12(%ebp), %edx
 8313 000f 89D0     		movl	%edx, %eax
 8314 0011 C1E002   		sall	$2, %eax
 8315 0014 01D0     		addl	%edx, %eax
 8316 0016 C1E002   		sall	$2, %eax
 8317 0019 89442404 		movl	%eax, 4(%esp)
 8318 001d 8B4508   		movl	8(%ebp), %eax
 8319 0020 890424   		movl	%eax, (%esp)
 8320 0023 E8000000 		call	__ZNSt24__default_alloc_templateILb1ELi0EE10deallocateEPvj
 8320      00
 8321              	L362:
 8322 0028 C9       		leave
 8323 0029 C3       		ret
 8324              	LBE97:
 8325              	Lscope76:
 8327 002a 9090     		.section	.text$_ZNSt10_List_baseI13LogBinaryDataSaIS0_EE7__clearEv,"x"
GAS LISTING d:/software/ovi_2503a_s3trc/ovi_2503a_s3trc/plutommi/Customer/ResGenerator/gcctmp/ccuadaaa.s 			page 150


 8328              		.linkonce discard
 8329              		.align 2
 8332              	.globl __ZNSt10_List_baseI13LogBinaryDataSaIS0_EE7__clearEv
 8334              	__ZNSt10_List_baseI13LogBinaryDataSaIS0_EE7__clearEv:
 8336              	Ltext34:
 8338              	LM428:
 8339 0000 55       		pushl	%ebp
 8340 0001 89E5     		movl	%esp, %ebp
 8341 0003 83EC18   		subl	$24, %esp
 8343              	LM429:
 8344              	LBB98:
 8345 0006 8B4508   		movl	8(%ebp), %eax
 8346 0009 8B00     		movl	(%eax), %eax
 8347 000b 8B00     		movl	(%eax), %eax
 8348 000d 8945FC   		movl	%eax, -4(%ebp)
 8350              	LM430:
 8351              	L365:
 8352 0010 8B5508   		movl	8(%ebp), %edx
 8353 0013 8B45FC   		movl	-4(%ebp), %eax
 8354 0016 3B02     		cmpl	(%edx), %eax
 8355 0018 7502     		jne	L367
 8356 001a EB30     		jmp	L366
 8357              	L367:
 8359              	LM431:
 8360              	LBB99:
 8361              	LBB100:
 8362 001c 8B45FC   		movl	-4(%ebp), %eax
 8363 001f 8945F8   		movl	%eax, -8(%ebp)
 8365              	LM432:
 8366 0022 8B45FC   		movl	-4(%ebp), %eax
 8367 0025 8B00     		movl	(%eax), %eax
 8368 0027 8945FC   		movl	%eax, -4(%ebp)
 8370              	LM433:
 8371 002a 8B45F8   		movl	-8(%ebp), %eax
 8372 002d 83C008   		addl	$8, %eax
 8373 0030 890424   		movl	%eax, (%esp)
 8374 0033 E8000000 		call	__ZSt8_DestroyI13LogBinaryDataEvPT_
 8374      00
 8376              	LM434:
 8377 0038 8B45F8   		movl	-8(%ebp), %eax
 8378 003b 89442404 		movl	%eax, 4(%esp)
 8379 003f 8B4508   		movl	8(%ebp), %eax
 8380 0042 890424   		movl	%eax, (%esp)
 8381 0045 E8000000 		call	__ZNSt16_List_alloc_baseI13LogBinaryDataSaIS0_ELb1EE11_M_put_nodeEPSt10_List_nodeIS0_E
 8381      00
 8382              	LBE100:
 8383              	LBE99:
 8384 004a EBC4     		jmp	L365
 8385              	L366:
 8387              	LM435:
 8388 004c 8B4508   		movl	8(%ebp), %eax
 8389 004f 8B10     		movl	(%eax), %edx
 8390 0051 8B4508   		movl	8(%ebp), %eax
 8391 0054 8B00     		movl	(%eax), %eax
 8392 0056 8902     		movl	%eax, (%edx)
 8394              	LM436:
 8395 0058 8B4508   		movl	8(%ebp), %eax
GAS LISTING d:/software/ovi_2503a_s3trc/ovi_2503a_s3trc/plutommi/Customer/ResGenerator/gcctmp/ccuadaaa.s 			page 151


 8396 005b 8B10     		movl	(%eax), %edx
 8397 005d 8B4508   		movl	8(%ebp), %eax
 8398 0060 8B00     		movl	(%eax), %eax
 8399 0062 894204   		movl	%eax, 4(%edx)
 8400 0065 C9       		leave
 8401 0066 C3       		ret
 8402              	LBE98:
 8409              	Lscope77:
 8411              	.globl __ZTI14ConvertRequest
 8412 0067 90       		.section	.rdata$_ZTI14ConvertRequest,""
 8413              		.linkonce same_size
 8414              		.align 4
 8415              	__ZTI14ConvertRequest:
 8416 0000 08000000 		.long	__ZTVN10__cxxabiv120__si_class_type_infoE+8
 8417 0004 00000000 		.long	__ZTS14ConvertRequest
 8418 0008 00000000 		.long	__ZTIN10ThreadPool10IRunObjectE
 8419              	.globl __ZTS14ConvertRequest
 8420              		.section	.rdata$_ZTS14ConvertRequest,""
 8421              		.linkonce same_size
 8422              	__ZTS14ConvertRequest:
 8423 0000 3134436F 		.ascii "14ConvertRequest\0"
 8423      6E766572 
 8423      74526571 
 8423      75657374 
 8423      00
 8424              	.globl __ZTVN10ThreadPool10IRunObjectE
 8425 0011 000000   		.section	.rdata$_ZTVN10ThreadPool10IRunObjectE,""
 8426              		.linkonce same_size
 8427              		.align 8
 8428              	__ZTVN10ThreadPool10IRunObjectE:
 8429 0000 00000000 		.long	0
 8430 0004 00000000 		.long	__ZTIN10ThreadPool10IRunObjectE
 8431 0008 00000000 		.long	__ZN10ThreadPool10IRunObjectD1Ev
 8432 000c 00000000 		.long	__ZN10ThreadPool10IRunObjectD0Ev
 8433 0010 00000000 		.long	___cxa_pure_virtual
 8434 0014 00000000 		.long	___cxa_pure_virtual
 8435              		.section	.text$_ZnwjPv,"x"
 8436              		.linkonce discard
 8437              		.align 2
 8440              	.globl __ZnwjPv
 8442              	__ZnwjPv:
 8444              	Ltext35:
   1:d:/software/ovi_2503a_s3trc/ovi_2503a_s3trc/Tools/MinGW/include/c++/3.3.1/new **** // The -*- C++ -*- dynamic memory management header.
   2:d:/software/ovi_2503a_s3trc/ovi_2503a_s3trc/Tools/MinGW/include/c++/3.3.1/new **** 
   3:d:/software/ovi_2503a_s3trc/ovi_2503a_s3trc/Tools/MinGW/include/c++/3.3.1/new **** // Copyright (C) 1994, 1996, 1997, 1998, 2000, 2001, 2002
   4:d:/software/ovi_2503a_s3trc/ovi_2503a_s3trc/Tools/MinGW/include/c++/3.3.1/new **** // Free Software Foundation
   5:d:/software/ovi_2503a_s3trc/ovi_2503a_s3trc/Tools/MinGW/include/c++/3.3.1/new **** 
   6:d:/software/ovi_2503a_s3trc/ovi_2503a_s3trc/Tools/MinGW/include/c++/3.3.1/new **** // This file is part of GNU CC.
   7:d:/software/ovi_2503a_s3trc/ovi_2503a_s3trc/Tools/MinGW/include/c++/3.3.1/new **** //
   8:d:/software/ovi_2503a_s3trc/ovi_2503a_s3trc/Tools/MinGW/include/c++/3.3.1/new **** // GNU CC is free software; you can redistribute it and/or modify
   9:d:/software/ovi_2503a_s3trc/ovi_2503a_s3trc/Tools/MinGW/include/c++/3.3.1/new **** // it under the terms of the GNU General Public License as published by
  10:d:/software/ovi_2503a_s3trc/ovi_2503a_s3trc/Tools/MinGW/include/c++/3.3.1/new **** // the Free Software Foundation; either version 2, or (at your option)
  11:d:/software/ovi_2503a_s3trc/ovi_2503a_s3trc/Tools/MinGW/include/c++/3.3.1/new **** // any later version.
  12:d:/software/ovi_2503a_s3trc/ovi_2503a_s3trc/Tools/MinGW/include/c++/3.3.1/new **** // 
  13:d:/software/ovi_2503a_s3trc/ovi_2503a_s3trc/Tools/MinGW/include/c++/3.3.1/new **** // GNU CC is distributed in the hope that it will be useful,
  14:d:/software/ovi_2503a_s3trc/ovi_2503a_s3trc/Tools/MinGW/include/c++/3.3.1/new **** // but WITHOUT ANY WARRANTY; without even the implied warranty of
  15:d:/software/ovi_2503a_s3trc/ovi_2503a_s3trc/Tools/MinGW/include/c++/3.3.1/new **** // MERCHANTABILITY or FITNESS FOR A PARTICULAR PURPOSE.  See the
GAS LISTING d:/software/ovi_2503a_s3trc/ovi_2503a_s3trc/plutommi/Customer/ResGenerator/gcctmp/ccuadaaa.s 			page 152


  16:d:/software/ovi_2503a_s3trc/ovi_2503a_s3trc/Tools/MinGW/include/c++/3.3.1/new **** // GNU General Public License for more details.
  17:d:/software/ovi_2503a_s3trc/ovi_2503a_s3trc/Tools/MinGW/include/c++/3.3.1/new **** // 
  18:d:/software/ovi_2503a_s3trc/ovi_2503a_s3trc/Tools/MinGW/include/c++/3.3.1/new **** // You should have received a copy of the GNU General Public License
  19:d:/software/ovi_2503a_s3trc/ovi_2503a_s3trc/Tools/MinGW/include/c++/3.3.1/new **** // along with GNU CC; see the file COPYING.  If not, write to
  20:d:/software/ovi_2503a_s3trc/ovi_2503a_s3trc/Tools/MinGW/include/c++/3.3.1/new **** // the Free Software Foundation, 59 Temple Place - Suite 330,
  21:d:/software/ovi_2503a_s3trc/ovi_2503a_s3trc/Tools/MinGW/include/c++/3.3.1/new **** // Boston, MA 02111-1307, USA.
  22:d:/software/ovi_2503a_s3trc/ovi_2503a_s3trc/Tools/MinGW/include/c++/3.3.1/new **** 
  23:d:/software/ovi_2503a_s3trc/ovi_2503a_s3trc/Tools/MinGW/include/c++/3.3.1/new **** // As a special exception, you may use this file as part of a free software
  24:d:/software/ovi_2503a_s3trc/ovi_2503a_s3trc/Tools/MinGW/include/c++/3.3.1/new **** // library without restriction.  Specifically, if other files instantiate
  25:d:/software/ovi_2503a_s3trc/ovi_2503a_s3trc/Tools/MinGW/include/c++/3.3.1/new **** // templates or use macros or inline functions from this file, or you compile
  26:d:/software/ovi_2503a_s3trc/ovi_2503a_s3trc/Tools/MinGW/include/c++/3.3.1/new **** // this file and link it with other files to produce an executable, this
  27:d:/software/ovi_2503a_s3trc/ovi_2503a_s3trc/Tools/MinGW/include/c++/3.3.1/new **** // file does not by itself cause the resulting executable to be covered by
  28:d:/software/ovi_2503a_s3trc/ovi_2503a_s3trc/Tools/MinGW/include/c++/3.3.1/new **** // the GNU General Public License.  This exception does not however
  29:d:/software/ovi_2503a_s3trc/ovi_2503a_s3trc/Tools/MinGW/include/c++/3.3.1/new **** // invalidate any other reasons why the executable file might be covered by
  30:d:/software/ovi_2503a_s3trc/ovi_2503a_s3trc/Tools/MinGW/include/c++/3.3.1/new **** // the GNU General Public License.
  31:d:/software/ovi_2503a_s3trc/ovi_2503a_s3trc/Tools/MinGW/include/c++/3.3.1/new **** 
  32:d:/software/ovi_2503a_s3trc/ovi_2503a_s3trc/Tools/MinGW/include/c++/3.3.1/new **** /** @file new
  33:d:/software/ovi_2503a_s3trc/ovi_2503a_s3trc/Tools/MinGW/include/c++/3.3.1/new ****  *  The header @c new defines several functions to manage dynamic memory and
  34:d:/software/ovi_2503a_s3trc/ovi_2503a_s3trc/Tools/MinGW/include/c++/3.3.1/new ****  *  handling memory allocation errors; see
  35:d:/software/ovi_2503a_s3trc/ovi_2503a_s3trc/Tools/MinGW/include/c++/3.3.1/new ****  *  http://gcc.gnu.org/onlinedocs/libstdc++/18_support/howto.html#4 for more.
  36:d:/software/ovi_2503a_s3trc/ovi_2503a_s3trc/Tools/MinGW/include/c++/3.3.1/new ****  */
  37:d:/software/ovi_2503a_s3trc/ovi_2503a_s3trc/Tools/MinGW/include/c++/3.3.1/new **** 
  38:d:/software/ovi_2503a_s3trc/ovi_2503a_s3trc/Tools/MinGW/include/c++/3.3.1/new **** #ifndef __NEW__
  39:d:/software/ovi_2503a_s3trc/ovi_2503a_s3trc/Tools/MinGW/include/c++/3.3.1/new **** #define __NEW__
  40:d:/software/ovi_2503a_s3trc/ovi_2503a_s3trc/Tools/MinGW/include/c++/3.3.1/new **** 
  41:d:/software/ovi_2503a_s3trc/ovi_2503a_s3trc/Tools/MinGW/include/c++/3.3.1/new **** #include <cstddef>
  42:d:/software/ovi_2503a_s3trc/ovi_2503a_s3trc/Tools/MinGW/include/c++/3.3.1/new **** #include <exception>
  43:d:/software/ovi_2503a_s3trc/ovi_2503a_s3trc/Tools/MinGW/include/c++/3.3.1/new **** 
  44:d:/software/ovi_2503a_s3trc/ovi_2503a_s3trc/Tools/MinGW/include/c++/3.3.1/new **** extern "C++" {
  45:d:/software/ovi_2503a_s3trc/ovi_2503a_s3trc/Tools/MinGW/include/c++/3.3.1/new **** 
  46:d:/software/ovi_2503a_s3trc/ovi_2503a_s3trc/Tools/MinGW/include/c++/3.3.1/new **** namespace std 
  47:d:/software/ovi_2503a_s3trc/ovi_2503a_s3trc/Tools/MinGW/include/c++/3.3.1/new **** {
  48:d:/software/ovi_2503a_s3trc/ovi_2503a_s3trc/Tools/MinGW/include/c++/3.3.1/new ****   /**
  49:d:/software/ovi_2503a_s3trc/ovi_2503a_s3trc/Tools/MinGW/include/c++/3.3.1/new ****    *  @brief  Exception possibly thrown by @c new.
  50:d:/software/ovi_2503a_s3trc/ovi_2503a_s3trc/Tools/MinGW/include/c++/3.3.1/new ****    *
  51:d:/software/ovi_2503a_s3trc/ovi_2503a_s3trc/Tools/MinGW/include/c++/3.3.1/new ****    *  @c bad_alloc (or classes derived from it) is used to report allocation
  52:d:/software/ovi_2503a_s3trc/ovi_2503a_s3trc/Tools/MinGW/include/c++/3.3.1/new ****    *  errors from the throwing forms of @c new.  */
  53:d:/software/ovi_2503a_s3trc/ovi_2503a_s3trc/Tools/MinGW/include/c++/3.3.1/new ****   class bad_alloc : public exception 
  54:d:/software/ovi_2503a_s3trc/ovi_2503a_s3trc/Tools/MinGW/include/c++/3.3.1/new ****   {
  55:d:/software/ovi_2503a_s3trc/ovi_2503a_s3trc/Tools/MinGW/include/c++/3.3.1/new ****   public:
  56:d:/software/ovi_2503a_s3trc/ovi_2503a_s3trc/Tools/MinGW/include/c++/3.3.1/new ****     bad_alloc() throw() { }
  57:d:/software/ovi_2503a_s3trc/ovi_2503a_s3trc/Tools/MinGW/include/c++/3.3.1/new ****     // This declaration is not useless:
  58:d:/software/ovi_2503a_s3trc/ovi_2503a_s3trc/Tools/MinGW/include/c++/3.3.1/new ****     // http://gcc.gnu.org/onlinedocs/gcc-3.0.2/gcc_6.html#SEC118
  59:d:/software/ovi_2503a_s3trc/ovi_2503a_s3trc/Tools/MinGW/include/c++/3.3.1/new ****     virtual ~bad_alloc() throw();
  60:d:/software/ovi_2503a_s3trc/ovi_2503a_s3trc/Tools/MinGW/include/c++/3.3.1/new ****   };
  61:d:/software/ovi_2503a_s3trc/ovi_2503a_s3trc/Tools/MinGW/include/c++/3.3.1/new **** 
  62:d:/software/ovi_2503a_s3trc/ovi_2503a_s3trc/Tools/MinGW/include/c++/3.3.1/new ****   struct nothrow_t { };
  63:d:/software/ovi_2503a_s3trc/ovi_2503a_s3trc/Tools/MinGW/include/c++/3.3.1/new ****   extern const nothrow_t nothrow;
  64:d:/software/ovi_2503a_s3trc/ovi_2503a_s3trc/Tools/MinGW/include/c++/3.3.1/new ****   /** If you write your own error handler to be called by @c new, it must
  65:d:/software/ovi_2503a_s3trc/ovi_2503a_s3trc/Tools/MinGW/include/c++/3.3.1/new ****    *  be of this type.  */
  66:d:/software/ovi_2503a_s3trc/ovi_2503a_s3trc/Tools/MinGW/include/c++/3.3.1/new ****   typedef void (*new_handler)();
  67:d:/software/ovi_2503a_s3trc/ovi_2503a_s3trc/Tools/MinGW/include/c++/3.3.1/new ****   /// Takes a replacement handler as the argument, returns the previous handler.
  68:d:/software/ovi_2503a_s3trc/ovi_2503a_s3trc/Tools/MinGW/include/c++/3.3.1/new ****   new_handler set_new_handler(new_handler) throw();
  69:d:/software/ovi_2503a_s3trc/ovi_2503a_s3trc/Tools/MinGW/include/c++/3.3.1/new **** } // namespace std
  70:d:/software/ovi_2503a_s3trc/ovi_2503a_s3trc/Tools/MinGW/include/c++/3.3.1/new **** 
  71:d:/software/ovi_2503a_s3trc/ovi_2503a_s3trc/Tools/MinGW/include/c++/3.3.1/new **** //@{
  72:d:/software/ovi_2503a_s3trc/ovi_2503a_s3trc/Tools/MinGW/include/c++/3.3.1/new **** /** These are replaceable signatures:
GAS LISTING d:/software/ovi_2503a_s3trc/ovi_2503a_s3trc/plutommi/Customer/ResGenerator/gcctmp/ccuadaaa.s 			page 153


  73:d:/software/ovi_2503a_s3trc/ovi_2503a_s3trc/Tools/MinGW/include/c++/3.3.1/new ****  *  - normal single new and delete (no arguments, throw @c bad_alloc on error)
  74:d:/software/ovi_2503a_s3trc/ovi_2503a_s3trc/Tools/MinGW/include/c++/3.3.1/new ****  *  - normal array new and delete (same)
  75:d:/software/ovi_2503a_s3trc/ovi_2503a_s3trc/Tools/MinGW/include/c++/3.3.1/new ****  *  - @c nothrow single new and delete (take a @c nothrow argument, return
  76:d:/software/ovi_2503a_s3trc/ovi_2503a_s3trc/Tools/MinGW/include/c++/3.3.1/new ****  *    @c NULL on error)
  77:d:/software/ovi_2503a_s3trc/ovi_2503a_s3trc/Tools/MinGW/include/c++/3.3.1/new ****  *  - @c nothrow array new and delete (same)
  78:d:/software/ovi_2503a_s3trc/ovi_2503a_s3trc/Tools/MinGW/include/c++/3.3.1/new ****  *
  79:d:/software/ovi_2503a_s3trc/ovi_2503a_s3trc/Tools/MinGW/include/c++/3.3.1/new ****  *  Placement new and delete signatures (take a memory address argument,
  80:d:/software/ovi_2503a_s3trc/ovi_2503a_s3trc/Tools/MinGW/include/c++/3.3.1/new ****  *  does nothing) may not be replaced by a user's program.
  81:d:/software/ovi_2503a_s3trc/ovi_2503a_s3trc/Tools/MinGW/include/c++/3.3.1/new **** */
  82:d:/software/ovi_2503a_s3trc/ovi_2503a_s3trc/Tools/MinGW/include/c++/3.3.1/new **** void* operator new(std::size_t) throw (std::bad_alloc);
  83:d:/software/ovi_2503a_s3trc/ovi_2503a_s3trc/Tools/MinGW/include/c++/3.3.1/new **** void* operator new[](std::size_t) throw (std::bad_alloc);
  84:d:/software/ovi_2503a_s3trc/ovi_2503a_s3trc/Tools/MinGW/include/c++/3.3.1/new **** void operator delete(void*) throw();
  85:d:/software/ovi_2503a_s3trc/ovi_2503a_s3trc/Tools/MinGW/include/c++/3.3.1/new **** void operator delete[](void*) throw();
  86:d:/software/ovi_2503a_s3trc/ovi_2503a_s3trc/Tools/MinGW/include/c++/3.3.1/new **** void* operator new(std::size_t, const std::nothrow_t&) throw();
  87:d:/software/ovi_2503a_s3trc/ovi_2503a_s3trc/Tools/MinGW/include/c++/3.3.1/new **** void* operator new[](std::size_t, const std::nothrow_t&) throw();
  88:d:/software/ovi_2503a_s3trc/ovi_2503a_s3trc/Tools/MinGW/include/c++/3.3.1/new **** void operator delete(void*, const std::nothrow_t&) throw();
  89:d:/software/ovi_2503a_s3trc/ovi_2503a_s3trc/Tools/MinGW/include/c++/3.3.1/new **** void operator delete[](void*, const std::nothrow_t&) throw();
  90:d:/software/ovi_2503a_s3trc/ovi_2503a_s3trc/Tools/MinGW/include/c++/3.3.1/new **** 
  91:d:/software/ovi_2503a_s3trc/ovi_2503a_s3trc/Tools/MinGW/include/c++/3.3.1/new **** // Default placement versions of operator new.
  92:d:/software/ovi_2503a_s3trc/ovi_2503a_s3trc/Tools/MinGW/include/c++/3.3.1/new **** inline void* operator new(std::size_t, void* __p) throw() { return __p; }
 8446              	LM437:
 8447 0000 55       		pushl	%ebp
 8448 0001 89E5     		movl	%esp, %ebp
 8450              	LM438:
 8451              	LBB101:
 8452 0003 8B450C   		movl	12(%ebp), %eax
 8453              	L369:
 8454              	L368:
 8455 0006 5D       		popl	%ebp
 8456 0007 C3       		ret
 8457              	LBE101:
 8458              	Lscope78:
 8460              		.section	.text$_ZdlPvS_,"x"
 8461              		.linkonce discard
 8462              		.align 2
 8464              	.globl __ZdlPvS_
 8466              	__ZdlPvS_:
  93:d:/software/ovi_2503a_s3trc/ovi_2503a_s3trc/Tools/MinGW/include/c++/3.3.1/new **** inline void* operator new[](std::size_t, void* __p) throw() { return __p; }
  94:d:/software/ovi_2503a_s3trc/ovi_2503a_s3trc/Tools/MinGW/include/c++/3.3.1/new **** 
  95:d:/software/ovi_2503a_s3trc/ovi_2503a_s3trc/Tools/MinGW/include/c++/3.3.1/new **** // Default placement versions of operator delete.
  96:d:/software/ovi_2503a_s3trc/ovi_2503a_s3trc/Tools/MinGW/include/c++/3.3.1/new **** inline void  operator delete  (void*, void*) throw() { };
 8468              	LM439:
 8469              	L372:
 8470              	L371:
 8471 0000 55       		pushl	%ebp
 8472 0001 89E5     		movl	%esp, %ebp
 8474              	LM440:
 8475 0003 5D       		popl	%ebp
 8476 0004 C3       		ret
 8477              	Lscope79:
 8479 0005 909090   		.section	.text$_ZN10ThreadPool10IRunObjectD2Ev,"x"
 8480              		.linkonce discard
 8481              		.align 2
 8484              	.globl __ZN10ThreadPool10IRunObjectD2Ev
 8486              	__ZN10ThreadPool10IRunObjectD2Ev:
 8488              	Ltext36:
 8490              	LM441:
GAS LISTING d:/software/ovi_2503a_s3trc/ovi_2503a_s3trc/plutommi/Customer/ResGenerator/gcctmp/ccuadaaa.s 			page 154


 8491 0000 55       		pushl	%ebp
 8492 0001 89E5     		movl	%esp, %ebp
 8493 0003 83EC08   		subl	$8, %esp
 8495              	LM442:
 8496              	LBB102:
 8497 0006 8B4508   		movl	8(%ebp), %eax
 8498 0009 C7000800 		movl	$__ZTVN10ThreadPool10IRunObjectE+8, (%eax)
 8498      0000
 8499              	LBE102:
 8500 000f B8010000 		movl	$1, %eax
 8500      00
 8501 0014 83E000   		andl	$0, %eax
 8502 0017 84C0     		testb	%al, %al
 8503 0019 740B     		je	L374
 8504 001b 8B4508   		movl	8(%ebp), %eax
 8505 001e 890424   		movl	%eax, (%esp)
 8506 0021 E8000000 		call	__ZdlPv
 8506      00
 8507              	L374:
 8508 0026 C9       		leave
 8509 0027 C3       		ret
 8510              	Lscope80:
 8512              		.section	.text$_ZN10ThreadPool10IRunObjectD1Ev,"x"
 8513              		.linkonce discard
 8514              		.align 2
 8517              	.globl __ZN10ThreadPool10IRunObjectD1Ev
 8519              	__ZN10ThreadPool10IRunObjectD1Ev:
 8521              	LM443:
 8522 0000 55       		pushl	%ebp
 8523 0001 89E5     		movl	%esp, %ebp
 8524 0003 83EC08   		subl	$8, %esp
 8526              	LM444:
 8527              	LBB103:
 8528 0006 8B4508   		movl	8(%ebp), %eax
 8529 0009 C7000800 		movl	$__ZTVN10ThreadPool10IRunObjectE+8, (%eax)
 8529      0000
 8530              	LBE103:
 8531 000f B8010000 		movl	$1, %eax
 8531      00
 8532 0014 83E002   		andl	$2, %eax
 8533 0017 84C0     		testb	%al, %al
 8534 0019 740B     		je	L378
 8535 001b 8B4508   		movl	8(%ebp), %eax
 8536 001e 890424   		movl	%eax, (%esp)
 8537 0021 E8000000 		call	__ZdlPv
 8537      00
 8538              	L378:
 8539 0026 C9       		leave
 8540 0027 C3       		ret
 8541              	Lscope81:
 8543              		.section	.text$_ZN10ThreadPool10IRunObjectD0Ev,"x"
 8544              		.linkonce discard
 8545              		.align 2
 8548              	.globl __ZN10ThreadPool10IRunObjectD0Ev
 8550              	__ZN10ThreadPool10IRunObjectD0Ev:
 8552              	LM445:
 8553 0000 55       		pushl	%ebp
GAS LISTING d:/software/ovi_2503a_s3trc/ovi_2503a_s3trc/plutommi/Customer/ResGenerator/gcctmp/ccuadaaa.s 			page 155


 8554 0001 89E5     		movl	%esp, %ebp
 8555 0003 83EC08   		subl	$8, %esp
 8557              	LM446:
 8558              	LBB104:
 8559 0006 8B4508   		movl	8(%ebp), %eax
 8560 0009 C7000800 		movl	$__ZTVN10ThreadPool10IRunObjectE+8, (%eax)
 8560      0000
 8561              	LBE104:
 8562 000f B8010000 		movl	$1, %eax
 8562      00
 8563 0014 83E003   		andl	$3, %eax
 8564 0017 84C0     		testb	%al, %al
 8565 0019 740B     		je	L382
 8566 001b 8B4508   		movl	8(%ebp), %eax
 8567 001e 890424   		movl	%eax, (%esp)
 8568 0021 E8000000 		call	__ZdlPv
 8568      00
 8569              	L382:
 8570 0026 C9       		leave
 8571 0027 C3       		ret
 8572              	Lscope82:
 8574              		.section	.text$_ZN16ProcessImageDataC1ERKS_,"x"
 8575              		.linkonce discard
 8576              		.align 2
 8580              	.globl __ZN16ProcessImageDataC1ERKS_
 8582              	__ZN16ProcessImageDataC1ERKS_:
 8584              	Ltext37:
 8586              	LM447:
 8587 0000 55       		pushl	%ebp
 8588 0001 89E5     		movl	%esp, %ebp
 8589 0003 57       		pushl	%edi
 8590 0004 56       		pushl	%esi
 8591 0005 53       		pushl	%ebx
 8592 0006 83EC5C   		subl	$92, %esp
 8593 0009 C745E000 		movl	$___gxx_personality_sj0, -32(%ebp)
 8593      000000
 8594 0010 C745E462 		movl	$LLSDA2401, -28(%ebp)
 8594      000000
 8595 0017 8D45E8   		leal	-24(%ebp), %eax
 8596 001a 8D55F4   		leal	-12(%ebp), %edx
 8597 001d 8910     		movl	%edx, (%eax)
 8598 001f BA450100 		movl	$L400, %edx
 8598      00
 8599 0024 895004   		movl	%edx, 4(%eax)
 8600 0027 896008   		movl	%esp, 8(%eax)
 8601 002a 8D45C8   		leal	-56(%ebp), %eax
 8602 002d 890424   		movl	%eax, (%esp)
 8603 0030 E8000000 		call	__Unwind_SjLj_Register
 8603      00
 8605              	LM448:
 8606 0035 8B4508   		movl	8(%ebp), %eax
 8607              	LBB105:
 8608 0038 83C004   		addl	$4, %eax
 8609 003b 890424   		movl	%eax, (%esp)
 8610 003e E8000000 		call	__ZNSsC1Ev
 8610      00
 8611 0043 8B4508   		movl	8(%ebp), %eax
GAS LISTING d:/software/ovi_2503a_s3trc/ovi_2503a_s3trc/plutommi/Customer/ResGenerator/gcctmp/ccuadaaa.s 			page 156


 8612 0046 83C008   		addl	$8, %eax
 8613 0049 890424   		movl	%eax, (%esp)
 8614 004c E8000000 		call	__ZNSsC1Ev
 8614      00
 8615 0051 8B4508   		movl	8(%ebp), %eax
 8616 0054 05300200 		addl	$560, %eax
 8616      00
 8617 0059 890424   		movl	%eax, (%esp)
 8618 005c E8000000 		call	__ZN21_ResgenImageOutStreamC1Ev
 8618      00
 8620              	LM449:
 8621 0061 8B5508   		movl	8(%ebp), %edx
 8622 0064 8B450C   		movl	12(%ebp), %eax
 8623 0067 0FB700   		movzwl	(%eax), %eax
 8624 006a 668902   		movw	%ax, (%edx)
 8626              	LM450:
 8627 006d 8B450C   		movl	12(%ebp), %eax
 8628 0070 83C004   		addl	$4, %eax
 8629 0073 89442404 		movl	%eax, 4(%esp)
 8630 0077 8B4508   		movl	8(%ebp), %eax
 8631 007a 83C004   		addl	$4, %eax
 8632 007d 890424   		movl	%eax, (%esp)
 8633 0080 C745CC01 		movl	$1, -52(%ebp)
 8633      000000
 8634 0087 E8000000 		call	__ZNSsaSERKSs
 8634      00
 8636              	LM451:
 8637 008c 8B450C   		movl	12(%ebp), %eax
 8638 008f 83C008   		addl	$8, %eax
 8639 0092 89442404 		movl	%eax, 4(%esp)
 8640 0096 8B4508   		movl	8(%ebp), %eax
 8641 0099 83C008   		addl	$8, %eax
 8642 009c 890424   		movl	%eax, (%esp)
 8643 009f E8000000 		call	__ZNSsaSERKSs
 8643      00
 8645              	LM452:
 8646 00a4 8B5508   		movl	8(%ebp), %edx
 8647 00a7 8B450C   		movl	12(%ebp), %eax
 8648 00aa 8B400C   		movl	12(%eax), %eax
 8649 00ad 89420C   		movl	%eax, 12(%edx)
 8651              	LM453:
 8652 00b0 8B5508   		movl	8(%ebp), %edx
 8653 00b3 8B450C   		movl	12(%ebp), %eax
 8654 00b6 8B4010   		movl	16(%eax), %eax
 8655 00b9 894210   		movl	%eax, 16(%edx)
 8657              	LM454:
 8658 00bc 8B4508   		movl	8(%ebp), %eax
 8659 00bf 83C014   		addl	$20, %eax
 8660 00c2 8B550C   		movl	12(%ebp), %edx
 8661 00c5 83C214   		addl	$20, %edx
 8662 00c8 8945C4   		movl	%eax, -60(%ebp)
 8663 00cb 8955C0   		movl	%edx, -64(%ebp)
 8664 00ce C745BC1C 		movl	$540, -68(%ebp)
 8664      020000
 8665 00d5 8B45C4   		movl	-60(%ebp), %eax
 8666 00d8 83E004   		andl	$4, %eax
 8667 00db 85C0     		testl	%eax, %eax
GAS LISTING d:/software/ovi_2503a_s3trc/ovi_2503a_s3trc/plutommi/Customer/ResGenerator/gcctmp/ccuadaaa.s 			page 157


 8668 00dd 7416     		je	L387
 8669 00df 8B75C0   		movl	-64(%ebp), %esi
 8670 00e2 8B06     		movl	(%esi), %eax
 8671 00e4 8B7DC4   		movl	-60(%ebp), %edi
 8672 00e7 8907     		movl	%eax, (%edi)
 8673 00e9 8345C404 		addl	$4, -60(%ebp)
 8674 00ed 8345C004 		addl	$4, -64(%ebp)
 8675 00f1 836DBC04 		subl	$4, -68(%ebp)
 8676              	L387:
 8677 00f5 FC       		cld
 8678 00f6 8B4DBC   		movl	-68(%ebp), %ecx
 8679 00f9 C1E902   		shrl	$2, %ecx
 8680 00fc 8B7DC4   		movl	-60(%ebp), %edi
 8681 00ff 8B75C0   		movl	-64(%ebp), %esi
 8682 0102 F3       		rep
 8683 0103 A5       		movsl
 8685              	LM455:
 8686 0104 8B4D08   		movl	8(%ebp), %ecx
 8687 0107 81C13002 		addl	$560, %ecx
 8687      0000
 8688 010d 8B550C   		movl	12(%ebp), %edx
 8689 0110 81C23002 		addl	$560, %edx
 8689      0000
 8690 0116 8B02     		movl	(%edx), %eax
 8691 0118 8901     		movl	%eax, (%ecx)
 8692 011a 8B4204   		movl	4(%edx), %eax
 8693 011d 894104   		movl	%eax, 4(%ecx)
 8695              	LM456:
 8696 0120 8B5508   		movl	8(%ebp), %edx
 8697 0123 8B4508   		movl	8(%ebp), %eax
 8698 0126 05300200 		addl	$560, %eax
 8698      00
 8699 012b 89821802 		movl	%eax, 536(%edx)
 8699      0000
 8701              	LM457:
 8702 0131 8B5508   		movl	8(%ebp), %edx
 8703 0134 8B450C   		movl	12(%ebp), %eax
 8704 0137 8B802802 		movl	552(%eax), %eax
 8704      0000
 8705 013d 89822802 		movl	%eax, 552(%edx)
 8705      0000
 8706 0143 EB6B     		jmp	L386
 8707              	L400:
 8708 0145 8D6D0C   		leal	12(%ebp), %ebp
 8709 0148 8B45D0   		movl	-48(%ebp), %eax
 8710 014b 8945B4   		movl	%eax, -76(%ebp)
 8711              	L388:
 8712 014e 8B55B4   		movl	-76(%ebp), %edx
 8713 0151 8955B8   		movl	%edx, -72(%ebp)
 8714 0154 8B4508   		movl	8(%ebp), %eax
 8715 0157 05300200 		addl	$560, %eax
 8715      00
 8716 015c 890424   		movl	%eax, (%esp)
 8717 015f E8000000 		call	__ZN21_ResgenImageOutStreamD1Ev
 8717      00
 8718 0164 8B75B8   		movl	-72(%ebp), %esi
 8719 0167 8975B4   		movl	%esi, -76(%ebp)
GAS LISTING d:/software/ovi_2503a_s3trc/ovi_2503a_s3trc/plutommi/Customer/ResGenerator/gcctmp/ccuadaaa.s 			page 158


 8720              	L390:
 8721              	L392:
 8722 016a 8B7DB4   		movl	-76(%ebp), %edi
 8723 016d 897DB0   		movl	%edi, -80(%ebp)
 8724 0170 8B4508   		movl	8(%ebp), %eax
 8725 0173 83C008   		addl	$8, %eax
 8726 0176 890424   		movl	%eax, (%esp)
 8727 0179 E8000000 		call	__ZNSsD1Ev
 8727      00
 8728 017e 8B45B0   		movl	-80(%ebp), %eax
 8729 0181 8945B4   		movl	%eax, -76(%ebp)
 8730              	L394:
 8731              	L396:
 8732 0184 8B55B4   		movl	-76(%ebp), %edx
 8733 0187 8955AC   		movl	%edx, -84(%ebp)
 8734 018a 8B4508   		movl	8(%ebp), %eax
 8735 018d 83C004   		addl	$4, %eax
 8736 0190 890424   		movl	%eax, (%esp)
 8737 0193 E8000000 		call	__ZNSsD1Ev
 8737      00
 8738 0198 8B75AC   		movl	-84(%ebp), %esi
 8739 019b 8975B4   		movl	%esi, -76(%ebp)
 8740              	L398:
 8741 019e 8B7DB4   		movl	-76(%ebp), %edi
 8742 01a1 893C24   		movl	%edi, (%esp)
 8743 01a4 C745CCFF 		movl	$-1, -52(%ebp)
 8743      FFFFFF
 8744 01ab E8000000 		call	__Unwind_SjLj_Resume
 8744      00
 8746              	LM458:
 8747              	L386:
 8748 01b0 8D45C8   		leal	-56(%ebp), %eax
 8749 01b3 890424   		movl	%eax, (%esp)
 8750 01b6 E8000000 		call	__Unwind_SjLj_Unregister
 8750      00
 8751 01bb 83C45C   		addl	$92, %esp
 8752 01be 5B       		popl	%ebx
 8753 01bf 5E       		popl	%esi
 8754 01c0 5F       		popl	%edi
 8755 01c1 5D       		popl	%ebp
 8756 01c2 C3       		ret
 8757              	LBE105:
 8758              		.section	.gcc_except_table,""
 8759              	LLSDA2401:
 8760 0062 FF       		.byte	0xff
 8761 0063 FF       		.byte	0xff
 8762 0064 01       		.byte	0x1
 8763 0065 02       		.uleb128 LLSDACSE2401-LLSDACSB2401
 8764              	LLSDACSB2401:
 8765 0066 00       		.uleb128 0x0
 8766 0067 00       		.uleb128 0x0
 8767              	LLSDACSE2401:
 8768              		.section	.text$_ZN16ProcessImageDataC1ERKS_,"x"
 8769              		.linkonce discard
 8770              	Lscope83:
 8772 01c3 90       		.section	.text$_ZN13LogBinaryDataC1ERKS_,"x"
 8773              		.linkonce discard
GAS LISTING d:/software/ovi_2503a_s3trc/ovi_2503a_s3trc/plutommi/Customer/ResGenerator/gcctmp/ccuadaaa.s 			page 159


 8774              		.align 2
 8778              	.globl __ZN13LogBinaryDataC1ERKS_
 8780              	__ZN13LogBinaryDataC1ERKS_:
 8782              	Ltext38:
 8784              	LM459:
 8785 0000 55       		pushl	%ebp
 8786 0001 89E5     		movl	%esp, %ebp
 8787 0003 83EC08   		subl	$8, %esp
 8789              	LM460:
 8790              	LBB106:
 8791 0006 8B5508   		movl	8(%ebp), %edx
 8792 0009 8B450C   		movl	12(%ebp), %eax
 8793 000c 0FB700   		movzwl	(%eax), %eax
 8794 000f 668902   		movw	%ax, (%edx)
 8795 0012 8B450C   		movl	12(%ebp), %eax
 8796 0015 83C004   		addl	$4, %eax
 8797 0018 89442404 		movl	%eax, 4(%esp)
 8798 001c 8B4508   		movl	8(%ebp), %eax
 8799 001f 83C004   		addl	$4, %eax
 8800 0022 890424   		movl	%eax, (%esp)
 8801 0025 E8000000 		call	__ZNSsC1ERKSs
 8801      00
 8802 002a 8B5508   		movl	8(%ebp), %edx
 8803 002d 8B450C   		movl	12(%ebp), %eax
 8804 0030 8B4008   		movl	8(%eax), %eax
 8805 0033 894208   		movl	%eax, 8(%edx)
 8806 0036 C9       		leave
 8807 0037 C3       		ret
 8808              	L402:
 8809              	L401:
 8810              	LBE106:
 8811              	Lscope84:
 8813              		.section	.text$_ZSt8_DestroyI13LogBinaryDataEvPT_,"x"
 8814              		.linkonce discard
 8815              		.align 2
 8818              	.globl __ZSt8_DestroyI13LogBinaryDataEvPT_
 8820              	__ZSt8_DestroyI13LogBinaryDataEvPT_:
 8822              	LM461:
 8823 0000 55       		pushl	%ebp
 8824 0001 89E5     		movl	%esp, %ebp
 8825 0003 83EC08   		subl	$8, %esp
 8827              	LM462:
 8828              	LBB107:
 8829 0006 8B4508   		movl	8(%ebp), %eax
 8830 0009 890424   		movl	%eax, (%esp)
 8831 000c E8000000 		call	__ZN13LogBinaryDataD1Ev
 8831      00
 8832 0011 C9       		leave
 8833 0012 C3       		ret
 8834              	LBE107:
 8835              	Lscope85:
 8837              	.globl __ZTIN10ThreadPool10IRunObjectE
 8838 0013 90       		.section	.rdata$_ZTIN10ThreadPool10IRunObjectE,""
 8839              		.linkonce same_size
 8840              		.align 4
 8841              	__ZTIN10ThreadPool10IRunObjectE:
 8842 0000 08000000 		.long	__ZTVN10__cxxabiv117__class_type_infoE+8
GAS LISTING d:/software/ovi_2503a_s3trc/ovi_2503a_s3trc/plutommi/Customer/ResGenerator/gcctmp/ccuadaaa.s 			page 160


 8843 0004 00000000 		.long	__ZTSN10ThreadPool10IRunObjectE
 8844              	.globl __ZTSN10ThreadPool10IRunObjectE
 8845              		.section	.rdata$_ZTSN10ThreadPool10IRunObjectE,""
 8846              		.linkonce same_size
 8847              	__ZTSN10ThreadPool10IRunObjectE:
 8848 0000 4E313054 		.ascii "N10ThreadPool10IRunObjectE\0"
 8848      68726561 
 8848      64506F6F 
 8848      6C313049 
 8848      52756E4F 
 8849 001b 00       		.text
 8850              		.align 2
 8853              	__GLOBAL__I_initImageProcessData:
 8855              	Ltext39:
 8857              	LM463:
 8858 2548 55       		pushl	%ebp
 8859 2549 89E5     		movl	%esp, %ebp
 8860 254b 83EC08   		subl	$8, %esp
 8862              	LM464:
 8863 254e C7442404 		movl	$65535, 4(%esp)
 8863      FFFF0000 
 8864 2556 C7042401 		movl	$1, (%esp)
 8864      000000
 8865 255d E818FDFF 		call	__Z41__static_initialization_and_destruction_0ii
 8865      FF
 8866 2562 C9       		leave
 8867 2563 C3       		ret
 8868              	Lscope86:
 8870              		.section	.ctors,"w"
 8871              		.align 4
 8872 0000 48250000 		.long	__GLOBAL__I_initImageProcessData
 8873              		.text
 8874              		.align 2
 8877              	__GLOBAL__D_initImageProcessData:
 8879              	LM465:
 8880 2564 55       		pushl	%ebp
 8881 2565 89E5     		movl	%esp, %ebp
 8882 2567 83EC08   		subl	$8, %esp
 8884              	LM466:
 8885 256a C7442404 		movl	$65535, 4(%esp)
 8885      FFFF0000 
 8886 2572 C7042400 		movl	$0, (%esp)
 8886      000000
 8887 2579 E8FCFCFF 		call	__Z41__static_initialization_and_destruction_0ii
 8887      FF
 8888 257e C9       		leave
 8889 257f C3       		ret
 8890              	Lscope87:
 8892              		.section	.dtors,"w"
 8893              		.align 4
 8894 0000 64250000 		.long	__GLOBAL__D_initImageProcessData
 8904              		.text
 8906              	Letext:
GAS LISTING d:/software/ovi_2503a_s3trc/ovi_2503a_s3trc/plutommi/Customer/ResGenerator/gcctmp/ccuadaaa.s 			page 161


DEFINED SYMBOLS
                            *ABS*:00000000 WriteProcess.cpp
d:/software/ovi_2503a_s3trc/ovi_2503a_s3trc/plutommi/Customer/ResGenerator/gcctmp/ccuadaaa.s:2780   .bss:00000000 __ZSt8__ioinit
d:/software/ovi_2503a_s3trc/ovi_2503a_s3trc/plutommi/Customer/ResGenerator/gcctmp/ccuadaaa.s:2841   .text:0000002c _initImageProcessData
d:/software/ovi_2503a_s3trc/ovi_2503a_s3trc/plutommi/Customer/ResGenerator/gcctmp/ccuadaaa.s:2928   .text:00000264 _SetNFBImage
d:/software/ovi_2503a_s3trc/ovi_2503a_s3trc/plutommi/Customer/ResGenerator/gcctmp/ccuadaaa.s:3158   .text:0000054a _SetImage
d:/software/ovi_2503a_s3trc/ovi_2503a_s3trc/plutommi/Customer/ResGenerator/gcctmp/ccuadaaa.s:3194   .text:0000057c _SetImageWithBufferForceType
d:/software/ovi_2503a_s3trc/ovi_2503a_s3trc/plutommi/Customer/ResGenerator/gcctmp/ccuadaaa.s:3270   .text:000005ec _SetImageQWithBuffer
d:/software/ovi_2503a_s3trc/ovi_2503a_s3trc/plutommi/Customer/ResGenerator/gcctmp/ccuadaaa.s:3311   .text:0000062c _SetImageQWithBufferForceType
d:/software/ovi_2503a_s3trc/ovi_2503a_s3trc/plutommi/Customer/ResGenerator/gcctmp/ccuadaaa.s:3351   .bss:00000010 _g_resgen_png_image_list
d:/software/ovi_2503a_s3trc/ovi_2503a_s3trc/plutommi/Customer/ResGenerator/gcctmp/ccuadaaa.s:3360   .bss:00000020 _g_log_binary_data_list
d:/software/ovi_2503a_s3trc/ovi_2503a_s3trc/plutommi/Customer/ResGenerator/gcctmp/ccuadaaa.s:3365   .text:0000066a __Z13stringToUpperSs
d:/software/ovi_2503a_s3trc/ovi_2503a_s3trc/plutommi/Customer/ResGenerator/gcctmp/ccuadaaa.s:3826   .text:00000b2e __Z28ProcessResgenPngImagesMapIdsR16ProcessImageData
d:/software/ovi_2503a_s3trc/ovi_2503a_s3trc/plutommi/Customer/ResGenerator/gcctmp/ccuadaaa.s:4344   .text:00001084 __Z18getMaxThreadNumberv
d:/software/ovi_2503a_s3trc/ovi_2503a_s3trc/plutommi/Customer/ResGenerator/gcctmp/ccuadaaa.s:4438   .text:00001352 _ProcessResgenPngImages
d:/software/ovi_2503a_s3trc/ovi_2503a_s3trc/plutommi/Customer/ResGenerator/gcctmp/ccuadaaa.s:5151   .text:00001c06 _ImageOutStreamInit
d:/software/ovi_2503a_s3trc/ovi_2503a_s3trc/plutommi/Customer/ResGenerator/gcctmp/ccuadaaa.s:5187   .text:00001c32 _ImageOutStreamDeinit
d:/software/ovi_2503a_s3trc/ovi_2503a_s3trc/plutommi/Customer/ResGenerator/gcctmp/ccuadaaa.s:5224   .text:00001c66 _ImageOutStreamPrintf
d:/software/ovi_2503a_s3trc/ovi_2503a_s3trc/plutommi/Customer/ResGenerator/gcctmp/ccuadaaa.s:5414   .text:00001e18 _LogSetBinaryWithBuffer
d:/software/ovi_2503a_s3trc/ovi_2503a_s3trc/plutommi/Customer/ResGenerator/gcctmp/ccuadaaa.s:5529   .text:000021fc __Z17ProcessBinaryDatav
d:/software/ovi_2503a_s3trc/ovi_2503a_s3trc/plutommi/Customer/ResGenerator/gcctmp/ccuadaaa.s:5809   .text:0000227a __Z41__static_initialization_and_destruction_0ii
d:/software/ovi_2503a_s3trc/ovi_2503a_s3trc/plutommi/Customer/ResGenerator/gcctmp/ccuadaaa.s:7434   .rdata$_ZTV14ConvertRequest:00000000 __ZTV14ConvertRequest
d:/software/ovi_2503a_s3trc/ovi_2503a_s3trc/plutommi/Customer/ResGenerator/gcctmp/ccuadaaa.s:7334   .text:000024a0 _image_resource_info
d:/software/ovi_2503a_s3trc/ovi_2503a_s3trc/plutommi/Customer/ResGenerator/gcctmp/ccuadaaa.s:7402   .rdata$_ZNSt15basic_streambufIcSt11char_traitsIcEE13_S_pback_sizeE:00000000 __ZNSt15basic_streambufIcSt11char_traitsIcEE13_S_pback_sizeE
d:/software/ovi_2503a_s3trc/ovi_2503a_s3trc/plutommi/Customer/ResGenerator/gcctmp/ccuadaaa.s:8415   .rdata$_ZTI14ConvertRequest:00000000 __ZTI14ConvertRequest
d:/software/ovi_2503a_s3trc/ovi_2503a_s3trc/plutommi/Customer/ResGenerator/gcctmp/ccuadaaa.s:8428   .rdata$_ZTVN10ThreadPool10IRunObjectE:00000000 __ZTVN10ThreadPool10IRunObjectE
d:/software/ovi_2503a_s3trc/ovi_2503a_s3trc/plutommi/Customer/ResGenerator/gcctmp/ccuadaaa.s:8422   .rdata$_ZTS14ConvertRequest:00000000 __ZTS14ConvertRequest
d:/software/ovi_2503a_s3trc/ovi_2503a_s3trc/plutommi/Customer/ResGenerator/gcctmp/ccuadaaa.s:8841   .rdata$_ZTIN10ThreadPool10IRunObjectE:00000000 __ZTIN10ThreadPool10IRunObjectE
d:/software/ovi_2503a_s3trc/ovi_2503a_s3trc/plutommi/Customer/ResGenerator/gcctmp/ccuadaaa.s:8847   .rdata$_ZTSN10ThreadPool10IRunObjectE:00000000 __ZTSN10ThreadPool10IRunObjectE
d:/software/ovi_2503a_s3trc/ovi_2503a_s3trc/plutommi/Customer/ResGenerator/gcctmp/ccuadaaa.s:8853   .text:00002548 __GLOBAL__I_initImageProcessData
d:/software/ovi_2503a_s3trc/ovi_2503a_s3trc/plutommi/Customer/ResGenerator/gcctmp/ccuadaaa.s:8877   .text:00002564 __GLOBAL__D_initImageProcessData
d:/software/ovi_2503a_s3trc/ovi_2503a_s3trc/plutommi/Customer/ResGenerator/gcctmp/ccuadaaa.s:8550   .text$_ZN10ThreadPool10IRunObjectD0Ev:00000000 __ZN10ThreadPool10IRunObjectD0Ev
d:/software/ovi_2503a_s3trc/ovi_2503a_s3trc/plutommi/Customer/ResGenerator/gcctmp/ccuadaaa.s:8519   .text$_ZN10ThreadPool10IRunObjectD1Ev:00000000 __ZN10ThreadPool10IRunObjectD1Ev
d:/software/ovi_2503a_s3trc/ovi_2503a_s3trc/plutommi/Customer/ResGenerator/gcctmp/ccuadaaa.s:7639   .text$_ZN14ConvertRequest10AutoDeleteEv:00000000 __ZN14ConvertRequest10AutoDeleteEv
d:/software/ovi_2503a_s3trc/ovi_2503a_s3trc/plutommi/Customer/ResGenerator/gcctmp/ccuadaaa.s:7570   .text$_ZN14ConvertRequest3RunEv:00000000 __ZN14ConvertRequest3RunEv
d:/software/ovi_2503a_s3trc/ovi_2503a_s3trc/plutommi/Customer/ResGenerator/gcctmp/ccuadaaa.s:7535   .text$_ZN14ConvertRequestD1Ev:00000000 __ZN14ConvertRequestD1Ev
d:/software/ovi_2503a_s3trc/ovi_2503a_s3trc/plutommi/Customer/ResGenerator/gcctmp/ccuadaaa.s:7411   .text$_ZNSt4listI16ProcessImageDataSaIS0_EED1Ev:00000000 __ZNSt4listI16ProcessImageDataSaIS0_EED1Ev
d:/software/ovi_2503a_s3trc/ovi_2503a_s3trc/plutommi/Customer/ResGenerator/gcctmp/ccuadaaa.s:7269   .text$_ZNSt4listI13LogBinaryDataSaIS0_EED1Ev:00000000 __ZNSt4listI13LogBinaryDataSaIS0_EED1Ev
d:/software/ovi_2503a_s3trc/ovi_2503a_s3trc/plutommi/Customer/ResGenerator/gcctmp/ccuadaaa.s:8780   .text$_ZN13LogBinaryDataC1ERKS_:00000000 __ZN13LogBinaryDataC1ERKS_
d:/software/ovi_2503a_s3trc/ovi_2503a_s3trc/plutommi/Customer/ResGenerator/gcctmp/ccuadaaa.s:8466   .text$_ZdlPvS_:00000000 __ZdlPvS_
d:/software/ovi_2503a_s3trc/ovi_2503a_s3trc/plutommi/Customer/ResGenerator/gcctmp/ccuadaaa.s:8582   .text$_ZN16ProcessImageDataC1ERKS_:00000000 __ZN16ProcessImageDataC1ERKS_
d:/software/ovi_2503a_s3trc/ovi_2503a_s3trc/plutommi/Customer/ResGenerator/gcctmp/ccuadaaa.s:8442   .text$_ZnwjPv:00000000 __ZnwjPv
d:/software/ovi_2503a_s3trc/ovi_2503a_s3trc/plutommi/Customer/ResGenerator/gcctmp/ccuadaaa.s:8299   .text$_ZNSt14__simple_allocISt10_List_nodeI13LogBinaryDataESt24__default_alloc_templateILb1ELi0EEE10deallocateEPS2_j:00000000 __ZNSt14__simple_allocISt10_List_nodeI13LogBinaryDataESt24__default_alloc_templateILb1ELi0EEE10deallocateEPS2_j
d:/software/ovi_2503a_s3trc/ovi_2503a_s3trc/plutommi/Customer/ResGenerator/gcctmp/ccuadaaa.s:8820   .text$_ZSt8_DestroyI13LogBinaryDataEvPT_:00000000 __ZSt8_DestroyI13LogBinaryDataEvPT_
d:/software/ovi_2503a_s3trc/ovi_2503a_s3trc/plutommi/Customer/ResGenerator/gcctmp/ccuadaaa.s:8334   .text$_ZNSt10_List_baseI13LogBinaryDataSaIS0_EE7__clearEv:00000000 __ZNSt10_List_baseI13LogBinaryDataSaIS0_EE7__clearEv
d:/software/ovi_2503a_s3trc/ovi_2503a_s3trc/plutommi/Customer/ResGenerator/gcctmp/ccuadaaa.s:8271   .text$_ZNSt16_List_alloc_baseI13LogBinaryDataSaIS0_ELb1EE11_M_put_nodeEPSt10_List_nodeIS0_E:00000000 __ZNSt16_List_alloc_baseI13LogBinaryDataSaIS0_ELb1EE11_M_put_nodeEPSt10_List_nodeIS0_E
d:/software/ovi_2503a_s3trc/ovi_2503a_s3trc/plutommi/Customer/ResGenerator/gcctmp/ccuadaaa.s:8173   .text$_ZSt10_ConstructI13LogBinaryDataS0_EvPT_RKT0_:00000000 __ZSt10_ConstructI13LogBinaryDataS0_EvPT_RKT0_
d:/software/ovi_2503a_s3trc/ovi_2503a_s3trc/plutommi/Customer/ResGenerator/gcctmp/ccuadaaa.s:8044   .text$_ZNSt4listI13LogBinaryDataSaIS0_EE14_M_create_nodeERKS0_:00000000 __ZNSt4listI13LogBinaryDataSaIS0_EE14_M_create_nodeERKS0_
d:/software/ovi_2503a_s3trc/ovi_2503a_s3trc/plutommi/Customer/ResGenerator/gcctmp/ccuadaaa.s:7200   .text$_ZNSt4listI13LogBinaryDataSaIS0_EE6insertESt14_List_iteratorIS0_RS0_PS0_ERKS0_:00000000 __ZNSt4listI13LogBinaryDataSaIS0_EE6insertESt14_List_iteratorIS0_RS0_PS0_ERKS0_
d:/software/ovi_2503a_s3trc/ovi_2503a_s3trc/plutommi/Customer/ResGenerator/gcctmp/ccuadaaa.s:7172   .text$_ZNSt14_List_iteratorI13LogBinaryDataRS0_PS0_EC1EPSt10_List_nodeIS0_E:00000000 __ZNSt14_List_iteratorI13LogBinaryDataRS0_PS0_EC1EPSt10_List_nodeIS0_E
d:/software/ovi_2503a_s3trc/ovi_2503a_s3trc/plutommi/Customer/ResGenerator/gcctmp/ccuadaaa.s:7138   .text$_ZNSt4listI13LogBinaryDataSaIS0_EE3endEv:00000000 __ZNSt4listI13LogBinaryDataSaIS0_EE3endEv
d:/software/ovi_2503a_s3trc/ovi_2503a_s3trc/plutommi/Customer/ResGenerator/gcctmp/ccuadaaa.s:8008   .text$_ZNSt14__simple_allocISt10_List_nodeI16ProcessImageDataESt24__default_alloc_templateILb1ELi0EEE10deallocateEPS2_j:00000000 __ZNSt14__simple_allocISt10_List_nodeI16ProcessImageDataESt24__default_alloc_templateILb1ELi0EEE10deallocateEPS2_j
d:/software/ovi_2503a_s3trc/ovi_2503a_s3trc/plutommi/Customer/ResGenerator/gcctmp/ccuadaaa.s:7981   .text$_ZSt8_DestroyI16ProcessImageDataEvPT_:00000000 __ZSt8_DestroyI16ProcessImageDataEvPT_
d:/software/ovi_2503a_s3trc/ovi_2503a_s3trc/plutommi/Customer/ResGenerator/gcctmp/ccuadaaa.s:7056   .text$_ZNSt10_List_baseI16ProcessImageDataSaIS0_EE7__clearEv:00000000 __ZNSt10_List_baseI16ProcessImageDataSaIS0_EE7__clearEv
d:/software/ovi_2503a_s3trc/ovi_2503a_s3trc/plutommi/Customer/ResGenerator/gcctmp/ccuadaaa.s:7954   .text$_ZNSt16_List_alloc_baseI16ProcessImageDataSaIS0_ELb1EE11_M_put_nodeEPSt10_List_nodeIS0_E:00000000 __ZNSt16_List_alloc_baseI16ProcessImageDataSaIS0_ELb1EE11_M_put_nodeEPSt10_List_nodeIS0_E
d:/software/ovi_2503a_s3trc/ovi_2503a_s3trc/plutommi/Customer/ResGenerator/gcctmp/ccuadaaa.s:7856   .text$_ZSt10_ConstructI16ProcessImageDataS0_EvPT_RKT0_:00000000 __ZSt10_ConstructI16ProcessImageDataS0_EvPT_RKT0_
d:/software/ovi_2503a_s3trc/ovi_2503a_s3trc/plutommi/Customer/ResGenerator/gcctmp/ccuadaaa.s:7729   .text$_ZNSt4listI16ProcessImageDataSaIS0_EE14_M_create_nodeERKS0_:00000000 __ZNSt4listI16ProcessImageDataSaIS0_EE14_M_create_nodeERKS0_
GAS LISTING d:/software/ovi_2503a_s3trc/ovi_2503a_s3trc/plutommi/Customer/ResGenerator/gcctmp/ccuadaaa.s 			page 162


d:/software/ovi_2503a_s3trc/ovi_2503a_s3trc/plutommi/Customer/ResGenerator/gcctmp/ccuadaaa.s:6987   .text$_ZNSt4listI16ProcessImageDataSaIS0_EE6insertESt14_List_iteratorIS0_RS0_PS0_ERKS0_:00000000 __ZNSt4listI16ProcessImageDataSaIS0_EE6insertESt14_List_iteratorIS0_RS0_PS0_ERKS0_
d:/software/ovi_2503a_s3trc/ovi_2503a_s3trc/plutommi/Customer/ResGenerator/gcctmp/ccuadaaa.s:5979   .text$_ZNSt19_List_iterator_base7_M_incrEv:00000000 __ZNSt19_List_iterator_base7_M_incrEv
d:/software/ovi_2503a_s3trc/ovi_2503a_s3trc/plutommi/Customer/ResGenerator/gcctmp/ccuadaaa.s:7451   .text$_ZNSt19_List_iterator_baseC2EPSt15_List_node_base:00000000 __ZNSt19_List_iterator_baseC2EPSt15_List_node_base
d:/software/ovi_2503a_s3trc/ovi_2503a_s3trc/plutommi/Customer/ResGenerator/gcctmp/ccuadaaa.s:6957   .text$_ZNSt14_List_iteratorI16ProcessImageDataRS0_PS0_EC1EPSt10_List_nodeIS0_E:00000000 __ZNSt14_List_iteratorI16ProcessImageDataRS0_PS0_EC1EPSt10_List_nodeIS0_E
d:/software/ovi_2503a_s3trc/ovi_2503a_s3trc/plutommi/Customer/ResGenerator/gcctmp/ccuadaaa.s:7696   .text$_ZNSt10_List_baseI13LogBinaryDataSaIS0_EED2Ev:00000000 __ZNSt10_List_baseI13LogBinaryDataSaIS0_EED2Ev
d:/software/ovi_2503a_s3trc/ovi_2503a_s3trc/plutommi/Customer/ResGenerator/gcctmp/ccuadaaa.s:6911   .text$_ZNSt14__simple_allocISt10_List_nodeI13LogBinaryDataESt24__default_alloc_templateILb1ELi0EEE8allocateEj:00000000 __ZNSt14__simple_allocISt10_List_nodeI13LogBinaryDataESt24__default_alloc_templateILb1ELi0EEE8allocateEj
d:/software/ovi_2503a_s3trc/ovi_2503a_s3trc/plutommi/Customer/ResGenerator/gcctmp/ccuadaaa.s:6888   .text$_ZNSt16_List_alloc_baseI13LogBinaryDataSaIS0_ELb1EE11_M_get_nodeEv:00000000 __ZNSt16_List_alloc_baseI13LogBinaryDataSaIS0_ELb1EE11_M_get_nodeEv
d:/software/ovi_2503a_s3trc/ovi_2503a_s3trc/plutommi/Customer/ResGenerator/gcctmp/ccuadaaa.s:6870   .text$_ZNSt16_List_alloc_baseI13LogBinaryDataSaIS0_ELb1EEC2ERKS1_:00000000 __ZNSt16_List_alloc_baseI13LogBinaryDataSaIS0_ELb1EEC2ERKS1_
d:/software/ovi_2503a_s3trc/ovi_2503a_s3trc/plutommi/Customer/ResGenerator/gcctmp/ccuadaaa.s:6818   .text$_ZNSt10_List_baseI13LogBinaryDataSaIS0_EEC2ERKS1_:00000000 __ZNSt10_List_baseI13LogBinaryDataSaIS0_EEC2ERKS1_
d:/software/ovi_2503a_s3trc/ovi_2503a_s3trc/plutommi/Customer/ResGenerator/gcctmp/ccuadaaa.s:7662   .text$_ZNSt10_List_baseI16ProcessImageDataSaIS0_EED2Ev:00000000 __ZNSt10_List_baseI16ProcessImageDataSaIS0_EED2Ev
d:/software/ovi_2503a_s3trc/ovi_2503a_s3trc/plutommi/Customer/ResGenerator/gcctmp/ccuadaaa.s:6771   .text$_ZNSt14__simple_allocISt10_List_nodeI16ProcessImageDataESt24__default_alloc_templateILb1ELi0EEE8allocateEj:00000000 __ZNSt14__simple_allocISt10_List_nodeI16ProcessImageDataESt24__default_alloc_templateILb1ELi0EEE8allocateEj
d:/software/ovi_2503a_s3trc/ovi_2503a_s3trc/plutommi/Customer/ResGenerator/gcctmp/ccuadaaa.s:6748   .text$_ZNSt16_List_alloc_baseI16ProcessImageDataSaIS0_ELb1EE11_M_get_nodeEv:00000000 __ZNSt16_List_alloc_baseI16ProcessImageDataSaIS0_ELb1EE11_M_get_nodeEv
d:/software/ovi_2503a_s3trc/ovi_2503a_s3trc/plutommi/Customer/ResGenerator/gcctmp/ccuadaaa.s:6730   .text$_ZNSt16_List_alloc_baseI16ProcessImageDataSaIS0_ELb1EEC2ERKS1_:00000000 __ZNSt16_List_alloc_baseI16ProcessImageDataSaIS0_ELb1EEC2ERKS1_
d:/software/ovi_2503a_s3trc/ovi_2503a_s3trc/plutommi/Customer/ResGenerator/gcctmp/ccuadaaa.s:6678   .text$_ZNSt10_List_baseI16ProcessImageDataSaIS0_EEC2ERKS1_:00000000 __ZNSt10_List_baseI16ProcessImageDataSaIS0_EEC2ERKS1_
d:/software/ovi_2503a_s3trc/ovi_2503a_s3trc/plutommi/Customer/ResGenerator/gcctmp/ccuadaaa.s:5770   .text$_ZNSt4listI13LogBinaryDataSaIS0_EE9push_backERKS0_:00000000 __ZNSt4listI13LogBinaryDataSaIS0_EE9push_backERKS0_
d:/software/ovi_2503a_s3trc/ovi_2503a_s3trc/plutommi/Customer/ResGenerator/gcctmp/ccuadaaa.s:6435   .text$_ZN13LogBinaryDataD1Ev:00000000 __ZN13LogBinaryDataD1Ev
d:/software/ovi_2503a_s3trc/ovi_2503a_s3trc/plutommi/Customer/ResGenerator/gcctmp/ccuadaaa.s:6467   .text$_ZN13LogBinaryDataC1EtPci:00000000 __ZN13LogBinaryDataC1EtPci
d:/software/ovi_2503a_s3trc/ovi_2503a_s3trc/plutommi/Customer/ResGenerator/gcctmp/ccuadaaa.s:5278   .text:00001cc6 _ImageOutStreamAppend
d:/software/ovi_2503a_s3trc/ovi_2503a_s3trc/plutommi/Customer/ResGenerator/gcctmp/ccuadaaa.s:5744   .text$_ZNSt4listI16ProcessImageDataSaIS0_EE5clearEv:00000000 __ZNSt4listI16ProcessImageDataSaIS0_EE5clearEv
d:/software/ovi_2503a_s3trc/ovi_2503a_s3trc/plutommi/Customer/ResGenerator/gcctmp/ccuadaaa.s:6035   .text$_ZN10ThreadPool3RunEPNS_10IRunObjectENS_14ThreadPriorityE:00000000 __ZN10ThreadPool3RunEPNS_10IRunObjectENS_14ThreadPriorityE
d:/software/ovi_2503a_s3trc/ovi_2503a_s3trc/plutommi/Customer/ResGenerator/gcctmp/ccuadaaa.s:6642   .text$_ZN14ConvertRequestC1ER16ProcessImageData:00000000 __ZN14ConvertRequestC1ER16ProcessImageData
d:/software/ovi_2503a_s3trc/ovi_2503a_s3trc/plutommi/Customer/ResGenerator/gcctmp/ccuadaaa.s:7500   .text$_ZN14ConvertRequestD0Ev:00000000 __ZN14ConvertRequestD0Ev
d:/software/ovi_2503a_s3trc/ovi_2503a_s3trc/plutommi/Customer/ResGenerator/gcctmp/ccuadaaa.s:8486   .text$_ZN10ThreadPool10IRunObjectD2Ev:00000000 __ZN10ThreadPool10IRunObjectD2Ev
d:/software/ovi_2503a_s3trc/ovi_2503a_s3trc/plutommi/Customer/ResGenerator/gcctmp/ccuadaaa.s:7474   .text$_ZN10ThreadPool10IRunObjectC2Ev:00000000 __ZN10ThreadPool10IRunObjectC2Ev
d:/software/ovi_2503a_s3trc/ovi_2503a_s3trc/plutommi/Customer/ResGenerator/gcctmp/ccuadaaa.s:5704   .text$_ZNSt4listI16ProcessImageDataSaIS0_EE9push_backERKS0_:00000000 __ZNSt4listI16ProcessImageDataSaIS0_EE9push_backERKS0_
d:/software/ovi_2503a_s3trc/ovi_2503a_s3trc/plutommi/Customer/ResGenerator/gcctmp/ccuadaaa.s:5680   .text$_ZNKSt14_List_iteratorI16ProcessImageDataRS0_PS0_EdeEv:00000000 __ZNKSt14_List_iteratorI16ProcessImageDataRS0_PS0_EdeEv
d:/software/ovi_2503a_s3trc/ovi_2503a_s3trc/plutommi/Customer/ResGenerator/gcctmp/ccuadaaa.s:5653   .text$_ZNSt14_List_iteratorI16ProcessImageDataRS0_PS0_EppEv:00000000 __ZNSt14_List_iteratorI16ProcessImageDataRS0_PS0_EppEv
d:/software/ovi_2503a_s3trc/ovi_2503a_s3trc/plutommi/Customer/ResGenerator/gcctmp/ccuadaaa.s:6007   .text$_ZNKSt19_List_iterator_baseneERKS_:00000000 __ZNKSt19_List_iterator_baseneERKS_
d:/software/ovi_2503a_s3trc/ovi_2503a_s3trc/plutommi/Customer/ResGenerator/gcctmp/ccuadaaa.s:5622   .text$_ZNSt4listI16ProcessImageDataSaIS0_EE3endEv:00000000 __ZNSt4listI16ProcessImageDataSaIS0_EE3endEv
d:/software/ovi_2503a_s3trc/ovi_2503a_s3trc/plutommi/Customer/ResGenerator/gcctmp/ccuadaaa.s:5588   .text$_ZNSt4listI16ProcessImageDataSaIS0_EE5beginEv:00000000 __ZNSt4listI16ProcessImageDataSaIS0_EE5beginEv
d:/software/ovi_2503a_s3trc/ovi_2503a_s3trc/plutommi/Customer/ResGenerator/gcctmp/ccuadaaa.s:6122   .text$_ZN16ProcessImageDataD1Ev:00000000 __ZN16ProcessImageDataD1Ev
d:/software/ovi_2503a_s3trc/ovi_2503a_s3trc/plutommi/Customer/ResGenerator/gcctmp/ccuadaaa.s:6165   .text$_ZN16ProcessImageDataC1EtPcS0_iii:00000000 __ZN16ProcessImageDataC1EtPcS0_iii
d:/software/ovi_2503a_s3trc/ovi_2503a_s3trc/plutommi/Customer/ResGenerator/gcctmp/ccuadaaa.s:6611   .text$_ZNSt4listI13LogBinaryDataSaIS0_EEC1ERKS1_:00000000 __ZNSt4listI13LogBinaryDataSaIS0_EEC1ERKS1_
d:/software/ovi_2503a_s3trc/ovi_2503a_s3trc/plutommi/Customer/ResGenerator/gcctmp/ccuadaaa.s:6590   .text$_ZNSaI13LogBinaryDataED1Ev:00000000 __ZNSaI13LogBinaryDataED1Ev
d:/software/ovi_2503a_s3trc/ovi_2503a_s3trc/plutommi/Customer/ResGenerator/gcctmp/ccuadaaa.s:6568   .text$_ZNSaI13LogBinaryDataEC1Ev:00000000 __ZNSaI13LogBinaryDataEC1Ev
d:/software/ovi_2503a_s3trc/ovi_2503a_s3trc/plutommi/Customer/ResGenerator/gcctmp/ccuadaaa.s:6405   .text$_ZNSt4listI16ProcessImageDataSaIS0_EEC1ERKS1_:00000000 __ZNSt4listI16ProcessImageDataSaIS0_EEC1ERKS1_
d:/software/ovi_2503a_s3trc/ovi_2503a_s3trc/plutommi/Customer/ResGenerator/gcctmp/ccuadaaa.s:6384   .text$_ZNSaI16ProcessImageDataED1Ev:00000000 __ZNSaI16ProcessImageDataED1Ev
d:/software/ovi_2503a_s3trc/ovi_2503a_s3trc/plutommi/Customer/ResGenerator/gcctmp/ccuadaaa.s:6362   .text$_ZNSaI16ProcessImageDataEC1Ev:00000000 __ZNSaI16ProcessImageDataEC1Ev
d:/software/ovi_2503a_s3trc/ovi_2503a_s3trc/plutommi/Customer/ResGenerator/gcctmp/ccuadaaa.s:3494   .text:0000074c __Z21SetImageQWithBufferExtPcS_iii
d:/software/ovi_2503a_s3trc/ovi_2503a_s3trc/plutommi/Customer/ResGenerator/gcctmp/ccuadaaa.s:3446   .text:000006e8 __Z20SetImageWithBufferExtPcS_ii
d:/software/ovi_2503a_s3trc/ovi_2503a_s3trc/plutommi/Customer/ResGenerator/gcctmp/ccuadaaa.s:3232   .text:000005b4 _SetImageWithBuffer
d:/software/ovi_2503a_s3trc/ovi_2503a_s3trc/plutommi/Customer/ResGenerator/gcctmp/ccuadaaa.s:5349   .text:00001d96 _ImageOutStreamOutputFile
d:/software/ovi_2503a_s3trc/ovi_2503a_s3trc/plutommi/Customer/ResGenerator/gcctmp/ccuadaaa.s:6095   .text$_ZN21_ResgenImageOutStreamD1Ev:00000000 __ZN21_ResgenImageOutStreamD1Ev
d:/software/ovi_2503a_s3trc/ovi_2503a_s3trc/plutommi/Customer/ResGenerator/gcctmp/ccuadaaa.s:6067   .text$_ZN21_ResgenImageOutStreamC1Ev:00000000 __ZN21_ResgenImageOutStreamC1Ev

UNDEFINED SYMBOLS
__ZN13ImageResParam14QUALITY_MEDIUME
__Unwind_SjLj_Resume
___gxx_personality_sj0
__Unwind_SjLj_Register
__Unwind_SjLj_Unregister
__imp___iob
_Sleep@4
_ImageIdMapEXT
_ImageNameListEXT
_CurrMaxImageNumEXT
_ImageIdMap
GAS LISTING d:/software/ovi_2503a_s3trc/ovi_2503a_s3trc/plutommi/Customer/ResGenerator/gcctmp/ccuadaaa.s 			page 163


_ImageNameList
_CurrMaxImageNum
_image_idx
_OutputImgIDFile
_RepeatIDListFile
_CurrMaxImageIdEXT
_CurrMaxImageId
_g_resimg_count
_g_resimg_table
_fpImageResourceUsage
_g_mmi_resource_base_table
_fpImageResourceUsageExt
_GetSystemInfo@4
__ZTVN10__cxxabiv120__si_class_type_infoE
__ZTVN10__cxxabiv117__class_type_infoE
___cxa_pure_virtual
__ZNSt8ios_base4InitD1Ev
__ZNSt24__default_alloc_templateILb1ELi0EE10deallocateEPvj
___cxa_rethrow
__ZNSt24__default_alloc_templateILb1ELi0EE8allocateEj
_reslog_adaptor_fatal_error_pending_log
_execute_ext_command
_fwrite
_memcpy
_realloc
_vsprintf
__ZN28ImageGroupContentMetaCreatorD1Ev
__ZN28ImageGroupContentMetaCreator16generateMetaFileEPKc
__ZN28ImageGroupContentMetaCreator8addImageEPKcPcii
__ZNKSs5emptyEv
_exit
__ZN10ThreadPool21GetWorkingThreadCountEv
__ZN10ThreadPoolC1Eii
__ZN28ImageGroupContentMetaCreatorC1Ev
_resconfig_adaptor_get_max_thread_numebr
_SetImageWithBufferExImp
_GetOffsetFromResourceBase
_ExtractExtension
_strcmp
__ZNKSs5c_strEv
_strlen
_fprintf
__ZNSsC1ERKSs
_toupper
__ZNSsixEj
__ZNKSs6lengthEv
__ZNSsaSERKSs
__ZNSsC1Ev
__ZNSsD1Ev
__ZNSsC1EPKcRKSaIcE
__ZNSaIcED1Ev
__ZNSaIcEC1Ev
_fclose
_fopen
_SetNFBImageImp
_fflush
_reslog_adaptor_log
GAS LISTING d:/software/ovi_2503a_s3trc/ovi_2503a_s3trc/plutommi/Customer/ResGenerator/gcctmp/ccuadaaa.s 			page 164


_strcpy
__assert
__ZNSt8ios_base4InitC1Ev
___cxa_end_catch
___cxa_begin_catch
__ZN10ThreadPool13AddJobToQueueEPFmPvES0_PNS_10IRunObjectENS_14ThreadPriorityE
__ZdlPv
__Znwj
