GAS LISTING d:/software/ovi_2503a_s3trc/ovi_2503a_s3trc/plutommi/Customer/ResGenerator/gcctmp/ccWMaaaa.s 			page 1


   1              		.file	"WriteRes.c"
   4              		.text
   5              	Ltext0:
 2501              	LC0:
 2502 0000 424D5000 		.ascii "BMP\0"
 2503              	LC1:
 2504 0004 50424D00 		.ascii "PBM\0"
 2505              	LC2:
 2506 0008 4A504700 		.ascii "JPG\0"
 2507              	LC3:
 2508 000c 47494600 		.ascii "GIF\0"
 2509              	LC4:
 2510 0010 41424D00 		.ascii "ABM\0"
 2511              	LC5:
 2512 0014 41564900 		.ascii "AVI\0"
 2513              	LC6:
 2514 0018 33475000 		.ascii "3GP\0"
 2515              	LC7:
 2516 001c 4D503400 		.ascii "MP4\0"
 2517              	LC8:
 2518 0020 525600   		.ascii "RV\0"
 2519              	LC9:
 2520 0023 524D00   		.ascii "RM\0"
 2521              	LC10:
 2522 0026 524D5642 		.ascii "RMVB\0"
 2522      00
 2523              	LC11:
 2524 002b 504E4700 		.ascii "PNG\0"
 2525              	LC12:
 2526 002f 50504E00 		.ascii "PPN\0"
 2527              	LC13:
 2528 0033 4D334400 		.ascii "M3D\0"
 2529              	LC14:
 2530 0037 434D5000 		.ascii "CMP\0"
 2531              	LC15:
 2532 003b 56495300 		.ascii "VIS\0"
 2533              	LC16:
 2534 003f 53564700 		.ascii "SVG\0"
 2535              	LC17:
 2536 0043 54544600 		.ascii "TTF\0"
 2537              	LC18:
 2538 0047 53544600 		.ascii "STF\0"
 2539              	LC19:
 2540 004b 43434300 		.ascii "CCC\0"
 2541              	LC20:
 2542 004f 4B545800 		.ascii "KTX\0"
 2543 0053 8DB60000 		.align 32
 2543      00008DBC 
 2543      27000000 
 2543      00
 2544              	_image_resource_info:
 2545 0060 00000000 		.long	LC0
 2546 0064 01       		.byte	1
 2547 0065 000000   		.space 3
 2548 0068 04000000 		.long	LC1
 2549 006c 04       		.byte	4
 2550 006d 000000   		.space 3
GAS LISTING d:/software/ovi_2503a_s3trc/ovi_2503a_s3trc/plutommi/Customer/ResGenerator/gcctmp/ccWMaaaa.s 			page 2


 2551 0070 08000000 		.long	LC2
 2552 0074 09       		.byte	9
 2553 0075 000000   		.space 3
 2554 0078 0C000000 		.long	LC3
 2555 007c 03       		.byte	3
 2556 007d 000000   		.space 3
 2557 0080 10000000 		.long	LC4
 2558 0084 28       		.byte	40
 2559 0085 000000   		.space 3
 2560 0088 14000000 		.long	LC5
 2561 008c 0C       		.byte	12
 2562 008d 000000   		.space 3
 2563 0090 18000000 		.long	LC6
 2564 0094 0E       		.byte	14
 2565 0095 000000   		.space 3
 2566 0098 1C000000 		.long	LC7
 2567 009c 10       		.byte	16
 2568 009d 000000   		.space 3
 2569 00a0 20000000 		.long	LC8
 2570 00a4 4A       		.byte	74
 2571 00a5 000000   		.space 3
 2572 00a8 23000000 		.long	LC9
 2573 00ac 4C       		.byte	76
 2574 00ad 000000   		.space 3
 2575 00b0 26000000 		.long	LC10
 2576 00b4 4E       		.byte	78
 2577 00b5 000000   		.space 3
 2578 00b8 2B000000 		.long	LC11
 2579 00bc 13       		.byte	19
 2580 00bd 000000   		.space 3
 2581 00c0 2F000000 		.long	LC12
 2582 00c4 48       		.byte	72
 2583 00c5 000000   		.space 3
 2584 00c8 33000000 		.long	LC13
 2585 00cc 19       		.byte	25
 2586 00cd 000000   		.space 3
 2587 00d0 37000000 		.long	LC14
 2588 00d4 1D       		.byte	29
 2589 00d5 000000   		.space 3
 2590 00d8 3B000000 		.long	LC15
 2591 00dc 31       		.byte	49
 2592 00dd 000000   		.space 3
 2593 00e0 3F000000 		.long	LC16
 2594 00e4 1B       		.byte	27
 2595 00e5 000000   		.space 3
 2596 00e8 43000000 		.long	LC17
 2597 00ec 49       		.byte	73
 2598 00ed 000000   		.space 3
 2599 00f0 47000000 		.long	LC18
 2600 00f4 49       		.byte	73
 2601 00f5 000000   		.space 3
 2602 00f8 4B000000 		.long	LC19
 2603 00fc 49       		.byte	73
 2604 00fd 000000   		.space 3
 2605 0100 4F000000 		.long	LC20
 2606 0104 43       		.byte	67
 2607 0105 000000   		.space 3
GAS LISTING d:/software/ovi_2503a_s3trc/ovi_2503a_s3trc/plutommi/Customer/ResGenerator/gcctmp/ccWMaaaa.s 			page 3


 2625              	.lcomm _ExtAudioFlag,16
 2626              		.data
 2627              	_is_first:
 2628 0000 01       		.byte	1
 2629 0001 000000   		.align 4
 2630              	_audio_idx:
 2631 0004 01000000 		.long	1
 2632              		.align 4
 2633              	_binary_idx:
 2634 0008 01000000 		.long	1
 2635              	.lcomm _g_ressize,16
 2636              	.lcomm _g_resado_count,16
 2637              	.globl _toolFlag
 2638              		.bss
 2639              		.align 4
 2640              	_toolFlag:
 2641 0000 00000000 		.space 4
 2642              	.globl _resultFailFlag
 2643              		.align 4
 2644              	_resultFailFlag:
 2645 0004 00000000 		.space 4
 2646              	.globl _g_is_log
 2647              		.data
 2648              		.align 4
 2649              	_g_is_log:
 2650 000c 01000000 		.long	1
 2651              	.lcomm _g_force_ado_type,16
 2652              		.text
 2653 0108 90909090 		.align 32
 2653      90909090 
 2653      90909090 
 2653      90909090 
 2653      90909090 
 2654              	_CustImgPath:
 2655 0120 2E2E5C5C 		.ascii "..\\\\..\\\\Customer\\\\Images\\\\PLUTO_ENCODE\0"
 2655      2E2E5C5C 
 2655      43757374 
 2655      6F6D6572 
 2655      5C5C496D 
 2656 0147 90909090 		.align 32
 2656      90909090 
 2656      90909090 
 2656      90909090 
 2656      90909090 
 2657              	_CustAdoPath:
 2658 0160 2E2E5C5C 		.ascii "..\\\\..\\\\Customer\\\\AUDIO\\\\PLUTO\0"
 2658      2E2E5C5C 
 2658      43757374 
 2658      6F6D6572 
 2658      5C5C4155 
 2659              	_CustBinaryPath:
 2660 017f 2E2E5C5C 		.ascii "..\\\\..\\\\Customer\\\\Binary\0"
 2660      2E2E5C5C 
 2660      43757374 
 2660      6F6D6572 
 2660      5C5C4269 
 2661              	LC21:
GAS LISTING d:/software/ovi_2503a_s3trc/ovi_2503a_s3trc/plutommi/Customer/ResGenerator/gcctmp/ccWMaaaa.s 			page 4


 2662 0198 454E4400 		.ascii "END\0"
 2663 019c 8D742600 		.align 32
 2664              	LC22:
 2665 01a0 5B455252 		.ascii "[ERR] ID:[%s] reach MAX of the Range, Please add some Range for APP[%s]\12\0"
 2665      5D204944 
 2665      3A5B2573 
 2665      5D207265 
 2665      61636820 
 2666 01e9 90909090 		.align 32
 2666      90909090 
 2666      90909090 
 2666      90909090 
 2666      90909090 
 2667              	LC23:
 2668 0200 4572726F 		.ascii "Error!! ID:[%s] reach MAX of the Range, Please add some Range for APP[%s]\0"
 2668      72212120 
 2668      49443A5B 
 2668      25735D20 
 2668      72656163 
 2669              	LC24:
 2670 024a 57524954 		.ascii "WRITERES\0"
 2670      45524553 
 2670      00
 2674              	.globl _GetOffsetFromResourceBase
 2676              	_GetOffsetFromResourceBase:
   1:../../MMI/Resource/WriteRes.c **** /*****************************************************************************
   2:../../MMI/Resource/WriteRes.c **** *  Copyright Statement:
   3:../../MMI/Resource/WriteRes.c **** *  --------------------
   4:../../MMI/Resource/WriteRes.c **** *  This software is protected by Copyright and the information contained
   5:../../MMI/Resource/WriteRes.c **** *  herein is confidential. The software may not be copied and the information
   6:../../MMI/Resource/WriteRes.c **** *  contained herein may not be used or disclosed except with the written
   7:../../MMI/Resource/WriteRes.c **** *  permission of MediaTek Inc. (C) 2005
   8:../../MMI/Resource/WriteRes.c **** *
   9:../../MMI/Resource/WriteRes.c **** *  BY OPENING THIS FILE, BUYER HEREBY UNEQUIVOCALLY ACKNOWLEDGES AND AGREES
  10:../../MMI/Resource/WriteRes.c **** *  THAT THE SOFTWARE/FIRMWARE AND ITS DOCUMENTATIONS ("MEDIATEK SOFTWARE")
  11:../../MMI/Resource/WriteRes.c **** *  RECEIVED FROM MEDIATEK AND/OR ITS REPRESENTATIVES ARE PROVIDED TO BUYER ON
  12:../../MMI/Resource/WriteRes.c **** *  AN "AS-IS" BASIS ONLY. MEDIATEK EXPRESSLY DISCLAIMS ANY AND ALL WARRANTIES,
  13:../../MMI/Resource/WriteRes.c **** *  EXPRESS OR IMPLIED, INCLUDING BUT NOT LIMITED TO THE IMPLIED WARRANTIES OF
  14:../../MMI/Resource/WriteRes.c **** *  MERCHANTABILITY, FITNESS FOR A PARTICULAR PURPOSE OR NONINFRINGEMENT.
  15:../../MMI/Resource/WriteRes.c **** *  NEITHER DOES MEDIATEK PROVIDE ANY WARRANTY WHATSOEVER WITH RESPECT TO THE
  16:../../MMI/Resource/WriteRes.c **** *  SOFTWARE OF ANY THIRD PARTY WHICH MAY BE USED BY, INCORPORATED IN, OR
  17:../../MMI/Resource/WriteRes.c **** *  SUPPLIED WITH THE MEDIATEK SOFTWARE, AND BUYER AGREES TO LOOK ONLY TO SUCH
  18:../../MMI/Resource/WriteRes.c **** *  THIRD PARTY FOR ANY WARRANTY CLAIM RELATING THERETO. MEDIATEK SHALL ALSO
  19:../../MMI/Resource/WriteRes.c **** *  NOT BE RESPONSIBLE FOR ANY MEDIATEK SOFTWARE RELEASES MADE TO BUYER'S
  20:../../MMI/Resource/WriteRes.c **** *  SPECIFICATION OR TO CONFORM TO A PARTICULAR STANDARD OR OPEN FORUM.
  21:../../MMI/Resource/WriteRes.c **** *
  22:../../MMI/Resource/WriteRes.c **** *  BUYER'S SOLE AND EXCLUSIVE REMEDY AND MEDIATEK'S ENTIRE AND CUMULATIVE
  23:../../MMI/Resource/WriteRes.c **** *  LIABILITY WITH RESPECT TO THE MEDIATEK SOFTWARE RELEASED HEREUNDER WILL BE,
  24:../../MMI/Resource/WriteRes.c **** *  AT MEDIATEK'S OPTION, TO REVISE OR REPLACE THE MEDIATEK SOFTWARE AT ISSUE,
  25:../../MMI/Resource/WriteRes.c **** *  OR REFUND ANY SOFTWARE LICENSE FEES OR SERVICE CHARGE PAID BY BUYER TO
  26:../../MMI/Resource/WriteRes.c **** *  MEDIATEK FOR SUCH MEDIATEK SOFTWARE AT ISSUE.
  27:../../MMI/Resource/WriteRes.c **** *
  28:../../MMI/Resource/WriteRes.c **** *  THE TRANSACTION CONTEMPLATED HEREUNDER SHALL BE CONSTRUED IN ACCORDANCE
  29:../../MMI/Resource/WriteRes.c **** *  WITH THE LAWS OF THE STATE OF CALIFORNIA, USA, EXCLUDING ITS CONFLICT OF
  30:../../MMI/Resource/WriteRes.c **** *  LAWS PRINCIPLES.  ANY DISPUTES, CONTROVERSIES OR CLAIMS ARISING THEREOF AND
  31:../../MMI/Resource/WriteRes.c **** *  RELATED THERETO SHALL BE SETTLED BY ARBITRATION IN SAN FRANCISCO, CA, UNDER
  32:../../MMI/Resource/WriteRes.c **** *  THE RULES OF THE INTERNATIONAL CHAMBER OF COMMERCE (ICC).
GAS LISTING d:/software/ovi_2503a_s3trc/ovi_2503a_s3trc/plutommi/Customer/ResGenerator/gcctmp/ccWMaaaa.s 			page 5


  33:../../MMI/Resource/WriteRes.c **** *
  34:../../MMI/Resource/WriteRes.c **** *****************************************************************************/
  35:../../MMI/Resource/WriteRes.c **** 
  36:../../MMI/Resource/WriteRes.c **** /*******************************************************************************
  37:../../MMI/Resource/WriteRes.c ****  * Filename:
  38:../../MMI/Resource/WriteRes.c ****  * ---------
  39:../../MMI/Resource/WriteRes.c ****  *  WriteRes.c
  40:../../MMI/Resource/WriteRes.c ****  *
  41:../../MMI/Resource/WriteRes.c ****  * Project:
  42:../../MMI/Resource/WriteRes.c ****  * --------
  43:../../MMI/Resource/WriteRes.c ****  *  MAUI
  44:../../MMI/Resource/WriteRes.c ****  *
  45:../../MMI/Resource/WriteRes.c ****  * Description:
  46:../../MMI/Resource/WriteRes.c ****  * ------------
  47:../../MMI/Resource/WriteRes.c ****  *
  48:../../MMI/Resource/WriteRes.c ****  *
  49:../../MMI/Resource/WriteRes.c ****  * Author:
  50:../../MMI/Resource/WriteRes.c ****  * -------
  51:../../MMI/Resource/WriteRes.c ****  *
  52:../../MMI/Resource/WriteRes.c ****  *
  53:../../MMI/Resource/WriteRes.c ****  *==============================================================================
  54:../../MMI/Resource/WriteRes.c ****  *             HISTORY
  55:../../MMI/Resource/WriteRes.c ****  * Below this line, this part is controlled by PVCS VM. DO NOT MODIFY!!
  56:../../MMI/Resource/WriteRes.c ****  *------------------------------------------------------------------------------
  57:../../MMI/Resource/WriteRes.c ****  * removed!
  58:../../MMI/Resource/WriteRes.c ****  *
  59:../../MMI/Resource/WriteRes.c ****  * removed!
  60:../../MMI/Resource/WriteRes.c ****  * removed!
  61:../../MMI/Resource/WriteRes.c ****  * removed!
  62:../../MMI/Resource/WriteRes.c ****  *
  63:../../MMI/Resource/WriteRes.c ****  * removed!
  64:../../MMI/Resource/WriteRes.c ****  * removed!
  65:../../MMI/Resource/WriteRes.c ****  * removed!
  66:../../MMI/Resource/WriteRes.c ****  * removed!
  67:../../MMI/Resource/WriteRes.c ****  *
  68:../../MMI/Resource/WriteRes.c ****  * removed!
  69:../../MMI/Resource/WriteRes.c ****  * removed!
  70:../../MMI/Resource/WriteRes.c ****  * removed!
  71:../../MMI/Resource/WriteRes.c ****  *
  72:../../MMI/Resource/WriteRes.c ****  * removed!
  73:../../MMI/Resource/WriteRes.c ****  * removed!
  74:../../MMI/Resource/WriteRes.c ****  * removed!
  75:../../MMI/Resource/WriteRes.c ****  *
  76:../../MMI/Resource/WriteRes.c ****  * removed!
  77:../../MMI/Resource/WriteRes.c ****  * removed!
  78:../../MMI/Resource/WriteRes.c ****  * removed!
  79:../../MMI/Resource/WriteRes.c ****  *
  80:../../MMI/Resource/WriteRes.c ****  * removed!
  81:../../MMI/Resource/WriteRes.c ****  * removed!
  82:../../MMI/Resource/WriteRes.c ****  * removed!
  83:../../MMI/Resource/WriteRes.c ****  *
  84:../../MMI/Resource/WriteRes.c ****  * removed!
  85:../../MMI/Resource/WriteRes.c ****  * removed!
  86:../../MMI/Resource/WriteRes.c ****  * removed!
  87:../../MMI/Resource/WriteRes.c ****  *
  88:../../MMI/Resource/WriteRes.c ****  * removed!
  89:../../MMI/Resource/WriteRes.c ****  * removed!
GAS LISTING d:/software/ovi_2503a_s3trc/ovi_2503a_s3trc/plutommi/Customer/ResGenerator/gcctmp/ccWMaaaa.s 			page 6


  90:../../MMI/Resource/WriteRes.c ****  * removed!
  91:../../MMI/Resource/WriteRes.c ****  *
  92:../../MMI/Resource/WriteRes.c ****  * removed!
  93:../../MMI/Resource/WriteRes.c ****  * removed!
  94:../../MMI/Resource/WriteRes.c ****  * removed!
  95:../../MMI/Resource/WriteRes.c ****  *
  96:../../MMI/Resource/WriteRes.c ****  * removed!
  97:../../MMI/Resource/WriteRes.c ****  * removed!
  98:../../MMI/Resource/WriteRes.c ****  * removed!
  99:../../MMI/Resource/WriteRes.c ****  *
 100:../../MMI/Resource/WriteRes.c ****  * removed!
 101:../../MMI/Resource/WriteRes.c ****  * removed!
 102:../../MMI/Resource/WriteRes.c ****  * removed!
 103:../../MMI/Resource/WriteRes.c ****  *
 104:../../MMI/Resource/WriteRes.c ****  * removed!
 105:../../MMI/Resource/WriteRes.c ****  * removed!
 106:../../MMI/Resource/WriteRes.c ****  * removed!
 107:../../MMI/Resource/WriteRes.c ****  *
 108:../../MMI/Resource/WriteRes.c ****  * removed!
 109:../../MMI/Resource/WriteRes.c ****  * removed!
 110:../../MMI/Resource/WriteRes.c ****  * removed!
 111:../../MMI/Resource/WriteRes.c ****  *
 112:../../MMI/Resource/WriteRes.c ****  * removed!
 113:../../MMI/Resource/WriteRes.c ****  * removed!
 114:../../MMI/Resource/WriteRes.c ****  *
 115:../../MMI/Resource/WriteRes.c ****  * removed!
 116:../../MMI/Resource/WriteRes.c ****  * removed!
 117:../../MMI/Resource/WriteRes.c ****  * removed!
 118:../../MMI/Resource/WriteRes.c ****  *
 119:../../MMI/Resource/WriteRes.c ****  * removed!
 120:../../MMI/Resource/WriteRes.c ****  * removed!
 121:../../MMI/Resource/WriteRes.c ****  * removed!
 122:../../MMI/Resource/WriteRes.c ****  *
 123:../../MMI/Resource/WriteRes.c ****  * removed!
 124:../../MMI/Resource/WriteRes.c ****  * removed!
 125:../../MMI/Resource/WriteRes.c ****  * removed!
 126:../../MMI/Resource/WriteRes.c ****  *
 127:../../MMI/Resource/WriteRes.c ****  * removed!
 128:../../MMI/Resource/WriteRes.c ****  * removed!
 129:../../MMI/Resource/WriteRes.c ****  * removed!
 130:../../MMI/Resource/WriteRes.c ****  *
 131:../../MMI/Resource/WriteRes.c ****  * removed!
 132:../../MMI/Resource/WriteRes.c ****  * removed!
 133:../../MMI/Resource/WriteRes.c ****  * removed!
 134:../../MMI/Resource/WriteRes.c ****  *
 135:../../MMI/Resource/WriteRes.c ****  * removed!
 136:../../MMI/Resource/WriteRes.c ****  * removed!
 137:../../MMI/Resource/WriteRes.c ****  * removed!
 138:../../MMI/Resource/WriteRes.c ****  *
 139:../../MMI/Resource/WriteRes.c ****  * removed!
 140:../../MMI/Resource/WriteRes.c ****  * removed!
 141:../../MMI/Resource/WriteRes.c ****  * removed!
 142:../../MMI/Resource/WriteRes.c ****  *
 143:../../MMI/Resource/WriteRes.c ****  * removed!
 144:../../MMI/Resource/WriteRes.c ****  * removed!
 145:../../MMI/Resource/WriteRes.c ****  * removed!
 146:../../MMI/Resource/WriteRes.c ****  *
GAS LISTING d:/software/ovi_2503a_s3trc/ovi_2503a_s3trc/plutommi/Customer/ResGenerator/gcctmp/ccWMaaaa.s 			page 7


 147:../../MMI/Resource/WriteRes.c ****  * removed!
 148:../../MMI/Resource/WriteRes.c ****  * removed!
 149:../../MMI/Resource/WriteRes.c ****  * removed!
 150:../../MMI/Resource/WriteRes.c ****  *
 151:../../MMI/Resource/WriteRes.c ****  * removed!
 152:../../MMI/Resource/WriteRes.c ****  * removed!
 153:../../MMI/Resource/WriteRes.c ****  * removed!
 154:../../MMI/Resource/WriteRes.c ****  *
 155:../../MMI/Resource/WriteRes.c ****  * removed!
 156:../../MMI/Resource/WriteRes.c ****  * removed!
 157:../../MMI/Resource/WriteRes.c ****  * removed!
 158:../../MMI/Resource/WriteRes.c ****  *
 159:../../MMI/Resource/WriteRes.c ****  * removed!
 160:../../MMI/Resource/WriteRes.c ****  * removed!
 161:../../MMI/Resource/WriteRes.c ****  * removed!
 162:../../MMI/Resource/WriteRes.c ****  *
 163:../../MMI/Resource/WriteRes.c ****  * removed!
 164:../../MMI/Resource/WriteRes.c ****  * removed!
 165:../../MMI/Resource/WriteRes.c ****  *
 166:../../MMI/Resource/WriteRes.c ****  *
 167:../../MMI/Resource/WriteRes.c ****  * removed!
 168:../../MMI/Resource/WriteRes.c ****  * removed!
 169:../../MMI/Resource/WriteRes.c ****  *
 170:../../MMI/Resource/WriteRes.c ****  *
 171:../../MMI/Resource/WriteRes.c ****  * removed!
 172:../../MMI/Resource/WriteRes.c ****  * removed!
 173:../../MMI/Resource/WriteRes.c ****  *
 174:../../MMI/Resource/WriteRes.c ****  *
 175:../../MMI/Resource/WriteRes.c ****  * removed!
 176:../../MMI/Resource/WriteRes.c ****  * removed!
 177:../../MMI/Resource/WriteRes.c ****  *
 178:../../MMI/Resource/WriteRes.c ****  *
 179:../../MMI/Resource/WriteRes.c ****  * removed!
 180:../../MMI/Resource/WriteRes.c ****  * removed!
 181:../../MMI/Resource/WriteRes.c ****  *
 182:../../MMI/Resource/WriteRes.c ****  *
 183:../../MMI/Resource/WriteRes.c ****  * removed!
 184:../../MMI/Resource/WriteRes.c ****  * removed!
 185:../../MMI/Resource/WriteRes.c ****  *
 186:../../MMI/Resource/WriteRes.c ****  *
 187:../../MMI/Resource/WriteRes.c ****  * removed!
 188:../../MMI/Resource/WriteRes.c ****  * removed!
 189:../../MMI/Resource/WriteRes.c ****  * removed!
 190:../../MMI/Resource/WriteRes.c ****  *
 191:../../MMI/Resource/WriteRes.c ****  * removed!
 192:../../MMI/Resource/WriteRes.c ****  * removed!
 193:../../MMI/Resource/WriteRes.c ****  *
 194:../../MMI/Resource/WriteRes.c ****  *
 195:../../MMI/Resource/WriteRes.c ****  * removed!
 196:../../MMI/Resource/WriteRes.c ****  * removed!
 197:../../MMI/Resource/WriteRes.c ****  *
 198:../../MMI/Resource/WriteRes.c ****  *
 199:../../MMI/Resource/WriteRes.c ****  * removed!
 200:../../MMI/Resource/WriteRes.c ****  * removed!
 201:../../MMI/Resource/WriteRes.c ****  *
 202:../../MMI/Resource/WriteRes.c ****  *
 203:../../MMI/Resource/WriteRes.c ****  * removed!
GAS LISTING d:/software/ovi_2503a_s3trc/ovi_2503a_s3trc/plutommi/Customer/ResGenerator/gcctmp/ccWMaaaa.s 			page 8


 204:../../MMI/Resource/WriteRes.c ****  * removed!
 205:../../MMI/Resource/WriteRes.c ****  *
 206:../../MMI/Resource/WriteRes.c ****  *
 207:../../MMI/Resource/WriteRes.c ****  * removed!
 208:../../MMI/Resource/WriteRes.c ****  * removed!
 209:../../MMI/Resource/WriteRes.c ****  *
 210:../../MMI/Resource/WriteRes.c ****  *
 211:../../MMI/Resource/WriteRes.c ****  * removed!
 212:../../MMI/Resource/WriteRes.c ****  * removed!
 213:../../MMI/Resource/WriteRes.c ****  *
 214:../../MMI/Resource/WriteRes.c ****  *
 215:../../MMI/Resource/WriteRes.c ****  * removed!
 216:../../MMI/Resource/WriteRes.c ****  * removed!
 217:../../MMI/Resource/WriteRes.c ****  *
 218:../../MMI/Resource/WriteRes.c ****  *
 219:../../MMI/Resource/WriteRes.c ****  * removed!
 220:../../MMI/Resource/WriteRes.c ****  * removed!
 221:../../MMI/Resource/WriteRes.c ****  *
 222:../../MMI/Resource/WriteRes.c ****  *
 223:../../MMI/Resource/WriteRes.c ****  * removed!
 224:../../MMI/Resource/WriteRes.c ****  * removed!
 225:../../MMI/Resource/WriteRes.c ****  *
 226:../../MMI/Resource/WriteRes.c ****  *
 227:../../MMI/Resource/WriteRes.c ****  * removed!
 228:../../MMI/Resource/WriteRes.c ****  * removed!
 229:../../MMI/Resource/WriteRes.c ****  *
 230:../../MMI/Resource/WriteRes.c ****  *
 231:../../MMI/Resource/WriteRes.c ****  * removed!
 232:../../MMI/Resource/WriteRes.c ****  * removed!
 233:../../MMI/Resource/WriteRes.c ****  *
 234:../../MMI/Resource/WriteRes.c ****  *
 235:../../MMI/Resource/WriteRes.c ****  * removed!
 236:../../MMI/Resource/WriteRes.c ****  * removed!
 237:../../MMI/Resource/WriteRes.c ****  *
 238:../../MMI/Resource/WriteRes.c ****  *
 239:../../MMI/Resource/WriteRes.c ****  * removed!
 240:../../MMI/Resource/WriteRes.c ****  * removed!
 241:../../MMI/Resource/WriteRes.c ****  *
 242:../../MMI/Resource/WriteRes.c ****  *
 243:../../MMI/Resource/WriteRes.c ****  * removed!
 244:../../MMI/Resource/WriteRes.c ****  * removed!
 245:../../MMI/Resource/WriteRes.c ****  *
 246:../../MMI/Resource/WriteRes.c ****  *
 247:../../MMI/Resource/WriteRes.c ****  * removed!
 248:../../MMI/Resource/WriteRes.c ****  * removed!
 249:../../MMI/Resource/WriteRes.c ****  *
 250:../../MMI/Resource/WriteRes.c ****  *
 251:../../MMI/Resource/WriteRes.c ****  * removed!
 252:../../MMI/Resource/WriteRes.c ****  * removed!
 253:../../MMI/Resource/WriteRes.c ****  *
 254:../../MMI/Resource/WriteRes.c ****  *
 255:../../MMI/Resource/WriteRes.c ****  * removed!
 256:../../MMI/Resource/WriteRes.c ****  * removed!
 257:../../MMI/Resource/WriteRes.c ****  *
 258:../../MMI/Resource/WriteRes.c ****  *
 259:../../MMI/Resource/WriteRes.c ****  * removed!
 260:../../MMI/Resource/WriteRes.c ****  * removed!
GAS LISTING d:/software/ovi_2503a_s3trc/ovi_2503a_s3trc/plutommi/Customer/ResGenerator/gcctmp/ccWMaaaa.s 			page 9


 261:../../MMI/Resource/WriteRes.c ****  *
 262:../../MMI/Resource/WriteRes.c ****  *
 263:../../MMI/Resource/WriteRes.c ****  * removed!
 264:../../MMI/Resource/WriteRes.c ****  * removed!
 265:../../MMI/Resource/WriteRes.c ****  *
 266:../../MMI/Resource/WriteRes.c ****  *
 267:../../MMI/Resource/WriteRes.c ****  * removed!
 268:../../MMI/Resource/WriteRes.c ****  * removed!
 269:../../MMI/Resource/WriteRes.c ****  *
 270:../../MMI/Resource/WriteRes.c ****  *
 271:../../MMI/Resource/WriteRes.c ****  * removed!
 272:../../MMI/Resource/WriteRes.c ****  * removed!
 273:../../MMI/Resource/WriteRes.c ****  *
 274:../../MMI/Resource/WriteRes.c ****  *
 275:../../MMI/Resource/WriteRes.c ****  * removed!
 276:../../MMI/Resource/WriteRes.c ****  * removed!
 277:../../MMI/Resource/WriteRes.c ****  *
 278:../../MMI/Resource/WriteRes.c ****  *
 279:../../MMI/Resource/WriteRes.c ****  * removed!
 280:../../MMI/Resource/WriteRes.c ****  * removed!
 281:../../MMI/Resource/WriteRes.c ****  *
 282:../../MMI/Resource/WriteRes.c ****  *
 283:../../MMI/Resource/WriteRes.c ****  * removed!
 284:../../MMI/Resource/WriteRes.c ****  * removed!
 285:../../MMI/Resource/WriteRes.c ****  *
 286:../../MMI/Resource/WriteRes.c ****  *
 287:../../MMI/Resource/WriteRes.c ****  * removed!
 288:../../MMI/Resource/WriteRes.c ****  * removed!
 289:../../MMI/Resource/WriteRes.c ****  *
 290:../../MMI/Resource/WriteRes.c ****  *
 291:../../MMI/Resource/WriteRes.c ****  * removed!
 292:../../MMI/Resource/WriteRes.c ****  * removed!
 293:../../MMI/Resource/WriteRes.c ****  *
 294:../../MMI/Resource/WriteRes.c ****  *
 295:../../MMI/Resource/WriteRes.c ****  * removed!
 296:../../MMI/Resource/WriteRes.c ****  * removed!
 297:../../MMI/Resource/WriteRes.c ****  *
 298:../../MMI/Resource/WriteRes.c ****  *
 299:../../MMI/Resource/WriteRes.c ****  * removed!
 300:../../MMI/Resource/WriteRes.c ****  * removed!
 301:../../MMI/Resource/WriteRes.c ****  *
 302:../../MMI/Resource/WriteRes.c ****  *
 303:../../MMI/Resource/WriteRes.c ****  * removed!
 304:../../MMI/Resource/WriteRes.c ****  * removed!
 305:../../MMI/Resource/WriteRes.c ****  *
 306:../../MMI/Resource/WriteRes.c ****  *
 307:../../MMI/Resource/WriteRes.c ****  * removed!
 308:../../MMI/Resource/WriteRes.c ****  * removed!
 309:../../MMI/Resource/WriteRes.c ****  *
 310:../../MMI/Resource/WriteRes.c ****  *
 311:../../MMI/Resource/WriteRes.c ****  * removed!
 312:../../MMI/Resource/WriteRes.c ****  * removed!
 313:../../MMI/Resource/WriteRes.c ****  *
 314:../../MMI/Resource/WriteRes.c ****  *
 315:../../MMI/Resource/WriteRes.c ****  * removed!
 316:../../MMI/Resource/WriteRes.c ****  * removed!
 317:../../MMI/Resource/WriteRes.c ****  *
GAS LISTING d:/software/ovi_2503a_s3trc/ovi_2503a_s3trc/plutommi/Customer/ResGenerator/gcctmp/ccWMaaaa.s 			page 10


 318:../../MMI/Resource/WriteRes.c ****  *
 319:../../MMI/Resource/WriteRes.c ****  * removed!
 320:../../MMI/Resource/WriteRes.c ****  * removed!
 321:../../MMI/Resource/WriteRes.c ****  *
 322:../../MMI/Resource/WriteRes.c ****  *
 323:../../MMI/Resource/WriteRes.c ****  * removed!
 324:../../MMI/Resource/WriteRes.c ****  * removed!
 325:../../MMI/Resource/WriteRes.c ****  *
 326:../../MMI/Resource/WriteRes.c ****  *
 327:../../MMI/Resource/WriteRes.c ****  * removed!
 328:../../MMI/Resource/WriteRes.c ****  * removed!
 329:../../MMI/Resource/WriteRes.c ****  *
 330:../../MMI/Resource/WriteRes.c ****  *
 331:../../MMI/Resource/WriteRes.c ****  * removed!
 332:../../MMI/Resource/WriteRes.c ****  * removed!
 333:../../MMI/Resource/WriteRes.c ****  *
 334:../../MMI/Resource/WriteRes.c ****  *
 335:../../MMI/Resource/WriteRes.c ****  * removed!
 336:../../MMI/Resource/WriteRes.c ****  * removed!
 337:../../MMI/Resource/WriteRes.c ****  *
 338:../../MMI/Resource/WriteRes.c ****  *
 339:../../MMI/Resource/WriteRes.c ****  * removed!
 340:../../MMI/Resource/WriteRes.c ****  * removed!
 341:../../MMI/Resource/WriteRes.c ****  *
 342:../../MMI/Resource/WriteRes.c ****  *
 343:../../MMI/Resource/WriteRes.c ****  * removed!
 344:../../MMI/Resource/WriteRes.c ****  * removed!
 345:../../MMI/Resource/WriteRes.c ****  *
 346:../../MMI/Resource/WriteRes.c ****  *
 347:../../MMI/Resource/WriteRes.c ****  * removed!
 348:../../MMI/Resource/WriteRes.c ****  * removed!
 349:../../MMI/Resource/WriteRes.c ****  *
 350:../../MMI/Resource/WriteRes.c ****  *
 351:../../MMI/Resource/WriteRes.c ****  * removed!
 352:../../MMI/Resource/WriteRes.c ****  * removed!
 353:../../MMI/Resource/WriteRes.c ****  *
 354:../../MMI/Resource/WriteRes.c ****  *
 355:../../MMI/Resource/WriteRes.c ****  * removed!
 356:../../MMI/Resource/WriteRes.c ****  * removed!
 357:../../MMI/Resource/WriteRes.c ****  *
 358:../../MMI/Resource/WriteRes.c ****  *
 359:../../MMI/Resource/WriteRes.c ****  * removed!
 360:../../MMI/Resource/WriteRes.c ****  * removed!
 361:../../MMI/Resource/WriteRes.c ****  *
 362:../../MMI/Resource/WriteRes.c ****  *
 363:../../MMI/Resource/WriteRes.c ****  * removed!
 364:../../MMI/Resource/WriteRes.c ****  * removed!
 365:../../MMI/Resource/WriteRes.c ****  *
 366:../../MMI/Resource/WriteRes.c ****  *
 367:../../MMI/Resource/WriteRes.c ****  * removed!
 368:../../MMI/Resource/WriteRes.c ****  * removed!
 369:../../MMI/Resource/WriteRes.c ****  *
 370:../../MMI/Resource/WriteRes.c ****  *
 371:../../MMI/Resource/WriteRes.c ****  * removed!
 372:../../MMI/Resource/WriteRes.c ****  * removed!
 373:../../MMI/Resource/WriteRes.c ****  *
 374:../../MMI/Resource/WriteRes.c ****  *
GAS LISTING d:/software/ovi_2503a_s3trc/ovi_2503a_s3trc/plutommi/Customer/ResGenerator/gcctmp/ccWMaaaa.s 			page 11


 375:../../MMI/Resource/WriteRes.c ****  * removed!
 376:../../MMI/Resource/WriteRes.c ****  * removed!
 377:../../MMI/Resource/WriteRes.c ****  *
 378:../../MMI/Resource/WriteRes.c ****  *
 379:../../MMI/Resource/WriteRes.c ****  * removed!
 380:../../MMI/Resource/WriteRes.c ****  * removed!
 381:../../MMI/Resource/WriteRes.c ****  *
 382:../../MMI/Resource/WriteRes.c ****  *
 383:../../MMI/Resource/WriteRes.c ****  * removed!
 384:../../MMI/Resource/WriteRes.c ****  * removed!
 385:../../MMI/Resource/WriteRes.c ****  *
 386:../../MMI/Resource/WriteRes.c ****  *
 387:../../MMI/Resource/WriteRes.c ****  * removed!
 388:../../MMI/Resource/WriteRes.c ****  * removed!
 389:../../MMI/Resource/WriteRes.c ****  *
 390:../../MMI/Resource/WriteRes.c ****  *
 391:../../MMI/Resource/WriteRes.c ****  * removed!
 392:../../MMI/Resource/WriteRes.c ****  * removed!
 393:../../MMI/Resource/WriteRes.c ****  *
 394:../../MMI/Resource/WriteRes.c ****  *
 395:../../MMI/Resource/WriteRes.c ****  * removed!
 396:../../MMI/Resource/WriteRes.c ****  * removed!
 397:../../MMI/Resource/WriteRes.c ****  *
 398:../../MMI/Resource/WriteRes.c ****  *
 399:../../MMI/Resource/WriteRes.c ****  * removed!
 400:../../MMI/Resource/WriteRes.c ****  * removed!
 401:../../MMI/Resource/WriteRes.c ****  *
 402:../../MMI/Resource/WriteRes.c ****  *
 403:../../MMI/Resource/WriteRes.c ****  * removed!
 404:../../MMI/Resource/WriteRes.c ****  * removed!
 405:../../MMI/Resource/WriteRes.c ****  *
 406:../../MMI/Resource/WriteRes.c ****  *
 407:../../MMI/Resource/WriteRes.c ****  * removed!
 408:../../MMI/Resource/WriteRes.c ****  * removed!
 409:../../MMI/Resource/WriteRes.c ****  *
 410:../../MMI/Resource/WriteRes.c ****  *
 411:../../MMI/Resource/WriteRes.c ****  * removed!
 412:../../MMI/Resource/WriteRes.c ****  * removed!
 413:../../MMI/Resource/WriteRes.c ****  *
 414:../../MMI/Resource/WriteRes.c ****  *
 415:../../MMI/Resource/WriteRes.c ****  * removed!
 416:../../MMI/Resource/WriteRes.c ****  * removed!
 417:../../MMI/Resource/WriteRes.c ****  *
 418:../../MMI/Resource/WriteRes.c ****  *
 419:../../MMI/Resource/WriteRes.c ****  * removed!
 420:../../MMI/Resource/WriteRes.c ****  * removed!
 421:../../MMI/Resource/WriteRes.c ****  *
 422:../../MMI/Resource/WriteRes.c ****  *
 423:../../MMI/Resource/WriteRes.c ****  * removed!
 424:../../MMI/Resource/WriteRes.c ****  * removed!
 425:../../MMI/Resource/WriteRes.c ****  *
 426:../../MMI/Resource/WriteRes.c ****  *
 427:../../MMI/Resource/WriteRes.c ****  * removed!
 428:../../MMI/Resource/WriteRes.c ****  * removed!
 429:../../MMI/Resource/WriteRes.c ****  *
 430:../../MMI/Resource/WriteRes.c ****  *
 431:../../MMI/Resource/WriteRes.c ****  * removed!
GAS LISTING d:/software/ovi_2503a_s3trc/ovi_2503a_s3trc/plutommi/Customer/ResGenerator/gcctmp/ccWMaaaa.s 			page 12


 432:../../MMI/Resource/WriteRes.c ****  * removed!
 433:../../MMI/Resource/WriteRes.c ****  *
 434:../../MMI/Resource/WriteRes.c ****  *
 435:../../MMI/Resource/WriteRes.c ****  * removed!
 436:../../MMI/Resource/WriteRes.c ****  * removed!
 437:../../MMI/Resource/WriteRes.c ****  *
 438:../../MMI/Resource/WriteRes.c ****  *
 439:../../MMI/Resource/WriteRes.c ****  * removed!
 440:../../MMI/Resource/WriteRes.c ****  * removed!
 441:../../MMI/Resource/WriteRes.c ****  * removed!
 442:../../MMI/Resource/WriteRes.c ****  *
 443:../../MMI/Resource/WriteRes.c ****  * removed!
 444:../../MMI/Resource/WriteRes.c ****  * removed!
 445:../../MMI/Resource/WriteRes.c ****  *
 446:../../MMI/Resource/WriteRes.c ****  *
 447:../../MMI/Resource/WriteRes.c ****  * removed!
 448:../../MMI/Resource/WriteRes.c ****  * removed!
 449:../../MMI/Resource/WriteRes.c ****  *
 450:../../MMI/Resource/WriteRes.c ****  *
 451:../../MMI/Resource/WriteRes.c ****  * removed!
 452:../../MMI/Resource/WriteRes.c ****  * removed!
 453:../../MMI/Resource/WriteRes.c ****  *
 454:../../MMI/Resource/WriteRes.c ****  *
 455:../../MMI/Resource/WriteRes.c ****  * removed!
 456:../../MMI/Resource/WriteRes.c ****  * removed!
 457:../../MMI/Resource/WriteRes.c ****  *
 458:../../MMI/Resource/WriteRes.c ****  *
 459:../../MMI/Resource/WriteRes.c ****  * removed!
 460:../../MMI/Resource/WriteRes.c ****  * removed!
 461:../../MMI/Resource/WriteRes.c ****  * removed!
 462:../../MMI/Resource/WriteRes.c ****  *
 463:../../MMI/Resource/WriteRes.c ****  * removed!
 464:../../MMI/Resource/WriteRes.c ****  * removed!
 465:../../MMI/Resource/WriteRes.c ****  *
 466:../../MMI/Resource/WriteRes.c ****  *
 467:../../MMI/Resource/WriteRes.c ****  * removed!
 468:../../MMI/Resource/WriteRes.c ****  * removed!
 469:../../MMI/Resource/WriteRes.c ****  *
 470:../../MMI/Resource/WriteRes.c ****  *
 471:../../MMI/Resource/WriteRes.c ****  * removed!
 472:../../MMI/Resource/WriteRes.c ****  * removed!
 473:../../MMI/Resource/WriteRes.c ****  *
 474:../../MMI/Resource/WriteRes.c ****  *
 475:../../MMI/Resource/WriteRes.c ****  * removed!
 476:../../MMI/Resource/WriteRes.c ****  * removed!
 477:../../MMI/Resource/WriteRes.c ****  *
 478:../../MMI/Resource/WriteRes.c ****  *
 479:../../MMI/Resource/WriteRes.c ****  * removed!
 480:../../MMI/Resource/WriteRes.c ****  * removed!
 481:../../MMI/Resource/WriteRes.c ****  *
 482:../../MMI/Resource/WriteRes.c ****  *
 483:../../MMI/Resource/WriteRes.c ****  * removed!
 484:../../MMI/Resource/WriteRes.c ****  * removed!
 485:../../MMI/Resource/WriteRes.c ****  *
 486:../../MMI/Resource/WriteRes.c ****  *
 487:../../MMI/Resource/WriteRes.c ****  * removed!
 488:../../MMI/Resource/WriteRes.c ****  * removed!
GAS LISTING d:/software/ovi_2503a_s3trc/ovi_2503a_s3trc/plutommi/Customer/ResGenerator/gcctmp/ccWMaaaa.s 			page 13


 489:../../MMI/Resource/WriteRes.c ****  *
 490:../../MMI/Resource/WriteRes.c ****  *
 491:../../MMI/Resource/WriteRes.c ****  * removed!
 492:../../MMI/Resource/WriteRes.c ****  * removed!
 493:../../MMI/Resource/WriteRes.c ****  *
 494:../../MMI/Resource/WriteRes.c ****  *
 495:../../MMI/Resource/WriteRes.c ****  * removed!
 496:../../MMI/Resource/WriteRes.c ****  * removed!
 497:../../MMI/Resource/WriteRes.c ****  *
 498:../../MMI/Resource/WriteRes.c ****  *
 499:../../MMI/Resource/WriteRes.c ****  * removed!
 500:../../MMI/Resource/WriteRes.c ****  * removed!
 501:../../MMI/Resource/WriteRes.c ****  *
 502:../../MMI/Resource/WriteRes.c ****  *
 503:../../MMI/Resource/WriteRes.c ****  * removed!
 504:../../MMI/Resource/WriteRes.c ****  * removed!
 505:../../MMI/Resource/WriteRes.c ****  *
 506:../../MMI/Resource/WriteRes.c ****  *
 507:../../MMI/Resource/WriteRes.c ****  * removed!
 508:../../MMI/Resource/WriteRes.c ****  * removed!
 509:../../MMI/Resource/WriteRes.c ****  *
 510:../../MMI/Resource/WriteRes.c ****  *
 511:../../MMI/Resource/WriteRes.c ****  * removed!
 512:../../MMI/Resource/WriteRes.c ****  * removed!
 513:../../MMI/Resource/WriteRes.c ****  *
 514:../../MMI/Resource/WriteRes.c ****  *
 515:../../MMI/Resource/WriteRes.c ****  * removed!
 516:../../MMI/Resource/WriteRes.c ****  * removed!
 517:../../MMI/Resource/WriteRes.c ****  *
 518:../../MMI/Resource/WriteRes.c ****  *
 519:../../MMI/Resource/WriteRes.c ****  * removed!
 520:../../MMI/Resource/WriteRes.c ****  * removed!
 521:../../MMI/Resource/WriteRes.c ****  *
 522:../../MMI/Resource/WriteRes.c ****  *
 523:../../MMI/Resource/WriteRes.c ****  * removed!
 524:../../MMI/Resource/WriteRes.c ****  * removed!
 525:../../MMI/Resource/WriteRes.c ****  *
 526:../../MMI/Resource/WriteRes.c ****  *
 527:../../MMI/Resource/WriteRes.c ****  * removed!
 528:../../MMI/Resource/WriteRes.c ****  * removed!
 529:../../MMI/Resource/WriteRes.c ****  *
 530:../../MMI/Resource/WriteRes.c ****  *
 531:../../MMI/Resource/WriteRes.c ****  * removed!
 532:../../MMI/Resource/WriteRes.c ****  * removed!
 533:../../MMI/Resource/WriteRes.c ****  *
 534:../../MMI/Resource/WriteRes.c ****  *
 535:../../MMI/Resource/WriteRes.c ****  * removed!
 536:../../MMI/Resource/WriteRes.c ****  * removed!
 537:../../MMI/Resource/WriteRes.c ****  * removed!
 538:../../MMI/Resource/WriteRes.c ****  *
 539:../../MMI/Resource/WriteRes.c ****  * removed!
 540:../../MMI/Resource/WriteRes.c ****  * removed!
 541:../../MMI/Resource/WriteRes.c ****  *
 542:../../MMI/Resource/WriteRes.c ****  *
 543:../../MMI/Resource/WriteRes.c ****  * removed!
 544:../../MMI/Resource/WriteRes.c ****  * removed!
 545:../../MMI/Resource/WriteRes.c ****  *
GAS LISTING d:/software/ovi_2503a_s3trc/ovi_2503a_s3trc/plutommi/Customer/ResGenerator/gcctmp/ccWMaaaa.s 			page 14


 546:../../MMI/Resource/WriteRes.c ****  *
 547:../../MMI/Resource/WriteRes.c ****  * removed!
 548:../../MMI/Resource/WriteRes.c ****  * removed!
 549:../../MMI/Resource/WriteRes.c ****  *
 550:../../MMI/Resource/WriteRes.c ****  *
 551:../../MMI/Resource/WriteRes.c ****  * removed!
 552:../../MMI/Resource/WriteRes.c ****  * removed!
 553:../../MMI/Resource/WriteRes.c ****  *
 554:../../MMI/Resource/WriteRes.c ****  *
 555:../../MMI/Resource/WriteRes.c ****  * removed!
 556:../../MMI/Resource/WriteRes.c ****  * removed!
 557:../../MMI/Resource/WriteRes.c ****  *
 558:../../MMI/Resource/WriteRes.c ****  *
 559:../../MMI/Resource/WriteRes.c ****  * removed!
 560:../../MMI/Resource/WriteRes.c ****  * removed!
 561:../../MMI/Resource/WriteRes.c ****  *
 562:../../MMI/Resource/WriteRes.c ****  *
 563:../../MMI/Resource/WriteRes.c ****  * removed!
 564:../../MMI/Resource/WriteRes.c ****  * removed!
 565:../../MMI/Resource/WriteRes.c ****  *
 566:../../MMI/Resource/WriteRes.c ****  *
 567:../../MMI/Resource/WriteRes.c ****  * removed!
 568:../../MMI/Resource/WriteRes.c ****  * removed!
 569:../../MMI/Resource/WriteRes.c ****  *
 570:../../MMI/Resource/WriteRes.c ****  *
 571:../../MMI/Resource/WriteRes.c ****  * removed!
 572:../../MMI/Resource/WriteRes.c ****  * removed!
 573:../../MMI/Resource/WriteRes.c ****  *
 574:../../MMI/Resource/WriteRes.c ****  *
 575:../../MMI/Resource/WriteRes.c ****  * removed!
 576:../../MMI/Resource/WriteRes.c ****  * removed!
 577:../../MMI/Resource/WriteRes.c ****  *
 578:../../MMI/Resource/WriteRes.c ****  *
 579:../../MMI/Resource/WriteRes.c ****  * removed!
 580:../../MMI/Resource/WriteRes.c ****  * removed!
 581:../../MMI/Resource/WriteRes.c ****  *
 582:../../MMI/Resource/WriteRes.c ****  *
 583:../../MMI/Resource/WriteRes.c ****  * removed!
 584:../../MMI/Resource/WriteRes.c ****  * removed!
 585:../../MMI/Resource/WriteRes.c ****  *
 586:../../MMI/Resource/WriteRes.c ****  *
 587:../../MMI/Resource/WriteRes.c ****  * removed!
 588:../../MMI/Resource/WriteRes.c ****  * removed!
 589:../../MMI/Resource/WriteRes.c ****  *
 590:../../MMI/Resource/WriteRes.c ****  *
 591:../../MMI/Resource/WriteRes.c ****  *------------------------------------------------------------------------------
 592:../../MMI/Resource/WriteRes.c ****  * Upper this line, this part is controlled by PVCS VM. DO NOT MODIFY!!
 593:../../MMI/Resource/WriteRes.c ****  *==============================================================================
 594:../../MMI/Resource/WriteRes.c ****  *******************************************************************************/
 595:../../MMI/Resource/WriteRes.c **** 
 596:../../MMI/Resource/WriteRes.c **** /**
 597:../../MMI/Resource/WriteRes.c ****  * Copyright Notice
 598:../../MMI/Resource/WriteRes.c ****  * ?2002 - 2003, Pixtel Communications, Inc., 1489 43rd Ave. W.,
 599:../../MMI/Resource/WriteRes.c ****  * Vancouver, B.C. V6M 4K8 Canada. All Rights Reserved.
 600:../../MMI/Resource/WriteRes.c ****  *  (It is illegal to remove this copyright notice from this software or any
 601:../../MMI/Resource/WriteRes.c ****  *  portion of it)
 602:../../MMI/Resource/WriteRes.c ****  */
GAS LISTING d:/software/ovi_2503a_s3trc/ovi_2503a_s3trc/plutommi/Customer/ResGenerator/gcctmp/ccWMaaaa.s 			page 15


 603:../../MMI/Resource/WriteRes.c **** /**********************************************************************************
 604:../../MMI/Resource/WriteRes.c ****    FILENAME : WriteRes.c
 605:../../MMI/Resource/WriteRes.c **** 
 606:../../MMI/Resource/WriteRes.c ****    PURPOSE     : Helper Functions   to Write/Generate the Customizable Resources like Strings,Image
 607:../../MMI/Resource/WriteRes.c **** 
 608:../../MMI/Resource/WriteRes.c ****    REMARKS     : nil
 609:../../MMI/Resource/WriteRes.c **** 
 610:../../MMI/Resource/WriteRes.c ****    AUTHOR      : Subramanya BG
 611:../../MMI/Resource/WriteRes.c **** 
 612:../../MMI/Resource/WriteRes.c ****    DATE     : 20thSept 2002.
 613:../../MMI/Resource/WriteRes.c **** 
 614:../../MMI/Resource/WriteRes.c ****    Copyright (c) 2002 All rights reserved by Pixtel Communications
 615:../../MMI/Resource/WriteRes.c **** **********************************************************************************/
 616:../../MMI/Resource/WriteRes.c **** #include "GlobalMenuItems.h"
 617:../../MMI/Resource/WriteRes.c **** #include "MMIDataType.h"
 618:../../MMI/Resource/WriteRes.c **** #include "CustDataRes.h"
 619:../../MMI/Resource/WriteRes.c **** #include "CustDataProts.h"
 620:../../MMI/Resource/WriteRes.c **** #include "CustMenuRes.h"
 621:../../MMI/Resource/WriteRes.c **** #include "mmi_features.h"
 622:../../MMI/Resource/WriteRes.c **** #include <string.h>
 623:../../MMI/Resource/WriteRes.c **** #include <stdio.h>
 624:../../MMI/Resource/WriteRes.c **** #include <stdarg.h>
 625:../../MMI/Resource/WriteRes.c **** 
 626:../../MMI/Resource/WriteRes.c **** #define WIN32_LEAN_AND_MEAN
 627:../../MMI/Resource/WriteRes.c **** #include "windows.h"
 628:../../MMI/Resource/WriteRes.c **** 
 629:../../MMI/Resource/WriteRes.c **** #include "CustResDef.h"
 630:../../MMI/Resource/WriteRes.c **** #include "gui_resource_type.h"
 631:../../MMI/Resource/WriteRes.c **** #include "ABMLoader.h"
 632:../../MMI/Resource/WriteRes.c **** #include "CmidiGen.h"
 633:../../MMI/Resource/WriteRes.c **** #include "WriteResUtil.h"
 634:../../MMI/Resource/WriteRes.c **** #include "ResgenLogCAPI.h" 
 635:../../MMI/Resource/WriteRes.c **** 
 636:../../MMI/Resource/WriteRes.c **** /*RHR*/
 637:../../MMI/Resource/WriteRes.c ****     #include "mmi_res_range_def.h"
 638:../../MMI/Resource/WriteRes.c **** 
 639:../../MMI/Resource/WriteRes.c **** /* buffer size for shell command */
 640:../../MMI/Resource/WriteRes.c **** #define SHELL_CMD_BUFLEN            (MAX_FILENAME_LEN + 100)
 641:../../MMI/Resource/WriteRes.c **** 
 642:../../MMI/Resource/WriteRes.c **** #define MENUITEM_ID_TYPE            9
 643:../../MMI/Resource/WriteRes.c **** #define PARENT_ITEM_ID_TYPE         8
 644:../../MMI/Resource/WriteRes.c **** #define NUMBER_OF_MENUITEMS_TYPE    7
 645:../../MMI/Resource/WriteRes.c **** #define MENU_ITEM_ORDER_TYPE        6
 646:../../MMI/Resource/WriteRes.c **** #define HIDE_FLAG_TYPE              5
 647:../../MMI/Resource/WriteRes.c **** #define MOVEABLE_FLAG_TYPE          4
 648:../../MMI/Resource/WriteRes.c **** #define DISPLAY_ATTRIBUTE_TYPE      3
 649:../../MMI/Resource/WriteRes.c **** #define MENU_ITEM_STRING_ID_TYPE    2
 650:../../MMI/Resource/WriteRes.c **** #define MENU_ITEM_IMAGE_ID_TYPE     1
 651:../../MMI/Resource/WriteRes.c **** #define TRUE                        1
 652:../../MMI/Resource/WriteRes.c **** #define FALSE                       0
 653:../../MMI/Resource/WriteRes.c **** 
 654:../../MMI/Resource/WriteRes.c **** #define OUTPUT_DATA_FILENAME        "..\\..\\Customer\\CustResource\\CustImgDataHW.h"
 655:../../MMI/Resource/WriteRes.c **** #define OUTPUT_DATA_FILENAME_EXT    "..\\..\\Customer\\CustResource\\CustImgDataHWExt.h"
 656:../../MMI/Resource/WriteRes.c **** #define OUTPUT_MENUTREE_FILENAME    "..\\..\\Customer\\CustResource\\CustMenuTree_Out.c"
 657:../../MMI/Resource/WriteRes.c **** 
 658:../../MMI/Resource/WriteRes.c **** #define AUDIO_OUTPUT_DATA_FILENAME      "..\\..\\Customer\\CustResource\\CustAdoDataHW.h"
 659:../../MMI/Resource/WriteRes.c **** #define AUDIO_OUTPUT_DATA_FILENAME_EXT  "..\\..\\Customer\\CustResource\\CustAdoDataHWExt.h"
GAS LISTING d:/software/ovi_2503a_s3trc/ovi_2503a_s3trc/plutommi/Customer/ResGenerator/gcctmp/ccWMaaaa.s 			page 16


 660:../../MMI/Resource/WriteRes.c **** #define OUTPUT_AUDIO_NAMES_END          "[] =\n{"
 661:../../MMI/Resource/WriteRes.c **** #define NOAUDIO_FILENAMEBUFFER          "..\\\\..\\\\Customer\\\\AUDIO\\\\NOAUDIO.MP3"
 662:../../MMI/Resource/WriteRes.c **** #define AUDIO_DEFAULT_FILEBUFFER        "________CUSTOMER__AUDIO__DEFAULT_MP3"
 663:../../MMI/Resource/WriteRes.c **** 
 664:../../MMI/Resource/WriteRes.c **** #define OUTPUT_BINARY_NAMES_END          "[] =\n{"
 665:../../MMI/Resource/WriteRes.c **** #define NO_BINARY_FILE_NAME_BUFFER          "..\\\\..\\\\Customer\\\\Binary\\\\NoBinary.bin"
 666:../../MMI/Resource/WriteRes.c **** #define BINARY_DEFAULT_FILEBUFFER        "________CUSTOMER__BINARY__NOBINARY_BIN"
 667:../../MMI/Resource/WriteRes.c **** 
 668:../../MMI/Resource/WriteRes.c **** #define FONT_OUTPUT_DATA_FILENAME		"..\\..\\Customer\\CustResource\\CustFontDataHW.h"
 669:../../MMI/Resource/WriteRes.c **** 
 670:../../MMI/Resource/WriteRes.c **** #ifdef __MMI_RESOURCE_ENFB_SUPPORT__
 671:../../MMI/Resource/WriteRes.c **** #define ENFB_IMAGE_DATA_FILENAME    "..\\..\\Customer\\CustResource\\CustENFBImgData"//100206 ENFB 
 672:../../MMI/Resource/WriteRes.c **** #endif
 673:../../MMI/Resource/WriteRes.c **** 
 674:../../MMI/Resource/WriteRes.c **** #ifdef __MMI_FONT_THIRD_ROM_SUPPORT__
 675:../../MMI/Resource/WriteRes.c **** #define ENFB_FONT_DATA_FILENAME    "..\\..\\Customer\\CustResource\\CustENFBFontData"
 676:../../MMI/Resource/WriteRes.c **** #endif
 677:../../MMI/Resource/WriteRes.c **** 
 678:../../MMI/Resource/WriteRes.c **** 
 679:../../MMI/Resource/WriteRes.c **** 
 680:../../MMI/Resource/WriteRes.c **** #define RESWRI_TAG       "WRITERES"
 681:../../MMI/Resource/WriteRes.c **** #define RESWRI_LOG_D(format, args...) RES_LOG_D((RESWRI_TAG), (format) , ##args)
 682:../../MMI/Resource/WriteRes.c **** #define RESWRI_LOG_V(format, args...) RES_LOG_V((RESWRI_TAG), (format) , ##args)
 683:../../MMI/Resource/WriteRes.c **** #define RESWRI_LOG_W(format, args...) RES_LOG_W((RESWRI_TAG), (format) , ##args)
 684:../../MMI/Resource/WriteRes.c **** #define RESWRI_LOG_E(format, args...) RES_LOG_E((RESWRI_TAG), (format) , ##args)
 685:../../MMI/Resource/WriteRes.c **** 
 686:../../MMI/Resource/WriteRes.c **** 
 687:../../MMI/Resource/WriteRes.c **** static BOOL ExtAudioFlag = FALSE;
 688:../../MMI/Resource/WriteRes.c **** 
 689:../../MMI/Resource/WriteRes.c **** #define ASSERT(expr) {if(!(expr)) {while(1);}else {}}
 690:../../MMI/Resource/WriteRes.c **** 
 691:../../MMI/Resource/WriteRes.c **** #if defined(__MMI_RESOURCE_AUDIO_COMPRESS__)
 692:../../MMI/Resource/WriteRes.c **** 
 693:../../MMI/Resource/WriteRes.c **** res_compress_struct res_compress_data[MAX_COMPRESSED_ITEM];
 694:../../MMI/Resource/WriteRes.c **** U32 res_compress_count = 0;
 695:../../MMI/Resource/WriteRes.c **** 
 696:../../MMI/Resource/WriteRes.c **** #else /* (__MMI_RESOURCE_AUDIO_COMPRESS__) */
 697:../../MMI/Resource/WriteRes.c **** 
 698:../../MMI/Resource/WriteRes.c **** #endif /* (__MMI_RESOURCE_AUDIO_COMPRESS__) */
 699:../../MMI/Resource/WriteRes.c **** 
 700:../../MMI/Resource/WriteRes.c **** static U8 is_first = 1;
 701:../../MMI/Resource/WriteRes.c **** static U32 audio_idx = 1;
 702:../../MMI/Resource/WriteRes.c **** static U32 binary_idx = 1;
 703:../../MMI/Resource/WriteRes.c **** 
 704:../../MMI/Resource/WriteRes.c **** void Extract_Name(S8 *dest, S8 *src, image_type_enum ExtImageFlag);
 705:../../MMI/Resource/WriteRes.c **** MMI_BOOL Aload(S8 *string);
 706:../../MMI/Resource/WriteRes.c **** 
 707:../../MMI/Resource/WriteRes.c **** 
 708:../../MMI/Resource/WriteRes.c **** U8 StrIsPopulate[MAX_STRING_MAP_SIZE];
 709:../../MMI/Resource/WriteRes.c **** U8 *StrEnum[MAX_STRING_MAP_SIZE];
 710:../../MMI/Resource/WriteRes.c **** U8 *Str[MAX_STRING_MAP_SIZE];
 711:../../MMI/Resource/WriteRes.c **** 
 712:../../MMI/Resource/WriteRes.c **** extern FILE *OutputMenutreeIDFile;
 713:../../MMI/Resource/WriteRes.c **** extern FILE *RepeatIDListFile;
 714:../../MMI/Resource/WriteRes.c **** 
 715:../../MMI/Resource/WriteRes.c **** 
 716:../../MMI/Resource/WriteRes.c **** static S32 g_ressize = 0;
GAS LISTING d:/software/ovi_2503a_s3trc/ovi_2503a_s3trc/plutommi/Customer/ResGenerator/gcctmp/ccWMaaaa.s 			page 17


 717:../../MMI/Resource/WriteRes.c **** 
 718:../../MMI/Resource/WriteRes.c **** extern mmi_resource_base_struct g_mmi_resource_base_table[];
 719:../../MMI/Resource/WriteRes.c **** extern FILE *fpMenuResourceUsage;
 720:../../MMI/Resource/WriteRes.c **** extern FILE *fpAudioResourceUsage;
 721:../../MMI/Resource/WriteRes.c **** extern FILE *fpStringResourceUsage;
 722:../../MMI/Resource/WriteRes.c **** 
 723:../../MMI/Resource/WriteRes.c **** static U32 g_resado_count = 0;
 724:../../MMI/Resource/WriteRes.c **** static CUSTOM_RESOURCE_SIZE g_resado_table[MAX_AUDIO_IDS_SIZE];
 725:../../MMI/Resource/WriteRes.c **** 
 726:../../MMI/Resource/WriteRes.c **** 
 727:../../MMI/Resource/WriteRes.c **** extern FILE *OutputAdoIDFile;
 728:../../MMI/Resource/WriteRes.c **** extern FILE *OutputBinaryIDFile;
 729:../../MMI/Resource/WriteRes.c **** 
 730:../../MMI/Resource/WriteRes.c **** /* decalred in the CustAudioRes.c */
 731:../../MMI/Resource/WriteRes.c **** extern AUDIONAME_LIST AudioNameList[];
 732:../../MMI/Resource/WriteRes.c **** extern CUSTOM_AUDIO_MAP AudioIdMap[];
 733:../../MMI/Resource/WriteRes.c **** extern AUDIONAME_LIST AudioNameListEXT[];
 734:../../MMI/Resource/WriteRes.c **** extern CUSTOM_AUDIO_MAP AudioIdMapEXT[];
 735:../../MMI/Resource/WriteRes.c **** 
 736:../../MMI/Resource/WriteRes.c **** /* declared in the CustMenuDataRes.c */
 737:../../MMI/Resource/WriteRes.c **** extern CUSTOM_MENU nCustMenus[];
 738:../../MMI/Resource/WriteRes.c **** 
 739:../../MMI/Resource/WriteRes.c **** /* Global Variables */
 740:../../MMI/Resource/WriteRes.c **** 
 741:../../MMI/Resource/WriteRes.c **** FILE *dest_file;
 742:../../MMI/Resource/WriteRes.c **** 
 743:../../MMI/Resource/WriteRes.c **** int toolFlag = 0;       /* decide if this is run by CustPack tool */
 744:../../MMI/Resource/WriteRes.c **** int resultFailFlag = 0; /* decide if this is run by CustPack tool */
 745:../../MMI/Resource/WriteRes.c **** MMI_BOOL g_is_log = MMI_TRUE;
 746:../../MMI/Resource/WriteRes.c **** static S32 g_force_ado_type = AUTO_ADO_TYPE;
 747:../../MMI/Resource/WriteRes.c **** 
 748:../../MMI/Resource/WriteRes.c **** #ifdef __MMI_RESOURCE_ENFB_SUPPORT__
 749:../../MMI/Resource/WriteRes.c **** FILE *enfb_img_data_file;
 750:../../MMI/Resource/WriteRes.c **** #endif
 751:../../MMI/Resource/WriteRes.c **** 
 752:../../MMI/Resource/WriteRes.c **** #ifdef __MMI_FONT_THIRD_ROM_SUPPORT__
 753:../../MMI/Resource/WriteRes.c **** FILE *enfb_font_data_file;
 754:../../MMI/Resource/WriteRes.c **** #endif
 755:../../MMI/Resource/WriteRes.c **** 
 756:../../MMI/Resource/WriteRes.c **** // local constants
 757:../../MMI/Resource/WriteRes.c **** static const S8 CustImgPath[] = CUST_IMG_PATH;
 758:../../MMI/Resource/WriteRes.c **** static const S8 CustAdoPath[] = CUST_ADO_PATH;
 759:../../MMI/Resource/WriteRes.c **** static const S8 CustBinaryPath[] = CUST_BINARY_PATH;
 760:../../MMI/Resource/WriteRes.c **** 
 761:../../MMI/Resource/WriteRes.c **** #ifdef __UCS2_ENCODING
 762:../../MMI/Resource/WriteRes.c **** static U16 AnsiiToUnicodeString(S8 *pOutBuffer, S8 *pInBuffer);
 763:../../MMI/Resource/WriteRes.c **** #endif
 764:../../MMI/Resource/WriteRes.c **** 
 765:../../MMI/Resource/WriteRes.c **** // global variables from other .c
 766:../../MMI/Resource/WriteRes.c **** extern U16 CurrMaxStringId;
 767:../../MMI/Resource/WriteRes.c **** 
 768:../../MMI/Resource/WriteRes.c **** extern U16 CurrMaxAudioNum;
 769:../../MMI/Resource/WriteRes.c **** extern U16 CurrMaxAudioId;
 770:../../MMI/Resource/WriteRes.c **** extern U16 CurrMaxAudioNumEXT;
 771:../../MMI/Resource/WriteRes.c **** extern U16 CurrMaxAudioIdEXT;
 772:../../MMI/Resource/WriteRes.c **** 
 773:../../MMI/Resource/WriteRes.c **** #ifdef __POPULATE_ENGINE_
GAS LISTING d:/software/ovi_2503a_s3trc/ovi_2503a_s3trc/plutommi/Customer/ResGenerator/gcctmp/ccWMaaaa.s 			page 18


 774:../../MMI/Resource/WriteRes.c **** static void AddStringInfo(int StrId, char *pString, char *pStringDisplay);
 775:../../MMI/Resource/WriteRes.c **** static void AddImageInfo(int ImgId, char *pImage, char *pIMageDisplay);
 776:../../MMI/Resource/WriteRes.c **** static void AddApplicationInfo(U32 nId, S8 *pName, U32 nMinId, U32 nMaxId);
 777:../../MMI/Resource/WriteRes.c **** #endif /* __POPULATE_ENGINE_ */
 778:../../MMI/Resource/WriteRes.c **** 
 779:../../MMI/Resource/WriteRes.c **** 
 780:../../MMI/Resource/WriteRes.c **** /* Local Functions */
 781:../../MMI/Resource/WriteRes.c **** U32 GetOffsetFromResourceBase(U16 ImageID, U8* enum_value); // XXX
 782:../../MMI/Resource/WriteRes.c **** static void ConvertToPrintable(S8 *original, S8 *converted);
 783:../../MMI/Resource/WriteRes.c **** static U16 MenuItemPresent(U16 ItemId);
 784:../../MMI/Resource/WriteRes.c **** 
 785:../../MMI/Resource/WriteRes.c **** static S32 Load_Audio_Data(
 786:../../MMI/Resource/WriteRes.c ****         FILE *output_file,
 787:../../MMI/Resource/WriteRes.c ****         FILE *input_file,
 788:../../MMI/Resource/WriteRes.c ****         U8 audio_identifier);
 789:../../MMI/Resource/WriteRes.c **** static MMI_BOOL isMainmenuImage(S8 *path);
 790:../../MMI/Resource/WriteRes.c **** 
 791:../../MMI/Resource/WriteRes.c **** 
 792:../../MMI/Resource/WriteRes.c **** U32 GetOffsetFromResourceBase(U16 ImageID, U8* enum_value)
 793:../../MMI/Resource/WriteRes.c **** {
 2678              	LM1:
 2679 0253 55       		pushl	%ebp
 2680 0254 89E5     		movl	%esp, %ebp
 2681 0256 83EC28   		subl	$40, %esp
 2682 0259 8B4508   		movl	8(%ebp), %eax
 2683 025c 668945FE 		movw	%ax, -2(%ebp)
 794:../../MMI/Resource/WriteRes.c ****     U32 i = 0;
 2685              	LM2:
 2686              	LBB2:
 2687 0260 C745F800 		movl	$0, -8(%ebp)
 2687      000000
 2688              	L34:
 795:../../MMI/Resource/WriteRes.c **** 
 796:../../MMI/Resource/WriteRes.c ****     while (1)
 797:../../MMI/Resource/WriteRes.c ****     {
 798:../../MMI/Resource/WriteRes.c ****         if (strncmp(g_mmi_resource_base_table[i].appname, "END", 3) == 0)
 2690              	LM3:
 2691 0267 C7442408 		movl	$3, 8(%esp)
 2691      03000000 
 2692 026f C7442404 		movl	$LC21, 4(%esp)
 2692      98010000 
 2693 0277 8B55F8   		movl	-8(%ebp), %edx
 2694 027a 89D0     		movl	%edx, %eax
 2695 027c C1E006   		sall	$6, %eax
 2696 027f 01D0     		addl	%edx, %eax
 2697 0281 C1E003   		sall	$3, %eax
 2698 0284 8B800000 		movl	_g_mmi_resource_base_table(%eax), %eax
 2698      0000
 2699 028a 890424   		movl	%eax, (%esp)
 2700 028d E8000000 		call	_strncmp
 2700      00
 2701 0292 85C0     		testl	%eax, %eax
 2702 0294 7505     		jne	L37
 799:../../MMI/Resource/WriteRes.c ****         {
 800:../../MMI/Resource/WriteRes.c ****             break;
 2704              	LM4:
 2705 0296 E9EB0000 		jmp	L35
GAS LISTING d:/software/ovi_2503a_s3trc/ovi_2503a_s3trc/plutommi/Customer/ResGenerator/gcctmp/ccWMaaaa.s 			page 19


 2705      00
 2706              	L37:
 801:../../MMI/Resource/WriteRes.c ****         }
 802:../../MMI/Resource/WriteRes.c ****         else if ((ImageID >= g_mmi_resource_base_table[i].min) &&
 2708              	LM5:
 2709 029b 8B55F8   		movl	-8(%ebp), %edx
 2710 029e 89D0     		movl	%edx, %eax
 2711 02a0 C1E006   		sall	$6, %eax
 2712 02a3 01D0     		addl	%edx, %eax
 2713 02a5 8D14C500 		leal	0(,%eax,8), %edx
 2713      000000
 2714 02ac 0FB745FE 		movzwl	-2(%ebp), %eax
 2715 02b0 663B8204 		cmpw	_g_mmi_resource_base_table+4(%edx), %ax
 2715      000000
 2716 02b7 7229     		jb	L39
 2717 02b9 8B55F8   		movl	-8(%ebp), %edx
 2718 02bc 89D0     		movl	%edx, %eax
 2719 02be C1E006   		sall	$6, %eax
 2720 02c1 01D0     		addl	%edx, %eax
 2721 02c3 8D14C500 		leal	0(,%eax,8), %edx
 2721      000000
 2722 02ca 0FB745FE 		movzwl	-2(%ebp), %eax
 2723 02ce 663B8206 		cmpw	_g_mmi_resource_base_table+6(%edx), %ax
 2723      000000
 2724 02d5 730B     		jae	L39
 803:../../MMI/Resource/WriteRes.c ****                  (ImageID < g_mmi_resource_base_table[i].max))
 804:../../MMI/Resource/WriteRes.c ****         {
 805:../../MMI/Resource/WriteRes.c ****             return i;
 2726              	LM6:
 2727 02d7 8B45F8   		movl	-8(%ebp), %eax
 2728 02da 8945F4   		movl	%eax, -12(%ebp)
 2729 02dd E9AB0000 		jmp	L33
 2729      00
 2730              	L39:
 806:../../MMI/Resource/WriteRes.c ****         }
 807:../../MMI/Resource/WriteRes.c ****         else if (ImageID == g_mmi_resource_base_table[i].max)
 2732              	LM7:
 2733 02e2 8B55F8   		movl	-8(%ebp), %edx
 2734 02e5 89D0     		movl	%edx, %eax
 2735 02e7 C1E006   		sall	$6, %eax
 2736 02ea 01D0     		addl	%edx, %eax
 2737 02ec 8D14C500 		leal	0(,%eax,8), %edx
 2737      000000
 2738 02f3 0FB745FE 		movzwl	-2(%ebp), %eax
 2739 02f7 663B8206 		cmpw	_g_mmi_resource_base_table+6(%edx), %ax
 2739      000000
 2740 02fe 757C     		jne	L41
 808:../../MMI/Resource/WriteRes.c ****         {
 809:../../MMI/Resource/WriteRes.c ****             fprintf(stderr, "[ERR] ID:[%s] reach MAX of the Range, Please add some Range for APP[%s
 2742              	LM8:
 2743 0300 8B55F8   		movl	-8(%ebp), %edx
 2744 0303 89D0     		movl	%edx, %eax
 2745 0305 C1E006   		sall	$6, %eax
 2746 0308 01D0     		addl	%edx, %eax
 2747 030a C1E003   		sall	$3, %eax
 2748 030d 8B800000 		movl	_g_mmi_resource_base_table(%eax), %eax
 2748      0000
GAS LISTING d:/software/ovi_2503a_s3trc/ovi_2503a_s3trc/plutommi/Customer/ResGenerator/gcctmp/ccWMaaaa.s 			page 20


 2749 0313 8944240C 		movl	%eax, 12(%esp)
 2750 0317 8B450C   		movl	12(%ebp), %eax
 2751 031a 89442408 		movl	%eax, 8(%esp)
 2752 031e C7442404 		movl	$LC22, 4(%esp)
 2752      A0010000 
 2753 0326 A1000000 		movl	__imp___iob, %eax
 2753      00
 2754 032b 83C040   		addl	$64, %eax
 2755 032e 890424   		movl	%eax, (%esp)
 2756 0331 E8000000 		call	_fprintf
 2756      00
 810:../../MMI/Resource/WriteRes.c ****             RESWRI_LOG_E("Error!! ID:[%s] reach MAX of the Range, Please add some Range for APP[%s]
 2758              	LM9:
 2759 0336 8B55F8   		movl	-8(%ebp), %edx
 2760 0339 89D0     		movl	%edx, %eax
 2761 033b C1E006   		sall	$6, %eax
 2762 033e 01D0     		addl	%edx, %eax
 2763 0340 C1E003   		sall	$3, %eax
 2764 0343 8B800000 		movl	_g_mmi_resource_base_table(%eax), %eax
 2764      0000
 2765 0349 89442410 		movl	%eax, 16(%esp)
 2766 034d 8B450C   		movl	12(%ebp), %eax
 2767 0350 8944240C 		movl	%eax, 12(%esp)
 2768 0354 C7442408 		movl	$LC23, 8(%esp)
 2768      00020000 
 2769 035c C7442404 		movl	$LC24, 4(%esp)
 2769      4A020000 
 2770 0364 C7042403 		movl	$3, (%esp)
 2770      000000
 2771 036b E8000000 		call	_reslog_adaptor_log
 2771      00
 811:../../MMI/Resource/WriteRes.c ****             exit(2);
 2773              	LM10:
 2774 0370 C7042402 		movl	$2, (%esp)
 2774      000000
 2775 0377 E8000000 		call	_exit
 2775      00
 2776              	L41:
 812:../../MMI/Resource/WriteRes.c ****         }
 813:../../MMI/Resource/WriteRes.c ****         else
 814:../../MMI/Resource/WriteRes.c ****         {
 815:../../MMI/Resource/WriteRes.c ****             i++;
 2778              	LM11:
 2779 037c 8D45F8   		leal	-8(%ebp), %eax
 2780 037f FF00     		incl	(%eax)
 2781 0381 E9E1FEFF 		jmp	L34
 2781      FF
 2782              	L35:
 816:../../MMI/Resource/WriteRes.c ****         }
 817:../../MMI/Resource/WriteRes.c ****     }
 818:../../MMI/Resource/WriteRes.c **** 
 819:../../MMI/Resource/WriteRes.c ****     return 0xFFFFFFFF;
 2784              	LM12:
 2785 0386 C745F4FF 		movl	$-1, -12(%ebp)
 2785      FFFFFF
 820:../../MMI/Resource/WriteRes.c **** }
 2787              	LM13:
GAS LISTING d:/software/ovi_2503a_s3trc/ovi_2503a_s3trc/plutommi/Customer/ResGenerator/gcctmp/ccWMaaaa.s 			page 21


 2788              	L33:
 2789              	LBE2:
 2790 038d 8B45F4   		movl	-12(%ebp), %eax
 2791 0390 C9       		leave
 2792 0391 C3       		ret
 2797              	Lscope0:
 2799 0392 8DB42600 		.align 32
 2799      0000008D 
 2799      BC270000 
 2799      0000
 2800              	LC25:
 2801 03a0 496E6974 		.ascii "InitStrPopulat(): Prepare for string resource population\0"
 2801      53747250 
 2801      6F70756C 
 2801      61742829 
 2801      3A205072 
 2802              	LC26:
 2803 03d9 7700     		.ascii "w\0"
 2804 03db 908D7426 		.align 32
 2804      00
 2805              	LC27:
 2806 03e0 2E5C6465 		.ascii ".\\debug\\resource_compress_log.csv\0"
 2806      6275675C 
 2806      7265736F 
 2806      75726365 
 2806      5F636F6D 
 2807 0402 90909090 		.align 32
 2807      90909090 
 2807      90909090 
 2807      90909090 
 2807      90909090 
 2808              	LC28:
 2809 0420 496E6974 		.ascii "Init ZIP_OUTPUT_FILE content, write to %s\0"
 2809      205A4950 
 2809      5F4F5554 
 2809      5055545F 
 2809      46494C45 
 2810 044a 90909090 		.align 32
 2810      90909090 
 2810      90909090 
 2810      90909090 
 2810      90909090 
 2811              	LC29:
 2812 0460 73796D62 		.ascii "symbol name,Ori.Size,Cpz.Size,Size Diff,Is Cpzd\12\0"
 2812      6F6C206E 
 2812      616D652C 
 2812      4F72692E 
 2812      53697A65 
 2813 0491 EB0D9090 		.align 32
 2813      90909090 
 2813      90909090 
 2813      909090
 2814              	LC30:
 2815 04a0 496E6974 		.ascii "Init ZIP_OUTPUT_FILE failed: can't open %s\0"
 2815      205A4950 
 2815      5F4F5554 
 2815      5055545F 
GAS LISTING d:/software/ovi_2503a_s3trc/ovi_2503a_s3trc/plutommi/Customer/ResGenerator/gcctmp/ccWMaaaa.s 			page 22


 2815      46494C45 
 2817              	.globl _InitStrPopulate
 2819              	_InitStrPopulate:
 821:../../MMI/Resource/WriteRes.c **** 
 822:../../MMI/Resource/WriteRes.c **** 
 823:../../MMI/Resource/WriteRes.c **** /*****************************************************************************
 824:../../MMI/Resource/WriteRes.c ****  * FUNCTION
 825:../../MMI/Resource/WriteRes.c ****  *  InitStrPopulate
 826:../../MMI/Resource/WriteRes.c ****  * DESCRIPTION
 827:../../MMI/Resource/WriteRes.c ****  *
 828:../../MMI/Resource/WriteRes.c ****  * PARAMETERS
 829:../../MMI/Resource/WriteRes.c ****  *  void
 830:../../MMI/Resource/WriteRes.c ****  * RETURNS
 831:../../MMI/Resource/WriteRes.c ****  *  void
 832:../../MMI/Resource/WriteRes.c ****  *****************************************************************************/
 833:../../MMI/Resource/WriteRes.c **** void InitStrPopulate()
 834:../../MMI/Resource/WriteRes.c **** {
 2821              	LM14:
 2822 04cb 55       		pushl	%ebp
 2823 04cc 89E5     		movl	%esp, %ebp
 2824 04ce 83EC18   		subl	$24, %esp
 835:../../MMI/Resource/WriteRes.c ****     /*----------------------------------------------------------------*/
 836:../../MMI/Resource/WriteRes.c ****     /* Local Variables                                                */
 837:../../MMI/Resource/WriteRes.c ****     /*----------------------------------------------------------------*/
 838:../../MMI/Resource/WriteRes.c ****     int i = 0;
 2826              	LM15:
 2827              	LBB3:
 2828 04d1 C745FC00 		movl	$0, -4(%ebp)
 2828      000000
 839:../../MMI/Resource/WriteRes.c ****     FILE *pFile;
 840:../../MMI/Resource/WriteRes.c ****     RESWRI_LOG_V("InitStrPopulat(): Prepare for string resource population");
 2830              	LM16:
 2831 04d8 C7442408 		movl	$LC25, 8(%esp)
 2831      A0030000 
 2832 04e0 C7442404 		movl	$LC24, 4(%esp)
 2832      4A020000 
 2833 04e8 C7042401 		movl	$1, (%esp)
 2833      000000
 2834 04ef E8000000 		call	_reslog_adaptor_log
 2834      00
 841:../../MMI/Resource/WriteRes.c ****     /*----------------------------------------------------------------*/
 842:../../MMI/Resource/WriteRes.c ****     /* Code Body                                                      */
 843:../../MMI/Resource/WriteRes.c ****     /*----------------------------------------------------------------*/
 844:../../MMI/Resource/WriteRes.c ****     for (i = 0; i < MAX_STRING_MAP_SIZE; i++)
 2836              	LM17:
 2837 04f4 C745FC00 		movl	$0, -4(%ebp)
 2837      000000
 2838              	L44:
 2839 04fb 817DFCFE 		cmpl	$65534, -4(%ebp)
 2839      FF0000
 2840 0502 7E02     		jle	L47
 2841 0504 EB12     		jmp	L45
 2842              	L47:
 845:../../MMI/Resource/WriteRes.c ****     {
 846:../../MMI/Resource/WriteRes.c ****         StrIsPopulate[i] = 0;
 2844              	LM18:
 2845 0506 8B45FC   		movl	-4(%ebp), %eax
GAS LISTING d:/software/ovi_2503a_s3trc/ovi_2503a_s3trc/plutommi/Customer/ResGenerator/gcctmp/ccWMaaaa.s 			page 23


 2846 0509 05000000 		addl	$_StrIsPopulate, %eax
 2846      00
 2847 050e C60000   		movb	$0, (%eax)
 2849              	LM19:
 2850 0511 8D45FC   		leal	-4(%ebp), %eax
 2851 0514 FF00     		incl	(%eax)
 2852 0516 EBE3     		jmp	L44
 2853              	L45:
 847:../../MMI/Resource/WriteRes.c ****     }
 848:../../MMI/Resource/WriteRes.c **** 
 849:../../MMI/Resource/WriteRes.c ****     if(pFile = fopen(ZIP_OUTPUT_FILE, "w"))
 2855              	LM20:
 2856 0518 C7442404 		movl	$LC26, 4(%esp)
 2856      D9030000 
 2857 0520 C70424E0 		movl	$LC27, (%esp)
 2857      030000
 2858 0527 E8000000 		call	_fopen
 2858      00
 2859 052c 8945F8   		movl	%eax, -8(%ebp)
 2860 052f 837DF800 		cmpl	$0, -8(%ebp)
 2861 0533 7444     		je	L48
 850:../../MMI/Resource/WriteRes.c ****     {
 851:../../MMI/Resource/WriteRes.c ****         RESWRI_LOG_V("Init ZIP_OUTPUT_FILE content, write to %s", ZIP_OUTPUT_FILE);
 2863              	LM21:
 2864 0535 C744240C 		movl	$LC27, 12(%esp)
 2864      E0030000 
 2865 053d C7442408 		movl	$LC28, 8(%esp)
 2865      20040000 
 2866 0545 C7442404 		movl	$LC24, 4(%esp)
 2866      4A020000 
 2867 054d C7042401 		movl	$1, (%esp)
 2867      000000
 2868 0554 E8000000 		call	_reslog_adaptor_log
 2868      00
 852:../../MMI/Resource/WriteRes.c ****         fputs("symbol name,Ori.Size,Cpz.Size,Size Diff,Is Cpzd\n", pFile);
 2870              	LM22:
 2871 0559 8B45F8   		movl	-8(%ebp), %eax
 2872 055c 89442404 		movl	%eax, 4(%esp)
 2873 0560 C7042460 		movl	$LC29, (%esp)
 2873      040000
 2874 0567 E8000000 		call	_fputs
 2874      00
 853:../../MMI/Resource/WriteRes.c ****         fclose(pFile);
 2876              	LM23:
 2877 056c 8B45F8   		movl	-8(%ebp), %eax
 2878 056f 890424   		movl	%eax, (%esp)
 2879 0572 E8000000 		call	_fclose
 2879      00
 2880 0577 EB24     		jmp	L49
 2881              	L48:
 854:../../MMI/Resource/WriteRes.c ****     }
 855:../../MMI/Resource/WriteRes.c **** 	else
 856:../../MMI/Resource/WriteRes.c ****     {
 857:../../MMI/Resource/WriteRes.c ****         RESWRI_LOG_W("Init ZIP_OUTPUT_FILE failed: can't open %s", ZIP_OUTPUT_FILE);
 2883              	LM24:
 2884 0579 C744240C 		movl	$LC27, 12(%esp)
 2884      E0030000 
GAS LISTING d:/software/ovi_2503a_s3trc/ovi_2503a_s3trc/plutommi/Customer/ResGenerator/gcctmp/ccWMaaaa.s 			page 24


 2885 0581 C7442408 		movl	$LC30, 8(%esp)
 2885      A0040000 
 2886 0589 C7442404 		movl	$LC24, 4(%esp)
 2886      4A020000 
 2887 0591 C7042402 		movl	$2, (%esp)
 2887      000000
 2888 0598 E8000000 		call	_reslog_adaptor_log
 2888      00
 2889              	L49:
 858:../../MMI/Resource/WriteRes.c ****     }
 859:../../MMI/Resource/WriteRes.c **** 	fflush(stdout); // flush the trace log
 2891              	LM25:
 2892 059d A1000000 		movl	__imp___iob, %eax
 2892      00
 2893 05a2 83C020   		addl	$32, %eax
 2894 05a5 890424   		movl	%eax, (%esp)
 2895 05a8 E8000000 		call	_fflush
 2895      00
 860:../../MMI/Resource/WriteRes.c **** 
 861:../../MMI/Resource/WriteRes.c **** }
 2897              	LM26:
 2898 05ad C9       		leave
 2899 05ae C3       		ret
 2900              	LBE3:
 2905              	Lscope1:
 2911              	_ConvertToPrintable:
 862:../../MMI/Resource/WriteRes.c **** 
 863:../../MMI/Resource/WriteRes.c **** /* MTK Leo add, to store new string */
 864:../../MMI/Resource/WriteRes.c **** 
 865:../../MMI/Resource/WriteRes.c **** 
 866:../../MMI/Resource/WriteRes.c **** /*****************************************************************************
 867:../../MMI/Resource/WriteRes.c ****  * FUNCTION
 868:../../MMI/Resource/WriteRes.c ****  *  ConvertToPrintable
 869:../../MMI/Resource/WriteRes.c ****  * DESCRIPTION
 870:../../MMI/Resource/WriteRes.c ****  *
 871:../../MMI/Resource/WriteRes.c ****  * PARAMETERS
 872:../../MMI/Resource/WriteRes.c ****  *  original        [?]
 873:../../MMI/Resource/WriteRes.c ****  *  converted       [?]
 874:../../MMI/Resource/WriteRes.c ****  * RETURNS
 875:../../MMI/Resource/WriteRes.c ****  *  void
 876:../../MMI/Resource/WriteRes.c ****  *****************************************************************************/
 877:../../MMI/Resource/WriteRes.c **** static void ConvertToPrintable(S8 *original, S8 *converted)
 878:../../MMI/Resource/WriteRes.c **** {
 2913              	LM27:
 2914 05af 55       		pushl	%ebp
 2915 05b0 89E5     		movl	%esp, %ebp
 2916 05b2 53       		pushl	%ebx
 2917 05b3 83EC14   		subl	$20, %esp
 879:../../MMI/Resource/WriteRes.c ****     /*----------------------------------------------------------------*/
 880:../../MMI/Resource/WriteRes.c ****     /* Local Variables                                                */
 881:../../MMI/Resource/WriteRes.c ****     /*----------------------------------------------------------------*/
 882:../../MMI/Resource/WriteRes.c ****     U16 i = 0, j = 0, strlength = 0;
 2919              	LM28:
 2920              	LBB4:
 2921 05b6 66C745FA 		movw	$0, -6(%ebp)
 2921      0000
 2922 05bc 66C745F8 		movw	$0, -8(%ebp)
GAS LISTING d:/software/ovi_2503a_s3trc/ovi_2503a_s3trc/plutommi/Customer/ResGenerator/gcctmp/ccWMaaaa.s 			page 25


 2922      0000
 2923 05c2 66C745F6 		movw	$0, -10(%ebp)
 2923      0000
 883:../../MMI/Resource/WriteRes.c **** 
 884:../../MMI/Resource/WriteRes.c ****     /*----------------------------------------------------------------*/
 885:../../MMI/Resource/WriteRes.c ****     /* Code Body                                                      */
 886:../../MMI/Resource/WriteRes.c ****     /*----------------------------------------------------------------*/
 887:../../MMI/Resource/WriteRes.c ****     strlength = wcslen((wchar_t*) original);
 2925              	LM29:
 2926 05c8 8B4508   		movl	8(%ebp), %eax
 2927 05cb 890424   		movl	%eax, (%esp)
 2928 05ce E8000000 		call	_wcslen
 2928      00
 2929 05d3 668945F6 		movw	%ax, -10(%ebp)
 888:../../MMI/Resource/WriteRes.c ****     for (i = 0; i < strlength * 2; i++)
 2931              	LM30:
 2932 05d7 66C745FA 		movw	$0, -6(%ebp)
 2932      0000
 2933              	L51:
 2934 05dd 0FB755FA 		movzwl	-6(%ebp), %edx
 2935 05e1 0FB745F6 		movzwl	-10(%ebp), %eax
 2936 05e5 01C0     		addl	%eax, %eax
 2937 05e7 39C2     		cmpl	%eax, %edx
 2938 05e9 7C02     		jl	L54
 2939 05eb EB6F     		jmp	L52
 2940              	L54:
 889:../../MMI/Resource/WriteRes.c ****     {
 890:../../MMI/Resource/WriteRes.c ****         if (original[i] == 10)
 2942              	LM31:
 2943 05ed 0FB755FA 		movzwl	-6(%ebp), %edx
 2944 05f1 8B4508   		movl	8(%ebp), %eax
 2945 05f4 803C020A 		cmpb	$10, (%edx,%eax)
 2946 05f8 7539     		jne	L55
 891:../../MMI/Resource/WriteRes.c ****         {
 892:../../MMI/Resource/WriteRes.c ****             converted[j] = 92;
 2948              	LM32:
 2949 05fa 0FB755F8 		movzwl	-8(%ebp), %edx
 2950 05fe 8B450C   		movl	12(%ebp), %eax
 2951 0601 C604025C 		movb	$92, (%edx,%eax)
 893:../../MMI/Resource/WriteRes.c ****             converted[++j] = 0;
 2953              	LM33:
 2954 0605 8B45F8   		movl	-8(%ebp), %eax
 2955 0608 40       		incl	%eax
 2956 0609 668945F8 		movw	%ax, -8(%ebp)
 2957 060d 0FB7D0   		movzwl	%ax, %edx
 2958 0610 8B450C   		movl	12(%ebp), %eax
 2959 0613 C6040200 		movb	$0, (%edx,%eax)
 894:../../MMI/Resource/WriteRes.c ****             converted[++j] = 'n';
 2961              	LM34:
 2962 0617 8B45F8   		movl	-8(%ebp), %eax
 2963 061a 40       		incl	%eax
 2964 061b 668945F8 		movw	%ax, -8(%ebp)
 2965 061f 0FB7D0   		movzwl	%ax, %edx
 2966 0622 8B450C   		movl	12(%ebp), %eax
 2967 0625 C604026E 		movb	$110, (%edx,%eax)
 895:../../MMI/Resource/WriteRes.c ****             j++;
 2969              	LM35:
GAS LISTING d:/software/ovi_2503a_s3trc/ovi_2503a_s3trc/plutommi/Customer/ResGenerator/gcctmp/ccWMaaaa.s 			page 26


 2970 0629 8B45F8   		movl	-8(%ebp), %eax
 2971 062c 40       		incl	%eax
 2972 062d 668945F8 		movw	%ax, -8(%ebp)
 2973 0631 EB1E     		jmp	L53
 2974              	L55:
 896:../../MMI/Resource/WriteRes.c ****         }
 897:../../MMI/Resource/WriteRes.c ****         else
 898:../../MMI/Resource/WriteRes.c ****         {
 899:../../MMI/Resource/WriteRes.c ****             converted[j++] = original[i];
 2976              	LM36:
 2977 0633 8B55F8   		movl	-8(%ebp), %edx
 2978 0636 8D4201   		leal	1(%edx), %eax
 2979 0639 668945F8 		movw	%ax, -8(%ebp)
 2980 063d 0FB7DA   		movzwl	%dx, %ebx
 2981 0640 8B4D0C   		movl	12(%ebp), %ecx
 2982 0643 0FB755FA 		movzwl	-6(%ebp), %edx
 2983 0647 8B4508   		movl	8(%ebp), %eax
 2984 064a 0FB60402 		movzbl	(%edx,%eax), %eax
 2985 064e 88040B   		movb	%al, (%ebx,%ecx)
 2987              	LM37:
 2988              	L53:
 2989 0651 0FB745FA 		movzwl	-6(%ebp), %eax
 2990 0655 40       		incl	%eax
 2991 0656 668945FA 		movw	%ax, -6(%ebp)
 2992 065a EB81     		jmp	L51
 2993              	L52:
 900:../../MMI/Resource/WriteRes.c ****         }
 901:../../MMI/Resource/WriteRes.c ****     }
 902:../../MMI/Resource/WriteRes.c ****     if (strlength == 0)
 2995              	LM38:
 2996 065c 66837DF6 		cmpw	$0, -10(%ebp)
 2996      00
 2997 0661 7521     		jne	L57
 903:../../MMI/Resource/WriteRes.c ****     {   /* If NULL string, fill in " " */
 904:../../MMI/Resource/WriteRes.c ****         converted[0] = 20;
 2999              	LM39:
 3000 0663 8B450C   		movl	12(%ebp), %eax
 3001 0666 C60014   		movb	$20, (%eax)
 905:../../MMI/Resource/WriteRes.c ****         converted[1] = '\0';
 3003              	LM40:
 3004 0669 8B450C   		movl	12(%ebp), %eax
 3005 066c 40       		incl	%eax
 3006 066d C60000   		movb	$0, (%eax)
 906:../../MMI/Resource/WriteRes.c ****         converted[2] = '\0';
 3008              	LM41:
 3009 0670 8B450C   		movl	12(%ebp), %eax
 3010 0673 83C002   		addl	$2, %eax
 3011 0676 C60000   		movb	$0, (%eax)
 907:../../MMI/Resource/WriteRes.c ****         converted[3] = '\0';
 3013              	LM42:
 3014 0679 8B450C   		movl	12(%ebp), %eax
 3015 067c 83C003   		addl	$3, %eax
 3016 067f C60000   		movb	$0, (%eax)
 3017 0682 EB1F     		jmp	L50
 3018              	L57:
 908:../../MMI/Resource/WriteRes.c ****     }
 909:../../MMI/Resource/WriteRes.c ****     else
GAS LISTING d:/software/ovi_2503a_s3trc/ovi_2503a_s3trc/plutommi/Customer/ResGenerator/gcctmp/ccWMaaaa.s 			page 27


 910:../../MMI/Resource/WriteRes.c ****     {
 911:../../MMI/Resource/WriteRes.c ****         converted[j++] = '\0';
 3020              	LM43:
 3021 0684 8B55F8   		movl	-8(%ebp), %edx
 3022 0687 8D4201   		leal	1(%edx), %eax
 3023 068a 668945F8 		movw	%ax, -8(%ebp)
 3024 068e 0FB7D2   		movzwl	%dx, %edx
 3025 0691 8B450C   		movl	12(%ebp), %eax
 3026 0694 C6040200 		movb	$0, (%edx,%eax)
 912:../../MMI/Resource/WriteRes.c ****         converted[j] = '\0';
 3028              	LM44:
 3029 0698 0FB755F8 		movzwl	-8(%ebp), %edx
 3030 069c 8B450C   		movl	12(%ebp), %eax
 3031 069f C6040200 		movb	$0, (%edx,%eax)
 913:../../MMI/Resource/WriteRes.c ****     }
 914:../../MMI/Resource/WriteRes.c **** }
 3033              	LM45:
 3034              	L50:
 3035 06a3 83C414   		addl	$20, %esp
 3036 06a6 5B       		popl	%ebx
 3037 06a7 5D       		popl	%ebp
 3038 06a8 C3       		ret
 3039              	LBE4:
 3045              	Lscope2:
 3051              	_AnsiiToUnicodeString:
 915:../../MMI/Resource/WriteRes.c **** 
 916:../../MMI/Resource/WriteRes.c **** 
 917:../../MMI/Resource/WriteRes.c **** /*****************************************************************************
 918:../../MMI/Resource/WriteRes.c ****  * FUNCTION
 919:../../MMI/Resource/WriteRes.c ****  *  AnsiiToUnicodeString
 920:../../MMI/Resource/WriteRes.c ****  * DESCRIPTION
 921:../../MMI/Resource/WriteRes.c ****  *  Converts Ansii encode string to unicode
 922:../../MMI/Resource/WriteRes.c ****  *
 923:../../MMI/Resource/WriteRes.c ****  *  Caller has to ensure that pOutBuffer
 924:../../MMI/Resource/WriteRes.c ****  *  should be as large
 925:../../MMI/Resource/WriteRes.c ****  * PARAMETERS
 926:../../MMI/Resource/WriteRes.c ****  *  pOutBuffer      [OUT]
 927:../../MMI/Resource/WriteRes.c ****  *  pInBuffer       [IN]
 928:../../MMI/Resource/WriteRes.c ****  * RETURNS
 929:../../MMI/Resource/WriteRes.c ****  *  U16
 930:../../MMI/Resource/WriteRes.c ****  *****************************************************************************/
 931:../../MMI/Resource/WriteRes.c **** static U16 AnsiiToUnicodeString(S8 *pOutBuffer, S8 *pInBuffer)
 932:../../MMI/Resource/WriteRes.c **** {
 3053              	LM46:
 3054 06a9 55       		pushl	%ebp
 3055 06aa 89E5     		movl	%esp, %ebp
 3056 06ac 83EC04   		subl	$4, %esp
 933:../../MMI/Resource/WriteRes.c ****     /*----------------------------------------------------------------*/
 934:../../MMI/Resource/WriteRes.c ****     /* Local Variables                                                */
 935:../../MMI/Resource/WriteRes.c ****     /*----------------------------------------------------------------*/
 936:../../MMI/Resource/WriteRes.c ****     S16 count = -1;
 3058              	LM47:
 3059              	LBB5:
 3060 06af 66C745FE 		movw	$-1, -2(%ebp)
 3060      FFFF
 937:../../MMI/Resource/WriteRes.c **** 
 938:../../MMI/Resource/WriteRes.c ****     /*----------------------------------------------------------------*/
GAS LISTING d:/software/ovi_2503a_s3trc/ovi_2503a_s3trc/plutommi/Customer/ResGenerator/gcctmp/ccWMaaaa.s 			page 28


 939:../../MMI/Resource/WriteRes.c ****     /* Code Body                                                      */
 940:../../MMI/Resource/WriteRes.c ****     /*----------------------------------------------------------------*/
 941:../../MMI/Resource/WriteRes.c ****     while (*pInBuffer != '\0')
 3062              	LM48:
 3063              	L60:
 3064 06b5 8B450C   		movl	12(%ebp), %eax
 3065 06b8 803800   		cmpb	$0, (%eax)
 3066 06bb 7502     		jne	L62
 3067 06bd EB32     		jmp	L61
 3068              	L62:
 942:../../MMI/Resource/WriteRes.c ****     {
 943:../../MMI/Resource/WriteRes.c ****         pOutBuffer[++count] = *pInBuffer;
 3070              	LM49:
 3071 06bf 0FB745FE 		movzwl	-2(%ebp), %eax
 3072 06c3 40       		incl	%eax
 3073 06c4 668945FE 		movw	%ax, -2(%ebp)
 3074 06c8 0FBFC8   		movswl	%ax,%ecx
 3075 06cb 8B5508   		movl	8(%ebp), %edx
 3076 06ce 8B450C   		movl	12(%ebp), %eax
 3077 06d1 0FB600   		movzbl	(%eax), %eax
 3078 06d4 880411   		movb	%al, (%ecx,%edx)
 944:../../MMI/Resource/WriteRes.c ****         pOutBuffer[++count] = 0;
 3080              	LM50:
 3081 06d7 0FB745FE 		movzwl	-2(%ebp), %eax
 3082 06db 40       		incl	%eax
 3083 06dc 668945FE 		movw	%ax, -2(%ebp)
 3084 06e0 0FBFD0   		movswl	%ax,%edx
 3085 06e3 8B4508   		movl	8(%ebp), %eax
 3086 06e6 C6040200 		movb	$0, (%edx,%eax)
 945:../../MMI/Resource/WriteRes.c ****         pInBuffer++;
 3088              	LM51:
 3089 06ea 8D450C   		leal	12(%ebp), %eax
 3090 06ed FF00     		incl	(%eax)
 3091 06ef EBC4     		jmp	L60
 3092              	L61:
 946:../../MMI/Resource/WriteRes.c ****     }
 947:../../MMI/Resource/WriteRes.c **** 
 948:../../MMI/Resource/WriteRes.c ****     pOutBuffer[++count] = '\0';
 3094              	LM52:
 3095 06f1 0FB745FE 		movzwl	-2(%ebp), %eax
 3096 06f5 40       		incl	%eax
 3097 06f6 668945FE 		movw	%ax, -2(%ebp)
 3098 06fa 0FBFD0   		movswl	%ax,%edx
 3099 06fd 8B4508   		movl	8(%ebp), %eax
 3100 0700 C6040200 		movb	$0, (%edx,%eax)
 949:../../MMI/Resource/WriteRes.c ****     pOutBuffer[++count] = '\0';
 3102              	LM53:
 3103 0704 0FB745FE 		movzwl	-2(%ebp), %eax
 3104 0708 40       		incl	%eax
 3105 0709 668945FE 		movw	%ax, -2(%ebp)
 3106 070d 0FBFD0   		movswl	%ax,%edx
 3107 0710 8B4508   		movl	8(%ebp), %eax
 3108 0713 C6040200 		movb	$0, (%edx,%eax)
 950:../../MMI/Resource/WriteRes.c ****     return count + 1;
 3110              	LM54:
 3111 0717 0FB745FE 		movzwl	-2(%ebp), %eax
 3112 071b 40       		incl	%eax
GAS LISTING d:/software/ovi_2503a_s3trc/ovi_2503a_s3trc/plutommi/Customer/ResGenerator/gcctmp/ccWMaaaa.s 			page 29


 3113 071c 0FB7C0   		movzwl	%ax, %eax
 951:../../MMI/Resource/WriteRes.c **** }
 3115              	LM55:
 3116 071f C9       		leave
 3117 0720 C3       		ret
 3118              	LBE5:
 3122              	Lscope3:
 3124              	LC31:
 3125 0721 0A00     		.ascii "\12\0"
 3126              	LC32:
 3127 0723 4E4F5F41 		.ascii "NO_APP\0"
 3127      505000
 3128              	LC33:
 3129 072a 25730925 		.ascii "%s\11%d\11%d\11%s\11%d\11%s\11NA\12\0"
 3129      64092564 
 3129      09257309 
 3129      25640925 
 3129      73094E41 
 3130              	LC34:
 3131 0740 4E2F4100 		.ascii "N/A\0"
 3132 0744 90909090 		.align 32
 3132      90909090 
 3132      90909090 
 3132      90909090 
 3132      90909090 
 3133              	LC35:
 3134 0760 4572726F 		.ascii "Error!! SetStringWithDisaply: no memory\0"
 3134      72212120 
 3134      53657453 
 3134      7472696E 
 3134      67576974 
 3135              	LC36:
 3136 0788 53747269 		.ascii "String\0"
 3136      6E6700
 3137              	LC37:
 3138 078f 25640925 		.ascii "%d\11%s\11\11%s\12\0"
 3138      73090925 
 3138      730A00
 3143              	.globl _SetStringWithDisplay
 3145              	_SetStringWithDisplay:
 952:../../MMI/Resource/WriteRes.c **** 
 953:../../MMI/Resource/WriteRes.c **** 
 954:../../MMI/Resource/WriteRes.c **** /*****************************************************************************
 955:../../MMI/Resource/WriteRes.c ****  * FUNCTION
 956:../../MMI/Resource/WriteRes.c ****  *  SetStringWithDisplay
 957:../../MMI/Resource/WriteRes.c ****  * DESCRIPTION
 958:../../MMI/Resource/WriteRes.c ****  *
 959:../../MMI/Resource/WriteRes.c ****  * PARAMETERS
 960:../../MMI/Resource/WriteRes.c ****  *  nStrId          [IN]
 961:../../MMI/Resource/WriteRes.c ****  *  pString1        [IN]
 962:../../MMI/Resource/WriteRes.c ****  *  enum_value      [IN]
 963:../../MMI/Resource/WriteRes.c ****  * RETURNS
 964:../../MMI/Resource/WriteRes.c ****  *  void
 965:../../MMI/Resource/WriteRes.c ****  *****************************************************************************/
 966:../../MMI/Resource/WriteRes.c **** void SetStringWithDisplay(U16 nStrId, S8 *pString1, S8 *enum_value)
 967:../../MMI/Resource/WriteRes.c **** {
 3147              	LM56:
GAS LISTING d:/software/ovi_2503a_s3trc/ovi_2503a_s3trc/plutommi/Customer/ResGenerator/gcctmp/ccWMaaaa.s 			page 30


 3148 079a 55       		pushl	%ebp
 3149 079b 89E5     		movl	%esp, %ebp
 3150 079d 83EC38   		subl	$56, %esp
 3151 07a0 8B4508   		movl	8(%ebp), %eax
 3152 07a3 668945FE 		movw	%ax, -2(%ebp)
 968:../../MMI/Resource/WriteRes.c ****     /*----------------------------------------------------------------*/
 969:../../MMI/Resource/WriteRes.c ****     /* Local Variables                                                */
 970:../../MMI/Resource/WriteRes.c ****     /*----------------------------------------------------------------*/
 971:../../MMI/Resource/WriteRes.c ****     S8 *pString = NULL;
 3154              	LM57:
 3155              	LBB6:
 3156 07a7 C745F800 		movl	$0, -8(%ebp)
 3156      000000
 972:../../MMI/Resource/WriteRes.c ****     S8 *pEnum_value = NULL;
 3158              	LM58:
 3159 07ae C745F400 		movl	$0, -12(%ebp)
 3159      000000
 973:../../MMI/Resource/WriteRes.c **** 
 974:../../MMI/Resource/WriteRes.c ****     /*----------------------------------------------------------------*/
 975:../../MMI/Resource/WriteRes.c ****     /* Code Body                                                      */
 976:../../MMI/Resource/WriteRes.c ****     /*----------------------------------------------------------------*/
 977:../../MMI/Resource/WriteRes.c ****     g_ressize = 1;  //strlen(pString1);
 3161              	LM59:
 3162 07b5 C7052000 		movl	$1, _g_ressize
 3162      00000100 
 3162      0000
 978:../../MMI/Resource/WriteRes.c ****     if (strstr(pString1, "\n") == NULL)
 3164              	LM60:
 3165 07bf C7442404 		movl	$LC31, 4(%esp)
 3165      21070000 
 3166 07c7 8B450C   		movl	12(%ebp), %eax
 3167 07ca 890424   		movl	%eax, (%esp)
 3168 07cd E8000000 		call	_strstr
 3168      00
 3169 07d2 85C0     		testl	%eax, %eax
 3170 07d4 0F85DA00 		jne	L64
 3170      0000
 979:../../MMI/Resource/WriteRes.c ****     {
 980:../../MMI/Resource/WriteRes.c ****         RESPRTONERECORD(fpStringResourceUsage, nStrId, pString1, enum_value, g_ressize);
 3172              	LM61:
 3173 07da 833D0000 		cmpl	$0, _fpStringResourceUsage
 3173      000000
 3174 07e1 0F84A101 		je	L71
 3174      0000
 3175              	LBB7:
 3176 07e7 8B4510   		movl	16(%ebp), %eax
 3177 07ea 89442404 		movl	%eax, 4(%esp)
 3178 07ee 0FB745FE 		movzwl	-2(%ebp), %eax
 3179 07f2 890424   		movl	%eax, (%esp)
 3180 07f5 E859FAFF 		call	_GetOffsetFromResourceBase
 3180      FF
 3181 07fa 8945F0   		movl	%eax, -16(%ebp)
 3182 07fd 837DF0FF 		cmpl	$-1, -16(%ebp)
 3183 0801 7549     		jne	L67
 3184 0803 8B450C   		movl	12(%ebp), %eax
 3185 0806 8944241C 		movl	%eax, 28(%esp)
 3186 080a A1200000 		movl	_g_ressize, %eax
GAS LISTING d:/software/ovi_2503a_s3trc/ovi_2503a_s3trc/plutommi/Customer/ResGenerator/gcctmp/ccWMaaaa.s 			page 31


 3186      00
 3187 080f 89442418 		movl	%eax, 24(%esp)
 3188 0813 8B4510   		movl	16(%ebp), %eax
 3189 0816 89442414 		movl	%eax, 20(%esp)
 3190 081a 0FB745FE 		movzwl	-2(%ebp), %eax
 3191 081e 89442410 		movl	%eax, 16(%esp)
 3192 0822 C744240C 		movl	$-1, 12(%esp)
 3192      FFFFFFFF 
 3193 082a C7442408 		movl	$LC32, 8(%esp)
 3193      23070000 
 3194 0832 C7442404 		movl	$LC33, 4(%esp)
 3194      2A070000 
 3195 083a A1000000 		movl	_fpStringResourceUsage, %eax
 3195      00
 3196 083f 890424   		movl	%eax, (%esp)
 3197 0842 E8000000 		call	_fprintf
 3197      00
 3198 0847 E93C0100 		jmp	L71
 3198      00
 3199              	L67:
 3200 084c 8B450C   		movl	12(%ebp), %eax
 3201 084f 8944241C 		movl	%eax, 28(%esp)
 3202 0853 A1200000 		movl	_g_ressize, %eax
 3202      00
 3203 0858 89442418 		movl	%eax, 24(%esp)
 3204 085c 8B4510   		movl	16(%ebp), %eax
 3205 085f 89442414 		movl	%eax, 20(%esp)
 3206 0863 0FB745FE 		movzwl	-2(%ebp), %eax
 3207 0867 89442410 		movl	%eax, 16(%esp)
 3208 086b 8B55F0   		movl	-16(%ebp), %edx
 3209 086e 89D0     		movl	%edx, %eax
 3210 0870 C1E006   		sall	$6, %eax
 3211 0873 01D0     		addl	%edx, %eax
 3212 0875 C1E003   		sall	$3, %eax
 3213 0878 0FB78004 		movzwl	_g_mmi_resource_base_table+4(%eax), %eax
 3213      000000
 3214 087f 8944240C 		movl	%eax, 12(%esp)
 3215 0883 8B55F0   		movl	-16(%ebp), %edx
 3216 0886 89D0     		movl	%edx, %eax
 3217 0888 C1E006   		sall	$6, %eax
 3218 088b 01D0     		addl	%edx, %eax
 3219 088d C1E003   		sall	$3, %eax
 3220 0890 8B800000 		movl	_g_mmi_resource_base_table(%eax), %eax
 3220      0000
 3221 0896 89442408 		movl	%eax, 8(%esp)
 3222 089a C7442404 		movl	$LC33, 4(%esp)
 3222      2A070000 
 3223 08a2 A1000000 		movl	_fpStringResourceUsage, %eax
 3223      00
 3224 08a7 890424   		movl	%eax, (%esp)
 3225 08aa E8000000 		call	_fprintf
 3225      00
 3226              	LBE7:
 3227 08af E9D40000 		jmp	L71
 3227      00
 3228              	L64:
 981:../../MMI/Resource/WriteRes.c ****     }
GAS LISTING d:/software/ovi_2503a_s3trc/ovi_2503a_s3trc/plutommi/Customer/ResGenerator/gcctmp/ccWMaaaa.s 			page 32


 982:../../MMI/Resource/WriteRes.c ****     else
 983:../../MMI/Resource/WriteRes.c ****     {
 984:../../MMI/Resource/WriteRes.c ****         RESPRTONERECORD(fpStringResourceUsage, nStrId, "N/A", enum_value, g_ressize);
 3230              	LM62:
 3231 08b4 833D0000 		cmpl	$0, _fpStringResourceUsage
 3231      000000
 3232 08bb 0F84C700 		je	L71
 3232      0000
 3233              	LBB8:
 3234 08c1 8B4510   		movl	16(%ebp), %eax
 3235 08c4 89442404 		movl	%eax, 4(%esp)
 3236 08c8 0FB745FE 		movzwl	-2(%ebp), %eax
 3237 08cc 890424   		movl	%eax, (%esp)
 3238 08cf E87FF9FF 		call	_GetOffsetFromResourceBase
 3238      FF
 3239 08d4 8945F0   		movl	%eax, -16(%ebp)
 3240 08d7 837DF0FF 		cmpl	$-1, -16(%ebp)
 3241 08db 7547     		jne	L74
 3242 08dd C744241C 		movl	$LC34, 28(%esp)
 3242      40070000 
 3243 08e5 A1200000 		movl	_g_ressize, %eax
 3243      00
 3244 08ea 89442418 		movl	%eax, 24(%esp)
 3245 08ee 8B4510   		movl	16(%ebp), %eax
 3246 08f1 89442414 		movl	%eax, 20(%esp)
 3247 08f5 0FB745FE 		movzwl	-2(%ebp), %eax
 3248 08f9 89442410 		movl	%eax, 16(%esp)
 3249 08fd C744240C 		movl	$-1, 12(%esp)
 3249      FFFFFFFF 
 3250 0905 C7442408 		movl	$LC32, 8(%esp)
 3250      23070000 
 3251 090d C7442404 		movl	$LC33, 4(%esp)
 3251      2A070000 
 3252 0915 A1000000 		movl	_fpStringResourceUsage, %eax
 3252      00
 3253 091a 890424   		movl	%eax, (%esp)
 3254 091d E8000000 		call	_fprintf
 3254      00
 3255 0922 EB64     		jmp	L71
 3256              	L74:
 3257 0924 C744241C 		movl	$LC34, 28(%esp)
 3257      40070000 
 3258 092c A1200000 		movl	_g_ressize, %eax
 3258      00
 3259 0931 89442418 		movl	%eax, 24(%esp)
 3260 0935 8B4510   		movl	16(%ebp), %eax
 3261 0938 89442414 		movl	%eax, 20(%esp)
 3262 093c 0FB745FE 		movzwl	-2(%ebp), %eax
 3263 0940 89442410 		movl	%eax, 16(%esp)
 3264 0944 8B55F0   		movl	-16(%ebp), %edx
 3265 0947 89D0     		movl	%edx, %eax
 3266 0949 C1E006   		sall	$6, %eax
 3267 094c 01D0     		addl	%edx, %eax
 3268 094e C1E003   		sall	$3, %eax
 3269 0951 0FB78004 		movzwl	_g_mmi_resource_base_table+4(%eax), %eax
 3269      000000
 3270 0958 8944240C 		movl	%eax, 12(%esp)
GAS LISTING d:/software/ovi_2503a_s3trc/ovi_2503a_s3trc/plutommi/Customer/ResGenerator/gcctmp/ccWMaaaa.s 			page 33


 3271 095c 8B55F0   		movl	-16(%ebp), %edx
 3272 095f 89D0     		movl	%edx, %eax
 3273 0961 C1E006   		sall	$6, %eax
 3274 0964 01D0     		addl	%edx, %eax
 3275 0966 C1E003   		sall	$3, %eax
 3276 0969 8B800000 		movl	_g_mmi_resource_base_table(%eax), %eax
 3276      0000
 3277 096f 89442408 		movl	%eax, 8(%esp)
 3278 0973 C7442404 		movl	$LC33, 4(%esp)
 3278      2A070000 
 3279 097b A1000000 		movl	_fpStringResourceUsage, %eax
 3279      00
 3280 0980 890424   		movl	%eax, (%esp)
 3281 0983 E8000000 		call	_fprintf
 3281      00
 3282              	L71:
 985:../../MMI/Resource/WriteRes.c ****     }
 986:../../MMI/Resource/WriteRes.c **** 
 987:../../MMI/Resource/WriteRes.c ****     if (*pString1 == '\0')
 3284              	LM63:
 3285              	LBE8:
 3286 0988 8B450C   		movl	12(%ebp), %eax
 3287 098b 803800   		cmpb	$0, (%eax)
 3288 098e 755E     		jne	L78
 988:../../MMI/Resource/WriteRes.c ****     {
 989:../../MMI/Resource/WriteRes.c ****         /* for null string, replace with a specific marker(20) */
 990:../../MMI/Resource/WriteRes.c ****         pString = malloc(4);
 3290              	LM64:
 3291 0990 C7042404 		movl	$4, (%esp)
 3291      000000
 3292 0997 E8000000 		call	_malloc
 3292      00
 3293 099c 8945F8   		movl	%eax, -8(%ebp)
 991:../../MMI/Resource/WriteRes.c ****         if (pString == NULL)
 3295              	LM65:
 3296 099f 837DF800 		cmpl	$0, -8(%ebp)
 3297 09a3 7528     		jne	L79
 992:../../MMI/Resource/WriteRes.c ****         {
 993:../../MMI/Resource/WriteRes.c ****             RESWRI_LOG_E("Error!! SetStringWithDisaply: no memory");
 3299              	LM66:
 3300 09a5 C7442408 		movl	$LC35, 8(%esp)
 3300      60070000 
 3301 09ad C7442404 		movl	$LC24, 4(%esp)
 3301      4A020000 
 3302 09b5 C7042403 		movl	$3, (%esp)
 3302      000000
 3303 09bc E8000000 		call	_reslog_adaptor_log
 3303      00
 994:../../MMI/Resource/WriteRes.c ****             exit(2);
 3305              	LM67:
 3306 09c1 C7042402 		movl	$2, (%esp)
 3306      000000
 3307 09c8 E8000000 		call	_exit
 3307      00
 3308              	L79:
 995:../../MMI/Resource/WriteRes.c ****         }
 996:../../MMI/Resource/WriteRes.c ****         *pString = 20;
GAS LISTING d:/software/ovi_2503a_s3trc/ovi_2503a_s3trc/plutommi/Customer/ResGenerator/gcctmp/ccWMaaaa.s 			page 34


 3310              	LM68:
 3311 09cd 8B45F8   		movl	-8(%ebp), %eax
 3312 09d0 C60014   		movb	$20, (%eax)
 997:../../MMI/Resource/WriteRes.c ****         *(pString + 1) = '\0';
 3314              	LM69:
 3315 09d3 8B45F8   		movl	-8(%ebp), %eax
 3316 09d6 40       		incl	%eax
 3317 09d7 C60000   		movb	$0, (%eax)
 998:../../MMI/Resource/WriteRes.c ****         *(pString + 2) = '\0';
 3319              	LM70:
 3320 09da 8B45F8   		movl	-8(%ebp), %eax
 3321 09dd 83C002   		addl	$2, %eax
 3322 09e0 C60000   		movb	$0, (%eax)
 999:../../MMI/Resource/WriteRes.c ****         *(pString + 3) = '\0';
 3324              	LM71:
 3325 09e3 8B45F8   		movl	-8(%ebp), %eax
 3326 09e6 83C003   		addl	$3, %eax
 3327 09e9 C60000   		movb	$0, (%eax)
 3328 09ec EB35     		jmp	L80
 3329              	L78:
1000:../../MMI/Resource/WriteRes.c ****     }
1001:../../MMI/Resource/WriteRes.c ****     else
1002:../../MMI/Resource/WriteRes.c ****     {
1003:../../MMI/Resource/WriteRes.c ****         pString = malloc((strlen(pString1) + 1) * 2);
 3331              	LM72:
 3332 09ee 8B450C   		movl	12(%ebp), %eax
 3333 09f1 890424   		movl	%eax, (%esp)
 3334 09f4 E8000000 		call	_strlen
 3334      00
 3335 09f9 01C0     		addl	%eax, %eax
 3336 09fb 83C002   		addl	$2, %eax
 3337 09fe 890424   		movl	%eax, (%esp)
 3338 0a01 E8000000 		call	_malloc
 3338      00
 3339 0a06 8945F8   		movl	%eax, -8(%ebp)
1004:../../MMI/Resource/WriteRes.c ****         ASSERT(pString != NULL);
 3341              	LM73:
 3342 0a09 837DF800 		cmpl	$0, -8(%ebp)
 3343 0a0d 7502     		jne	L85
 3344              	L82:
 3345 0a0f EBFE     		jmp	L82
 3346              	L85:
1005:../../MMI/Resource/WriteRes.c ****         AnsiiToUnicodeString(pString, pString1);
 3348              	LM74:
 3349 0a11 8B450C   		movl	12(%ebp), %eax
 3350 0a14 89442404 		movl	%eax, 4(%esp)
 3351 0a18 8B45F8   		movl	-8(%ebp), %eax
 3352 0a1b 890424   		movl	%eax, (%esp)
 3353 0a1e E886FCFF 		call	_AnsiiToUnicodeString
 3353      FF
 3354              	L80:
1006:../../MMI/Resource/WriteRes.c ****     }
1007:../../MMI/Resource/WriteRes.c **** 
1008:../../MMI/Resource/WriteRes.c ****     pEnum_value = malloc((strlen(enum_value) + 1) * 2);
 3356              	LM75:
 3357 0a23 8B4510   		movl	16(%ebp), %eax
 3358 0a26 890424   		movl	%eax, (%esp)
GAS LISTING d:/software/ovi_2503a_s3trc/ovi_2503a_s3trc/plutommi/Customer/ResGenerator/gcctmp/ccWMaaaa.s 			page 35


 3359 0a29 E8000000 		call	_strlen
 3359      00
 3360 0a2e 01C0     		addl	%eax, %eax
 3361 0a30 83C002   		addl	$2, %eax
 3362 0a33 890424   		movl	%eax, (%esp)
 3363 0a36 E8000000 		call	_malloc
 3363      00
 3364 0a3b 8945F4   		movl	%eax, -12(%ebp)
1009:../../MMI/Resource/WriteRes.c ****     AnsiiToUnicodeString(pEnum_value, enum_value);
 3366              	LM76:
 3367 0a3e 8B4510   		movl	16(%ebp), %eax
 3368 0a41 89442404 		movl	%eax, 4(%esp)
 3369 0a45 8B45F4   		movl	-12(%ebp), %eax
 3370 0a48 890424   		movl	%eax, (%esp)
 3371 0a4b E859FCFF 		call	_AnsiiToUnicodeString
 3371      FF
1010:../../MMI/Resource/WriteRes.c **** 
1011:../../MMI/Resource/WriteRes.c ****     /* Leo remove, no need to set limit */
1012:../../MMI/Resource/WriteRes.c ****     //      if(CurrMaxStringId >= MAX_STRING_IDS) return;   /* Can't add more than max number of st
1013:../../MMI/Resource/WriteRes.c ****     //      if (gpStringMapRes[nStrId]==(U16)-1)
1014:../../MMI/Resource/WriteRes.c ****     if (StrIsPopulate[nStrId] == 0)
 3373              	LM77:
 3374 0a50 0FB745FE 		movzwl	-2(%ebp), %eax
 3375 0a54 80B80000 		cmpb	$0, _StrIsPopulate(%eax)
 3375      000000
 3376 0a5b 7537     		jne	L86
1015:../../MMI/Resource/WriteRes.c ****     {
1016:../../MMI/Resource/WriteRes.c ****         CurrMaxStringId++;
 3378              	LM78:
 3379 0a5d 0FB70500 		movzwl	_CurrMaxStringId, %eax
 3379      000000
 3380 0a64 40       		incl	%eax
 3381 0a65 66A30000 		movw	%ax, _CurrMaxStringId
 3381      0000
1017:../../MMI/Resource/WriteRes.c ****         StrIsPopulate[nStrId] = 1;
 3383              	LM79:
 3384 0a6b 0FB745FE 		movzwl	-2(%ebp), %eax
 3385 0a6f C6800000 		movb	$1, _StrIsPopulate(%eax)
 3385      000001
1018:../../MMI/Resource/WriteRes.c ****         StrEnum[nStrId] = pEnum_value;
 3387              	LM80:
 3388 0a76 0FB755FE 		movzwl	-2(%ebp), %edx
 3389 0a7a 8B45F4   		movl	-12(%ebp), %eax
 3390 0a7d 89049500 		movl	%eax, _StrEnum(,%edx,4)
 3390      000000
1019:../../MMI/Resource/WriteRes.c ****         Str[nStrId] = pString;
 3392              	LM81:
 3393 0a84 0FB755FE 		movzwl	-2(%ebp), %edx
 3394 0a88 8B45F8   		movl	-8(%ebp), %eax
 3395 0a8b 89049500 		movl	%eax, _Str(,%edx,4)
 3395      000000
 3396 0a92 EB2C     		jmp	L63
 3397              	L86:
1020:../../MMI/Resource/WriteRes.c ****     }
1021:../../MMI/Resource/WriteRes.c ****     else    /* 102604 MTK Calvin added */
1022:../../MMI/Resource/WriteRes.c ****     {
1023:../../MMI/Resource/WriteRes.c ****         fprintf(RepeatIDListFile, "%d\t%s\t\t%s\n", nStrId, enum_value, "String");
GAS LISTING d:/software/ovi_2503a_s3trc/ovi_2503a_s3trc/plutommi/Customer/ResGenerator/gcctmp/ccWMaaaa.s 			page 36


 3399              	LM82:
 3400 0a94 C7442410 		movl	$LC36, 16(%esp)
 3400      88070000 
 3401 0a9c 8B4510   		movl	16(%ebp), %eax
 3402 0a9f 8944240C 		movl	%eax, 12(%esp)
 3403 0aa3 0FB745FE 		movzwl	-2(%ebp), %eax
 3404 0aa7 89442408 		movl	%eax, 8(%esp)
 3405 0aab C7442404 		movl	$LC37, 4(%esp)
 3405      8F070000 
 3406 0ab3 A1000000 		movl	_RepeatIDListFile, %eax
 3406      00
 3407 0ab8 890424   		movl	%eax, (%esp)
 3408 0abb E8000000 		call	_fprintf
 3408      00
1024:../../MMI/Resource/WriteRes.c ****     }
1025:../../MMI/Resource/WriteRes.c **** }
 3410              	LM83:
 3411              	L63:
 3412 0ac0 C9       		leave
 3413 0ac1 C3       		ret
 3414              	LBE6:
 3426              	Lscope4:
 3433              	.globl _AddApp
 3435              	_AddApp:
1026:../../MMI/Resource/WriteRes.c **** 
1027:../../MMI/Resource/WriteRes.c **** 
1028:../../MMI/Resource/WriteRes.c **** /*****************************************************************************
1029:../../MMI/Resource/WriteRes.c ****  * FUNCTION
1030:../../MMI/Resource/WriteRes.c ****  *  AddApp
1031:../../MMI/Resource/WriteRes.c ****  * DESCRIPTION
1032:../../MMI/Resource/WriteRes.c ****  *  Function to Add a new application into the framework
1033:../../MMI/Resource/WriteRes.c ****  * PARAMETERS
1034:../../MMI/Resource/WriteRes.c ****  *  nId         [IN]        App Id
1035:../../MMI/Resource/WriteRes.c ****  *  pName       [IN]        Application name.
1036:../../MMI/Resource/WriteRes.c ****  *  nMinId      [IN]        Minimum Id value supported
1037:../../MMI/Resource/WriteRes.c ****  *  nMaxId      [IN]        Maximum Id value
1038:../../MMI/Resource/WriteRes.c ****  * RETURNS
1039:../../MMI/Resource/WriteRes.c ****  *  void
1040:../../MMI/Resource/WriteRes.c ****  *****************************************************************************/
1041:../../MMI/Resource/WriteRes.c **** void AddApp(U32 nId, S8 *pName, U16 nMinId, U16 nMaxId)
1042:../../MMI/Resource/WriteRes.c **** {
 3437              	LM84:
 3438 0ac2 55       		pushl	%ebp
 3439 0ac3 89E5     		movl	%esp, %ebp
 3440 0ac5 83EC38   		subl	$56, %esp
 3441 0ac8 8B4510   		movl	16(%ebp), %eax
 3442 0acb 8B5514   		movl	20(%ebp), %edx
 3443 0ace 668945F6 		movw	%ax, -10(%ebp)
 3444 0ad2 668955F4 		movw	%dx, -12(%ebp)
1043:../../MMI/Resource/WriteRes.c ****     /*----------------------------------------------------------------*/
1044:../../MMI/Resource/WriteRes.c ****     /* Local Variables                                                */
1045:../../MMI/Resource/WriteRes.c ****     /*----------------------------------------------------------------*/
1046:../../MMI/Resource/WriteRes.c ****     ResourceInfo sInfo;
1047:../../MMI/Resource/WriteRes.c **** 
1048:../../MMI/Resource/WriteRes.c ****     /*----------------------------------------------------------------*/
1049:../../MMI/Resource/WriteRes.c ****     /* Code Body                                                      */
1050:../../MMI/Resource/WriteRes.c ****     /*----------------------------------------------------------------*/
GAS LISTING d:/software/ovi_2503a_s3trc/ovi_2503a_s3trc/plutommi/Customer/ResGenerator/gcctmp/ccWMaaaa.s 			page 37


1051:../../MMI/Resource/WriteRes.c ****     sInfo.nAppId = nId;
 3446              	LM85:
 3447              	LBB9:
 3448 0ad6 8B4508   		movl	8(%ebp), %eax
 3449 0ad9 8945D0   		movl	%eax, -48(%ebp)
1052:../../MMI/Resource/WriteRes.c ****     sInfo.nMaxId = nMaxId;
 3451              	LM86:
 3452 0adc 0FB745F4 		movzwl	-12(%ebp), %eax
 3453 0ae0 8945D8   		movl	%eax, -40(%ebp)
1053:../../MMI/Resource/WriteRes.c ****     sInfo.nMinId = nMinId;
 3455              	LM87:
 3456 0ae3 0FB745F6 		movzwl	-10(%ebp), %eax
 3457 0ae7 8945D4   		movl	%eax, -44(%ebp)
1054:../../MMI/Resource/WriteRes.c ****     sInfo.pValue = pName;
 3459              	LM88:
 3460 0aea 8B450C   		movl	12(%ebp), %eax
 3461 0aed 8945C8   		movl	%eax, -56(%ebp)
1055:../../MMI/Resource/WriteRes.c **** }
 3463              	LM89:
 3464 0af0 C9       		leave
 3465 0af1 C3       		ret
 3466              	LBE9:
 3472              	Lscope5:
 3478              	.globl _SetString
 3480              	_SetString:
1056:../../MMI/Resource/WriteRes.c **** 
1057:../../MMI/Resource/WriteRes.c **** 
1058:../../MMI/Resource/WriteRes.c **** /*****************************************************************************
1059:../../MMI/Resource/WriteRes.c ****  * FUNCTION
1060:../../MMI/Resource/WriteRes.c ****  *  SetString
1061:../../MMI/Resource/WriteRes.c ****  * DESCRIPTION
1062:../../MMI/Resource/WriteRes.c ****  *  Function to Update the Customizable Resource String & Mapping Array.
1063:../../MMI/Resource/WriteRes.c ****  * PARAMETERS
1064:../../MMI/Resource/WriteRes.c ****  *  StrId           [IN]
1065:../../MMI/Resource/WriteRes.c ****  *  String1         [?]
1066:../../MMI/Resource/WriteRes.c ****  *  enum_value      [?]
1067:../../MMI/Resource/WriteRes.c ****  *  U16(?)          [OUT]       String Number which is Mapped with the StringId.
1068:../../MMI/Resource/WriteRes.c ****  * RETURNS
1069:../../MMI/Resource/WriteRes.c ****  *  StringNumber which is mapped with the StringID.(?)
1070:../../MMI/Resource/WriteRes.c ****  *****************************************************************************/
1071:../../MMI/Resource/WriteRes.c **** void SetString(U16 StrId, S8 *String1, S8 *enum_value)
1072:../../MMI/Resource/WriteRes.c **** {
 3482              	LM90:
 3483 0af2 55       		pushl	%ebp
 3484 0af3 89E5     		movl	%esp, %ebp
 3485 0af5 83EC18   		subl	$24, %esp
 3486 0af8 8B4508   		movl	8(%ebp), %eax
 3487 0afb 668945FE 		movw	%ax, -2(%ebp)
1073:../../MMI/Resource/WriteRes.c ****     /*----------------------------------------------------------------*/
1074:../../MMI/Resource/WriteRes.c ****     /* Local Variables                                                */
1075:../../MMI/Resource/WriteRes.c ****     /*----------------------------------------------------------------*/
1076:../../MMI/Resource/WriteRes.c **** 
1077:../../MMI/Resource/WriteRes.c ****     /*----------------------------------------------------------------*/
1078:../../MMI/Resource/WriteRes.c ****     /* Code Body                                                      */
1079:../../MMI/Resource/WriteRes.c ****     /*----------------------------------------------------------------*/
1080:../../MMI/Resource/WriteRes.c ****     SetStringWithDisplay(StrId, String1, enum_value);  /* 040805 CustPack: Calvin revised */
 3489              	LM91:
GAS LISTING d:/software/ovi_2503a_s3trc/ovi_2503a_s3trc/plutommi/Customer/ResGenerator/gcctmp/ccWMaaaa.s 			page 38


 3490 0aff 8B4510   		movl	16(%ebp), %eax
 3491 0b02 89442408 		movl	%eax, 8(%esp)
 3492 0b06 8B450C   		movl	12(%ebp), %eax
 3493 0b09 89442404 		movl	%eax, 4(%esp)
 3494 0b0d 0FB745FE 		movzwl	-2(%ebp), %eax
 3495 0b11 890424   		movl	%eax, (%esp)
 3496 0b14 E881FCFF 		call	_SetStringWithDisplay
 3496      FF
1081:../../MMI/Resource/WriteRes.c **** }
 3498              	LM92:
 3499 0b19 C9       		leave
 3500 0b1a C3       		ret
 3502              	Lscope6:
 3510              	.globl _SetAudioWithBufferForceType
 3512              	_SetAudioWithBufferForceType:
1082:../../MMI/Resource/WriteRes.c **** 
1083:../../MMI/Resource/WriteRes.c **** 
1084:../../MMI/Resource/WriteRes.c **** /*****************************************************************************
1085:../../MMI/Resource/WriteRes.c ****  * FUNCTION
1086:../../MMI/Resource/WriteRes.c ****  *  SetAudioWithBuffer
1087:../../MMI/Resource/WriteRes.c ****  *****************************************************************************/
1088:../../MMI/Resource/WriteRes.c **** void SetAudioWithBufferForceType(U16 nAdoId, S8 *filename, S8 *enum_value, BOOL adoFlag, S32 froce_
1089:../../MMI/Resource/WriteRes.c **** {
 3514              	LM93:
 3515 0b1b 55       		pushl	%ebp
 3516 0b1c 89E5     		movl	%esp, %ebp
 3517 0b1e 83EC18   		subl	$24, %esp
 3518 0b21 8B4508   		movl	8(%ebp), %eax
 3519 0b24 668945FE 		movw	%ax, -2(%ebp)
1090:../../MMI/Resource/WriteRes.c ****     g_force_ado_type = froce_type;
 3521              	LM94:
 3522 0b28 8B4518   		movl	24(%ebp), %eax
 3523 0b2b A3400000 		movl	%eax, _g_force_ado_type
 3523      00
1091:../../MMI/Resource/WriteRes.c ****     SetAudioWithBuffer(nAdoId, filename, enum_value, adoFlag);
 3525              	LM95:
 3526 0b30 8B4514   		movl	20(%ebp), %eax
 3527 0b33 8944240C 		movl	%eax, 12(%esp)
 3528 0b37 8B4510   		movl	16(%ebp), %eax
 3529 0b3a 89442408 		movl	%eax, 8(%esp)
 3530 0b3e 8B450C   		movl	12(%ebp), %eax
 3531 0b41 89442404 		movl	%eax, 4(%esp)
 3532 0b45 0FB745FE 		movzwl	-2(%ebp), %eax
 3533 0b49 890424   		movl	%eax, (%esp)
 3534 0b4c E8140100 		call	_SetAudioWithBuffer
 3534      00
1092:../../MMI/Resource/WriteRes.c ****     g_force_ado_type = AUTO_ADO_TYPE;
 3536              	LM96:
 3537 0b51 C7054000 		movl	$0, _g_force_ado_type
 3537      00000000 
 3537      0000
1093:../../MMI/Resource/WriteRes.c **** }
 3539              	LM97:
 3540 0b5b C9       		leave
 3541 0b5c C3       		ret
 3543              	Lscope7:
 3545 0b5d 8D7600   		.align 32
GAS LISTING d:/software/ovi_2503a_s3trc/ovi_2503a_s3trc/plutommi/Customer/ResGenerator/gcctmp/ccWMaaaa.s 			page 39


 3546              	LC38:
 3547 0b60 4964206F 		.ascii "Id overflow!! current id: %d, max audio id: %d\0"
 3547      76657266 
 3547      6C6F7721 
 3547      21206375 
 3547      7272656E 
 3548 0b8f 90909090 		.align 32
 3548      90909090 
 3548      90909090 
 3548      90909090 
 3548      90
 3549              	LC39:
 3550 0ba0 4C6F6164 		.ascii "Load audio resource: id = %d (%s), fileName = %s, adoFlag = %d\0"
 3550      20617564 
 3550      696F2072 
 3550      65736F75 
 3550      7263653A 
 3551              	LC40:
 3552 0bdf 66696C65 		.ascii "file name%d = %s \12\0"
 3552      206E616D 
 3552      65256420 
 3552      3D202573 
 3552      200A00
 3553              	LC41:
 3554 0bf2 00       		.ascii "\0"
 3555 0bf3 8DB60000 		.align 32
 3555      00008DBC 
 3555      27000000 
 3555      00
 3556              	LC42:
 3557 0c00 2E2E5C5C 		.ascii "..\\\\..\\\\Customer\\\\AUDIO\\\\NOAUDIO.MP3\0"
 3557      2E2E5C5C 
 3557      43757374 
 3557      6F6D6572 
 3557      5C5C4155 
 3558              	LC43:
 3559 0c25 41756469 		.ascii "Audio\0"
 3559      6F00
 3560 0c2b 90909090 		.align 32
 3560      90909090 
 3560      90909090 
 3560      90909090 
 3560      90909090 
 3561              	LC44:
 3562 0c40 5F5F5F5F 		.ascii "________CUSTOMER__AUDIO__DEFAULT_MP3\0"
 3562      5F5F5F5F 
 3562      43555354 
 3562      4F4D4552 
 3562      5F5F4155 
 3568              	.globl _SetAudioWithBuffer
 3570              	_SetAudioWithBuffer:
1094:../../MMI/Resource/WriteRes.c **** 
1095:../../MMI/Resource/WriteRes.c **** 
1096:../../MMI/Resource/WriteRes.c **** /*****************************************************************************
1097:../../MMI/Resource/WriteRes.c ****  * FUNCTION
1098:../../MMI/Resource/WriteRes.c ****  *  SetAudioWithBuffer
1099:../../MMI/Resource/WriteRes.c ****  * DESCRIPTION
GAS LISTING d:/software/ovi_2503a_s3trc/ovi_2503a_s3trc/plutommi/Customer/ResGenerator/gcctmp/ccWMaaaa.s 			page 40


1100:../../MMI/Resource/WriteRes.c ****  *  Function to copy the audio file to buffer
1101:../../MMI/Resource/WriteRes.c ****  * PARAMETERS
1102:../../MMI/Resource/WriteRes.c ****  *  nAdoId              [IN]        -> audio ID
1103:../../MMI/Resource/WriteRes.c ****  *  filename            [IN]        -> audio resource filename
1104:../../MMI/Resource/WriteRes.c ****  *  enum_value          [IN]        -> enun value
1105:../../MMI/Resource/WriteRes.c ****  *  adoFlag             [IN]        -> audio flag
1106:../../MMI/Resource/WriteRes.c ****  * RETURNS
1107:../../MMI/Resource/WriteRes.c ****  *  void
1108:../../MMI/Resource/WriteRes.c ****  *****************************************************************************/
1109:../../MMI/Resource/WriteRes.c **** void SetAudioWithBuffer(
1110:../../MMI/Resource/WriteRes.c ****         U16 nAdoId,
1111:../../MMI/Resource/WriteRes.c ****         S8 *filename,
1112:../../MMI/Resource/WriteRes.c ****         S8 *enum_value,
1113:../../MMI/Resource/WriteRes.c ****         BOOL adoFlag)
1114:../../MMI/Resource/WriteRes.c **** {
 3572              	LM98:
 3573 0c65 55       		pushl	%ebp
 3574 0c66 89E5     		movl	%esp, %ebp
 3575 0c68 B8581202 		movl	$135768, %eax
 3575      00
 3576 0c6d E8000000 		call	__alloca
 3576      00
 3577 0c72 8B4508   		movl	8(%ebp), %eax
 3578 0c75 668945F6 		movw	%ax, -10(%ebp)
1115:../../MMI/Resource/WriteRes.c ****     /*----------------------------------------------------------------*/
1116:../../MMI/Resource/WriteRes.c ****     /* Local Variables                                                */
1117:../../MMI/Resource/WriteRes.c ****     /*----------------------------------------------------------------*/
1118:../../MMI/Resource/WriteRes.c ****     U16 i;
1119:../../MMI/Resource/WriteRes.c ****     U16 found = 0;
 3580              	LM99:
 3581              	LBB10:
 3582 0c79 66C745F2 		movw	$0, -14(%ebp)
 3582      0000
1120:../../MMI/Resource/WriteRes.c ****     S16 nStrlen;
1121:../../MMI/Resource/WriteRes.c ****     S8 upperFileName[MAX_FILENAME_LEN];
1122:../../MMI/Resource/WriteRes.c ****     unsigned short *pCurrMaxAudioId;
1123:../../MMI/Resource/WriteRes.c ****     unsigned short *pCurrMaxAudioNum;
1124:../../MMI/Resource/WriteRes.c ****     AUDIONAME_LIST *pAudioNameList;
1125:../../MMI/Resource/WriteRes.c ****     CUSTOM_AUDIO_MAP *pAudioIdMap;
1126:../../MMI/Resource/WriteRes.c ****     S8 filename_buffer[BUFFER_SIZE];
1127:../../MMI/Resource/WriteRes.c **** 
1128:../../MMI/Resource/WriteRes.c ****     /*----------------------------------------------------------------*/
1129:../../MMI/Resource/WriteRes.c ****     /* Code Body                                                      */
1130:../../MMI/Resource/WriteRes.c ****     /*----------------------------------------------------------------*/
1131:../../MMI/Resource/WriteRes.c ****     if (adoFlag == TRUE)
 3584              	LM100:
 3585 0c7f 837D1401 		cmpl	$1, 20(%ebp)
 3586 0c83 7534     		jne	L92
1132:../../MMI/Resource/WriteRes.c ****     {
1133:../../MMI/Resource/WriteRes.c ****         ExtAudioFlag = TRUE;
 3588              	LM101:
 3589 0c85 C7051000 		movl	$1, _ExtAudioFlag
 3589      00000100 
 3589      0000
1134:../../MMI/Resource/WriteRes.c ****         pCurrMaxAudioId = &CurrMaxAudioIdEXT;
 3591              	LM102:
 3592 0c8f C785E4FD 		movl	$_CurrMaxAudioIdEXT, -540(%ebp)
GAS LISTING d:/software/ovi_2503a_s3trc/ovi_2503a_s3trc/plutommi/Customer/ResGenerator/gcctmp/ccWMaaaa.s 			page 41


 3592      FFFF0000 
 3592      0000
1135:../../MMI/Resource/WriteRes.c ****         pCurrMaxAudioNum = &CurrMaxAudioNumEXT;
 3594              	LM103:
 3595 0c99 C785E0FD 		movl	$_CurrMaxAudioNumEXT, -544(%ebp)
 3595      FFFF0000 
 3595      0000
1136:../../MMI/Resource/WriteRes.c ****         pAudioNameList = AudioNameListEXT;
 3597              	LM104:
 3598 0ca3 C785DCFD 		movl	$_AudioNameListEXT, -548(%ebp)
 3598      FFFF0000 
 3598      0000
1137:../../MMI/Resource/WriteRes.c ****         pAudioIdMap = AudioIdMapEXT;
 3600              	LM105:
 3601 0cad C785D8FD 		movl	$_AudioIdMapEXT, -552(%ebp)
 3601      FFFF0000 
 3601      0000
 3602 0cb7 EB32     		jmp	L93
 3603              	L92:
1138:../../MMI/Resource/WriteRes.c ****     }
1139:../../MMI/Resource/WriteRes.c ****     else
1140:../../MMI/Resource/WriteRes.c ****     {
1141:../../MMI/Resource/WriteRes.c ****         ExtAudioFlag = FALSE;
 3605              	LM106:
 3606 0cb9 C7051000 		movl	$0, _ExtAudioFlag
 3606      00000000 
 3606      0000
1142:../../MMI/Resource/WriteRes.c ****         pCurrMaxAudioId = &CurrMaxAudioId;
 3608              	LM107:
 3609 0cc3 C785E4FD 		movl	$_CurrMaxAudioId, -540(%ebp)
 3609      FFFF0000 
 3609      0000
1143:../../MMI/Resource/WriteRes.c ****         pCurrMaxAudioNum = &CurrMaxAudioNum;
 3611              	LM108:
 3612 0ccd C785E0FD 		movl	$_CurrMaxAudioNum, -544(%ebp)
 3612      FFFF0000 
 3612      0000
1144:../../MMI/Resource/WriteRes.c ****         pAudioNameList = AudioNameList;
 3614              	LM109:
 3615 0cd7 C785DCFD 		movl	$_AudioNameList, -548(%ebp)
 3615      FFFF0000 
 3615      0000
1145:../../MMI/Resource/WriteRes.c ****         pAudioIdMap = AudioIdMap;
 3617              	LM110:
 3618 0ce1 C785D8FD 		movl	$_AudioIdMap, -552(%ebp)
 3618      FFFF0000 
 3618      0000
 3619              	L93:
1146:../../MMI/Resource/WriteRes.c ****     }
1147:../../MMI/Resource/WriteRes.c **** 
1148:../../MMI/Resource/WriteRes.c ****     if (*pCurrMaxAudioId >= MAX_AUDIO_IDS_SIZE)
 3621              	LM111:
 3622 0ceb 8B85E4FD 		movl	-540(%ebp), %eax
 3622      FFFF
 3623 0cf1 668338FF 		cmpw	$-1, (%eax)
 3624 0cf5 7536     		jne	L94
1149:../../MMI/Resource/WriteRes.c ****     {
GAS LISTING d:/software/ovi_2503a_s3trc/ovi_2503a_s3trc/plutommi/Customer/ResGenerator/gcctmp/ccWMaaaa.s 			page 42


1150:../../MMI/Resource/WriteRes.c ****         RESWRI_LOG_W("Id overflow!! current id: %d, max audio id: %d", *pCurrMaxAudioId, MAX_AUDIO_
 3626              	LM112:
 3627 0cf7 C7442410 		movl	$65535, 16(%esp)
 3627      FFFF0000 
 3628 0cff 8B85E4FD 		movl	-540(%ebp), %eax
 3628      FFFF
 3629 0d05 0FB700   		movzwl	(%eax), %eax
 3630 0d08 8944240C 		movl	%eax, 12(%esp)
 3631 0d0c C7442408 		movl	$LC38, 8(%esp)
 3631      600B0000 
 3632 0d14 C7442404 		movl	$LC24, 4(%esp)
 3632      4A020000 
 3633 0d1c C7042402 		movl	$2, (%esp)
 3633      000000
 3634 0d23 E8000000 		call	_reslog_adaptor_log
 3634      00
1151:../../MMI/Resource/WriteRes.c ****         /* Can't add more than max number of audio ids allowed */
1152:../../MMI/Resource/WriteRes.c ****         return;
 3636              	LM113:
 3637 0d28 E9750500 		jmp	L91
 3637      00
 3638              	L94:
1153:../../MMI/Resource/WriteRes.c ****     }
1154:../../MMI/Resource/WriteRes.c **** 
1155:../../MMI/Resource/WriteRes.c ****     RESWRI_LOG_V("Load audio resource: id = %d (%s), fileName = %s, adoFlag = %d", nAdoId, enum_val
 3640              	LM114:
 3641 0d2d 8B4514   		movl	20(%ebp), %eax
 3642 0d30 89442418 		movl	%eax, 24(%esp)
 3643 0d34 8B450C   		movl	12(%ebp), %eax
 3644 0d37 89442414 		movl	%eax, 20(%esp)
 3645 0d3b 8B4510   		movl	16(%ebp), %eax
 3646 0d3e 89442410 		movl	%eax, 16(%esp)
 3647 0d42 0FB745F6 		movzwl	-10(%ebp), %eax
 3648 0d46 8944240C 		movl	%eax, 12(%esp)
 3649 0d4a C7442408 		movl	$LC39, 8(%esp)
 3649      A00B0000 
 3650 0d52 C7442404 		movl	$LC24, 4(%esp)
 3650      4A020000 
 3651 0d5a C7042401 		movl	$1, (%esp)
 3651      000000
 3652 0d61 E8000000 		call	_reslog_adaptor_log
 3652      00
1156:../../MMI/Resource/WriteRes.c ****     fprintf(OutputAdoIDFile, "file name%d = %s \n", audio_idx++, filename);
 3654              	LM115:
 3655 0d66 8B450C   		movl	12(%ebp), %eax
 3656 0d69 8944240C 		movl	%eax, 12(%esp)
 3657 0d6d A1040000 		movl	_audio_idx, %eax
 3657      00
 3658 0d72 89442408 		movl	%eax, 8(%esp)
 3659 0d76 FF050400 		incl	_audio_idx
 3659      0000
 3660 0d7c C7442404 		movl	$LC40, 4(%esp)
 3660      DF0B0000 
 3661 0d84 A1000000 		movl	_OutputAdoIDFile, %eax
 3661      00
 3662 0d89 890424   		movl	%eax, (%esp)
 3663 0d8c E8000000 		call	_fprintf
GAS LISTING d:/software/ovi_2503a_s3trc/ovi_2503a_s3trc/plutommi/Customer/ResGenerator/gcctmp/ccWMaaaa.s 			page 43


 3663      00
1157:../../MMI/Resource/WriteRes.c **** 
1158:../../MMI/Resource/WriteRes.c ****     if (strlen(filename) >= MAX_FILENAME_LEN)
 3665              	LM116:
 3666 0d91 8B450C   		movl	12(%ebp), %eax
 3667 0d94 890424   		movl	%eax, (%esp)
 3668 0d97 E8000000 		call	_strlen
 3668      00
 3669 0d9c 3DFF0100 		cmpl	$511, %eax
 3669      00
 3670 0da1 760B     		jbe	L95
1159:../../MMI/Resource/WriteRes.c ****     {
1160:../../MMI/Resource/WriteRes.c ****         filename[MAX_FILENAME_LEN - 1] = '\0';
 3672              	LM117:
 3673 0da3 8B450C   		movl	12(%ebp), %eax
 3674 0da6 05FF0100 		addl	$511, %eax
 3674      00
 3675 0dab C60000   		movb	$0, (%eax)
 3676              	L95:
1161:../../MMI/Resource/WriteRes.c ****     }
1162:../../MMI/Resource/WriteRes.c ****     if (!(strcmp(filename, "")))
 3678              	LM118:
 3679 0dae C7442404 		movl	$LC41, 4(%esp)
 3679      F20B0000 
 3680 0db6 8B450C   		movl	12(%ebp), %eax
 3681 0db9 890424   		movl	%eax, (%esp)
 3682 0dbc E8000000 		call	_strcmp
 3682      00
 3683 0dc1 85C0     		testl	%eax, %eax
 3684 0dc3 7516     		jne	L96
1163:../../MMI/Resource/WriteRes.c ****     {
1164:../../MMI/Resource/WriteRes.c ****         strcpy(filename_buffer, NOAUDIO_FILENAMEBUFFER);
 3686              	LM119:
 3687 0dc5 C7442404 		movl	$LC42, 4(%esp)
 3687      000C0000 
 3688 0dcd 8D85D8ED 		leal	-4648(%ebp), %eax
 3688      FFFF
 3689 0dd3 890424   		movl	%eax, (%esp)
 3690 0dd6 E8000000 		call	_strcpy
 3690      00
 3691              	L96:
1165:../../MMI/Resource/WriteRes.c **** 
1166:../../MMI/Resource/WriteRes.c ****     }
1167:../../MMI/Resource/WriteRes.c ****     strncpy(upperFileName, filename, MAX_FILENAME_LEN);
 3693              	LM120:
 3694 0ddb C7442408 		movl	$512, 8(%esp)
 3694      00020000 
 3695 0de3 8B450C   		movl	12(%ebp), %eax
 3696 0de6 89442404 		movl	%eax, 4(%esp)
 3697 0dea 8D85E8FD 		leal	-536(%ebp), %eax
 3697      FFFF
 3698 0df0 890424   		movl	%eax, (%esp)
 3699 0df3 E8000000 		call	_strncpy
 3699      00
1168:../../MMI/Resource/WriteRes.c ****     str_upper(upperFileName, MAX_FILENAME_LEN);
 3701              	LM121:
 3702 0df8 C7442404 		movl	$512, 4(%esp)
GAS LISTING d:/software/ovi_2503a_s3trc/ovi_2503a_s3trc/plutommi/Customer/ResGenerator/gcctmp/ccWMaaaa.s 			page 44


 3702      00020000 
 3703 0e00 8D85E8FD 		leal	-536(%ebp), %eax
 3703      FFFF
 3704 0e06 890424   		movl	%eax, (%esp)
 3705 0e09 E8000000 		call	_str_upper
 3705      00
1169:../../MMI/Resource/WriteRes.c **** 
1170:../../MMI/Resource/WriteRes.c ****     if (pAudioIdMap[nAdoId].nAudioNum != (U16)-1)
 3707              	LM122:
 3708 0e0e 0FB745F6 		movzwl	-10(%ebp), %eax
 3709 0e12 8D1400   		leal	(%eax,%eax), %edx
 3710 0e15 8B85D8FD 		movl	-552(%ebp), %eax
 3710      FFFF
 3711 0e1b 66833C10 		cmpw	$-1, (%eax,%edx)
 3711      FF
 3712 0e20 7431     		je	L97
1171:../../MMI/Resource/WriteRes.c ****     {
1172:../../MMI/Resource/WriteRes.c ****         fprintf(RepeatIDListFile, "%d\t%s\t\t%s\n", nAdoId, enum_value, "Audio");
 3714              	LM123:
 3715 0e22 C7442410 		movl	$LC43, 16(%esp)
 3715      250C0000 
 3716 0e2a 8B4510   		movl	16(%ebp), %eax
 3717 0e2d 8944240C 		movl	%eax, 12(%esp)
 3718 0e31 0FB745F6 		movzwl	-10(%ebp), %eax
 3719 0e35 89442408 		movl	%eax, 8(%esp)
 3720 0e39 C7442404 		movl	$LC37, 4(%esp)
 3720      8F070000 
 3721 0e41 A1000000 		movl	_RepeatIDListFile, %eax
 3721      00
 3722 0e46 890424   		movl	%eax, (%esp)
 3723 0e49 E8000000 		call	_fprintf
 3723      00
1173:../../MMI/Resource/WriteRes.c ****         return;
 3725              	LM124:
 3726 0e4e E94F0400 		jmp	L91
 3726      00
 3727              	L97:
1174:../../MMI/Resource/WriteRes.c ****     }
1175:../../MMI/Resource/WriteRes.c **** 
1176:../../MMI/Resource/WriteRes.c ****     for (i = 0; i < *pCurrMaxAudioNum; i++)
 3729              	LM125:
 3730 0e53 66C745F4 		movw	$0, -12(%ebp)
 3730      0000
 3731              	L98:
 3732 0e59 8B95E0FD 		movl	-544(%ebp), %edx
 3732      FFFF
 3733 0e5f 8B45F4   		movl	-12(%ebp), %eax
 3734 0e62 663B02   		cmpw	(%edx), %ax
 3735 0e65 7202     		jb	L101
 3736 0e67 EB35     		jmp	L99
 3737              	L101:
1177:../../MMI/Resource/WriteRes.c ****     {
1178:../../MMI/Resource/WriteRes.c ****         if (!strcmp(pAudioNameList[i].filename, upperFileName))
 3739              	LM126:
 3740 0e69 8D85E8FD 		leal	-536(%ebp), %eax
 3740      FFFF
 3741 0e6f 89442404 		movl	%eax, 4(%esp)
GAS LISTING d:/software/ovi_2503a_s3trc/ovi_2503a_s3trc/plutommi/Customer/ResGenerator/gcctmp/ccWMaaaa.s 			page 45


 3742 0e73 0FB745F4 		movzwl	-12(%ebp), %eax
 3743 0e77 C1E009   		sall	$9, %eax
 3744 0e7a 0385DCFD 		addl	-548(%ebp), %eax
 3744      FFFF
 3745 0e80 890424   		movl	%eax, (%esp)
 3746 0e83 E8000000 		call	_strcmp
 3746      00
 3747 0e88 85C0     		testl	%eax, %eax
 3748 0e8a 7508     		jne	L100
1179:../../MMI/Resource/WriteRes.c ****         {
1180:../../MMI/Resource/WriteRes.c ****             found = 1;
 3750              	LM127:
 3751 0e8c 66C745F2 		movw	$1, -14(%ebp)
 3751      0100
1181:../../MMI/Resource/WriteRes.c ****             break;
 3753              	LM128:
 3754 0e92 EB0A     		jmp	L99
 3756              	LM129:
 3757              	L100:
 3758 0e94 8B45F4   		movl	-12(%ebp), %eax
 3759 0e97 40       		incl	%eax
 3760 0e98 668945F4 		movw	%ax, -12(%ebp)
 3761 0e9c EBBB     		jmp	L98
 3762              	L99:
1182:../../MMI/Resource/WriteRes.c ****         }
1183:../../MMI/Resource/WriteRes.c ****     }
1184:../../MMI/Resource/WriteRes.c **** 
1185:../../MMI/Resource/WriteRes.c ****     g_ressize = 0;
 3764              	LM130:
 3765 0e9e C7052000 		movl	$0, _g_ressize
 3765      00000000 
 3765      0000
1186:../../MMI/Resource/WriteRes.c **** 
1187:../../MMI/Resource/WriteRes.c ****     if (found)
 3767              	LM131:
 3768 0ea8 66837DF2 		cmpw	$0, -14(%ebp)
 3768      00
 3769 0ead 0F84E801 		je	L103
 3769      0000
1188:../../MMI/Resource/WriteRes.c ****     {
1189:../../MMI/Resource/WriteRes.c ****         pAudioIdMap[nAdoId].nAudioNum = i;
 3771              	LM132:
 3772 0eb3 0FB745F6 		movzwl	-10(%ebp), %eax
 3773 0eb7 8D0C00   		leal	(%eax,%eax), %ecx
 3774 0eba 8B95D8FD 		movl	-552(%ebp), %edx
 3774      FFFF
 3775 0ec0 8B45F4   		movl	-12(%ebp), %eax
 3776 0ec3 6689040A 		movw	%ax, (%edx,%ecx)
1190:../../MMI/Resource/WriteRes.c ****         (*pCurrMaxAudioId)++;
 3778              	LM133:
 3779 0ec7 8B95E4FD 		movl	-540(%ebp), %edx
 3779      FFFF
 3780 0ecd 8B85E4FD 		movl	-540(%ebp), %eax
 3780      FFFF
 3781 0ed3 0FB700   		movzwl	(%eax), %eax
 3782 0ed6 40       		incl	%eax
 3783 0ed7 668902   		movw	%ax, (%edx)
GAS LISTING d:/software/ovi_2503a_s3trc/ovi_2503a_s3trc/plutommi/Customer/ResGenerator/gcctmp/ccWMaaaa.s 			page 46


1191:../../MMI/Resource/WriteRes.c **** 
1192:../../MMI/Resource/WriteRes.c ****         {
1193:../../MMI/Resource/WriteRes.c ****             S8 str1[MAX_AUDIO_NAMES_SIZE];
1194:../../MMI/Resource/WriteRes.c ****             S8 str2[MAX_AUDIO_NAMES_SIZE];
1195:../../MMI/Resource/WriteRes.c ****             U32 i, j;
1196:../../MMI/Resource/WriteRes.c **** 
1197:../../MMI/Resource/WriteRes.c ****             strncpy(str1, filename, MAX_AUDIO_NAMES_SIZE);
 3785              	LM134:
 3786              	LBB11:
 3787 0eda C7442408 		movl	$65535, 8(%esp)
 3787      FFFF0000 
 3788 0ee2 8B450C   		movl	12(%ebp), %eax
 3789 0ee5 89442404 		movl	%eax, 4(%esp)
 3790 0ee9 8D85D8ED 		leal	-70184(%ebp), %eax
 3790      FEFF
 3791 0eef 890424   		movl	%eax, (%esp)
 3792 0ef2 E8000000 		call	_strncpy
 3792      00
1198:../../MMI/Resource/WriteRes.c ****             str_upper(str1, MAX_AUDIO_NAMES_SIZE);
 3794              	LM135:
 3795 0ef7 C7442404 		movl	$65535, 4(%esp)
 3795      FFFF0000 
 3796 0eff 8D85D8ED 		leal	-70184(%ebp), %eax
 3796      FEFF
 3797 0f05 890424   		movl	%eax, (%esp)
 3798 0f08 E8000000 		call	_str_upper
 3798      00
1199:../../MMI/Resource/WriteRes.c ****             for (i = 0; i < g_resado_count; i++)
 3800              	LM136:
 3801 0f0d C785D4ED 		movl	$0, -135724(%ebp)
 3801      FDFF0000 
 3801      0000
 3802              	L104:
 3803 0f17 8B85D4ED 		movl	-135724(%ebp), %eax
 3803      FDFF
 3804 0f1d 3B053000 		cmpl	_g_resado_count, %eax
 3804      0000
 3805 0f23 7205     		jb	L107
 3806 0f25 E98B0000 		jmp	L105
 3806      00
 3807              	L107:
1200:../../MMI/Resource/WriteRes.c ****             {
1201:../../MMI/Resource/WriteRes.c ****                 strncpy(str2, g_resado_table[i].filename, MAX_AUDIO_NAMES_SIZE);
 3809              	LM137:
 3810 0f2a C7442408 		movl	$65535, 8(%esp)
 3810      FFFF0000 
 3811 0f32 8B95D4ED 		movl	-135724(%ebp), %edx
 3811      FDFF
 3812 0f38 89D0     		movl	%edx, %eax
 3813 0f3a C1E008   		sall	$8, %eax
 3814 0f3d 01D0     		addl	%edx, %eax
 3815 0f3f C1E002   		sall	$2, %eax
 3816 0f42 05600000 		addl	$_g_resado_table, %eax
 3816      00
 3817 0f47 89442404 		movl	%eax, 4(%esp)
 3818 0f4b 8D85D8ED 		leal	-135720(%ebp), %eax
 3818      FDFF
GAS LISTING d:/software/ovi_2503a_s3trc/ovi_2503a_s3trc/plutommi/Customer/ResGenerator/gcctmp/ccWMaaaa.s 			page 47


 3819 0f51 890424   		movl	%eax, (%esp)
 3820 0f54 E8000000 		call	_strncpy
 3820      00
1202:../../MMI/Resource/WriteRes.c ****                 str_upper(str2, MAX_AUDIO_NAMES_SIZE);
 3822              	LM138:
 3823 0f59 C7442404 		movl	$65535, 4(%esp)
 3823      FFFF0000 
 3824 0f61 8D85D8ED 		leal	-135720(%ebp), %eax
 3824      FDFF
 3825 0f67 890424   		movl	%eax, (%esp)
 3826 0f6a E8000000 		call	_str_upper
 3826      00
1203:../../MMI/Resource/WriteRes.c ****                 if (strcmp(str1, str2) == 0)
 3828              	LM139:
 3829 0f6f 8D85D8ED 		leal	-135720(%ebp), %eax
 3829      FDFF
 3830 0f75 89442404 		movl	%eax, 4(%esp)
 3831 0f79 8D85D8ED 		leal	-70184(%ebp), %eax
 3831      FEFF
 3832 0f7f 890424   		movl	%eax, (%esp)
 3833 0f82 E8000000 		call	_strcmp
 3833      00
 3834 0f87 85C0     		testl	%eax, %eax
 3835 0f89 751D     		jne	L106
1204:../../MMI/Resource/WriteRes.c ****                 {
1205:../../MMI/Resource/WriteRes.c ****                     g_ressize = g_resado_table[i].size;
 3837              	LM140:
 3838 0f8b 8B95D4ED 		movl	-135724(%ebp), %edx
 3838      FDFF
 3839 0f91 89D0     		movl	%edx, %eax
 3840 0f93 C1E008   		sall	$8, %eax
 3841 0f96 01D0     		addl	%edx, %eax
 3842 0f98 C1E002   		sall	$2, %eax
 3843 0f9b 8B806004 		movl	_g_resado_table+1024(%eax), %eax
 3843      0000
 3844 0fa1 A3200000 		movl	%eax, _g_ressize
 3844      00
1206:../../MMI/Resource/WriteRes.c ****                     break;
 3846              	LM141:
 3847 0fa6 EB0D     		jmp	L105
 3849              	LM142:
 3850              	L106:
 3851 0fa8 8D85D4ED 		leal	-135724(%ebp), %eax
 3851      FDFF
 3852 0fae FF00     		incl	(%eax)
 3853 0fb0 E962FFFF 		jmp	L104
 3853      FF
 3854              	L105:
1207:../../MMI/Resource/WriteRes.c ****                 }
1208:../../MMI/Resource/WriteRes.c ****             }
1209:../../MMI/Resource/WriteRes.c ****         }
1210:../../MMI/Resource/WriteRes.c ****         RESPRTONERECORD(fpAudioResourceUsage, nAdoId, filename, enum_value, g_ressize);
 3856              	LM143:
 3857              	LBE11:
 3858 0fb5 833D0000 		cmpl	$0, _fpAudioResourceUsage
 3858      000000
 3859 0fbc 0F84E002 		je	L91
GAS LISTING d:/software/ovi_2503a_s3trc/ovi_2503a_s3trc/plutommi/Customer/ResGenerator/gcctmp/ccWMaaaa.s 			page 48


 3859      0000
 3860              	LBB12:
 3861 0fc2 8B4510   		movl	16(%ebp), %eax
 3862 0fc5 89442404 		movl	%eax, 4(%esp)
 3863 0fc9 0FB745F6 		movzwl	-10(%ebp), %eax
 3864 0fcd 890424   		movl	%eax, (%esp)
 3865 0fd0 E87EF2FF 		call	_GetOffsetFromResourceBase
 3865      FF
 3866 0fd5 8985D0ED 		movl	%eax, -135728(%ebp)
 3866      FDFF
 3867 0fdb 83BDD0ED 		cmpl	$-1, -135728(%ebp)
 3867      FDFFFF
 3868 0fe2 7549     		jne	L111
 3869 0fe4 8B450C   		movl	12(%ebp), %eax
 3870 0fe7 8944241C 		movl	%eax, 28(%esp)
 3871 0feb A1200000 		movl	_g_ressize, %eax
 3871      00
 3872 0ff0 89442418 		movl	%eax, 24(%esp)
 3873 0ff4 8B4510   		movl	16(%ebp), %eax
 3874 0ff7 89442414 		movl	%eax, 20(%esp)
 3875 0ffb 0FB745F6 		movzwl	-10(%ebp), %eax
 3876 0fff 89442410 		movl	%eax, 16(%esp)
 3877 1003 C744240C 		movl	$-1, 12(%esp)
 3877      FFFFFFFF 
 3878 100b C7442408 		movl	$LC32, 8(%esp)
 3878      23070000 
 3879 1013 C7442404 		movl	$LC33, 4(%esp)
 3879      2A070000 
 3880 101b A1000000 		movl	_fpAudioResourceUsage, %eax
 3880      00
 3881 1020 890424   		movl	%eax, (%esp)
 3882 1023 E8000000 		call	_fprintf
 3882      00
 3883 1028 E9750200 		jmp	L91
 3883      00
 3884              	L111:
 3885 102d 8B450C   		movl	12(%ebp), %eax
 3886 1030 8944241C 		movl	%eax, 28(%esp)
 3887 1034 A1200000 		movl	_g_ressize, %eax
 3887      00
 3888 1039 89442418 		movl	%eax, 24(%esp)
 3889 103d 8B4510   		movl	16(%ebp), %eax
 3890 1040 89442414 		movl	%eax, 20(%esp)
 3891 1044 0FB745F6 		movzwl	-10(%ebp), %eax
 3892 1048 89442410 		movl	%eax, 16(%esp)
 3893 104c 8B95D0ED 		movl	-135728(%ebp), %edx
 3893      FDFF
 3894 1052 89D0     		movl	%edx, %eax
 3895 1054 C1E006   		sall	$6, %eax
 3896 1057 01D0     		addl	%edx, %eax
 3897 1059 C1E003   		sall	$3, %eax
 3898 105c 0FB78004 		movzwl	_g_mmi_resource_base_table+4(%eax), %eax
 3898      000000
 3899 1063 8944240C 		movl	%eax, 12(%esp)
 3900 1067 8B95D0ED 		movl	-135728(%ebp), %edx
 3900      FDFF
 3901 106d 89D0     		movl	%edx, %eax
GAS LISTING d:/software/ovi_2503a_s3trc/ovi_2503a_s3trc/plutommi/Customer/ResGenerator/gcctmp/ccWMaaaa.s 			page 49


 3902 106f C1E006   		sall	$6, %eax
 3903 1072 01D0     		addl	%edx, %eax
 3904 1074 C1E003   		sall	$3, %eax
 3905 1077 8B800000 		movl	_g_mmi_resource_base_table(%eax), %eax
 3905      0000
 3906 107d 89442408 		movl	%eax, 8(%esp)
 3907 1081 C7442404 		movl	$LC33, 4(%esp)
 3907      2A070000 
 3908 1089 A1000000 		movl	_fpAudioResourceUsage, %eax
 3908      00
 3909 108e 890424   		movl	%eax, (%esp)
 3910 1091 E8000000 		call	_fprintf
 3910      00
 3911              	LBE12:
 3912 1096 E9070200 		jmp	L91
 3912      00
 3913              	L103:
1211:../../MMI/Resource/WriteRes.c ****     }
1212:../../MMI/Resource/WriteRes.c ****     else
1213:../../MMI/Resource/WriteRes.c ****     {
1214:../../MMI/Resource/WriteRes.c ****         if (Aload(upperFileName))
 3915              	LM144:
 3916 109b 8D85E8FD 		leal	-536(%ebp), %eax
 3916      FFFF
 3917 10a1 890424   		movl	%eax, (%esp)
 3918 10a4 E8741D00 		call	_Aload
 3918      00
 3919 10a9 85C0     		testl	%eax, %eax
 3920 10ab 0F849001 		je	L116
 3920      0000
1215:../../MMI/Resource/WriteRes.c ****         {
1216:../../MMI/Resource/WriteRes.c ****             strcpy(pAudioNameList[*pCurrMaxAudioNum].filename, upperFileName);
 3922              	LM145:
 3923 10b1 8D85E8FD 		leal	-536(%ebp), %eax
 3923      FFFF
 3924 10b7 89442404 		movl	%eax, 4(%esp)
 3925 10bb 8B85E0FD 		movl	-544(%ebp), %eax
 3925      FFFF
 3926 10c1 0FB700   		movzwl	(%eax), %eax
 3927 10c4 C1E009   		sall	$9, %eax
 3928 10c7 0385DCFD 		addl	-548(%ebp), %eax
 3928      FFFF
 3929 10cd 890424   		movl	%eax, (%esp)
 3930 10d0 E8000000 		call	_strcpy
 3930      00
1217:../../MMI/Resource/WriteRes.c ****             pAudioIdMap[nAdoId].nAudioNum = *pCurrMaxAudioNum;
 3932              	LM146:
 3933 10d5 0FB745F6 		movzwl	-10(%ebp), %eax
 3934 10d9 8D0C00   		leal	(%eax,%eax), %ecx
 3935 10dc 8B95D8FD 		movl	-552(%ebp), %edx
 3935      FFFF
 3936 10e2 8B85E0FD 		movl	-544(%ebp), %eax
 3936      FFFF
 3937 10e8 0FB700   		movzwl	(%eax), %eax
 3938 10eb 6689040A 		movw	%ax, (%edx,%ecx)
1218:../../MMI/Resource/WriteRes.c ****             (*pCurrMaxAudioNum)++;
 3940              	LM147:
GAS LISTING d:/software/ovi_2503a_s3trc/ovi_2503a_s3trc/plutommi/Customer/ResGenerator/gcctmp/ccWMaaaa.s 			page 50


 3941 10ef 8B95E0FD 		movl	-544(%ebp), %edx
 3941      FFFF
 3942 10f5 8B85E0FD 		movl	-544(%ebp), %eax
 3942      FFFF
 3943 10fb 0FB700   		movzwl	(%eax), %eax
 3944 10fe 40       		incl	%eax
 3945 10ff 668902   		movw	%ax, (%edx)
1219:../../MMI/Resource/WriteRes.c ****             (*pCurrMaxAudioId)++;
 3947              	LM148:
 3948 1102 8B95E4FD 		movl	-540(%ebp), %edx
 3948      FFFF
 3949 1108 8B85E4FD 		movl	-540(%ebp), %eax
 3949      FFFF
 3950 110e 0FB700   		movzwl	(%eax), %eax
 3951 1111 40       		incl	%eax
 3952 1112 668902   		movw	%ax, (%edx)
1220:../../MMI/Resource/WriteRes.c **** 
1221:../../MMI/Resource/WriteRes.c ****             g_resado_table[g_resado_count].size = g_ressize;
 3954              	LM149:
 3955 1115 8B153000 		movl	_g_resado_count, %edx
 3955      0000
 3956 111b 89D0     		movl	%edx, %eax
 3957 111d C1E008   		sall	$8, %eax
 3958 1120 01D0     		addl	%edx, %eax
 3959 1122 8D148500 		leal	0(,%eax,4), %edx
 3959      000000
 3960 1129 A1200000 		movl	_g_ressize, %eax
 3960      00
 3961 112e 89826004 		movl	%eax, _g_resado_table+1024(%edx)
 3961      0000
1222:../../MMI/Resource/WriteRes.c ****             strcpy(g_resado_table[g_resado_count].filename, filename);
 3963              	LM150:
 3964 1134 8B450C   		movl	12(%ebp), %eax
 3965 1137 89442404 		movl	%eax, 4(%esp)
 3966 113b 8B153000 		movl	_g_resado_count, %edx
 3966      0000
 3967 1141 89D0     		movl	%edx, %eax
 3968 1143 C1E008   		sall	$8, %eax
 3969 1146 01D0     		addl	%edx, %eax
 3970 1148 C1E002   		sall	$2, %eax
 3971 114b 05600000 		addl	$_g_resado_table, %eax
 3971      00
 3972 1150 890424   		movl	%eax, (%esp)
 3973 1153 E8000000 		call	_strcpy
 3973      00
1223:../../MMI/Resource/WriteRes.c ****             g_resado_count ++;
 3975              	LM151:
 3976 1158 FF053000 		incl	_g_resado_count
 3976      0000
1224:../../MMI/Resource/WriteRes.c ****             RESPRTONERECORD(fpAudioResourceUsage, nAdoId, filename, enum_value, g_ressize);
 3978              	LM152:
 3979 115e 833D0000 		cmpl	$0, _fpAudioResourceUsage
 3979      000000
 3980 1165 0F843701 		je	L91
 3980      0000
 3981              	LBB13:
 3982 116b 8B4510   		movl	16(%ebp), %eax
GAS LISTING d:/software/ovi_2503a_s3trc/ovi_2503a_s3trc/plutommi/Customer/ResGenerator/gcctmp/ccWMaaaa.s 			page 51


 3983 116e 89442404 		movl	%eax, 4(%esp)
 3984 1172 0FB745F6 		movzwl	-10(%ebp), %eax
 3985 1176 890424   		movl	%eax, (%esp)
 3986 1179 E8D5F0FF 		call	_GetOffsetFromResourceBase
 3986      FF
 3987 117e 8985D0ED 		movl	%eax, -135728(%ebp)
 3987      FDFF
 3988 1184 83BDD0ED 		cmpl	$-1, -135728(%ebp)
 3988      FDFFFF
 3989 118b 7549     		jne	L119
 3990 118d 8B450C   		movl	12(%ebp), %eax
 3991 1190 8944241C 		movl	%eax, 28(%esp)
 3992 1194 A1200000 		movl	_g_ressize, %eax
 3992      00
 3993 1199 89442418 		movl	%eax, 24(%esp)
 3994 119d 8B4510   		movl	16(%ebp), %eax
 3995 11a0 89442414 		movl	%eax, 20(%esp)
 3996 11a4 0FB745F6 		movzwl	-10(%ebp), %eax
 3997 11a8 89442410 		movl	%eax, 16(%esp)
 3998 11ac C744240C 		movl	$-1, 12(%esp)
 3998      FFFFFFFF 
 3999 11b4 C7442408 		movl	$LC32, 8(%esp)
 3999      23070000 
 4000 11bc C7442404 		movl	$LC33, 4(%esp)
 4000      2A070000 
 4001 11c4 A1000000 		movl	_fpAudioResourceUsage, %eax
 4001      00
 4002 11c9 890424   		movl	%eax, (%esp)
 4003 11cc E8000000 		call	_fprintf
 4003      00
 4004 11d1 E9CC0000 		jmp	L91
 4004      00
 4005              	L119:
 4006 11d6 8B450C   		movl	12(%ebp), %eax
 4007 11d9 8944241C 		movl	%eax, 28(%esp)
 4008 11dd A1200000 		movl	_g_ressize, %eax
 4008      00
 4009 11e2 89442418 		movl	%eax, 24(%esp)
 4010 11e6 8B4510   		movl	16(%ebp), %eax
 4011 11e9 89442414 		movl	%eax, 20(%esp)
 4012 11ed 0FB745F6 		movzwl	-10(%ebp), %eax
 4013 11f1 89442410 		movl	%eax, 16(%esp)
 4014 11f5 8B95D0ED 		movl	-135728(%ebp), %edx
 4014      FDFF
 4015 11fb 89D0     		movl	%edx, %eax
 4016 11fd C1E006   		sall	$6, %eax
 4017 1200 01D0     		addl	%edx, %eax
 4018 1202 C1E003   		sall	$3, %eax
 4019 1205 0FB78004 		movzwl	_g_mmi_resource_base_table+4(%eax), %eax
 4019      000000
 4020 120c 8944240C 		movl	%eax, 12(%esp)
 4021 1210 8B95D0ED 		movl	-135728(%ebp), %edx
 4021      FDFF
 4022 1216 89D0     		movl	%edx, %eax
 4023 1218 C1E006   		sall	$6, %eax
 4024 121b 01D0     		addl	%edx, %eax
 4025 121d C1E003   		sall	$3, %eax
GAS LISTING d:/software/ovi_2503a_s3trc/ovi_2503a_s3trc/plutommi/Customer/ResGenerator/gcctmp/ccWMaaaa.s 			page 52


 4026 1220 8B800000 		movl	_g_mmi_resource_base_table(%eax), %eax
 4026      0000
 4027 1226 89442408 		movl	%eax, 8(%esp)
 4028 122a C7442404 		movl	$LC33, 4(%esp)
 4028      2A070000 
 4029 1232 A1000000 		movl	_fpAudioResourceUsage, %eax
 4029      00
 4030 1237 890424   		movl	%eax, (%esp)
 4031 123a E8000000 		call	_fprintf
 4031      00
 4032              	LBE13:
 4033 123f EB61     		jmp	L91
 4034              	L116:
1225:../../MMI/Resource/WriteRes.c ****         }
1226:../../MMI/Resource/WriteRes.c ****         else
1227:../../MMI/Resource/WriteRes.c ****         {
1228:../../MMI/Resource/WriteRes.c ****             if (toolFlag)
 4036              	LM153:
 4037 1241 833D0000 		cmpl	$0, _toolFlag
 4037      000000
 4038 1248 740A     		je	L124
1229:../../MMI/Resource/WriteRes.c ****             {
1230:../../MMI/Resource/WriteRes.c ****                 resultFailFlag = 1;
 4040              	LM154:
 4041 124a C7050400 		movl	$1, _resultFailFlag
 4041      00000100 
 4041      0000
 4042              	L124:
1231:../../MMI/Resource/WriteRes.c ****             }
1232:../../MMI/Resource/WriteRes.c ****             strcpy(AudioNameList[CurrMaxAudioNum].filename, AUDIO_DEFAULT_FILEBUFFER);
 4044              	LM155:
 4045 1254 C7442404 		movl	$LC44, 4(%esp)
 4045      400C0000 
 4046 125c 0FB70500 		movzwl	_CurrMaxAudioNum, %eax
 4046      000000
 4047 1263 C1E009   		sall	$9, %eax
 4048 1266 05000000 		addl	$_AudioNameList, %eax
 4048      00
 4049 126b 890424   		movl	%eax, (%esp)
 4050 126e E8000000 		call	_strcpy
 4050      00
1233:../../MMI/Resource/WriteRes.c ****             AudioIdMap[nAdoId].nAudioNum = CurrMaxAudioNum;
 4052              	LM156:
 4053 1273 0FB755F6 		movzwl	-10(%ebp), %edx
 4054 1277 0FB70500 		movzwl	_CurrMaxAudioNum, %eax
 4054      000000
 4055 127e 66898412 		movw	%ax, _AudioIdMap(%edx,%edx)
 4055      00000000 
1234:../../MMI/Resource/WriteRes.c ****             CurrMaxAudioNum++;
 4057              	LM157:
 4058 1286 0FB70500 		movzwl	_CurrMaxAudioNum, %eax
 4058      000000
 4059 128d 40       		incl	%eax
 4060 128e 66A30000 		movw	%ax, _CurrMaxAudioNum
 4060      0000
1235:../../MMI/Resource/WriteRes.c ****             CurrMaxAudioId++;
 4062              	LM158:
GAS LISTING d:/software/ovi_2503a_s3trc/ovi_2503a_s3trc/plutommi/Customer/ResGenerator/gcctmp/ccWMaaaa.s 			page 53


 4063 1294 0FB70500 		movzwl	_CurrMaxAudioId, %eax
 4063      000000
 4064 129b 40       		incl	%eax
 4065 129c 66A30000 		movw	%ax, _CurrMaxAudioId
 4065      0000
1236:../../MMI/Resource/WriteRes.c ****         }
1237:../../MMI/Resource/WriteRes.c ****     }
1238:../../MMI/Resource/WriteRes.c **** }
 4067              	LM159:
 4068              	L91:
 4069 12a2 C9       		leave
 4070 12a3 C3       		ret
 4071              	LBE10:
 4096              	Lscope8:
 4103              	.globl _SetBinaryWithBuffer
 4105              	_SetBinaryWithBuffer:
1239:../../MMI/Resource/WriteRes.c **** 
1240:../../MMI/Resource/WriteRes.c **** 
1241:../../MMI/Resource/WriteRes.c **** /*****************************************************************************
1242:../../MMI/Resource/WriteRes.c ****  * FUNCTION
1243:../../MMI/Resource/WriteRes.c ****  *  SetBinaryWithBuffer
1244:../../MMI/Resource/WriteRes.c ****  * DESCRIPTION
1245:../../MMI/Resource/WriteRes.c ****  *  Function to add binary file to resource
1246:../../MMI/Resource/WriteRes.c ****  * PARAMETERS
1247:../../MMI/Resource/WriteRes.c ****  *  res_id              [IN]        -> respurce ID
1248:../../MMI/Resource/WriteRes.c ****  *  filename            [IN]        -> binary data filename
1249:../../MMI/Resource/WriteRes.c ****  *  enum_value          [IN]        -> enun value
1250:../../MMI/Resource/WriteRes.c ****  *  custpack_flag             [IN]        -> Custpack flag
1251:../../MMI/Resource/WriteRes.c ****  * RETURNS
1252:../../MMI/Resource/WriteRes.c ****  *  void
1253:../../MMI/Resource/WriteRes.c ****  *****************************************************************************/
1254:../../MMI/Resource/WriteRes.c **** void SetBinaryWithBuffer(
1255:../../MMI/Resource/WriteRes.c ****         U16 res_id,
1256:../../MMI/Resource/WriteRes.c ****         S8 *filename,
1257:../../MMI/Resource/WriteRes.c ****         S8 *enum_value,
1258:../../MMI/Resource/WriteRes.c ****         binary_type_enum binary_type_flag)
1259:../../MMI/Resource/WriteRes.c **** {
 4107              	LM160:
 4108 12a4 55       		pushl	%ebp
 4109 12a5 89E5     		movl	%esp, %ebp
 4110 12a7 83EC18   		subl	$24, %esp
 4111 12aa 8B4508   		movl	8(%ebp), %eax
 4112 12ad 668945FE 		movw	%ax, -2(%ebp)
1260:../../MMI/Resource/WriteRes.c ****     LogSetBinaryWithBuffer(res_id, filename, binary_type_flag);
 4114              	LM161:
 4115 12b1 8B4514   		movl	20(%ebp), %eax
 4116 12b4 89442408 		movl	%eax, 8(%esp)
 4117 12b8 8B450C   		movl	12(%ebp), %eax
 4118 12bb 89442404 		movl	%eax, 4(%esp)
 4119 12bf 0FB745FE 		movzwl	-2(%ebp), %eax
 4120 12c3 890424   		movl	%eax, (%esp)
 4121 12c6 E8000000 		call	_LogSetBinaryWithBuffer
 4121      00
1261:../../MMI/Resource/WriteRes.c **** }
 4123              	LM162:
 4124 12cb C9       		leave
 4125 12cc C3       		ret
GAS LISTING d:/software/ovi_2503a_s3trc/ovi_2503a_s3trc/plutommi/Customer/ResGenerator/gcctmp/ccWMaaaa.s 			page 54


 4127              	Lscope9:
 4129 12cd 90909090 		.align 32
 4129      90909090 
 4129      90909090 
 4129      90909090 
 4129      909090
 4130              	LC45:
 4131 12e0 4572726F 		.ascii "Error!! MenuItemPresent: ItemId == 0\0"
 4131      72212120 
 4131      4D656E75 
 4131      4974656D 
 4131      50726573 
 4135              	_MenuItemPresent:
1262:../../MMI/Resource/WriteRes.c **** 
1263:../../MMI/Resource/WriteRes.c **** 
1264:../../MMI/Resource/WriteRes.c **** 
1265:../../MMI/Resource/WriteRes.c **** /*****************************************************************************
1266:../../MMI/Resource/WriteRes.c ****  * FUNCTION
1267:../../MMI/Resource/WriteRes.c ****  *  MenuItemPresent
1268:../../MMI/Resource/WriteRes.c ****  * DESCRIPTION
1269:../../MMI/Resource/WriteRes.c ****  *  Function to find ImageId
1270:../../MMI/Resource/WriteRes.c ****  * PARAMETERS
1271:../../MMI/Resource/WriteRes.c ****  *  ItemId      [IN]
1272:../../MMI/Resource/WriteRes.c ****  *  U16(?)      [IN]        -> ImageId
1273:../../MMI/Resource/WriteRes.c ****  * RETURNS
1274:../../MMI/Resource/WriteRes.c ****  *  U16
1275:../../MMI/Resource/WriteRes.c ****  *****************************************************************************/
1276:../../MMI/Resource/WriteRes.c **** static U16 MenuItemPresent(U16 ItemId)
1277:../../MMI/Resource/WriteRes.c **** {
 4137              	LM163:
 4138 1305 55       		pushl	%ebp
 4139 1306 89E5     		movl	%esp, %ebp
 4140 1308 83EC18   		subl	$24, %esp
 4141 130b 8B4508   		movl	8(%ebp), %eax
 4142 130e 668945FE 		movw	%ax, -2(%ebp)
1278:../../MMI/Resource/WriteRes.c ****     /*----------------------------------------------------------------*/
1279:../../MMI/Resource/WriteRes.c ****     /* Local Variables                                                */
1280:../../MMI/Resource/WriteRes.c ****     /*----------------------------------------------------------------*/
1281:../../MMI/Resource/WriteRes.c **** 
1282:../../MMI/Resource/WriteRes.c ****     /*----------------------------------------------------------------*/
1283:../../MMI/Resource/WriteRes.c ****     /* Code Body                                                      */
1284:../../MMI/Resource/WriteRes.c ****     /*----------------------------------------------------------------*/
1285:../../MMI/Resource/WriteRes.c ****     if (ItemId == 0)
 4144              	LM164:
 4145 1312 66837DFE 		cmpw	$0, -2(%ebp)
 4145      00
 4146 1317 7528     		jne	L127
1286:../../MMI/Resource/WriteRes.c ****     {
1287:../../MMI/Resource/WriteRes.c ****         RESWRI_LOG_E("Error!! MenuItemPresent: ItemId == 0");
 4148              	LM165:
 4149 1319 C7442408 		movl	$LC45, 8(%esp)
 4149      E0120000 
 4150 1321 C7442404 		movl	$LC24, 4(%esp)
 4150      4A020000 
 4151 1329 C7042403 		movl	$3, (%esp)
 4151      000000
 4152 1330 E8000000 		call	_reslog_adaptor_log
GAS LISTING d:/software/ovi_2503a_s3trc/ovi_2503a_s3trc/plutommi/Customer/ResGenerator/gcctmp/ccWMaaaa.s 			page 55


 4152      00
1288:../../MMI/Resource/WriteRes.c ****         exit(2);
 4154              	LM166:
 4155 1335 C7042402 		movl	$2, (%esp)
 4155      000000
 4156 133c E8000000 		call	_exit
 4156      00
 4157              	L127:
1289:../../MMI/Resource/WriteRes.c ****     }
1290:../../MMI/Resource/WriteRes.c ****     if(nCustMenus[ItemId - 1].nParentId < MAX_MENU_ITEMS)
 4159              	LM167:
 4160 1341 0FB745FE 		movzwl	-2(%ebp), %eax
 4161 1345 C1E004   		sall	$4, %eax
 4162 1348 6683B8F0 		cmpw	$-1, _nCustMenus-16(%eax)
 4162      FFFFFFFF 
 4163 1350 7409     		je	L128
1291:../../MMI/Resource/WriteRes.c ****         {
1292:../../MMI/Resource/WriteRes.c ****             return TRUE;
 4165              	LM168:
 4166 1352 C745F801 		movl	$1, -8(%ebp)
 4166      000000
 4167 1359 EB07     		jmp	L126
 4168              	L128:
1293:../../MMI/Resource/WriteRes.c ****         }
1294:../../MMI/Resource/WriteRes.c ****     return FALSE;
 4170              	LM169:
 4171 135b C745F800 		movl	$0, -8(%ebp)
 4171      000000
1295:../../MMI/Resource/WriteRes.c **** }
 4173              	LM170:
 4174              	L126:
 4175 1362 8B45F8   		movl	-8(%ebp), %eax
 4176 1365 C9       		leave
 4177 1366 C3       		ret
 4179              	Lscope10:
 4181              	.lcomm _is_dummy_code,16
 4182 1367 90909090 		.align 32
 4182      90909090 
 4182      90909090 
 4182      90909090 
 4182      90909090 
 4183              	LC46:
 4184 1380 2E2E5C2E 		.ascii "..\\..\\Customer\\CustResource\\CustMenuTree_Out.c\0"
 4184      2E5C4375 
 4184      73746F6D 
 4184      65725C43 
 4184      75737452 
 4185              	LC47:
 4186 13af 6100     		.ascii "a\0"
 4187 13b1 EB0D9090 		.align 32
 4187      90909090 
 4187      90909090 
 4187      909090
 4188              	LC48:
 4189 13c0 4144445F 		.ascii "ADD_APPLICATION_MENUITEM2(%s);\12\0"
 4189      4150504C 
 4189      49434154 
GAS LISTING d:/software/ovi_2503a_s3trc/ovi_2503a_s3trc/plutommi/Customer/ResGenerator/gcctmp/ccWMaaaa.s 			page 56


 4189      494F4E5F 
 4189      4D454E55 
 4192              	.globl _PrintMenuItems
 4194              	_PrintMenuItems:
1296:../../MMI/Resource/WriteRes.c **** 
1297:../../MMI/Resource/WriteRes.c **** 
1298:../../MMI/Resource/WriteRes.c **** /*****************************************************************************
1299:../../MMI/Resource/WriteRes.c ****  * FUNCTION
1300:../../MMI/Resource/WriteRes.c ****  *  PrintMenuItems
1301:../../MMI/Resource/WriteRes.c ****  * DESCRIPTION
1302:../../MMI/Resource/WriteRes.c ****  *  Fills the CUSTOM_MENU structure, for MenuTree Tool usage
1303:../../MMI/Resource/WriteRes.c ****  * PARAMETERS
1304:../../MMI/Resource/WriteRes.c ****  *  arg1        [?]
1305:../../MMI/Resource/WriteRes.c ****  *  U16(?)      [IN]        -> variable argument list
1306:../../MMI/Resource/WriteRes.c ****  * RETURNS
1307:../../MMI/Resource/WriteRes.c ****  *  void
1308:../../MMI/Resource/WriteRes.c ****  *****************************************************************************/
1309:../../MMI/Resource/WriteRes.c **** static char is_dummy_code = 0;  /* To check if it needs to generate for menu tree tool or not. */
1310:../../MMI/Resource/WriteRes.c **** void PrintMenuItems(char *arg1)
1311:../../MMI/Resource/WriteRes.c **** {
 4196              	LM171:
 4197 13e0 55       		pushl	%ebp
 4198 13e1 89E5     		movl	%esp, %ebp
 4199 13e3 83EC18   		subl	$24, %esp
1312:../../MMI/Resource/WriteRes.c ****     /*----------------------------------------------------------------*/
1313:../../MMI/Resource/WriteRes.c ****     /* Local Variables                                                */
1314:../../MMI/Resource/WriteRes.c ****     /*----------------------------------------------------------------*/
1315:../../MMI/Resource/WriteRes.c **** 
1316:../../MMI/Resource/WriteRes.c ****     /* static U8 is_first=1; */
1317:../../MMI/Resource/WriteRes.c ****     FILE *fout;
1318:../../MMI/Resource/WriteRes.c **** 
1319:../../MMI/Resource/WriteRes.c ****     /*----------------------------------------------------------------*/
1320:../../MMI/Resource/WriteRes.c ****     /* Code Body                                                      */
1321:../../MMI/Resource/WriteRes.c ****     /*----------------------------------------------------------------*/
1322:../../MMI/Resource/WriteRes.c ****     if (is_dummy_code == 1)
 4201              	LM172:
 4202              	LBB14:
 4203 13e6 803D5000 		cmpb	$1, _is_dummy_code
 4203      000001
 4204 13ed 7502     		jne	L130
1323:../../MMI/Resource/WriteRes.c ****     {
1324:../../MMI/Resource/WriteRes.c ****         return;
 4206              	LM173:
 4207 13ef EB6B     		jmp	L129
 4208              	L130:
1325:../../MMI/Resource/WriteRes.c ****     }
1326:../../MMI/Resource/WriteRes.c **** 
1327:../../MMI/Resource/WriteRes.c ****     if (is_first)
 4210              	LM174:
 4211 13f1 803D0000 		cmpb	$0, _is_first
 4211      000000
 4212 13f8 7420     		je	L131
1328:../../MMI/Resource/WriteRes.c ****     {
1329:../../MMI/Resource/WriteRes.c ****         fout = fopen(OUTPUT_MENUTREE_FILENAME, "w");
 4214              	LM175:
 4215 13fa C7442404 		movl	$LC26, 4(%esp)
 4215      D9030000 
GAS LISTING d:/software/ovi_2503a_s3trc/ovi_2503a_s3trc/plutommi/Customer/ResGenerator/gcctmp/ccWMaaaa.s 			page 57


 4216 1402 C7042480 		movl	$LC46, (%esp)
 4216      130000
 4217 1409 E8000000 		call	_fopen
 4217      00
 4218 140e 8945FC   		movl	%eax, -4(%ebp)
1330:../../MMI/Resource/WriteRes.c ****         is_first = 0;
 4220              	LM176:
 4221 1411 C6050000 		movb	$0, _is_first
 4221      000000
 4222 1418 EB17     		jmp	L132
 4223              	L131:
1331:../../MMI/Resource/WriteRes.c ****     }
1332:../../MMI/Resource/WriteRes.c ****     else
1333:../../MMI/Resource/WriteRes.c ****     {
1334:../../MMI/Resource/WriteRes.c ****         fout = fopen(OUTPUT_MENUTREE_FILENAME, "a");
 4225              	LM177:
 4226 141a C7442404 		movl	$LC47, 4(%esp)
 4226      AF130000 
 4227 1422 C7042480 		movl	$LC46, (%esp)
 4227      130000
 4228 1429 E8000000 		call	_fopen
 4228      00
 4229 142e 8945FC   		movl	%eax, -4(%ebp)
 4230              	L132:
1335:../../MMI/Resource/WriteRes.c ****     }
1336:../../MMI/Resource/WriteRes.c **** 
1337:../../MMI/Resource/WriteRes.c ****     if (fout != NULL)
 4232              	LM178:
 4233 1431 837DFC00 		cmpl	$0, -4(%ebp)
 4234 1435 7425     		je	L129
1338:../../MMI/Resource/WriteRes.c ****     {
1339:../../MMI/Resource/WriteRes.c ****         fprintf(fout, "ADD_APPLICATION_MENUITEM2(%s);\n", arg1);
 4236              	LM179:
 4237 1437 8B4508   		movl	8(%ebp), %eax
 4238 143a 89442408 		movl	%eax, 8(%esp)
 4239 143e C7442404 		movl	$LC48, 4(%esp)
 4239      C0130000 
 4240 1446 8B45FC   		movl	-4(%ebp), %eax
 4241 1449 890424   		movl	%eax, (%esp)
 4242 144c E8000000 		call	_fprintf
 4242      00
1340:../../MMI/Resource/WriteRes.c ****         fclose(fout);
 4244              	LM180:
 4245 1451 8B45FC   		movl	-4(%ebp), %eax
 4246 1454 890424   		movl	%eax, (%esp)
 4247 1457 E8000000 		call	_fclose
 4247      00
1341:../../MMI/Resource/WriteRes.c ****     }
1342:../../MMI/Resource/WriteRes.c **** 
1343:../../MMI/Resource/WriteRes.c **** }
 4249              	LM181:
 4250              	L129:
 4251 145c C9       		leave
 4252 145d C3       		ret
 4253              	LBE14:
 4257              	Lscope11:
 4259 145e 89F6     		.align 32
GAS LISTING d:/software/ovi_2503a_s3trc/ovi_2503a_s3trc/plutommi/Customer/ResGenerator/gcctmp/ccWMaaaa.s 			page 58


 4260              	LC49:
 4261 1460 4144445F 		.ascii "ADD_APPLICATION_MENUITEM3(%s);\12\0"
 4261      4150504C 
 4261      49434154 
 4261      494F4E5F 
 4261      4D454E55 
 4264              	.globl _PrintMenuItems2
 4266              	_PrintMenuItems2:
1344:../../MMI/Resource/WriteRes.c **** 
1345:../../MMI/Resource/WriteRes.c **** 
1346:../../MMI/Resource/WriteRes.c **** /*****************************************************************************
1347:../../MMI/Resource/WriteRes.c ****  * FUNCTION
1348:../../MMI/Resource/WriteRes.c ****  *  PrintMenuItems2
1349:../../MMI/Resource/WriteRes.c ****  * DESCRIPTION
1350:../../MMI/Resource/WriteRes.c ****  *  Fills the CUSTOM_MENU structure, for MenuTree Tool usage
1351:../../MMI/Resource/WriteRes.c ****  * PARAMETERS
1352:../../MMI/Resource/WriteRes.c ****  *  arg1        [?]
1353:../../MMI/Resource/WriteRes.c ****  *  U16(?)      [IN]        -> variable argument list
1354:../../MMI/Resource/WriteRes.c ****  * RETURNS
1355:../../MMI/Resource/WriteRes.c ****  *  void
1356:../../MMI/Resource/WriteRes.c ****  *****************************************************************************/
1357:../../MMI/Resource/WriteRes.c **** void PrintMenuItems2(char *arg1, ...)
1358:../../MMI/Resource/WriteRes.c **** {
 4268              	LM182:
 4269 1480 55       		pushl	%ebp
 4270 1481 89E5     		movl	%esp, %ebp
 4271 1483 83EC18   		subl	$24, %esp
1359:../../MMI/Resource/WriteRes.c ****     /*----------------------------------------------------------------*/
1360:../../MMI/Resource/WriteRes.c ****     /* Local Variables                                                */
1361:../../MMI/Resource/WriteRes.c ****     /*----------------------------------------------------------------*/
1362:../../MMI/Resource/WriteRes.c **** 
1363:../../MMI/Resource/WriteRes.c ****     /* static U8 is_first=1; */
1364:../../MMI/Resource/WriteRes.c ****     FILE *fout;
1365:../../MMI/Resource/WriteRes.c **** 
1366:../../MMI/Resource/WriteRes.c ****     /*----------------------------------------------------------------*/
1367:../../MMI/Resource/WriteRes.c ****     /* Code Body                                                      */
1368:../../MMI/Resource/WriteRes.c ****     /*----------------------------------------------------------------*/
1369:../../MMI/Resource/WriteRes.c ****     if (is_dummy_code == 1)
 4273              	LM183:
 4274              	LBB15:
 4275 1486 803D5000 		cmpb	$1, _is_dummy_code
 4275      000001
 4276 148d 7502     		jne	L135
1370:../../MMI/Resource/WriteRes.c ****     {
1371:../../MMI/Resource/WriteRes.c ****         return;
 4278              	LM184:
 4279 148f EB6B     		jmp	L134
 4280              	L135:
1372:../../MMI/Resource/WriteRes.c ****     }
1373:../../MMI/Resource/WriteRes.c **** 
1374:../../MMI/Resource/WriteRes.c ****     if (is_first)
 4282              	LM185:
 4283 1491 803D0000 		cmpb	$0, _is_first
 4283      000000
 4284 1498 7420     		je	L136
1375:../../MMI/Resource/WriteRes.c ****     {
1376:../../MMI/Resource/WriteRes.c ****         fout = fopen(OUTPUT_MENUTREE_FILENAME, "w");
GAS LISTING d:/software/ovi_2503a_s3trc/ovi_2503a_s3trc/plutommi/Customer/ResGenerator/gcctmp/ccWMaaaa.s 			page 59


 4286              	LM186:
 4287 149a C7442404 		movl	$LC26, 4(%esp)
 4287      D9030000 
 4288 14a2 C7042480 		movl	$LC46, (%esp)
 4288      130000
 4289 14a9 E8000000 		call	_fopen
 4289      00
 4290 14ae 8945FC   		movl	%eax, -4(%ebp)
1377:../../MMI/Resource/WriteRes.c ****         is_first = 0;
 4292              	LM187:
 4293 14b1 C6050000 		movb	$0, _is_first
 4293      000000
 4294 14b8 EB17     		jmp	L137
 4295              	L136:
1378:../../MMI/Resource/WriteRes.c ****     }
1379:../../MMI/Resource/WriteRes.c ****     else
1380:../../MMI/Resource/WriteRes.c ****     {
1381:../../MMI/Resource/WriteRes.c ****         fout = fopen(OUTPUT_MENUTREE_FILENAME, "a");
 4297              	LM188:
 4298 14ba C7442404 		movl	$LC47, 4(%esp)
 4298      AF130000 
 4299 14c2 C7042480 		movl	$LC46, (%esp)
 4299      130000
 4300 14c9 E8000000 		call	_fopen
 4300      00
 4301 14ce 8945FC   		movl	%eax, -4(%ebp)
 4302              	L137:
1382:../../MMI/Resource/WriteRes.c ****     }
1383:../../MMI/Resource/WriteRes.c **** 
1384:../../MMI/Resource/WriteRes.c ****     if (fout != NULL)
 4304              	LM189:
 4305 14d1 837DFC00 		cmpl	$0, -4(%ebp)
 4306 14d5 7425     		je	L134
1385:../../MMI/Resource/WriteRes.c ****     {
1386:../../MMI/Resource/WriteRes.c ****         fprintf(fout, "ADD_APPLICATION_MENUITEM3(%s);\n", arg1);
 4308              	LM190:
 4309 14d7 8B4508   		movl	8(%ebp), %eax
 4310 14da 89442408 		movl	%eax, 8(%esp)
 4311 14de C7442404 		movl	$LC49, 4(%esp)
 4311      60140000 
 4312 14e6 8B45FC   		movl	-4(%ebp), %eax
 4313 14e9 890424   		movl	%eax, (%esp)
 4314 14ec E8000000 		call	_fprintf
 4314      00
1387:../../MMI/Resource/WriteRes.c ****         fclose(fout);
 4316              	LM191:
 4317 14f1 8B45FC   		movl	-4(%ebp), %eax
 4318 14f4 890424   		movl	%eax, (%esp)
 4319 14f7 E8000000 		call	_fclose
 4319      00
1388:../../MMI/Resource/WriteRes.c ****     }
1389:../../MMI/Resource/WriteRes.c **** 
1390:../../MMI/Resource/WriteRes.c **** }
 4321              	LM192:
 4322              	L134:
 4323 14fc C9       		leave
 4324 14fd C3       		ret
GAS LISTING d:/software/ovi_2503a_s3trc/ovi_2503a_s3trc/plutommi/Customer/ResGenerator/gcctmp/ccWMaaaa.s 			page 60


 4325              	LBE15:
 4329              	Lscope12:
 4331 14fe 89F6     		.align 32
 4332              	LC50:
 4333 1500 4144445F 		.ascii "ADD_APPLICATION_MENUITEM5(%s);\12\0"
 4333      4150504C 
 4333      49434154 
 4333      494F4E5F 
 4333      4D454E55 
 4336              	.globl _PrintMenuItems5
 4338              	_PrintMenuItems5:
1391:../../MMI/Resource/WriteRes.c **** 
1392:../../MMI/Resource/WriteRes.c **** /*****************************************************************************
1393:../../MMI/Resource/WriteRes.c ****  * FUNCTION
1394:../../MMI/Resource/WriteRes.c ****  *  PrintMenuItems5
1395:../../MMI/Resource/WriteRes.c ****  * DESCRIPTION
1396:../../MMI/Resource/WriteRes.c ****  *  Fills the CUSTOM_MENU structure, for MenuTree Tool usage
1397:../../MMI/Resource/WriteRes.c ****  * PARAMETERS
1398:../../MMI/Resource/WriteRes.c ****  *  arg1        [?]
1399:../../MMI/Resource/WriteRes.c ****  *  U16(?)      [IN]        -> variable argument list
1400:../../MMI/Resource/WriteRes.c ****  * RETURNS
1401:../../MMI/Resource/WriteRes.c ****  *  void
1402:../../MMI/Resource/WriteRes.c ****  *****************************************************************************/
1403:../../MMI/Resource/WriteRes.c **** void PrintMenuItems5(char *arg1)
1404:../../MMI/Resource/WriteRes.c **** {
 4340              	LM193:
 4341 1520 55       		pushl	%ebp
 4342 1521 89E5     		movl	%esp, %ebp
 4343 1523 83EC18   		subl	$24, %esp
1405:../../MMI/Resource/WriteRes.c ****     /*----------------------------------------------------------------*/
1406:../../MMI/Resource/WriteRes.c ****     /* Local Variables                                                */
1407:../../MMI/Resource/WriteRes.c ****     /*----------------------------------------------------------------*/
1408:../../MMI/Resource/WriteRes.c **** 
1409:../../MMI/Resource/WriteRes.c ****     /* static U8 is_first=1; */
1410:../../MMI/Resource/WriteRes.c ****     FILE *fout;
1411:../../MMI/Resource/WriteRes.c **** 
1412:../../MMI/Resource/WriteRes.c ****     /*----------------------------------------------------------------*/
1413:../../MMI/Resource/WriteRes.c ****     /* Code Body                                                      */
1414:../../MMI/Resource/WriteRes.c ****     /*----------------------------------------------------------------*/
1415:../../MMI/Resource/WriteRes.c ****     if (is_dummy_code == 1)
 4345              	LM194:
 4346              	LBB16:
 4347 1526 803D5000 		cmpb	$1, _is_dummy_code
 4347      000001
 4348 152d 7502     		jne	L140
1416:../../MMI/Resource/WriteRes.c ****     {
1417:../../MMI/Resource/WriteRes.c ****         return;
 4350              	LM195:
 4351 152f EB6B     		jmp	L139
 4352              	L140:
1418:../../MMI/Resource/WriteRes.c ****     }
1419:../../MMI/Resource/WriteRes.c **** 
1420:../../MMI/Resource/WriteRes.c ****     if (is_first)
 4354              	LM196:
 4355 1531 803D0000 		cmpb	$0, _is_first
 4355      000000
 4356 1538 7420     		je	L141
GAS LISTING d:/software/ovi_2503a_s3trc/ovi_2503a_s3trc/plutommi/Customer/ResGenerator/gcctmp/ccWMaaaa.s 			page 61


1421:../../MMI/Resource/WriteRes.c ****     {
1422:../../MMI/Resource/WriteRes.c ****         fout = fopen(OUTPUT_MENUTREE_FILENAME, "w");
 4358              	LM197:
 4359 153a C7442404 		movl	$LC26, 4(%esp)
 4359      D9030000 
 4360 1542 C7042480 		movl	$LC46, (%esp)
 4360      130000
 4361 1549 E8000000 		call	_fopen
 4361      00
 4362 154e 8945FC   		movl	%eax, -4(%ebp)
1423:../../MMI/Resource/WriteRes.c ****         is_first = 0;
 4364              	LM198:
 4365 1551 C6050000 		movb	$0, _is_first
 4365      000000
 4366 1558 EB17     		jmp	L142
 4367              	L141:
1424:../../MMI/Resource/WriteRes.c ****     }
1425:../../MMI/Resource/WriteRes.c ****     else
1426:../../MMI/Resource/WriteRes.c ****     {
1427:../../MMI/Resource/WriteRes.c ****         fout = fopen(OUTPUT_MENUTREE_FILENAME, "a");
 4369              	LM199:
 4370 155a C7442404 		movl	$LC47, 4(%esp)
 4370      AF130000 
 4371 1562 C7042480 		movl	$LC46, (%esp)
 4371      130000
 4372 1569 E8000000 		call	_fopen
 4372      00
 4373 156e 8945FC   		movl	%eax, -4(%ebp)
 4374              	L142:
1428:../../MMI/Resource/WriteRes.c ****     }
1429:../../MMI/Resource/WriteRes.c **** 
1430:../../MMI/Resource/WriteRes.c ****     if (fout != NULL)
 4376              	LM200:
 4377 1571 837DFC00 		cmpl	$0, -4(%ebp)
 4378 1575 7425     		je	L139
1431:../../MMI/Resource/WriteRes.c ****     {
1432:../../MMI/Resource/WriteRes.c ****         fprintf(fout, "ADD_APPLICATION_MENUITEM5(%s);\n", arg1);
 4380              	LM201:
 4381 1577 8B4508   		movl	8(%ebp), %eax
 4382 157a 89442408 		movl	%eax, 8(%esp)
 4383 157e C7442404 		movl	$LC50, 4(%esp)
 4383      00150000 
 4384 1586 8B45FC   		movl	-4(%ebp), %eax
 4385 1589 890424   		movl	%eax, (%esp)
 4386 158c E8000000 		call	_fprintf
 4386      00
1433:../../MMI/Resource/WriteRes.c ****         fclose(fout);
 4388              	LM202:
 4389 1591 8B45FC   		movl	-4(%ebp), %eax
 4390 1594 890424   		movl	%eax, (%esp)
 4391 1597 E8000000 		call	_fclose
 4391      00
1434:../../MMI/Resource/WriteRes.c ****     }
1435:../../MMI/Resource/WriteRes.c **** 
1436:../../MMI/Resource/WriteRes.c **** }
 4393              	LM203:
 4394              	L139:
GAS LISTING d:/software/ovi_2503a_s3trc/ovi_2503a_s3trc/plutommi/Customer/ResGenerator/gcctmp/ccWMaaaa.s 			page 62


 4395 159c C9       		leave
 4396 159d C3       		ret
 4397              	LBE16:
 4401              	Lscope13:
 4403              	LC51:
 4404 159e 6E6F6E65 		.ascii "none\0"
 4404      00
 4405              	LC52:
 4406 15a3 756E6B6E 		.ascii "unknown\0"
 4406      6F776E00 
 4407              	LC53:
 4408 15ab 4144445F 		.ascii "ADD_APPLICATION_MENUITEM2((\0"
 4408      4150504C 
 4408      49434154 
 4408      494F4E5F 
 4408      4D454E55 
 4409              	LC54:
 4410 15c7 25642C00 		.ascii "%d,\0"
 4411              	LC55:
 4412 15cb 25642929 		.ascii "%d));\12\0"
 4412      3B0A00
 4415              	.globl _SetMenuItem
 4417              	_SetMenuItem:
1437:../../MMI/Resource/WriteRes.c **** 
1438:../../MMI/Resource/WriteRes.c **** 
1439:../../MMI/Resource/WriteRes.c **** /*****************************************************************************
1440:../../MMI/Resource/WriteRes.c ****  * FUNCTION
1441:../../MMI/Resource/WriteRes.c ****  *  SetMenuItem
1442:../../MMI/Resource/WriteRes.c ****  * DESCRIPTION
1443:../../MMI/Resource/WriteRes.c ****  *  Fills the CUSTOM_MENU structure
1444:../../MMI/Resource/WriteRes.c ****  * PARAMETERS
1445:../../MMI/Resource/WriteRes.c ****  *  arg1        [IN]
1446:../../MMI/Resource/WriteRes.c ****  *  U16(?)      [IN]        -> variable argument list
1447:../../MMI/Resource/WriteRes.c ****  * RETURNS
1448:../../MMI/Resource/WriteRes.c ****  *  void
1449:../../MMI/Resource/WriteRes.c ****  *****************************************************************************/
1450:../../MMI/Resource/WriteRes.c **** void SetMenuItem(U16 arg1, ...)
1451:../../MMI/Resource/WriteRes.c **** {
 4419              	LM204:
 4420 15d2 55       		pushl	%ebp
 4421 15d3 89E5     		movl	%esp, %ebp
 4422 15d5 53       		pushl	%ebx
 4423 15d6 83EC34   		subl	$52, %esp
 4424 15d9 8B4508   		movl	8(%ebp), %eax
 4425 15dc 668945FA 		movw	%ax, -6(%ebp)
1452:../../MMI/Resource/WriteRes.c ****     /*----------------------------------------------------------------*/
1453:../../MMI/Resource/WriteRes.c ****     /* Local Variables                                                */
1454:../../MMI/Resource/WriteRes.c ****     /*----------------------------------------------------------------*/
1455:../../MMI/Resource/WriteRes.c **** 
1456:../../MMI/Resource/WriteRes.c ****     U16 MemberCounter = 9;
 4427              	LM205:
 4428              	LBB17:
 4429 15e0 66C745F8 		movw	$9, -8(%ebp)
 4429      0900
1457:../../MMI/Resource/WriteRes.c ****     U16 i = arg1;
 4431              	LM206:
 4432 15e6 0FB745FA 		movzwl	-6(%ebp), %eax
GAS LISTING d:/software/ovi_2503a_s3trc/ovi_2503a_s3trc/plutommi/Customer/ResGenerator/gcctmp/ccWMaaaa.s 			page 63


 4433 15ea 668945F6 		movw	%ax, -10(%ebp)
1458:../../MMI/Resource/WriteRes.c ****     U16 j;
1459:../../MMI/Resource/WriteRes.c ****     U16 menuItemID;
1460:../../MMI/Resource/WriteRes.c ****     va_list argumentPtr;
1461:../../MMI/Resource/WriteRes.c **** 
1462:../../MMI/Resource/WriteRes.c ****     /*----------------------------------------------------------------*/
1463:../../MMI/Resource/WriteRes.c ****     /* Code Body                                                      */
1464:../../MMI/Resource/WriteRes.c ****     /*----------------------------------------------------------------*/
1465:../../MMI/Resource/WriteRes.c ****     /* 091004 MTK Calvin removed to reduce populate time */
1466:../../MMI/Resource/WriteRes.c ****     //FILE  *fout;
1467:../../MMI/Resource/WriteRes.c ****     //static U8 is_first=1;
1468:../../MMI/Resource/WriteRes.c **** 
1469:../../MMI/Resource/WriteRes.c ****     //if (is_first)
1470:../../MMI/Resource/WriteRes.c ****     //{
1471:../../MMI/Resource/WriteRes.c ****     //   fout = fopen(OUTPUT_MENUTREE_ID_FILENAME,"w");
1472:../../MMI/Resource/WriteRes.c ****     //   is_first= 0;
1473:../../MMI/Resource/WriteRes.c ****     //}
1474:../../MMI/Resource/WriteRes.c ****     /* MTK Calvin end */
1475:../../MMI/Resource/WriteRes.c **** 
1476:../../MMI/Resource/WriteRes.c ****     va_start(argumentPtr, arg1);
 4435              	LM207:
 4436 15ee 8D450C   		leal	12(%ebp), %eax
 4437 15f1 8945EC   		movl	%eax, -20(%ebp)
1477:../../MMI/Resource/WriteRes.c **** 
1478:../../MMI/Resource/WriteRes.c ****     RESPRT(fpMenuResourceUsage, "NO_APP", -1, i, "unknown", 1, "none");
 4439              	LM208:
 4440 15f4 C744241C 		movl	$LC51, 28(%esp)
 4440      9E150000 
 4441 15fc C7442418 		movl	$1, 24(%esp)
 4441      01000000 
 4442 1604 C7442414 		movl	$LC52, 20(%esp)
 4442      A3150000 
 4443 160c 0FB745F6 		movzwl	-10(%ebp), %eax
 4444 1610 89442410 		movl	%eax, 16(%esp)
 4445 1614 C744240C 		movl	$-1, 12(%esp)
 4445      FFFFFFFF 
 4446 161c C7442408 		movl	$LC32, 8(%esp)
 4446      23070000 
 4447 1624 C7442404 		movl	$LC33, 4(%esp)
 4447      2A070000 
 4448 162c A1000000 		movl	_fpMenuResourceUsage, %eax
 4448      00
 4449 1631 890424   		movl	%eax, (%esp)
 4450 1634 E8000000 		call	_fprintf
 4450      00
1479:../../MMI/Resource/WriteRes.c **** 
1480:../../MMI/Resource/WriteRes.c ****     /* Need to decide whether menu item already present */
1481:../../MMI/Resource/WriteRes.c ****     if (!MenuItemPresent(i))
 4452              	LM209:
 4453 1639 0FB745F6 		movzwl	-10(%ebp), %eax
 4454 163d 890424   		movl	%eax, (%esp)
 4455 1640 E8C0FCFF 		call	_MenuItemPresent
 4455      FF
 4456 1645 6685C0   		testw	%ax, %ax
 4457 1648 0F850E03 		jne	L146
 4457      0000
1482:../../MMI/Resource/WriteRes.c ****     {
GAS LISTING d:/software/ovi_2503a_s3trc/ovi_2503a_s3trc/plutommi/Customer/ResGenerator/gcctmp/ccWMaaaa.s 			page 64


1483:../../MMI/Resource/WriteRes.c ****         /* 091004 MTK Calvin removed fopen and fclose to reduce populate time and replaced fout wit
1484:../../MMI/Resource/WriteRes.c ****         /* fout = fopen(OUTPUT_MENUTREE_ID_FILENAME,"a"); */
1485:../../MMI/Resource/WriteRes.c ****         fprintf(OutputMenutreeIDFile, "ADD_APPLICATION_MENUITEM2((", arg1);
 4459              	LM210:
 4460 164e 0FB745FA 		movzwl	-6(%ebp), %eax
 4461 1652 89442408 		movl	%eax, 8(%esp)
 4462 1656 C7442404 		movl	$LC53, 4(%esp)
 4462      AB150000 
 4463 165e A1000000 		movl	_OutputMenutreeIDFile, %eax
 4463      00
 4464 1663 890424   		movl	%eax, (%esp)
 4465 1666 E8000000 		call	_fprintf
 4465      00
1486:../../MMI/Resource/WriteRes.c ****         /* fclose(fout); */
1487:../../MMI/Resource/WriteRes.c **** 
1488:../../MMI/Resource/WriteRes.c ****         is_dummy_code = 0;
 4467              	LM211:
 4468 166b C6055000 		movb	$0, _is_dummy_code
 4468      000000
1489:../../MMI/Resource/WriteRes.c ****         while (MemberCounter)
 4470              	LM212:
 4471              	L147:
 4472 1672 66837DF8 		cmpw	$0, -8(%ebp)
 4472      00
 4473 1677 7505     		jne	L149
 4474 1679 E9E50200 		jmp	L144
 4474      00
 4475              	L149:
1490:../../MMI/Resource/WriteRes.c ****         {
1491:../../MMI/Resource/WriteRes.c ****             switch (MemberCounter)
 4477              	LM213:
 4478 167e 0FB745F8 		movzwl	-8(%ebp), %eax
 4479 1682 8945E8   		movl	%eax, -24(%ebp)
 4480 1685 837DE809 		cmpl	$9, -24(%ebp)
 4481 1689 0F87A902 		ja	L150
 4481      0000
 4482 168f 8B55E8   		movl	-24(%ebp), %edx
 4483 1692 8B04959C 		movl	L166(,%edx,4), %eax
 4483      160000
 4484 1699 FFE0     		jmp	*%eax
 4485 169b 90       		.p2align 2
 4486              		.align 4
 4487              	L166:
 4488 169c 38190000 		.long	L150
 4489 16a0 07190000 		.long	L165
 4490 16a4 D4180000 		.long	L164
 4491 16a8 A2180000 		.long	L163
 4492 16ac 5C180000 		.long	L162
 4493 16b0 12180000 		.long	L161
 4494 16b4 5B170000 		.long	L154
 4495 16b8 25170000 		.long	L153
 4496 16bc EF160000 		.long	L152
 4497 16c0 C4160000 		.long	L151
 4498              	L151:
1492:../../MMI/Resource/WriteRes.c ****             {
1493:../../MMI/Resource/WriteRes.c ****                 case MENUITEM_ID_TYPE:
1494:../../MMI/Resource/WriteRes.c ****                     menuItemID = i - 1;
GAS LISTING d:/software/ovi_2503a_s3trc/ovi_2503a_s3trc/plutommi/Customer/ResGenerator/gcctmp/ccWMaaaa.s 			page 65


 4500              	LM214:
 4501 16c4 0FB745F6 		movzwl	-10(%ebp), %eax
 4502 16c8 48       		decl	%eax
 4503 16c9 668945F2 		movw	%ax, -14(%ebp)
1495:../../MMI/Resource/WriteRes.c **** 
1496:../../MMI/Resource/WriteRes.c ****                     //nCustMenus[menuItemID].nMenuItemId = i;
1497:../../MMI/Resource/WriteRes.c ****                     /* fout = fopen(OUTPUT_MENUTREE_ID_FILENAME,"a"); */
1498:../../MMI/Resource/WriteRes.c ****                     fprintf(OutputMenutreeIDFile, "%d,", i);
 4505              	LM215:
 4506 16cd 0FB745F6 		movzwl	-10(%ebp), %eax
 4507 16d1 89442408 		movl	%eax, 8(%esp)
 4508 16d5 C7442404 		movl	$LC54, 4(%esp)
 4508      C7150000 
 4509 16dd A1000000 		movl	_OutputMenutreeIDFile, %eax
 4509      00
 4510 16e2 890424   		movl	%eax, (%esp)
 4511 16e5 E8000000 		call	_fprintf
 4511      00
1499:../../MMI/Resource/WriteRes.c ****                     /* fclose(fout); */
1500:../../MMI/Resource/WriteRes.c ****                     break;
 4513              	LM216:
 4514 16ea E9490200 		jmp	L150
 4514      00
 4515              	L152:
1501:../../MMI/Resource/WriteRes.c ****                 case PARENT_ITEM_ID_TYPE:
1502:../../MMI/Resource/WriteRes.c ****                     nCustMenus[menuItemID].nParentId = i;
 4517              	LM217:
 4518 16ef 0FB745F2 		movzwl	-14(%ebp), %eax
 4519 16f3 89C2     		movl	%eax, %edx
 4520 16f5 C1E204   		sall	$4, %edx
 4521 16f8 0FB745F6 		movzwl	-10(%ebp), %eax
 4522 16fc 66898200 		movw	%ax, _nCustMenus(%edx)
 4522      000000
1503:../../MMI/Resource/WriteRes.c ****                     /* fout = fopen(OUTPUT_MENUTREE_ID_FILENAME,"a"); */
1504:../../MMI/Resource/WriteRes.c ****                     fprintf(OutputMenutreeIDFile, "%d,", i);
 4524              	LM218:
 4525 1703 0FB745F6 		movzwl	-10(%ebp), %eax
 4526 1707 89442408 		movl	%eax, 8(%esp)
 4527 170b C7442404 		movl	$LC54, 4(%esp)
 4527      C7150000 
 4528 1713 A1000000 		movl	_OutputMenutreeIDFile, %eax
 4528      00
 4529 1718 890424   		movl	%eax, (%esp)
 4530 171b E8000000 		call	_fprintf
 4530      00
1505:../../MMI/Resource/WriteRes.c ****                     /* fclose(fout); */
1506:../../MMI/Resource/WriteRes.c ****                     break;
 4532              	LM219:
 4533 1720 E9130200 		jmp	L150
 4533      00
 4534              	L153:
1507:../../MMI/Resource/WriteRes.c ****                 case NUMBER_OF_MENUITEMS_TYPE:
1508:../../MMI/Resource/WriteRes.c ****                     nCustMenus[menuItemID].nNumofMenuItem = i;
 4536              	LM220:
 4537 1725 0FB745F2 		movzwl	-14(%ebp), %eax
 4538 1729 89C2     		movl	%eax, %edx
 4539 172b C1E204   		sall	$4, %edx
GAS LISTING d:/software/ovi_2503a_s3trc/ovi_2503a_s3trc/plutommi/Customer/ResGenerator/gcctmp/ccWMaaaa.s 			page 66


 4540 172e 0FB745F6 		movzwl	-10(%ebp), %eax
 4541 1732 66898202 		movw	%ax, _nCustMenus+2(%edx)
 4541      000000
1509:../../MMI/Resource/WriteRes.c ****                     /* fout = fopen(OUTPUT_MENUTREE_ID_FILENAME,"a"); */
1510:../../MMI/Resource/WriteRes.c ****                     fprintf(OutputMenutreeIDFile, "%d,", i);
 4543              	LM221:
 4544 1739 0FB745F6 		movzwl	-10(%ebp), %eax
 4545 173d 89442408 		movl	%eax, 8(%esp)
 4546 1741 C7442404 		movl	$LC54, 4(%esp)
 4546      C7150000 
 4547 1749 A1000000 		movl	_OutputMenutreeIDFile, %eax
 4547      00
 4548 174e 890424   		movl	%eax, (%esp)
 4549 1751 E8000000 		call	_fprintf
 4549      00
1511:../../MMI/Resource/WriteRes.c ****                     /* fclose(fout); */
1512:../../MMI/Resource/WriteRes.c ****                     break;
 4551              	LM222:
 4552 1756 E9DD0100 		jmp	L150
 4552      00
 4553              	L154:
1513:../../MMI/Resource/WriteRes.c ****                 case MENU_ITEM_ORDER_TYPE:
1514:../../MMI/Resource/WriteRes.c ****                     if (nCustMenus[menuItemID].nNumofMenuItem == 0)
 4555              	LM223:
 4556 175b 0FB745F2 		movzwl	-14(%ebp), %eax
 4557 175f C1E004   		sall	$4, %eax
 4558 1762 6683B802 		cmpw	$0, _nCustMenus+2(%eax)
 4558      00000000 
 4559 176a 7516     		jne	L155
1515:../../MMI/Resource/WriteRes.c ****                     {
1516:../../MMI/Resource/WriteRes.c ****                         nCustMenus[menuItemID].nOrderMenuItemId = (U16*) 0;
 4561              	LM224:
 4562 176c 0FB745F2 		movzwl	-14(%ebp), %eax
 4563 1770 C1E004   		sall	$4, %eax
 4564 1773 C7800C00 		movl	$0, _nCustMenus+12(%eax)
 4564      00000000 
 4564      0000
 4565 177d E9B60100 		jmp	L150
 4565      00
 4566              	L155:
1517:../../MMI/Resource/WriteRes.c ****                     }
1518:../../MMI/Resource/WriteRes.c ****                     else
1519:../../MMI/Resource/WriteRes.c ****                     {
1520:../../MMI/Resource/WriteRes.c ****                         nCustMenus[menuItemID].nOrderMenuItemId = (U16*) malloc(sizeof(U16) * MENU_
 4568              	LM225:
 4569 1782 0FB745F2 		movzwl	-14(%ebp), %eax
 4570 1786 89C3     		movl	%eax, %ebx
 4571 1788 C1E304   		sall	$4, %ebx
 4572 178b C7042464 		movl	$100, (%esp)
 4572      000000
 4573 1792 E8000000 		call	_malloc
 4573      00
 4574 1797 89830C00 		movl	%eax, _nCustMenus+12(%ebx)
 4574      0000
1521:../../MMI/Resource/WriteRes.c ****                         for (j = 0; j < nCustMenus[menuItemID].nNumofMenuItem; j++)
 4576              	LM226:
 4577 179d 66C745F4 		movw	$0, -12(%ebp)
GAS LISTING d:/software/ovi_2503a_s3trc/ovi_2503a_s3trc/plutommi/Customer/ResGenerator/gcctmp/ccWMaaaa.s 			page 67


 4577      0000
 4578              	L157:
 4579 17a3 0FB745F2 		movzwl	-14(%ebp), %eax
 4580 17a7 89C2     		movl	%eax, %edx
 4581 17a9 C1E204   		sall	$4, %edx
 4582 17ac 8B45F4   		movl	-12(%ebp), %eax
 4583 17af 663B8202 		cmpw	_nCustMenus+2(%edx), %ax
 4583      000000
 4584 17b6 7205     		jb	L160
 4585 17b8 E97B0100 		jmp	L150
 4585      00
 4586              	L160:
1522:../../MMI/Resource/WriteRes.c ****                         {
1523:../../MMI/Resource/WriteRes.c ****                             /* fout = fopen(OUTPUT_MENUTREE_ID_FILENAME,"a"); */
1524:../../MMI/Resource/WriteRes.c ****                             fprintf(OutputMenutreeIDFile, "%d,", i);
 4588              	LM227:
 4589 17bd 0FB745F6 		movzwl	-10(%ebp), %eax
 4590 17c1 89442408 		movl	%eax, 8(%esp)
 4591 17c5 C7442404 		movl	$LC54, 4(%esp)
 4591      C7150000 
 4592 17cd A1000000 		movl	_OutputMenutreeIDFile, %eax
 4592      00
 4593 17d2 890424   		movl	%eax, (%esp)
 4594 17d5 E8000000 		call	_fprintf
 4594      00
1525:../../MMI/Resource/WriteRes.c ****                             /* fclose(fout); */
1526:../../MMI/Resource/WriteRes.c ****                             nCustMenus[menuItemID].nOrderMenuItemId[j] = i;
 4596              	LM228:
 4597 17da 0FB745F2 		movzwl	-14(%ebp), %eax
 4598 17de 89C2     		movl	%eax, %edx
 4599 17e0 C1E204   		sall	$4, %edx
 4600 17e3 0FB745F4 		movzwl	-12(%ebp), %eax
 4601 17e7 8D0C00   		leal	(%eax,%eax), %ecx
 4602 17ea 8B920C00 		movl	_nCustMenus+12(%edx), %edx
 4602      0000
 4603 17f0 0FB745F6 		movzwl	-10(%ebp), %eax
 4604 17f4 6689040A 		movw	%ax, (%edx,%ecx)
1527:../../MMI/Resource/WriteRes.c ****                             i = va_arg(argumentPtr, int);
 4606              	LM229:
 4607 17f8 8B55EC   		movl	-20(%ebp), %edx
 4608 17fb 8D45EC   		leal	-20(%ebp), %eax
 4609 17fe 830004   		addl	$4, (%eax)
 4610 1801 0FB702   		movzwl	(%edx), %eax
 4611 1804 668945F6 		movw	%ax, -10(%ebp)
 4613              	LM230:
 4614 1808 8B45F4   		movl	-12(%ebp), %eax
 4615 180b 40       		incl	%eax
 4616 180c 668945F4 		movw	%ax, -12(%ebp)
 4617 1810 EB91     		jmp	L157
 4618              	L161:
1528:../../MMI/Resource/WriteRes.c ****                         }
1529:../../MMI/Resource/WriteRes.c ****                     }
1530:../../MMI/Resource/WriteRes.c ****                     break;
1531:../../MMI/Resource/WriteRes.c ****                 case HIDE_FLAG_TYPE:
1532:../../MMI/Resource/WriteRes.c ****                     nCustMenus[menuItemID].nFlags |= (((U8)i) & 0x1) << 7;
 4620              	LM231:
 4621 1812 0FB745F2 		movzwl	-14(%ebp), %eax
GAS LISTING d:/software/ovi_2503a_s3trc/ovi_2503a_s3trc/plutommi/Customer/ResGenerator/gcctmp/ccWMaaaa.s 			page 68


 4622 1816 89C1     		movl	%eax, %ecx
 4623 1818 C1E104   		sall	$4, %ecx
 4624 181b 0FB745F2 		movzwl	-14(%ebp), %eax
 4625 181f 89C2     		movl	%eax, %edx
 4626 1821 C1E204   		sall	$4, %edx
 4627 1824 0FB645F6 		movzbl	-10(%ebp), %eax
 4628 1828 83E001   		andl	$1, %eax
 4629 182b C1E007   		sall	$7, %eax
 4630 182e 0A820400 		orb	_nCustMenus+4(%edx), %al
 4630      0000
 4631 1834 88810400 		movb	%al, _nCustMenus+4(%ecx)
 4631      0000
1533:../../MMI/Resource/WriteRes.c ****                     /* fout = fopen(OUTPUT_MENUTREE_ID_FILENAME,"a"); */
1534:../../MMI/Resource/WriteRes.c ****                     fprintf(OutputMenutreeIDFile, "%d,", i);
 4633              	LM232:
 4634 183a 0FB745F6 		movzwl	-10(%ebp), %eax
 4635 183e 89442408 		movl	%eax, 8(%esp)
 4636 1842 C7442404 		movl	$LC54, 4(%esp)
 4636      C7150000 
 4637 184a A1000000 		movl	_OutputMenutreeIDFile, %eax
 4637      00
 4638 184f 890424   		movl	%eax, (%esp)
 4639 1852 E8000000 		call	_fprintf
 4639      00
1535:../../MMI/Resource/WriteRes.c ****                     /* fclose(fout); */
1536:../../MMI/Resource/WriteRes.c ****                     break;
 4641              	LM233:
 4642 1857 E9DC0000 		jmp	L150
 4642      00
 4643              	L162:
1537:../../MMI/Resource/WriteRes.c ****                 case MOVEABLE_FLAG_TYPE:
1538:../../MMI/Resource/WriteRes.c ****                     nCustMenus[menuItemID].nFlags |= ((U8)i) & 0x7F;
 4645              	LM234:
 4646 185c 0FB745F2 		movzwl	-14(%ebp), %eax
 4647 1860 89C1     		movl	%eax, %ecx
 4648 1862 C1E104   		sall	$4, %ecx
 4649 1865 0FB745F2 		movzwl	-14(%ebp), %eax
 4650 1869 89C2     		movl	%eax, %edx
 4651 186b C1E204   		sall	$4, %edx
 4652 186e 0FB645F6 		movzbl	-10(%ebp), %eax
 4653 1872 247F     		andb	$127, %al
 4654 1874 0A820400 		orb	_nCustMenus+4(%edx), %al
 4654      0000
 4655 187a 88810400 		movb	%al, _nCustMenus+4(%ecx)
 4655      0000
1539:../../MMI/Resource/WriteRes.c ****                     /* fout = fopen(OUTPUT_MENUTREE_ID_FILENAME,"a"); */
1540:../../MMI/Resource/WriteRes.c ****                     fprintf(OutputMenutreeIDFile, "%d,", i);
 4657              	LM235:
 4658 1880 0FB745F6 		movzwl	-10(%ebp), %eax
 4659 1884 89442408 		movl	%eax, 8(%esp)
 4660 1888 C7442404 		movl	$LC54, 4(%esp)
 4660      C7150000 
 4661 1890 A1000000 		movl	_OutputMenutreeIDFile, %eax
 4661      00
 4662 1895 890424   		movl	%eax, (%esp)
 4663 1898 E8000000 		call	_fprintf
 4663      00
GAS LISTING d:/software/ovi_2503a_s3trc/ovi_2503a_s3trc/plutommi/Customer/ResGenerator/gcctmp/ccWMaaaa.s 			page 69


1541:../../MMI/Resource/WriteRes.c ****                     /* fclose(fout); */
1542:../../MMI/Resource/WriteRes.c ****                     break;
 4665              	LM236:
 4666 189d E9960000 		jmp	L150
 4666      00
 4667              	L163:
1543:../../MMI/Resource/WriteRes.c ****                 case DISPLAY_ATTRIBUTE_TYPE:
1544:../../MMI/Resource/WriteRes.c ****                     nCustMenus[menuItemID].nDispAttribute = (U8)(i & 0xFF);
 4669              	LM237:
 4670 18a2 0FB745F2 		movzwl	-14(%ebp), %eax
 4671 18a6 89C2     		movl	%eax, %edx
 4672 18a8 C1E204   		sall	$4, %edx
 4673 18ab 0FB645F6 		movzbl	-10(%ebp), %eax
 4674 18af 88820500 		movb	%al, _nCustMenus+5(%edx)
 4674      0000
1545:../../MMI/Resource/WriteRes.c ****                     /* fout = fopen(OUTPUT_MENUTREE_ID_FILENAME,"a"); */
1546:../../MMI/Resource/WriteRes.c ****                     fprintf(OutputMenutreeIDFile, "%d,", i);
 4676              	LM238:
 4677 18b5 0FB745F6 		movzwl	-10(%ebp), %eax
 4678 18b9 89442408 		movl	%eax, 8(%esp)
 4679 18bd C7442404 		movl	$LC54, 4(%esp)
 4679      C7150000 
 4680 18c5 A1000000 		movl	_OutputMenutreeIDFile, %eax
 4680      00
 4681 18ca 890424   		movl	%eax, (%esp)
 4682 18cd E8000000 		call	_fprintf
 4682      00
1547:../../MMI/Resource/WriteRes.c ****                     /* fclose(fout); */
1548:../../MMI/Resource/WriteRes.c ****                     break;
 4684              	LM239:
 4685 18d2 EB64     		jmp	L150
 4686              	L164:
1549:../../MMI/Resource/WriteRes.c ****                 case MENU_ITEM_STRING_ID_TYPE:
1550:../../MMI/Resource/WriteRes.c ****                     nCustMenus[menuItemID].nStrId = i;
 4688              	LM240:
 4689 18d4 0FB745F2 		movzwl	-14(%ebp), %eax
 4690 18d8 89C2     		movl	%eax, %edx
 4691 18da C1E204   		sall	$4, %edx
 4692 18dd 0FB745F6 		movzwl	-10(%ebp), %eax
 4693 18e1 66898206 		movw	%ax, _nCustMenus+6(%edx)
 4693      000000
1551:../../MMI/Resource/WriteRes.c ****                     /* fout = fopen(OUTPUT_MENUTREE_ID_FILENAME,"a"); */
1552:../../MMI/Resource/WriteRes.c ****                     fprintf(OutputMenutreeIDFile, "%d,", i);
 4695              	LM241:
 4696 18e8 0FB745F6 		movzwl	-10(%ebp), %eax
 4697 18ec 89442408 		movl	%eax, 8(%esp)
 4698 18f0 C7442404 		movl	$LC54, 4(%esp)
 4698      C7150000 
 4699 18f8 A1000000 		movl	_OutputMenutreeIDFile, %eax
 4699      00
 4700 18fd 890424   		movl	%eax, (%esp)
 4701 1900 E8000000 		call	_fprintf
 4701      00
1553:../../MMI/Resource/WriteRes.c ****                     /* fclose(fout); */
1554:../../MMI/Resource/WriteRes.c ****                     break;
 4703              	LM242:
 4704 1905 EB31     		jmp	L150
GAS LISTING d:/software/ovi_2503a_s3trc/ovi_2503a_s3trc/plutommi/Customer/ResGenerator/gcctmp/ccWMaaaa.s 			page 70


 4705              	L165:
1555:../../MMI/Resource/WriteRes.c ****                 case MENU_ITEM_IMAGE_ID_TYPE:
1556:../../MMI/Resource/WriteRes.c ****                     nCustMenus[menuItemID].nImageId = i;
 4707              	LM243:
 4708 1907 0FB745F2 		movzwl	-14(%ebp), %eax
 4709 190b 89C2     		movl	%eax, %edx
 4710 190d C1E204   		sall	$4, %edx
 4711 1910 0FB745F6 		movzwl	-10(%ebp), %eax
 4712 1914 66898208 		movw	%ax, _nCustMenus+8(%edx)
 4712      000000
1557:../../MMI/Resource/WriteRes.c ****                     /* fout = fopen(OUTPUT_MENUTREE_ID_FILENAME,"a"); */
1558:../../MMI/Resource/WriteRes.c ****                     fprintf(OutputMenutreeIDFile, "%d));\n", i);
 4714              	LM244:
 4715 191b 0FB745F6 		movzwl	-10(%ebp), %eax
 4716 191f 89442408 		movl	%eax, 8(%esp)
 4717 1923 C7442404 		movl	$LC55, 4(%esp)
 4717      CB150000 
 4718 192b A1000000 		movl	_OutputMenutreeIDFile, %eax
 4718      00
 4719 1930 890424   		movl	%eax, (%esp)
 4720 1933 E8000000 		call	_fprintf
 4720      00
 4721              	L150:
1559:../../MMI/Resource/WriteRes.c ****                     /* fclose(fout); */
1560:../../MMI/Resource/WriteRes.c ****                     break;
1561:../../MMI/Resource/WriteRes.c ****             }
1562:../../MMI/Resource/WriteRes.c ****             if (MemberCounter != MENU_ITEM_ORDER_TYPE)
 4723              	LM245:
 4724 1938 66837DF8 		cmpw	$6, -8(%ebp)
 4724      06
 4725 193d 7410     		je	L168
1563:../../MMI/Resource/WriteRes.c ****             {
1564:../../MMI/Resource/WriteRes.c ****                 i = va_arg(argumentPtr, int);
 4727              	LM246:
 4728 193f 8B45EC   		movl	-20(%ebp), %eax
 4729 1942 8D55EC   		leal	-20(%ebp), %edx
 4730 1945 830204   		addl	$4, (%edx)
 4731 1948 0FB700   		movzwl	(%eax), %eax
 4732 194b 668945F6 		movw	%ax, -10(%ebp)
 4733              	L168:
1565:../../MMI/Resource/WriteRes.c ****             }
1566:../../MMI/Resource/WriteRes.c **** 
1567:../../MMI/Resource/WriteRes.c ****             MemberCounter--;
 4735              	LM247:
 4736 194f 8B45F8   		movl	-8(%ebp), %eax
 4737 1952 48       		decl	%eax
 4738 1953 668945F8 		movw	%ax, -8(%ebp)
 4739 1957 E916FDFF 		jmp	L147
 4739      FF
 4740              	L146:
1568:../../MMI/Resource/WriteRes.c ****         }
1569:../../MMI/Resource/WriteRes.c ****         /* MTK Calvin end */
1570:../../MMI/Resource/WriteRes.c ****     }
1571:../../MMI/Resource/WriteRes.c ****     else
1572:../../MMI/Resource/WriteRes.c ****     {
1573:../../MMI/Resource/WriteRes.c ****         is_dummy_code = 1;
 4742              	LM248:
GAS LISTING d:/software/ovi_2503a_s3trc/ovi_2503a_s3trc/plutommi/Customer/ResGenerator/gcctmp/ccWMaaaa.s 			page 71


 4743 195c C6055000 		movb	$1, _is_dummy_code
 4743      000001
1574:../../MMI/Resource/WriteRes.c ****     }
1575:../../MMI/Resource/WriteRes.c **** 
1576:../../MMI/Resource/WriteRes.c ****     va_end(argumentPtr);
1577:../../MMI/Resource/WriteRes.c **** }
 4745              	LM249:
 4746              	L144:
 4747 1963 83C434   		addl	$52, %esp
 4748 1966 5B       		popl	%ebx
 4749 1967 5D       		popl	%ebp
 4750 1968 C3       		ret
 4751              	LBE17:
 4760              	Lscope14:
 4762              	LC56:
 4763 1969 302C00   		.ascii "0,\0"
 4766              	.globl _SetMenuItem2
 4768              	_SetMenuItem2:
1578:../../MMI/Resource/WriteRes.c **** 
1579:../../MMI/Resource/WriteRes.c **** 
1580:../../MMI/Resource/WriteRes.c **** /*****************************************************************************
1581:../../MMI/Resource/WriteRes.c ****  * FUNCTION
1582:../../MMI/Resource/WriteRes.c ****  *  SetMenuItem2
1583:../../MMI/Resource/WriteRes.c ****  * DESCRIPTION
1584:../../MMI/Resource/WriteRes.c ****  *  Fills the CUSTOM_MENU structure
1585:../../MMI/Resource/WriteRes.c ****  * PARAMETERS
1586:../../MMI/Resource/WriteRes.c ****  *  arg1        [IN]
1587:../../MMI/Resource/WriteRes.c ****  *  U16(?)      [IN]        -> variable argument list
1588:../../MMI/Resource/WriteRes.c ****  * RETURNS
1589:../../MMI/Resource/WriteRes.c ****  *  void
1590:../../MMI/Resource/WriteRes.c ****  *****************************************************************************/
1591:../../MMI/Resource/WriteRes.c **** void SetMenuItem2(U16 arg1, ...)
1592:../../MMI/Resource/WriteRes.c **** {
 4770              	LM250:
 4771 196c 55       		pushl	%ebp
 4772 196d 89E5     		movl	%esp, %ebp
 4773 196f 53       		pushl	%ebx
 4774 1970 83EC44   		subl	$68, %esp
 4775 1973 8B4508   		movl	8(%ebp), %eax
 4776 1976 668945FA 		movw	%ax, -6(%ebp)
1593:../../MMI/Resource/WriteRes.c ****     /*----------------------------------------------------------------*/
1594:../../MMI/Resource/WriteRes.c ****     /* Local Variables                                                */
1595:../../MMI/Resource/WriteRes.c ****     /*----------------------------------------------------------------*/
1596:../../MMI/Resource/WriteRes.c **** 
1597:../../MMI/Resource/WriteRes.c ****     U16 MemberCounter = 9;
 4778              	LM251:
 4779              	LBB18:
 4780 197a 66C745F8 		movw	$9, -8(%ebp)
 4780      0900
1598:../../MMI/Resource/WriteRes.c ****     U16 i = arg1;
 4782              	LM252:
 4783 1980 0FB745FA 		movzwl	-6(%ebp), %eax
 4784 1984 668945F6 		movw	%ax, -10(%ebp)
1599:../../MMI/Resource/WriteRes.c ****     U16 j;
1600:../../MMI/Resource/WriteRes.c ****     U16 menuItemID;
1601:../../MMI/Resource/WriteRes.c ****     va_list argumentPtr;
1602:../../MMI/Resource/WriteRes.c **** 
GAS LISTING d:/software/ovi_2503a_s3trc/ovi_2503a_s3trc/plutommi/Customer/ResGenerator/gcctmp/ccWMaaaa.s 			page 72


1603:../../MMI/Resource/WriteRes.c ****     /*----------------------------------------------------------------*/
1604:../../MMI/Resource/WriteRes.c ****     /* Code Body                                                      */
1605:../../MMI/Resource/WriteRes.c ****     /*----------------------------------------------------------------*/
1606:../../MMI/Resource/WriteRes.c ****     va_start(argumentPtr, arg1);
 4786              	LM253:
 4787 1988 8D450C   		leal	12(%ebp), %eax
 4788 198b 8945EC   		movl	%eax, -20(%ebp)
1607:../../MMI/Resource/WriteRes.c **** 
1608:../../MMI/Resource/WriteRes.c ****     RESPRT(fpMenuResourceUsage, "NO_APP", -1, i, "unknown", 1, "none");
 4790              	LM254:
 4791 198e C744241C 		movl	$LC51, 28(%esp)
 4791      9E150000 
 4792 1996 C7442418 		movl	$1, 24(%esp)
 4792      01000000 
 4793 199e C7442414 		movl	$LC52, 20(%esp)
 4793      A3150000 
 4794 19a6 0FB745F6 		movzwl	-10(%ebp), %eax
 4795 19aa 89442410 		movl	%eax, 16(%esp)
 4796 19ae C744240C 		movl	$-1, 12(%esp)
 4796      FFFFFFFF 
 4797 19b6 C7442408 		movl	$LC32, 8(%esp)
 4797      23070000 
 4798 19be C7442404 		movl	$LC33, 4(%esp)
 4798      2A070000 
 4799 19c6 A1000000 		movl	_fpMenuResourceUsage, %eax
 4799      00
 4800 19cb 890424   		movl	%eax, (%esp)
 4801 19ce E8000000 		call	_fprintf
 4801      00
1609:../../MMI/Resource/WriteRes.c **** 
1610:../../MMI/Resource/WriteRes.c ****     /* Need to decide whether menu item already present */
1611:../../MMI/Resource/WriteRes.c ****     if (!MenuItemPresent(i))
 4803              	LM255:
 4804 19d3 0FB745F6 		movzwl	-10(%ebp), %eax
 4805 19d7 890424   		movl	%eax, (%esp)
 4806 19da E826F9FF 		call	_MenuItemPresent
 4806      FF
 4807 19df 6685C0   		testw	%ax, %ax
 4808 19e2 0F857603 		jne	L172
 4808      0000
1612:../../MMI/Resource/WriteRes.c ****     {
1613:../../MMI/Resource/WriteRes.c ****         fprintf(OutputMenutreeIDFile, "ADD_APPLICATION_MENUITEM2((", arg1);
 4810              	LM256:
 4811 19e8 0FB745FA 		movzwl	-6(%ebp), %eax
 4812 19ec 89442408 		movl	%eax, 8(%esp)
 4813 19f0 C7442404 		movl	$LC53, 4(%esp)
 4813      AB150000 
 4814 19f8 A1000000 		movl	_OutputMenutreeIDFile, %eax
 4814      00
 4815 19fd 890424   		movl	%eax, (%esp)
 4816 1a00 E8000000 		call	_fprintf
 4816      00
1614:../../MMI/Resource/WriteRes.c **** 
1615:../../MMI/Resource/WriteRes.c ****         is_dummy_code = 0;
 4818              	LM257:
 4819 1a05 C6055000 		movb	$0, _is_dummy_code
 4819      000000
GAS LISTING d:/software/ovi_2503a_s3trc/ovi_2503a_s3trc/plutommi/Customer/ResGenerator/gcctmp/ccWMaaaa.s 			page 73


1616:../../MMI/Resource/WriteRes.c ****         while (MemberCounter)
 4821              	LM258:
 4822              	L173:
 4823 1a0c 66837DF8 		cmpw	$0, -8(%ebp)
 4823      00
 4824 1a11 7505     		jne	L175
 4825 1a13 E94D0300 		jmp	L170
 4825      00
 4826              	L175:
1617:../../MMI/Resource/WriteRes.c ****         {
1618:../../MMI/Resource/WriteRes.c ****             switch (MemberCounter)
 4828              	LM259:
 4829 1a18 0FB745F8 		movzwl	-8(%ebp), %eax
 4830 1a1c 8945E4   		movl	%eax, -28(%ebp)
 4831 1a1f 837DE409 		cmpl	$9, -28(%ebp)
 4832 1a23 0F87FB02 		ja	L176
 4832      0000
 4833 1a29 8B55E4   		movl	-28(%ebp), %edx
 4834 1a2c 8B049538 		movl	L194(,%edx,4), %eax
 4834      1A0000
 4835 1a33 FFE0     		jmp	*%eax
 4836 1a35 8D7600   		.p2align 2
 4837              		.align 4
 4838              	L194:
 4839 1a38 241D0000 		.long	L176
 4840 1a3c F31C0000 		.long	L193
 4841 1a40 C01C0000 		.long	L192
 4842 1a44 8E1C0000 		.long	L191
 4843 1a48 481C0000 		.long	L190
 4844 1a4c FE1B0000 		.long	L189
 4845 1a50 C11A0000 		.long	L179
 4846 1a54 241D0000 		.long	L176
 4847 1a58 8B1A0000 		.long	L178
 4848 1a5c 601A0000 		.long	L177
 4849              	L177:
1619:../../MMI/Resource/WriteRes.c ****             {
1620:../../MMI/Resource/WriteRes.c ****                 case MENUITEM_ID_TYPE:
1621:../../MMI/Resource/WriteRes.c ****                     menuItemID = i - 1;
 4851              	LM260:
 4852 1a60 0FB745F6 		movzwl	-10(%ebp), %eax
 4853 1a64 48       		decl	%eax
 4854 1a65 668945F2 		movw	%ax, -14(%ebp)
1622:../../MMI/Resource/WriteRes.c **** 
1623:../../MMI/Resource/WriteRes.c **** //                    nCustMenus[menuItemID].nMenuItemId = i;
1624:../../MMI/Resource/WriteRes.c ****                     fprintf(OutputMenutreeIDFile, "%d,", i);
 4856              	LM261:
 4857 1a69 0FB745F6 		movzwl	-10(%ebp), %eax
 4858 1a6d 89442408 		movl	%eax, 8(%esp)
 4859 1a71 C7442404 		movl	$LC54, 4(%esp)
 4859      C7150000 
 4860 1a79 A1000000 		movl	_OutputMenutreeIDFile, %eax
 4860      00
 4861 1a7e 890424   		movl	%eax, (%esp)
 4862 1a81 E8000000 		call	_fprintf
 4862      00
1625:../../MMI/Resource/WriteRes.c **** 
1626:../../MMI/Resource/WriteRes.c ****                     break;
GAS LISTING d:/software/ovi_2503a_s3trc/ovi_2503a_s3trc/plutommi/Customer/ResGenerator/gcctmp/ccWMaaaa.s 			page 74


 4864              	LM262:
 4865 1a86 E9990200 		jmp	L176
 4865      00
 4866              	L178:
1627:../../MMI/Resource/WriteRes.c **** 
1628:../../MMI/Resource/WriteRes.c ****                 case PARENT_ITEM_ID_TYPE:
1629:../../MMI/Resource/WriteRes.c ****                     nCustMenus[menuItemID].nParentId = i;
 4868              	LM263:
 4869 1a8b 0FB745F2 		movzwl	-14(%ebp), %eax
 4870 1a8f 89C2     		movl	%eax, %edx
 4871 1a91 C1E204   		sall	$4, %edx
 4872 1a94 0FB745F6 		movzwl	-10(%ebp), %eax
 4873 1a98 66898200 		movw	%ax, _nCustMenus(%edx)
 4873      000000
1630:../../MMI/Resource/WriteRes.c ****                     fprintf(OutputMenutreeIDFile, "%d,", i);
 4875              	LM264:
 4876 1a9f 0FB745F6 		movzwl	-10(%ebp), %eax
 4877 1aa3 89442408 		movl	%eax, 8(%esp)
 4878 1aa7 C7442404 		movl	$LC54, 4(%esp)
 4878      C7150000 
 4879 1aaf A1000000 		movl	_OutputMenutreeIDFile, %eax
 4879      00
 4880 1ab4 890424   		movl	%eax, (%esp)
 4881 1ab7 E8000000 		call	_fprintf
 4881      00
1631:../../MMI/Resource/WriteRes.c ****                     break;
 4883              	LM265:
 4884 1abc E9630200 		jmp	L176
 4884      00
 4885              	L179:
1632:../../MMI/Resource/WriteRes.c **** 
1633:../../MMI/Resource/WriteRes.c ****                 case MENU_ITEM_ORDER_TYPE:
1634:../../MMI/Resource/WriteRes.c ****                     if ( /* nCustMenus[menuItemID].nNumofMenuItem==0 || */ i == MENU_ITEM_END)
 4887              	LM266:
 4888 1ac1 66817DF6 		cmpw	$1562, -10(%ebp)
 4888      1A06
 4889 1ac7 753B     		jne	L180
1635:../../MMI/Resource/WriteRes.c ****                     {
1636:../../MMI/Resource/WriteRes.c ****                         nCustMenus[menuItemID].nOrderMenuItemId = (U16*) 0;
 4891              	LM267:
 4892 1ac9 0FB745F2 		movzwl	-14(%ebp), %eax
 4893 1acd C1E004   		sall	$4, %eax
 4894 1ad0 C7800C00 		movl	$0, _nCustMenus+12(%eax)
 4894      00000000 
 4894      0000
1637:../../MMI/Resource/WriteRes.c ****                         fprintf(OutputMenutreeIDFile, "0,");
 4896              	LM268:
 4897 1ada C7442404 		movl	$LC56, 4(%esp)
 4897      69190000 
 4898 1ae2 A1000000 		movl	_OutputMenutreeIDFile, %eax
 4898      00
 4899 1ae7 890424   		movl	%eax, (%esp)
 4900 1aea E8000000 		call	_fprintf
 4900      00
1638:../../MMI/Resource/WriteRes.c ****                         i = va_arg(argumentPtr, int);
 4902              	LM269:
 4903 1aef 8B55EC   		movl	-20(%ebp), %edx
GAS LISTING d:/software/ovi_2503a_s3trc/ovi_2503a_s3trc/plutommi/Customer/ResGenerator/gcctmp/ccWMaaaa.s 			page 75


 4904 1af2 8D45EC   		leal	-20(%ebp), %eax
 4905 1af5 830004   		addl	$4, (%eax)
 4906 1af8 0FB702   		movzwl	(%edx), %eax
 4907 1afb 668945F6 		movw	%ax, -10(%ebp)
 4908 1aff E9200200 		jmp	L176
 4908      00
 4909              	L180:
1639:../../MMI/Resource/WriteRes.c ****                     }
1640:../../MMI/Resource/WriteRes.c ****                     else
1641:../../MMI/Resource/WriteRes.c ****                     {
1642:../../MMI/Resource/WriteRes.c ****                         U16 number_of_child = 0;
 4911              	LM270:
 4912              	LBB19:
 4913 1b04 66C745EA 		movw	$0, -22(%ebp)
 4913      0000
1643:../../MMI/Resource/WriteRes.c **** 
1644:../../MMI/Resource/WriteRes.c ****                         nCustMenus[menuItemID].nOrderMenuItemId = (U16*) malloc(sizeof(U16) * MENU_
 4915              	LM271:
 4916 1b0a 0FB745F2 		movzwl	-14(%ebp), %eax
 4917 1b0e 89C3     		movl	%eax, %ebx
 4918 1b10 C1E304   		sall	$4, %ebx
 4919 1b13 C7042464 		movl	$100, (%esp)
 4919      000000
 4920 1b1a E8000000 		call	_malloc
 4920      00
 4921 1b1f 89830C00 		movl	%eax, _nCustMenus+12(%ebx)
 4921      0000
1645:../../MMI/Resource/WriteRes.c ****                         while (i != MENU_ITEM_END)
 4923              	LM272:
 4924              	L182:
 4925 1b25 66817DF6 		cmpw	$1562, -10(%ebp)
 4925      1A06
 4926 1b2b 7502     		jne	L184
 4927 1b2d EB39     		jmp	L183
 4928              	L184:
1646:../../MMI/Resource/WriteRes.c ****                         {
1647:../../MMI/Resource/WriteRes.c ****                             nCustMenus[menuItemID].nOrderMenuItemId[number_of_child] = i;
 4930              	LM273:
 4931 1b2f 0FB745F2 		movzwl	-14(%ebp), %eax
 4932 1b33 89C2     		movl	%eax, %edx
 4933 1b35 C1E204   		sall	$4, %edx
 4934 1b38 0FB745EA 		movzwl	-22(%ebp), %eax
 4935 1b3c 8D0C00   		leal	(%eax,%eax), %ecx
 4936 1b3f 8B920C00 		movl	_nCustMenus+12(%edx), %edx
 4936      0000
 4937 1b45 0FB745F6 		movzwl	-10(%ebp), %eax
 4938 1b49 6689040A 		movw	%ax, (%edx,%ecx)
1648:../../MMI/Resource/WriteRes.c ****                             i = va_arg(argumentPtr, int);
 4940              	LM274:
 4941 1b4d 8B55EC   		movl	-20(%ebp), %edx
 4942 1b50 8D45EC   		leal	-20(%ebp), %eax
 4943 1b53 830004   		addl	$4, (%eax)
 4944 1b56 0FB702   		movzwl	(%edx), %eax
 4945 1b59 668945F6 		movw	%ax, -10(%ebp)
1649:../../MMI/Resource/WriteRes.c **** 
1650:../../MMI/Resource/WriteRes.c ****                             number_of_child++;
 4947              	LM275:
GAS LISTING d:/software/ovi_2503a_s3trc/ovi_2503a_s3trc/plutommi/Customer/ResGenerator/gcctmp/ccWMaaaa.s 			page 76


 4948 1b5d 0FB745EA 		movzwl	-22(%ebp), %eax
 4949 1b61 40       		incl	%eax
 4950 1b62 668945EA 		movw	%ax, -22(%ebp)
 4951 1b66 EBBD     		jmp	L182
 4952              	L183:
1651:../../MMI/Resource/WriteRes.c ****                         }
1652:../../MMI/Resource/WriteRes.c ****                         nCustMenus[menuItemID].nNumofMenuItem = number_of_child;        /* Set numb
 4954              	LM276:
 4955 1b68 0FB745F2 		movzwl	-14(%ebp), %eax
 4956 1b6c 89C2     		movl	%eax, %edx
 4957 1b6e C1E204   		sall	$4, %edx
 4958 1b71 0FB745EA 		movzwl	-22(%ebp), %eax
 4959 1b75 66898202 		movw	%ax, _nCustMenus+2(%edx)
 4959      000000
1653:../../MMI/Resource/WriteRes.c ****                         fprintf(OutputMenutreeIDFile, "%d,", number_of_child);
 4961              	LM277:
 4962 1b7c 0FB745EA 		movzwl	-22(%ebp), %eax
 4963 1b80 89442408 		movl	%eax, 8(%esp)
 4964 1b84 C7442404 		movl	$LC54, 4(%esp)
 4964      C7150000 
 4965 1b8c A1000000 		movl	_OutputMenutreeIDFile, %eax
 4965      00
 4966 1b91 890424   		movl	%eax, (%esp)
 4967 1b94 E8000000 		call	_fprintf
 4967      00
1654:../../MMI/Resource/WriteRes.c ****                         for (i = 0; i < number_of_child; i++)
 4969              	LM278:
 4970 1b99 66C745F6 		movw	$0, -10(%ebp)
 4970      0000
 4971              	L185:
 4972 1b9f 0FB745F6 		movzwl	-10(%ebp), %eax
 4973 1ba3 663B45EA 		cmpw	-22(%ebp), %ax
 4974 1ba7 7202     		jb	L188
 4975 1ba9 EB3E     		jmp	L186
 4976              	L188:
1655:../../MMI/Resource/WriteRes.c ****                         {
1656:../../MMI/Resource/WriteRes.c ****                             fprintf(OutputMenutreeIDFile, "%d,", nCustMenus[menuItemID].nOrderMenuI
 4978              	LM279:
 4979 1bab 0FB745F2 		movzwl	-14(%ebp), %eax
 4980 1baf 89C1     		movl	%eax, %ecx
 4981 1bb1 C1E104   		sall	$4, %ecx
 4982 1bb4 0FB745F6 		movzwl	-10(%ebp), %eax
 4983 1bb8 8D1400   		leal	(%eax,%eax), %edx
 4984 1bbb 8B810C00 		movl	_nCustMenus+12(%ecx), %eax
 4984      0000
 4985 1bc1 0FB70410 		movzwl	(%eax,%edx), %eax
 4986 1bc5 89442408 		movl	%eax, 8(%esp)
 4987 1bc9 C7442404 		movl	$LC54, 4(%esp)
 4987      C7150000 
 4988 1bd1 A1000000 		movl	_OutputMenutreeIDFile, %eax
 4988      00
 4989 1bd6 890424   		movl	%eax, (%esp)
 4990 1bd9 E8000000 		call	_fprintf
 4990      00
 4992              	LM280:
 4993 1bde 0FB745F6 		movzwl	-10(%ebp), %eax
 4994 1be2 40       		incl	%eax
GAS LISTING d:/software/ovi_2503a_s3trc/ovi_2503a_s3trc/plutommi/Customer/ResGenerator/gcctmp/ccWMaaaa.s 			page 77


 4995 1be3 668945F6 		movw	%ax, -10(%ebp)
 4996 1be7 EBB6     		jmp	L185
 4997              	L186:
1657:../../MMI/Resource/WriteRes.c ****                         }
1658:../../MMI/Resource/WriteRes.c ****                         i = va_arg(argumentPtr, int);   /* read in next argument. */
 4999              	LM281:
 5000 1be9 8B45EC   		movl	-20(%ebp), %eax
 5001 1bec 8D55EC   		leal	-20(%ebp), %edx
 5002 1bef 830204   		addl	$4, (%edx)
 5003 1bf2 0FB700   		movzwl	(%eax), %eax
 5004 1bf5 668945F6 		movw	%ax, -10(%ebp)
1659:../../MMI/Resource/WriteRes.c ****                     }
1660:../../MMI/Resource/WriteRes.c ****                     break;
 5006              	LM282:
 5007              	LBE19:
 5008 1bf9 E9260100 		jmp	L176
 5008      00
 5009              	L189:
1661:../../MMI/Resource/WriteRes.c **** 
1662:../../MMI/Resource/WriteRes.c ****                 case HIDE_FLAG_TYPE:
1663:../../MMI/Resource/WriteRes.c ****                     nCustMenus[menuItemID].nFlags |= (((U8)i) & 0x1) << 7;
 5011              	LM283:
 5012 1bfe 0FB745F2 		movzwl	-14(%ebp), %eax
 5013 1c02 89C1     		movl	%eax, %ecx
 5014 1c04 C1E104   		sall	$4, %ecx
 5015 1c07 0FB745F2 		movzwl	-14(%ebp), %eax
 5016 1c0b 89C2     		movl	%eax, %edx
 5017 1c0d C1E204   		sall	$4, %edx
 5018 1c10 0FB645F6 		movzbl	-10(%ebp), %eax
 5019 1c14 83E001   		andl	$1, %eax
 5020 1c17 C1E007   		sall	$7, %eax
 5021 1c1a 0A820400 		orb	_nCustMenus+4(%edx), %al
 5021      0000
 5022 1c20 88810400 		movb	%al, _nCustMenus+4(%ecx)
 5022      0000
1664:../../MMI/Resource/WriteRes.c ****                     fprintf(OutputMenutreeIDFile, "%d,", i);
 5024              	LM284:
 5025 1c26 0FB745F6 		movzwl	-10(%ebp), %eax
 5026 1c2a 89442408 		movl	%eax, 8(%esp)
 5027 1c2e C7442404 		movl	$LC54, 4(%esp)
 5027      C7150000 
 5028 1c36 A1000000 		movl	_OutputMenutreeIDFile, %eax
 5028      00
 5029 1c3b 890424   		movl	%eax, (%esp)
 5030 1c3e E8000000 		call	_fprintf
 5030      00
1665:../../MMI/Resource/WriteRes.c ****                     break;
 5032              	LM285:
 5033 1c43 E9DC0000 		jmp	L176
 5033      00
 5034              	L190:
1666:../../MMI/Resource/WriteRes.c **** 
1667:../../MMI/Resource/WriteRes.c ****                 case MOVEABLE_FLAG_TYPE:
1668:../../MMI/Resource/WriteRes.c ****                     nCustMenus[menuItemID].nFlags |= ((U8)i) & 0x7F;
 5036              	LM286:
 5037 1c48 0FB745F2 		movzwl	-14(%ebp), %eax
 5038 1c4c 89C1     		movl	%eax, %ecx
GAS LISTING d:/software/ovi_2503a_s3trc/ovi_2503a_s3trc/plutommi/Customer/ResGenerator/gcctmp/ccWMaaaa.s 			page 78


 5039 1c4e C1E104   		sall	$4, %ecx
 5040 1c51 0FB745F2 		movzwl	-14(%ebp), %eax
 5041 1c55 89C2     		movl	%eax, %edx
 5042 1c57 C1E204   		sall	$4, %edx
 5043 1c5a 0FB645F6 		movzbl	-10(%ebp), %eax
 5044 1c5e 247F     		andb	$127, %al
 5045 1c60 0A820400 		orb	_nCustMenus+4(%edx), %al
 5045      0000
 5046 1c66 88810400 		movb	%al, _nCustMenus+4(%ecx)
 5046      0000
1669:../../MMI/Resource/WriteRes.c ****                     fprintf(OutputMenutreeIDFile, "%d,", i);
 5048              	LM287:
 5049 1c6c 0FB745F6 		movzwl	-10(%ebp), %eax
 5050 1c70 89442408 		movl	%eax, 8(%esp)
 5051 1c74 C7442404 		movl	$LC54, 4(%esp)
 5051      C7150000 
 5052 1c7c A1000000 		movl	_OutputMenutreeIDFile, %eax
 5052      00
 5053 1c81 890424   		movl	%eax, (%esp)
 5054 1c84 E8000000 		call	_fprintf
 5054      00
1670:../../MMI/Resource/WriteRes.c ****                     break;
 5056              	LM288:
 5057 1c89 E9960000 		jmp	L176
 5057      00
 5058              	L191:
1671:../../MMI/Resource/WriteRes.c **** 
1672:../../MMI/Resource/WriteRes.c ****                 case DISPLAY_ATTRIBUTE_TYPE:
1673:../../MMI/Resource/WriteRes.c ****                     nCustMenus[menuItemID].nDispAttribute = (U8)(i & 0xFF);
 5060              	LM289:
 5061 1c8e 0FB745F2 		movzwl	-14(%ebp), %eax
 5062 1c92 89C2     		movl	%eax, %edx
 5063 1c94 C1E204   		sall	$4, %edx
 5064 1c97 0FB645F6 		movzbl	-10(%ebp), %eax
 5065 1c9b 88820500 		movb	%al, _nCustMenus+5(%edx)
 5065      0000
1674:../../MMI/Resource/WriteRes.c ****                     fprintf(OutputMenutreeIDFile, "%d,", i);
 5067              	LM290:
 5068 1ca1 0FB745F6 		movzwl	-10(%ebp), %eax
 5069 1ca5 89442408 		movl	%eax, 8(%esp)
 5070 1ca9 C7442404 		movl	$LC54, 4(%esp)
 5070      C7150000 
 5071 1cb1 A1000000 		movl	_OutputMenutreeIDFile, %eax
 5071      00
 5072 1cb6 890424   		movl	%eax, (%esp)
 5073 1cb9 E8000000 		call	_fprintf
 5073      00
1675:../../MMI/Resource/WriteRes.c ****                     break;
 5075              	LM291:
 5076 1cbe EB64     		jmp	L176
 5077              	L192:
1676:../../MMI/Resource/WriteRes.c **** 
1677:../../MMI/Resource/WriteRes.c ****                 case MENU_ITEM_STRING_ID_TYPE:
1678:../../MMI/Resource/WriteRes.c ****                     nCustMenus[menuItemID].nStrId = i;
 5079              	LM292:
 5080 1cc0 0FB745F2 		movzwl	-14(%ebp), %eax
 5081 1cc4 89C2     		movl	%eax, %edx
GAS LISTING d:/software/ovi_2503a_s3trc/ovi_2503a_s3trc/plutommi/Customer/ResGenerator/gcctmp/ccWMaaaa.s 			page 79


 5082 1cc6 C1E204   		sall	$4, %edx
 5083 1cc9 0FB745F6 		movzwl	-10(%ebp), %eax
 5084 1ccd 66898206 		movw	%ax, _nCustMenus+6(%edx)
 5084      000000
1679:../../MMI/Resource/WriteRes.c ****                     fprintf(OutputMenutreeIDFile, "%d,", i);
 5086              	LM293:
 5087 1cd4 0FB745F6 		movzwl	-10(%ebp), %eax
 5088 1cd8 89442408 		movl	%eax, 8(%esp)
 5089 1cdc C7442404 		movl	$LC54, 4(%esp)
 5089      C7150000 
 5090 1ce4 A1000000 		movl	_OutputMenutreeIDFile, %eax
 5090      00
 5091 1ce9 890424   		movl	%eax, (%esp)
 5092 1cec E8000000 		call	_fprintf
 5092      00
1680:../../MMI/Resource/WriteRes.c ****                     break;
 5094              	LM294:
 5095 1cf1 EB31     		jmp	L176
 5096              	L193:
1681:../../MMI/Resource/WriteRes.c **** 
1682:../../MMI/Resource/WriteRes.c ****                 case MENU_ITEM_IMAGE_ID_TYPE:
1683:../../MMI/Resource/WriteRes.c ****                     nCustMenus[menuItemID].nImageId = i;
 5098              	LM295:
 5099 1cf3 0FB745F2 		movzwl	-14(%ebp), %eax
 5100 1cf7 89C2     		movl	%eax, %edx
 5101 1cf9 C1E204   		sall	$4, %edx
 5102 1cfc 0FB745F6 		movzwl	-10(%ebp), %eax
 5103 1d00 66898208 		movw	%ax, _nCustMenus+8(%edx)
 5103      000000
1684:../../MMI/Resource/WriteRes.c ****                     fprintf(OutputMenutreeIDFile, "%d));\n", i);
 5105              	LM296:
 5106 1d07 0FB745F6 		movzwl	-10(%ebp), %eax
 5107 1d0b 89442408 		movl	%eax, 8(%esp)
 5108 1d0f C7442404 		movl	$LC55, 4(%esp)
 5108      CB150000 
 5109 1d17 A1000000 		movl	_OutputMenutreeIDFile, %eax
 5109      00
 5110 1d1c 890424   		movl	%eax, (%esp)
 5111 1d1f E8000000 		call	_fprintf
 5111      00
 5112              	L176:
1685:../../MMI/Resource/WriteRes.c ****                     break;
1686:../../MMI/Resource/WriteRes.c ****             }
1687:../../MMI/Resource/WriteRes.c ****             if (MemberCounter != MENU_ITEM_ORDER_TYPE)
 5114              	LM297:
 5115 1d24 66837DF8 		cmpw	$6, -8(%ebp)
 5115      06
 5116 1d29 7410     		je	L196
1688:../../MMI/Resource/WriteRes.c ****             {
1689:../../MMI/Resource/WriteRes.c ****                 i = va_arg(argumentPtr, int);
 5118              	LM298:
 5119 1d2b 8B45EC   		movl	-20(%ebp), %eax
 5120 1d2e 8D55EC   		leal	-20(%ebp), %edx
 5121 1d31 830204   		addl	$4, (%edx)
 5122 1d34 0FB700   		movzwl	(%eax), %eax
 5123 1d37 668945F6 		movw	%ax, -10(%ebp)
 5124              	L196:
GAS LISTING d:/software/ovi_2503a_s3trc/ovi_2503a_s3trc/plutommi/Customer/ResGenerator/gcctmp/ccWMaaaa.s 			page 80


1690:../../MMI/Resource/WriteRes.c ****             }
1691:../../MMI/Resource/WriteRes.c **** 
1692:../../MMI/Resource/WriteRes.c ****             if (MemberCounter == PARENT_ITEM_ID_TYPE)   /* Skip NUMBER_OF_MENUITEMS_TYPE field */
 5126              	LM299:
 5127 1d3b 66837DF8 		cmpw	$8, -8(%ebp)
 5127      08
 5128 1d40 750F     		jne	L197
1693:../../MMI/Resource/WriteRes.c ****             {
1694:../../MMI/Resource/WriteRes.c ****                 MemberCounter -= 2;
 5130              	LM300:
 5131 1d42 8B45F8   		movl	-8(%ebp), %eax
 5132 1d45 83E802   		subl	$2, %eax
 5133 1d48 668945F8 		movw	%ax, -8(%ebp)
 5134 1d4c E9BBFCFF 		jmp	L173
 5134      FF
 5135              	L197:
1695:../../MMI/Resource/WriteRes.c ****             }
1696:../../MMI/Resource/WriteRes.c ****             else
1697:../../MMI/Resource/WriteRes.c ****             {
1698:../../MMI/Resource/WriteRes.c ****                 MemberCounter--;
 5137              	LM301:
 5138 1d51 8B45F8   		movl	-8(%ebp), %eax
 5139 1d54 48       		decl	%eax
 5140 1d55 668945F8 		movw	%ax, -8(%ebp)
 5141 1d59 E9AEFCFF 		jmp	L173
 5141      FF
 5142              	L172:
1699:../../MMI/Resource/WriteRes.c ****             }
1700:../../MMI/Resource/WriteRes.c ****         }
1701:../../MMI/Resource/WriteRes.c ****     }
1702:../../MMI/Resource/WriteRes.c ****     else
1703:../../MMI/Resource/WriteRes.c ****     {
1704:../../MMI/Resource/WriteRes.c ****         is_dummy_code = 1;
 5144              	LM302:
 5145 1d5e C6055000 		movb	$1, _is_dummy_code
 5145      000001
1705:../../MMI/Resource/WriteRes.c ****     }
1706:../../MMI/Resource/WriteRes.c **** 
1707:../../MMI/Resource/WriteRes.c ****     va_end(argumentPtr);
1708:../../MMI/Resource/WriteRes.c **** }
 5147              	LM303:
 5148              	L170:
 5149 1d65 83C444   		addl	$68, %esp
 5150 1d68 5B       		popl	%ebx
 5151 1d69 5D       		popl	%ebp
 5152 1d6a C3       		ret
 5153              	LBE18:
 5165              	Lscope15:
 5167              	LC57:
 5168 1d6b 4144445F 		.ascii "ADD_APPLICATION_MENUITEM5((\0"
 5168      4150504C 
 5168      49434154 
 5168      494F4E5F 
 5168      4D454E55 
 5171              	.globl _SetMenuItem5
 5173              	_SetMenuItem5:
1709:../../MMI/Resource/WriteRes.c **** 
GAS LISTING d:/software/ovi_2503a_s3trc/ovi_2503a_s3trc/plutommi/Customer/ResGenerator/gcctmp/ccWMaaaa.s 			page 81


1710:../../MMI/Resource/WriteRes.c **** 
1711:../../MMI/Resource/WriteRes.c **** /*****************************************************************************
1712:../../MMI/Resource/WriteRes.c ****  * FUNCTION
1713:../../MMI/Resource/WriteRes.c ****  *  SetMenuItem5
1714:../../MMI/Resource/WriteRes.c ****  * DESCRIPTION
1715:../../MMI/Resource/WriteRes.c ****  *  Fills the CUSTOM_MENU structure
1716:../../MMI/Resource/WriteRes.c ****  * PARAMETERS
1717:../../MMI/Resource/WriteRes.c ****  *  arg1        [IN]
1718:../../MMI/Resource/WriteRes.c ****  *  U16(?)      [IN]        -> variable argument list
1719:../../MMI/Resource/WriteRes.c ****  * RETURNS
1720:../../MMI/Resource/WriteRes.c ****  *  void
1721:../../MMI/Resource/WriteRes.c ****  *****************************************************************************/
1722:../../MMI/Resource/WriteRes.c **** void SetMenuItem5(U16 arg1, ...)
1723:../../MMI/Resource/WriteRes.c **** {
 5175              	LM304:
 5176 1d87 55       		pushl	%ebp
 5177 1d88 89E5     		movl	%esp, %ebp
 5178 1d8a 53       		pushl	%ebx
 5179 1d8b 83EC34   		subl	$52, %esp
 5180 1d8e 8B4508   		movl	8(%ebp), %eax
 5181 1d91 668945FA 		movw	%ax, -6(%ebp)
1724:../../MMI/Resource/WriteRes.c ****     /*----------------------------------------------------------------*/
1725:../../MMI/Resource/WriteRes.c ****     /* Local Variables                                                */
1726:../../MMI/Resource/WriteRes.c ****     /*----------------------------------------------------------------*/
1727:../../MMI/Resource/WriteRes.c **** 
1728:../../MMI/Resource/WriteRes.c ****     U16 MemberCounter = 9;
 5183              	LM305:
 5184              	LBB20:
 5185 1d95 66C745F8 		movw	$9, -8(%ebp)
 5185      0900
1729:../../MMI/Resource/WriteRes.c ****     U16 i = arg1;
 5187              	LM306:
 5188 1d9b 0FB745FA 		movzwl	-6(%ebp), %eax
 5189 1d9f 668945F6 		movw	%ax, -10(%ebp)
1730:../../MMI/Resource/WriteRes.c ****     U16 j;
1731:../../MMI/Resource/WriteRes.c ****     U16 menuItemID;
1732:../../MMI/Resource/WriteRes.c ****     va_list argumentPtr;
1733:../../MMI/Resource/WriteRes.c **** 
1734:../../MMI/Resource/WriteRes.c ****     /*----------------------------------------------------------------*/
1735:../../MMI/Resource/WriteRes.c ****     /* Code Body                                                      */
1736:../../MMI/Resource/WriteRes.c ****     /*----------------------------------------------------------------*/
1737:../../MMI/Resource/WriteRes.c ****     /* 091004 MTK Calvin removed to reduce populate time */
1738:../../MMI/Resource/WriteRes.c ****     //FILE  *fout;
1739:../../MMI/Resource/WriteRes.c ****     //static U8 is_first=1;
1740:../../MMI/Resource/WriteRes.c **** 
1741:../../MMI/Resource/WriteRes.c ****     //if (is_first)
1742:../../MMI/Resource/WriteRes.c ****     //{
1743:../../MMI/Resource/WriteRes.c ****     //   fout = fopen(OUTPUT_MENUTREE_ID_FILENAME,"w");
1744:../../MMI/Resource/WriteRes.c ****     //   is_first= 0;
1745:../../MMI/Resource/WriteRes.c ****     //}
1746:../../MMI/Resource/WriteRes.c ****     /* MTK Calvin end */
1747:../../MMI/Resource/WriteRes.c **** 
1748:../../MMI/Resource/WriteRes.c ****     va_start(argumentPtr, arg1);
 5191              	LM307:
 5192 1da3 8D450C   		leal	12(%ebp), %eax
 5193 1da6 8945EC   		movl	%eax, -20(%ebp)
1749:../../MMI/Resource/WriteRes.c **** 
GAS LISTING d:/software/ovi_2503a_s3trc/ovi_2503a_s3trc/plutommi/Customer/ResGenerator/gcctmp/ccWMaaaa.s 			page 82


1750:../../MMI/Resource/WriteRes.c ****     RESPRT(fpMenuResourceUsage, "NO_APP", -1, i, "unknown", 1, "none");
 5195              	LM308:
 5196 1da9 C744241C 		movl	$LC51, 28(%esp)
 5196      9E150000 
 5197 1db1 C7442418 		movl	$1, 24(%esp)
 5197      01000000 
 5198 1db9 C7442414 		movl	$LC52, 20(%esp)
 5198      A3150000 
 5199 1dc1 0FB745F6 		movzwl	-10(%ebp), %eax
 5200 1dc5 89442410 		movl	%eax, 16(%esp)
 5201 1dc9 C744240C 		movl	$-1, 12(%esp)
 5201      FFFFFFFF 
 5202 1dd1 C7442408 		movl	$LC32, 8(%esp)
 5202      23070000 
 5203 1dd9 C7442404 		movl	$LC33, 4(%esp)
 5203      2A070000 
 5204 1de1 A1000000 		movl	_fpMenuResourceUsage, %eax
 5204      00
 5205 1de6 890424   		movl	%eax, (%esp)
 5206 1de9 E8000000 		call	_fprintf
 5206      00
1751:../../MMI/Resource/WriteRes.c **** 
1752:../../MMI/Resource/WriteRes.c ****     /* Need to decide whether menu item already present */
1753:../../MMI/Resource/WriteRes.c ****     if (!MenuItemPresent(i))
 5208              	LM309:
 5209 1dee 0FB745F6 		movzwl	-10(%ebp), %eax
 5210 1df2 890424   		movl	%eax, (%esp)
 5211 1df5 E80BF5FF 		call	_MenuItemPresent
 5211      FF
 5212 1dfa 6685C0   		testw	%ax, %ax
 5213 1dfd 0F850D03 		jne	L202
 5213      0000
1754:../../MMI/Resource/WriteRes.c ****     {
1755:../../MMI/Resource/WriteRes.c ****         /* 091004 MTK Calvin removed fopen and fclose to reduce populate time and replaced fout wit
1756:../../MMI/Resource/WriteRes.c ****         /* fout = fopen(OUTPUT_MENUTREE_ID_FILENAME,"a"); */
1757:../../MMI/Resource/WriteRes.c ****         fprintf(OutputMenutreeIDFile, "ADD_APPLICATION_MENUITEM5((", arg1);
 5215              	LM310:
 5216 1e03 0FB745FA 		movzwl	-6(%ebp), %eax
 5217 1e07 89442408 		movl	%eax, 8(%esp)
 5218 1e0b C7442404 		movl	$LC57, 4(%esp)
 5218      6B1D0000 
 5219 1e13 A1000000 		movl	_OutputMenutreeIDFile, %eax
 5219      00
 5220 1e18 890424   		movl	%eax, (%esp)
 5221 1e1b E8000000 		call	_fprintf
 5221      00
1758:../../MMI/Resource/WriteRes.c ****         /* fclose(fout); */
1759:../../MMI/Resource/WriteRes.c **** 
1760:../../MMI/Resource/WriteRes.c ****         is_dummy_code = 0;
 5223              	LM311:
 5224 1e20 C6055000 		movb	$0, _is_dummy_code
 5224      000000
1761:../../MMI/Resource/WriteRes.c ****         while (MemberCounter)
 5226              	LM312:
 5227              	L203:
 5228 1e27 66837DF8 		cmpw	$0, -8(%ebp)
 5228      00
GAS LISTING d:/software/ovi_2503a_s3trc/ovi_2503a_s3trc/plutommi/Customer/ResGenerator/gcctmp/ccWMaaaa.s 			page 83


 5229 1e2c 7505     		jne	L205
 5230 1e2e E9E40200 		jmp	L200
 5230      00
 5231              	L205:
1762:../../MMI/Resource/WriteRes.c ****         {
1763:../../MMI/Resource/WriteRes.c ****             switch (MemberCounter)
 5233              	LM313:
 5234 1e33 0FB745F8 		movzwl	-8(%ebp), %eax
 5235 1e37 8945E8   		movl	%eax, -24(%ebp)
 5236 1e3a 837DE809 		cmpl	$9, -24(%ebp)
 5237 1e3e 0F87A802 		ja	L206
 5237      0000
 5238 1e44 8B55E8   		movl	-24(%ebp), %edx
 5239 1e47 8B049550 		movl	L222(,%edx,4), %eax
 5239      1E0000
 5240 1e4e FFE0     		jmp	*%eax
 5241              		.p2align 2
 5242              		.align 4
 5243              	L222:
 5244 1e50 EC200000 		.long	L206
 5245 1e54 BB200000 		.long	L221
 5246 1e58 88200000 		.long	L220
 5247 1e5c 56200000 		.long	L219
 5248 1e60 10200000 		.long	L218
 5249 1e64 C61F0000 		.long	L217
 5250 1e68 0F1F0000 		.long	L210
 5251 1e6c D91E0000 		.long	L209
 5252 1e70 A31E0000 		.long	L208
 5253 1e74 781E0000 		.long	L207
 5254              	L207:
1764:../../MMI/Resource/WriteRes.c ****             {
1765:../../MMI/Resource/WriteRes.c ****                 case MENUITEM_ID_TYPE:
1766:../../MMI/Resource/WriteRes.c ****                     menuItemID = i - 1;
 5256              	LM314:
 5257 1e78 0FB745F6 		movzwl	-10(%ebp), %eax
 5258 1e7c 48       		decl	%eax
 5259 1e7d 668945F2 		movw	%ax, -14(%ebp)
1767:../../MMI/Resource/WriteRes.c **** 
1768:../../MMI/Resource/WriteRes.c ****                     //nCustMenus[menuItemID].nMenuItemId = i;
1769:../../MMI/Resource/WriteRes.c ****                     /* fout = fopen(OUTPUT_MENUTREE_ID_FILENAME,"a"); */
1770:../../MMI/Resource/WriteRes.c ****                     fprintf(OutputMenutreeIDFile, "%d,", i);
 5261              	LM315:
 5262 1e81 0FB745F6 		movzwl	-10(%ebp), %eax
 5263 1e85 89442408 		movl	%eax, 8(%esp)
 5264 1e89 C7442404 		movl	$LC54, 4(%esp)
 5264      C7150000 
 5265 1e91 A1000000 		movl	_OutputMenutreeIDFile, %eax
 5265      00
 5266 1e96 890424   		movl	%eax, (%esp)
 5267 1e99 E8000000 		call	_fprintf
 5267      00
1771:../../MMI/Resource/WriteRes.c ****                     /* fclose(fout); */
1772:../../MMI/Resource/WriteRes.c ****                     break;
 5269              	LM316:
 5270 1e9e E9490200 		jmp	L206
 5270      00
 5271              	L208:
GAS LISTING d:/software/ovi_2503a_s3trc/ovi_2503a_s3trc/plutommi/Customer/ResGenerator/gcctmp/ccWMaaaa.s 			page 84


1773:../../MMI/Resource/WriteRes.c ****                 case PARENT_ITEM_ID_TYPE:
1774:../../MMI/Resource/WriteRes.c ****                     nCustMenus[menuItemID].nParentId = i;
 5273              	LM317:
 5274 1ea3 0FB745F2 		movzwl	-14(%ebp), %eax
 5275 1ea7 89C2     		movl	%eax, %edx
 5276 1ea9 C1E204   		sall	$4, %edx
 5277 1eac 0FB745F6 		movzwl	-10(%ebp), %eax
 5278 1eb0 66898200 		movw	%ax, _nCustMenus(%edx)
 5278      000000
1775:../../MMI/Resource/WriteRes.c ****                     /* fout = fopen(OUTPUT_MENUTREE_ID_FILENAME,"a"); */
1776:../../MMI/Resource/WriteRes.c ****                     fprintf(OutputMenutreeIDFile, "%d,", i);
 5280              	LM318:
 5281 1eb7 0FB745F6 		movzwl	-10(%ebp), %eax
 5282 1ebb 89442408 		movl	%eax, 8(%esp)
 5283 1ebf C7442404 		movl	$LC54, 4(%esp)
 5283      C7150000 
 5284 1ec7 A1000000 		movl	_OutputMenutreeIDFile, %eax
 5284      00
 5285 1ecc 890424   		movl	%eax, (%esp)
 5286 1ecf E8000000 		call	_fprintf
 5286      00
1777:../../MMI/Resource/WriteRes.c ****                     /* fclose(fout); */
1778:../../MMI/Resource/WriteRes.c ****                     break;
 5288              	LM319:
 5289 1ed4 E9130200 		jmp	L206
 5289      00
 5290              	L209:
1779:../../MMI/Resource/WriteRes.c ****                 case NUMBER_OF_MENUITEMS_TYPE:
1780:../../MMI/Resource/WriteRes.c ****                     nCustMenus[menuItemID].nNumofMenuItem = i;
 5292              	LM320:
 5293 1ed9 0FB745F2 		movzwl	-14(%ebp), %eax
 5294 1edd 89C2     		movl	%eax, %edx
 5295 1edf C1E204   		sall	$4, %edx
 5296 1ee2 0FB745F6 		movzwl	-10(%ebp), %eax
 5297 1ee6 66898202 		movw	%ax, _nCustMenus+2(%edx)
 5297      000000
1781:../../MMI/Resource/WriteRes.c ****                     /* fout = fopen(OUTPUT_MENUTREE_ID_FILENAME,"a"); */
1782:../../MMI/Resource/WriteRes.c ****                     fprintf(OutputMenutreeIDFile, "%d,", i);
 5299              	LM321:
 5300 1eed 0FB745F6 		movzwl	-10(%ebp), %eax
 5301 1ef1 89442408 		movl	%eax, 8(%esp)
 5302 1ef5 C7442404 		movl	$LC54, 4(%esp)
 5302      C7150000 
 5303 1efd A1000000 		movl	_OutputMenutreeIDFile, %eax
 5303      00
 5304 1f02 890424   		movl	%eax, (%esp)
 5305 1f05 E8000000 		call	_fprintf
 5305      00
1783:../../MMI/Resource/WriteRes.c ****                     /* fclose(fout); */
1784:../../MMI/Resource/WriteRes.c ****                     break;
 5307              	LM322:
 5308 1f0a E9DD0100 		jmp	L206
 5308      00
 5309              	L210:
1785:../../MMI/Resource/WriteRes.c ****                 case MENU_ITEM_ORDER_TYPE:
1786:../../MMI/Resource/WriteRes.c ****                     if (nCustMenus[menuItemID].nNumofMenuItem == 0)
 5311              	LM323:
GAS LISTING d:/software/ovi_2503a_s3trc/ovi_2503a_s3trc/plutommi/Customer/ResGenerator/gcctmp/ccWMaaaa.s 			page 85


 5312 1f0f 0FB745F2 		movzwl	-14(%ebp), %eax
 5313 1f13 C1E004   		sall	$4, %eax
 5314 1f16 6683B802 		cmpw	$0, _nCustMenus+2(%eax)
 5314      00000000 
 5315 1f1e 7516     		jne	L211
1787:../../MMI/Resource/WriteRes.c ****                     {
1788:../../MMI/Resource/WriteRes.c ****                         nCustMenus[menuItemID].nOrderMenuItemId = (U16*) 0;
 5317              	LM324:
 5318 1f20 0FB745F2 		movzwl	-14(%ebp), %eax
 5319 1f24 C1E004   		sall	$4, %eax
 5320 1f27 C7800C00 		movl	$0, _nCustMenus+12(%eax)
 5320      00000000 
 5320      0000
 5321 1f31 E9B60100 		jmp	L206
 5321      00
 5322              	L211:
1789:../../MMI/Resource/WriteRes.c ****                     }
1790:../../MMI/Resource/WriteRes.c ****                     else
1791:../../MMI/Resource/WriteRes.c ****                     {
1792:../../MMI/Resource/WriteRes.c ****                         nCustMenus[menuItemID].nOrderMenuItemId = (U16*) malloc(sizeof(U16) * MENU_
 5324              	LM325:
 5325 1f36 0FB745F2 		movzwl	-14(%ebp), %eax
 5326 1f3a 89C3     		movl	%eax, %ebx
 5327 1f3c C1E304   		sall	$4, %ebx
 5328 1f3f C7042464 		movl	$100, (%esp)
 5328      000000
 5329 1f46 E8000000 		call	_malloc
 5329      00
 5330 1f4b 89830C00 		movl	%eax, _nCustMenus+12(%ebx)
 5330      0000
1793:../../MMI/Resource/WriteRes.c ****                         for (j = 0; j < nCustMenus[menuItemID].nNumofMenuItem; j++)
 5332              	LM326:
 5333 1f51 66C745F4 		movw	$0, -12(%ebp)
 5333      0000
 5334              	L213:
 5335 1f57 0FB745F2 		movzwl	-14(%ebp), %eax
 5336 1f5b 89C2     		movl	%eax, %edx
 5337 1f5d C1E204   		sall	$4, %edx
 5338 1f60 8B45F4   		movl	-12(%ebp), %eax
 5339 1f63 663B8202 		cmpw	_nCustMenus+2(%edx), %ax
 5339      000000
 5340 1f6a 7205     		jb	L216
 5341 1f6c E97B0100 		jmp	L206
 5341      00
 5342              	L216:
1794:../../MMI/Resource/WriteRes.c ****                         {
1795:../../MMI/Resource/WriteRes.c ****                             /* fout = fopen(OUTPUT_MENUTREE_ID_FILENAME,"a"); */
1796:../../MMI/Resource/WriteRes.c ****                             fprintf(OutputMenutreeIDFile, "%d,", i);
 5344              	LM327:
 5345 1f71 0FB745F6 		movzwl	-10(%ebp), %eax
 5346 1f75 89442408 		movl	%eax, 8(%esp)
 5347 1f79 C7442404 		movl	$LC54, 4(%esp)
 5347      C7150000 
 5348 1f81 A1000000 		movl	_OutputMenutreeIDFile, %eax
 5348      00
 5349 1f86 890424   		movl	%eax, (%esp)
 5350 1f89 E8000000 		call	_fprintf
GAS LISTING d:/software/ovi_2503a_s3trc/ovi_2503a_s3trc/plutommi/Customer/ResGenerator/gcctmp/ccWMaaaa.s 			page 86


 5350      00
1797:../../MMI/Resource/WriteRes.c ****                             /* fclose(fout); */
1798:../../MMI/Resource/WriteRes.c ****                             nCustMenus[menuItemID].nOrderMenuItemId[j] = i;
 5352              	LM328:
 5353 1f8e 0FB745F2 		movzwl	-14(%ebp), %eax
 5354 1f92 89C2     		movl	%eax, %edx
 5355 1f94 C1E204   		sall	$4, %edx
 5356 1f97 0FB745F4 		movzwl	-12(%ebp), %eax
 5357 1f9b 8D0C00   		leal	(%eax,%eax), %ecx
 5358 1f9e 8B920C00 		movl	_nCustMenus+12(%edx), %edx
 5358      0000
 5359 1fa4 0FB745F6 		movzwl	-10(%ebp), %eax
 5360 1fa8 6689040A 		movw	%ax, (%edx,%ecx)
1799:../../MMI/Resource/WriteRes.c ****                             i = va_arg(argumentPtr, int);
 5362              	LM329:
 5363 1fac 8B55EC   		movl	-20(%ebp), %edx
 5364 1faf 8D45EC   		leal	-20(%ebp), %eax
 5365 1fb2 830004   		addl	$4, (%eax)
 5366 1fb5 0FB702   		movzwl	(%edx), %eax
 5367 1fb8 668945F6 		movw	%ax, -10(%ebp)
 5369              	LM330:
 5370 1fbc 8B45F4   		movl	-12(%ebp), %eax
 5371 1fbf 40       		incl	%eax
 5372 1fc0 668945F4 		movw	%ax, -12(%ebp)
 5373 1fc4 EB91     		jmp	L213
 5374              	L217:
1800:../../MMI/Resource/WriteRes.c ****                         }
1801:../../MMI/Resource/WriteRes.c ****                     }
1802:../../MMI/Resource/WriteRes.c ****                     break;
1803:../../MMI/Resource/WriteRes.c ****                 case HIDE_FLAG_TYPE:
1804:../../MMI/Resource/WriteRes.c ****                     nCustMenus[menuItemID].nFlags |= (((U8)i) & 0x1) << 7;
 5376              	LM331:
 5377 1fc6 0FB745F2 		movzwl	-14(%ebp), %eax
 5378 1fca 89C1     		movl	%eax, %ecx
 5379 1fcc C1E104   		sall	$4, %ecx
 5380 1fcf 0FB745F2 		movzwl	-14(%ebp), %eax
 5381 1fd3 89C2     		movl	%eax, %edx
 5382 1fd5 C1E204   		sall	$4, %edx
 5383 1fd8 0FB645F6 		movzbl	-10(%ebp), %eax
 5384 1fdc 83E001   		andl	$1, %eax
 5385 1fdf C1E007   		sall	$7, %eax
 5386 1fe2 0A820400 		orb	_nCustMenus+4(%edx), %al
 5386      0000
 5387 1fe8 88810400 		movb	%al, _nCustMenus+4(%ecx)
 5387      0000
1805:../../MMI/Resource/WriteRes.c ****                     /* fout = fopen(OUTPUT_MENUTREE_ID_FILENAME,"a"); */
1806:../../MMI/Resource/WriteRes.c ****                     fprintf(OutputMenutreeIDFile, "%d,", i);
 5389              	LM332:
 5390 1fee 0FB745F6 		movzwl	-10(%ebp), %eax
 5391 1ff2 89442408 		movl	%eax, 8(%esp)
 5392 1ff6 C7442404 		movl	$LC54, 4(%esp)
 5392      C7150000 
 5393 1ffe A1000000 		movl	_OutputMenutreeIDFile, %eax
 5393      00
 5394 2003 890424   		movl	%eax, (%esp)
 5395 2006 E8000000 		call	_fprintf
 5395      00
GAS LISTING d:/software/ovi_2503a_s3trc/ovi_2503a_s3trc/plutommi/Customer/ResGenerator/gcctmp/ccWMaaaa.s 			page 87


1807:../../MMI/Resource/WriteRes.c ****                     /* fclose(fout); */
1808:../../MMI/Resource/WriteRes.c ****                     break;
 5397              	LM333:
 5398 200b E9DC0000 		jmp	L206
 5398      00
 5399              	L218:
1809:../../MMI/Resource/WriteRes.c ****                 case MOVEABLE_FLAG_TYPE:
1810:../../MMI/Resource/WriteRes.c ****                     nCustMenus[menuItemID].nFlags |= ((U8)i) & 0x7F;
 5401              	LM334:
 5402 2010 0FB745F2 		movzwl	-14(%ebp), %eax
 5403 2014 89C1     		movl	%eax, %ecx
 5404 2016 C1E104   		sall	$4, %ecx
 5405 2019 0FB745F2 		movzwl	-14(%ebp), %eax
 5406 201d 89C2     		movl	%eax, %edx
 5407 201f C1E204   		sall	$4, %edx
 5408 2022 0FB645F6 		movzbl	-10(%ebp), %eax
 5409 2026 247F     		andb	$127, %al
 5410 2028 0A820400 		orb	_nCustMenus+4(%edx), %al
 5410      0000
 5411 202e 88810400 		movb	%al, _nCustMenus+4(%ecx)
 5411      0000
1811:../../MMI/Resource/WriteRes.c ****                     /* fout = fopen(OUTPUT_MENUTREE_ID_FILENAME,"a"); */
1812:../../MMI/Resource/WriteRes.c ****                     fprintf(OutputMenutreeIDFile, "%d,", i);
 5413              	LM335:
 5414 2034 0FB745F6 		movzwl	-10(%ebp), %eax
 5415 2038 89442408 		movl	%eax, 8(%esp)
 5416 203c C7442404 		movl	$LC54, 4(%esp)
 5416      C7150000 
 5417 2044 A1000000 		movl	_OutputMenutreeIDFile, %eax
 5417      00
 5418 2049 890424   		movl	%eax, (%esp)
 5419 204c E8000000 		call	_fprintf
 5419      00
1813:../../MMI/Resource/WriteRes.c ****                     /* fclose(fout); */
1814:../../MMI/Resource/WriteRes.c ****                     break;
 5421              	LM336:
 5422 2051 E9960000 		jmp	L206
 5422      00
 5423              	L219:
1815:../../MMI/Resource/WriteRes.c ****                 case DISPLAY_ATTRIBUTE_TYPE:
1816:../../MMI/Resource/WriteRes.c ****                     nCustMenus[menuItemID].nDispAttribute = (U8)(i & 0xFF);
 5425              	LM337:
 5426 2056 0FB745F2 		movzwl	-14(%ebp), %eax
 5427 205a 89C2     		movl	%eax, %edx
 5428 205c C1E204   		sall	$4, %edx
 5429 205f 0FB645F6 		movzbl	-10(%ebp), %eax
 5430 2063 88820500 		movb	%al, _nCustMenus+5(%edx)
 5430      0000
1817:../../MMI/Resource/WriteRes.c ****                     /* fout = fopen(OUTPUT_MENUTREE_ID_FILENAME,"a"); */
1818:../../MMI/Resource/WriteRes.c ****                     fprintf(OutputMenutreeIDFile, "%d,", i);
 5432              	LM338:
 5433 2069 0FB745F6 		movzwl	-10(%ebp), %eax
 5434 206d 89442408 		movl	%eax, 8(%esp)
 5435 2071 C7442404 		movl	$LC54, 4(%esp)
 5435      C7150000 
 5436 2079 A1000000 		movl	_OutputMenutreeIDFile, %eax
 5436      00
GAS LISTING d:/software/ovi_2503a_s3trc/ovi_2503a_s3trc/plutommi/Customer/ResGenerator/gcctmp/ccWMaaaa.s 			page 88


 5437 207e 890424   		movl	%eax, (%esp)
 5438 2081 E8000000 		call	_fprintf
 5438      00
1819:../../MMI/Resource/WriteRes.c ****                     /* fclose(fout); */
1820:../../MMI/Resource/WriteRes.c ****                     break;
 5440              	LM339:
 5441 2086 EB64     		jmp	L206
 5442              	L220:
1821:../../MMI/Resource/WriteRes.c ****                 case MENU_ITEM_STRING_ID_TYPE:
1822:../../MMI/Resource/WriteRes.c ****                     nCustMenus[menuItemID].nStrId = i;
 5444              	LM340:
 5445 2088 0FB745F2 		movzwl	-14(%ebp), %eax
 5446 208c 89C2     		movl	%eax, %edx
 5447 208e C1E204   		sall	$4, %edx
 5448 2091 0FB745F6 		movzwl	-10(%ebp), %eax
 5449 2095 66898206 		movw	%ax, _nCustMenus+6(%edx)
 5449      000000
1823:../../MMI/Resource/WriteRes.c ****                     /* fout = fopen(OUTPUT_MENUTREE_ID_FILENAME,"a"); */
1824:../../MMI/Resource/WriteRes.c ****                     fprintf(OutputMenutreeIDFile, "%d,", i);
 5451              	LM341:
 5452 209c 0FB745F6 		movzwl	-10(%ebp), %eax
 5453 20a0 89442408 		movl	%eax, 8(%esp)
 5454 20a4 C7442404 		movl	$LC54, 4(%esp)
 5454      C7150000 
 5455 20ac A1000000 		movl	_OutputMenutreeIDFile, %eax
 5455      00
 5456 20b1 890424   		movl	%eax, (%esp)
 5457 20b4 E8000000 		call	_fprintf
 5457      00
1825:../../MMI/Resource/WriteRes.c ****                     /* fclose(fout); */
1826:../../MMI/Resource/WriteRes.c ****                     break;
 5459              	LM342:
 5460 20b9 EB31     		jmp	L206
 5461              	L221:
1827:../../MMI/Resource/WriteRes.c ****                 case MENU_ITEM_IMAGE_ID_TYPE:
1828:../../MMI/Resource/WriteRes.c ****                     nCustMenus[menuItemID].nImageId = i;
 5463              	LM343:
 5464 20bb 0FB745F2 		movzwl	-14(%ebp), %eax
 5465 20bf 89C2     		movl	%eax, %edx
 5466 20c1 C1E204   		sall	$4, %edx
 5467 20c4 0FB745F6 		movzwl	-10(%ebp), %eax
 5468 20c8 66898208 		movw	%ax, _nCustMenus+8(%edx)
 5468      000000
1829:../../MMI/Resource/WriteRes.c ****                     /* fout = fopen(OUTPUT_MENUTREE_ID_FILENAME,"a"); */
1830:../../MMI/Resource/WriteRes.c ****                     fprintf(OutputMenutreeIDFile, "%d));\n", i);
 5470              	LM344:
 5471 20cf 0FB745F6 		movzwl	-10(%ebp), %eax
 5472 20d3 89442408 		movl	%eax, 8(%esp)
 5473 20d7 C7442404 		movl	$LC55, 4(%esp)
 5473      CB150000 
 5474 20df A1000000 		movl	_OutputMenutreeIDFile, %eax
 5474      00
 5475 20e4 890424   		movl	%eax, (%esp)
 5476 20e7 E8000000 		call	_fprintf
 5476      00
 5477              	L206:
1831:../../MMI/Resource/WriteRes.c ****                     /* fclose(fout); */
GAS LISTING d:/software/ovi_2503a_s3trc/ovi_2503a_s3trc/plutommi/Customer/ResGenerator/gcctmp/ccWMaaaa.s 			page 89


1832:../../MMI/Resource/WriteRes.c ****                     break;
1833:../../MMI/Resource/WriteRes.c ****             }
1834:../../MMI/Resource/WriteRes.c ****             if (MemberCounter != MENU_ITEM_ORDER_TYPE)
 5479              	LM345:
 5480 20ec 66837DF8 		cmpw	$6, -8(%ebp)
 5480      06
 5481 20f1 7410     		je	L224
1835:../../MMI/Resource/WriteRes.c ****             {
1836:../../MMI/Resource/WriteRes.c ****                 i = va_arg(argumentPtr, int);
 5483              	LM346:
 5484 20f3 8B45EC   		movl	-20(%ebp), %eax
 5485 20f6 8D55EC   		leal	-20(%ebp), %edx
 5486 20f9 830204   		addl	$4, (%edx)
 5487 20fc 0FB700   		movzwl	(%eax), %eax
 5488 20ff 668945F6 		movw	%ax, -10(%ebp)
 5489              	L224:
1837:../../MMI/Resource/WriteRes.c ****             }
1838:../../MMI/Resource/WriteRes.c **** 
1839:../../MMI/Resource/WriteRes.c ****             MemberCounter--;
 5491              	LM347:
 5492 2103 8B45F8   		movl	-8(%ebp), %eax
 5493 2106 48       		decl	%eax
 5494 2107 668945F8 		movw	%ax, -8(%ebp)
 5495 210b E917FDFF 		jmp	L203
 5495      FF
 5496              	L202:
1840:../../MMI/Resource/WriteRes.c ****         }
1841:../../MMI/Resource/WriteRes.c ****         /* MTK Calvin end */
1842:../../MMI/Resource/WriteRes.c ****     }
1843:../../MMI/Resource/WriteRes.c ****     else
1844:../../MMI/Resource/WriteRes.c ****     {
1845:../../MMI/Resource/WriteRes.c ****         is_dummy_code = 1;
 5498              	LM348:
 5499 2110 C6055000 		movb	$1, _is_dummy_code
 5499      000001
1846:../../MMI/Resource/WriteRes.c ****     }
1847:../../MMI/Resource/WriteRes.c **** 
1848:../../MMI/Resource/WriteRes.c ****     va_end(argumentPtr);
1849:../../MMI/Resource/WriteRes.c **** }
 5501              	LM349:
 5502              	L200:
 5503 2117 83C434   		addl	$52, %esp
 5504 211a 5B       		popl	%ebx
 5505 211b 5D       		popl	%ebp
 5506 211c C3       		ret
 5507              	LBE20:
 5516              	Lscope16:
 5518              	.globl _HiliteHdlrCount
 5519              		.bss
 5520              		.align 4
 5521              	_HiliteHdlrCount:
 5522 0008 00000000 		.space 4
 5523              	.globl _HintHdlrCount
 5524              		.align 4
 5525              	_HintHdlrCount:
 5526 000c 00000000 		.space 4
 5527              		.text
GAS LISTING d:/software/ovi_2503a_s3trc/ovi_2503a_s3trc/plutommi/Customer/ResGenerator/gcctmp/ccWMaaaa.s 			page 90


 5528 211d 8D7600   		.align 32
 5529              	LC58:
 5530 2120 5365744D 		.ascii "SetMenuHiliteHandler Invalid menuID[%d][%s]\12\0"
 5530      656E7548 
 5530      696C6974 
 5530      6548616E 
 5530      646C6572 
 5531 214d 90909090 		.align 32
 5531      90909090 
 5531      90909090 
 5531      90909090 
 5531      909090
 5532              	LC59:
 5533 2160 5365744D 		.ascii "SetMenuHiliteHandler MenuID[%d][%s] have registered\12\0"
 5533      656E7548 
 5533      696C6974 
 5533      6548616E 
 5533      646C6572 
 5538              	.globl _SetMenuHiliteHandler
 5540              	_SetMenuHiliteHandler:
1850:../../MMI/Resource/WriteRes.c **** 
1851:../../MMI/Resource/WriteRes.c **** 
1852:../../MMI/Resource/WriteRes.c **** 
1853:../../MMI/Resource/WriteRes.c **** 
1854:../../MMI/Resource/WriteRes.c **** 
1855:../../MMI/Resource/WriteRes.c **** 
1856:../../MMI/Resource/WriteRes.c **** 
1857:../../MMI/Resource/WriteRes.c **** 
1858:../../MMI/Resource/WriteRes.c **** /* Menuitem reduce memory, move registe hilite handlers to resgen */
1859:../../MMI/Resource/WriteRes.c **** S32 HiliteHdlrCount = 0;    /* count number of menuitems with hilite handler */
1860:../../MMI/Resource/WriteRes.c **** S32 HintHdlrCount = 0;      /* count number of menuitems with hint handler */
1861:../../MMI/Resource/WriteRes.c **** 
1862:../../MMI/Resource/WriteRes.c **** extern RESGEN_MENU_HILITE_HANDLER   nMenuHiliteHandlers[];
1863:../../MMI/Resource/WriteRes.c **** extern RESGEN_MENU_HINT_HANDLER     nMenuHintHandlers[];
1864:../../MMI/Resource/WriteRes.c **** 
1865:../../MMI/Resource/WriteRes.c **** /*****************************************************************************
1866:../../MMI/Resource/WriteRes.c ****  * FUNCTION
1867:../../MMI/Resource/WriteRes.c ****  *  SetMenuHiliteHandler
1868:../../MMI/Resource/WriteRes.c ****  * DESCRIPTION
1869:../../MMI/Resource/WriteRes.c ****  *  This Function will set MenuID and Hilite handler.
1870:../../MMI/Resource/WriteRes.c ****  * PARAMETERS
1871:../../MMI/Resource/WriteRes.c ****  *  MenuID          [IN]
1872:../../MMI/Resource/WriteRes.c ****  *  MenuIDEnum      [IN]
1873:../../MMI/Resource/WriteRes.c ****  *  FuncName        [IN]
1874:../../MMI/Resource/WriteRes.c ****  * RETURNS
1875:../../MMI/Resource/WriteRes.c ****  *  void
1876:../../MMI/Resource/WriteRes.c ****  *****************************************************************************/
1877:../../MMI/Resource/WriteRes.c **** void SetMenuHiliteHandler(U16 MenuID, S8 *MenuIDEnum, S8 *FuncName)
1878:../../MMI/Resource/WriteRes.c **** {
 5542              	LM350:
 5543 2195 55       		pushl	%ebp
 5544 2196 89E5     		movl	%esp, %ebp
 5545 2198 83EC18   		subl	$24, %esp
 5546 219b 8B4508   		movl	8(%ebp), %eax
 5547 219e 668945FE 		movw	%ax, -2(%ebp)
1879:../../MMI/Resource/WriteRes.c ****     /*----------------------------------------------------------------*/
1880:../../MMI/Resource/WriteRes.c ****     /* Local Variables                                                */
GAS LISTING d:/software/ovi_2503a_s3trc/ovi_2503a_s3trc/plutommi/Customer/ResGenerator/gcctmp/ccWMaaaa.s 			page 91


1881:../../MMI/Resource/WriteRes.c ****     /*----------------------------------------------------------------*/
1882:../../MMI/Resource/WriteRes.c **** 
1883:../../MMI/Resource/WriteRes.c ****     /*----------------------------------------------------------------*/
1884:../../MMI/Resource/WriteRes.c ****     /* Code Body                                                      */
1885:../../MMI/Resource/WriteRes.c ****     /*----------------------------------------------------------------*/
1886:../../MMI/Resource/WriteRes.c ****     if (MenuID >= MAX_MENU_ITEMS)
 5549              	LM351:
 5550 21a2 66837DFE 		cmpw	$-1, -2(%ebp)
 5550      FF
 5551 21a7 7520     		jne	L227
1887:../../MMI/Resource/WriteRes.c ****     {
1888:../../MMI/Resource/WriteRes.c ****         /* Invalid menu ID */
1889:../../MMI/Resource/WriteRes.c ****         RES_PRINT_INFO("SetMenuHiliteHandler Invalid menuID[%d][%s]\n", MenuID, MenuIDEnum);
 5553              	LM352:
 5554 21a9 8B450C   		movl	12(%ebp), %eax
 5555 21ac 89442408 		movl	%eax, 8(%esp)
 5556 21b0 0FB745FE 		movzwl	-2(%ebp), %eax
 5557 21b4 89442404 		movl	%eax, 4(%esp)
 5558 21b8 C7042420 		movl	$LC58, (%esp)
 5558      210000
 5559 21bf E8000000 		call	_MtkResgenTrace
 5559      00
1890:../../MMI/Resource/WriteRes.c ****         return;
 5561              	LM353:
 5562 21c4 E9A40000 		jmp	L226
 5562      00
 5563              	L227:
1891:../../MMI/Resource/WriteRes.c ****     }
1892:../../MMI/Resource/WriteRes.c **** 
1893:../../MMI/Resource/WriteRes.c ****     if (nMenuHiliteHandlers[MenuID].HiliteFuncName[0] != '\0')
 5565              	LM354:
 5566 21c9 0FB755FE 		movzwl	-2(%ebp), %edx
 5567 21cd 89D0     		movl	%edx, %eax
 5568 21cf C1E007   		sall	$7, %eax
 5569 21d2 01D0     		addl	%edx, %eax
 5570 21d4 01C0     		addl	%eax, %eax
 5571 21d6 80B88200 		cmpb	$0, _nMenuHiliteHandlers+130(%eax)
 5571      000000
 5572 21dd 741D     		je	L228
1894:../../MMI/Resource/WriteRes.c ****     {
1895:../../MMI/Resource/WriteRes.c ****         /* Menu ID have registered */
1896:../../MMI/Resource/WriteRes.c ****         RES_PRINT_INFO("SetMenuHiliteHandler MenuID[%d][%s] have registered\n", MenuID, MenuIDEnum)
 5574              	LM355:
 5575 21df 8B450C   		movl	12(%ebp), %eax
 5576 21e2 89442408 		movl	%eax, 8(%esp)
 5577 21e6 0FB745FE 		movzwl	-2(%ebp), %eax
 5578 21ea 89442404 		movl	%eax, 4(%esp)
 5579 21ee C7042460 		movl	$LC59, (%esp)
 5579      210000
 5580 21f5 E8000000 		call	_MtkResgenTrace
 5580      00
1897:../../MMI/Resource/WriteRes.c ****         return;
 5582              	LM356:
 5583 21fa EB71     		jmp	L226
 5584              	L228:
1898:../../MMI/Resource/WriteRes.c ****     }
1899:../../MMI/Resource/WriteRes.c **** 
GAS LISTING d:/software/ovi_2503a_s3trc/ovi_2503a_s3trc/plutommi/Customer/ResGenerator/gcctmp/ccWMaaaa.s 			page 92


1900:../../MMI/Resource/WriteRes.c ****     nMenuHiliteHandlers[MenuID].nMenuItemId = MenuID;
 5586              	LM357:
 5587 21fc 0FB755FE 		movzwl	-2(%ebp), %edx
 5588 2200 89D0     		movl	%edx, %eax
 5589 2202 C1E007   		sall	$7, %eax
 5590 2205 01D0     		addl	%edx, %eax
 5591 2207 8D1400   		leal	(%eax,%eax), %edx
 5592 220a 0FB745FE 		movzwl	-2(%ebp), %eax
 5593 220e 66898200 		movw	%ax, _nMenuHiliteHandlers(%edx)
 5593      000000
1901:../../MMI/Resource/WriteRes.c ****     strncpy(nMenuHiliteHandlers[MenuID].MenuItemIdEnum, MenuIDEnum, MAX_MENUID_ENUM);
 5595              	LM358:
 5596 2215 C7442408 		movl	$128, 8(%esp)
 5596      80000000 
 5597 221d 8B450C   		movl	12(%ebp), %eax
 5598 2220 89442404 		movl	%eax, 4(%esp)
 5599 2224 0FB755FE 		movzwl	-2(%ebp), %edx
 5600 2228 89D0     		movl	%edx, %eax
 5601 222a C1E007   		sall	$7, %eax
 5602 222d 01D0     		addl	%edx, %eax
 5603 222f 01C0     		addl	%eax, %eax
 5604 2231 05020000 		addl	$_nMenuHiliteHandlers+2, %eax
 5604      00
 5605 2236 890424   		movl	%eax, (%esp)
 5606 2239 E8000000 		call	_strncpy
 5606      00
1902:../../MMI/Resource/WriteRes.c ****     strncpy(nMenuHiliteHandlers[MenuID].HiliteFuncName, FuncName, MAX_HANDLER_NAME);
 5608              	LM359:
 5609 223e C7442408 		movl	$128, 8(%esp)
 5609      80000000 
 5610 2246 8B4510   		movl	16(%ebp), %eax
 5611 2249 89442404 		movl	%eax, 4(%esp)
 5612 224d 0FB755FE 		movzwl	-2(%ebp), %edx
 5613 2251 89D0     		movl	%edx, %eax
 5614 2253 C1E007   		sall	$7, %eax
 5615 2256 01D0     		addl	%edx, %eax
 5616 2258 01C0     		addl	%eax, %eax
 5617 225a 05820000 		addl	$_nMenuHiliteHandlers+130, %eax
 5617      00
 5618 225f 890424   		movl	%eax, (%esp)
 5619 2262 E8000000 		call	_strncpy
 5619      00
1903:../../MMI/Resource/WriteRes.c ****     HiliteHdlrCount++;
 5621              	LM360:
 5622 2267 FF050800 		incl	_HiliteHdlrCount
 5622      0000
1904:../../MMI/Resource/WriteRes.c **** }
 5624              	LM361:
 5625              	L226:
 5626 226d C9       		leave
 5627 226e C3       		ret
 5629              	Lscope17:
 5631 226f 90909090 		.align 32
 5631      90909090 
 5631      90909090 
 5631      90909090 
 5631      90
GAS LISTING d:/software/ovi_2503a_s3trc/ovi_2503a_s3trc/plutommi/Customer/ResGenerator/gcctmp/ccWMaaaa.s 			page 93


 5632              	LC60:
 5633 2280 5365744D 		.ascii "SetMenuHintHandler Invalid menuID[%d][%s]\12\0"
 5633      656E7548 
 5633      696E7448 
 5633      616E646C 
 5633      65722049 
 5634 22ab 90909090 		.align 32
 5634      90909090 
 5634      90909090 
 5634      90909090 
 5634      90909090 
 5635              	LC61:
 5636 22c0 5365744D 		.ascii "SetMenuHintHandler MenuID[%d][%s] have registered\12\0"
 5636      656E7548 
 5636      696E7448 
 5636      616E646C 
 5636      6572204D 
 5641              	.globl _SetMenuHintHandler
 5643              	_SetMenuHintHandler:
1905:../../MMI/Resource/WriteRes.c **** 
1906:../../MMI/Resource/WriteRes.c **** 
1907:../../MMI/Resource/WriteRes.c **** /*****************************************************************************
1908:../../MMI/Resource/WriteRes.c ****  * FUNCTION
1909:../../MMI/Resource/WriteRes.c ****  *  SetMenuHintHandler
1910:../../MMI/Resource/WriteRes.c ****  * DESCRIPTION
1911:../../MMI/Resource/WriteRes.c ****  *  This Function will set MenuID and Hint handler.
1912:../../MMI/Resource/WriteRes.c ****  * PARAMETERS
1913:../../MMI/Resource/WriteRes.c ****  *  MenuID      [IN]
1914:../../MMI/Resource/WriteRes.c ****  *  MenuIDEnum  [IN]
1915:../../MMI/Resource/WriteRes.c ****  *  FuncName    [IN]
1916:../../MMI/Resource/WriteRes.c ****  * RETURNS
1917:../../MMI/Resource/WriteRes.c ****  *  void
1918:../../MMI/Resource/WriteRes.c ****  *****************************************************************************/
1919:../../MMI/Resource/WriteRes.c **** void SetMenuHintHandler(U16 MenuID, S8 *MenuIDEnum, S8 *FuncName)
1920:../../MMI/Resource/WriteRes.c **** {
 5645              	LM362:
 5646 22f3 55       		pushl	%ebp
 5647 22f4 89E5     		movl	%esp, %ebp
 5648 22f6 83EC18   		subl	$24, %esp
 5649 22f9 8B4508   		movl	8(%ebp), %eax
 5650 22fc 668945FE 		movw	%ax, -2(%ebp)
1921:../../MMI/Resource/WriteRes.c ****     /*----------------------------------------------------------------*/
1922:../../MMI/Resource/WriteRes.c ****     /* Local Variables                                                */
1923:../../MMI/Resource/WriteRes.c ****     /*----------------------------------------------------------------*/
1924:../../MMI/Resource/WriteRes.c **** 
1925:../../MMI/Resource/WriteRes.c ****     /*----------------------------------------------------------------*/
1926:../../MMI/Resource/WriteRes.c ****     /* Code Body                                                      */
1927:../../MMI/Resource/WriteRes.c ****     /*----------------------------------------------------------------*/
1928:../../MMI/Resource/WriteRes.c ****     if (MenuID >= MAX_MENU_ITEMS)
 5652              	LM363:
 5653 2300 66837DFE 		cmpw	$-1, -2(%ebp)
 5653      FF
 5654 2305 7520     		jne	L230
1929:../../MMI/Resource/WriteRes.c ****     {
1930:../../MMI/Resource/WriteRes.c ****         /* Invalid menu ID */
1931:../../MMI/Resource/WriteRes.c ****         RES_PRINT_INFO("SetMenuHintHandler Invalid menuID[%d][%s]\n", MenuID, MenuIDEnum);
 5656              	LM364:
GAS LISTING d:/software/ovi_2503a_s3trc/ovi_2503a_s3trc/plutommi/Customer/ResGenerator/gcctmp/ccWMaaaa.s 			page 94


 5657 2307 8B450C   		movl	12(%ebp), %eax
 5658 230a 89442408 		movl	%eax, 8(%esp)
 5659 230e 0FB745FE 		movzwl	-2(%ebp), %eax
 5660 2312 89442404 		movl	%eax, 4(%esp)
 5661 2316 C7042480 		movl	$LC60, (%esp)
 5661      220000
 5662 231d E8000000 		call	_MtkResgenTrace
 5662      00
1932:../../MMI/Resource/WriteRes.c ****         return;
 5664              	LM365:
 5665 2322 E9A40000 		jmp	L229
 5665      00
 5666              	L230:
1933:../../MMI/Resource/WriteRes.c ****     }
1934:../../MMI/Resource/WriteRes.c **** 
1935:../../MMI/Resource/WriteRes.c ****     if (nMenuHintHandlers[MenuID].HintFuncName[0] != '\0')
 5668              	LM366:
 5669 2327 0FB755FE 		movzwl	-2(%ebp), %edx
 5670 232b 89D0     		movl	%edx, %eax
 5671 232d C1E007   		sall	$7, %eax
 5672 2330 01D0     		addl	%edx, %eax
 5673 2332 01C0     		addl	%eax, %eax
 5674 2334 80B88200 		cmpb	$0, _nMenuHintHandlers+130(%eax)
 5674      000000
 5675 233b 741D     		je	L231
1936:../../MMI/Resource/WriteRes.c ****     {
1937:../../MMI/Resource/WriteRes.c ****         /* Menu ID have registered */
1938:../../MMI/Resource/WriteRes.c ****         RES_PRINT_INFO("SetMenuHintHandler MenuID[%d][%s] have registered\n", MenuID, MenuIDEnum);
 5677              	LM367:
 5678 233d 8B450C   		movl	12(%ebp), %eax
 5679 2340 89442408 		movl	%eax, 8(%esp)
 5680 2344 0FB745FE 		movzwl	-2(%ebp), %eax
 5681 2348 89442404 		movl	%eax, 4(%esp)
 5682 234c C70424C0 		movl	$LC61, (%esp)
 5682      220000
 5683 2353 E8000000 		call	_MtkResgenTrace
 5683      00
1939:../../MMI/Resource/WriteRes.c ****         return;
 5685              	LM368:
 5686 2358 EB71     		jmp	L229
 5687              	L231:
1940:../../MMI/Resource/WriteRes.c ****     }
1941:../../MMI/Resource/WriteRes.c **** 
1942:../../MMI/Resource/WriteRes.c ****     nMenuHintHandlers[MenuID].nMenuItemId = MenuID;
 5689              	LM369:
 5690 235a 0FB755FE 		movzwl	-2(%ebp), %edx
 5691 235e 89D0     		movl	%edx, %eax
 5692 2360 C1E007   		sall	$7, %eax
 5693 2363 01D0     		addl	%edx, %eax
 5694 2365 8D1400   		leal	(%eax,%eax), %edx
 5695 2368 0FB745FE 		movzwl	-2(%ebp), %eax
 5696 236c 66898200 		movw	%ax, _nMenuHintHandlers(%edx)
 5696      000000
1943:../../MMI/Resource/WriteRes.c ****     strncpy(nMenuHintHandlers[MenuID].MenuItemIdEnum, MenuIDEnum, MAX_MENUID_ENUM);
 5698              	LM370:
 5699 2373 C7442408 		movl	$128, 8(%esp)
 5699      80000000 
GAS LISTING d:/software/ovi_2503a_s3trc/ovi_2503a_s3trc/plutommi/Customer/ResGenerator/gcctmp/ccWMaaaa.s 			page 95


 5700 237b 8B450C   		movl	12(%ebp), %eax
 5701 237e 89442404 		movl	%eax, 4(%esp)
 5702 2382 0FB755FE 		movzwl	-2(%ebp), %edx
 5703 2386 89D0     		movl	%edx, %eax
 5704 2388 C1E007   		sall	$7, %eax
 5705 238b 01D0     		addl	%edx, %eax
 5706 238d 01C0     		addl	%eax, %eax
 5707 238f 05020000 		addl	$_nMenuHintHandlers+2, %eax
 5707      00
 5708 2394 890424   		movl	%eax, (%esp)
 5709 2397 E8000000 		call	_strncpy
 5709      00
1944:../../MMI/Resource/WriteRes.c ****     strncpy(nMenuHintHandlers[MenuID].HintFuncName, FuncName, MAX_HANDLER_NAME);
 5711              	LM371:
 5712 239c C7442408 		movl	$128, 8(%esp)
 5712      80000000 
 5713 23a4 8B4510   		movl	16(%ebp), %eax
 5714 23a7 89442404 		movl	%eax, 4(%esp)
 5715 23ab 0FB755FE 		movzwl	-2(%ebp), %edx
 5716 23af 89D0     		movl	%edx, %eax
 5717 23b1 C1E007   		sall	$7, %eax
 5718 23b4 01D0     		addl	%edx, %eax
 5719 23b6 01C0     		addl	%eax, %eax
 5720 23b8 05820000 		addl	$_nMenuHintHandlers+130, %eax
 5720      00
 5721 23bd 890424   		movl	%eax, (%esp)
 5722 23c0 E8000000 		call	_strncpy
 5722      00
1945:../../MMI/Resource/WriteRes.c ****     HintHdlrCount++;
 5724              	LM372:
 5725 23c5 FF050C00 		incl	_HintHdlrCount
 5725      0000
1946:../../MMI/Resource/WriteRes.c **** }
 5727              	LM373:
 5728              	L229:
 5729 23cb C9       		leave
 5730 23cc C3       		ret
 5732              	Lscope18:
 5737              	_Get_Image_Identifier:
1947:../../MMI/Resource/WriteRes.c **** 
1948:../../MMI/Resource/WriteRes.c **** /*****************************************************************************
1949:../../MMI/Resource/WriteRes.c ****  * FUNCTION
1950:../../MMI/Resource/WriteRes.c ****  *  Get_Image_Identifier
1951:../../MMI/Resource/WriteRes.c ****  * DESCRIPTION
1952:../../MMI/Resource/WriteRes.c ****  *  Identifies the image , BMP , ppf etc
1953:../../MMI/Resource/WriteRes.c ****  *
1954:../../MMI/Resource/WriteRes.c ****  *  This function will be refined later when multiple
1955:../../MMI/Resource/WriteRes.c ****  *  image type will be supported by the frame work
1956:../../MMI/Resource/WriteRes.c ****  *  rt. now it just a added hook to make the design complete
1957:../../MMI/Resource/WriteRes.c ****  * PARAMETERS
1958:../../MMI/Resource/WriteRes.c ****  *  extension_type      [IN]
1959:../../MMI/Resource/WriteRes.c ****  * RETURNS
1960:../../MMI/Resource/WriteRes.c ****  *  U8
1961:../../MMI/Resource/WriteRes.c ****  *****************************************************************************/
1962:../../MMI/Resource/WriteRes.c **** static U8 Get_Image_Identifier(S32 extension_type)
1963:../../MMI/Resource/WriteRes.c **** {
 5739              	LM374:
GAS LISTING d:/software/ovi_2503a_s3trc/ovi_2503a_s3trc/plutommi/Customer/ResGenerator/gcctmp/ccWMaaaa.s 			page 96


 5740 23cd 55       		pushl	%ebp
 5741 23ce 89E5     		movl	%esp, %ebp
 5742 23d0 83EC04   		subl	$4, %esp
1964:../../MMI/Resource/WriteRes.c ****     /*----------------------------------------------------------------*/
1965:../../MMI/Resource/WriteRes.c ****     /* Local Variables                                                */
1966:../../MMI/Resource/WriteRes.c ****     /*----------------------------------------------------------------*/
1967:../../MMI/Resource/WriteRes.c ****     S32 ret = 0;
 5744              	LM375:
 5745              	LBB21:
 5746 23d3 C745FC00 		movl	$0, -4(%ebp)
 5746      000000
1968:../../MMI/Resource/WriteRes.c **** 
1969:../../MMI/Resource/WriteRes.c ****     /*----------------------------------------------------------------*/
1970:../../MMI/Resource/WriteRes.c ****     /* Code Body                                                      */
1971:../../MMI/Resource/WriteRes.c ****     /*----------------------------------------------------------------*/
1972:../../MMI/Resource/WriteRes.c ****     if (extension_type < 0)
 5748              	LM376:
 5749 23da 837D0800 		cmpl	$0, 8(%ebp)
 5750 23de 7909     		jns	L233
1973:../../MMI/Resource/WriteRes.c ****     {
1974:../../MMI/Resource/WriteRes.c ****         ret = 0;
 5752              	LM377:
 5753 23e0 C745FC00 		movl	$0, -4(%ebp)
 5753      000000
 5754 23e7 EB0D     		jmp	L234
 5755              	L233:
1975:../../MMI/Resource/WriteRes.c ****     }
1976:../../MMI/Resource/WriteRes.c **** 
1977:../../MMI/Resource/WriteRes.c ****     else if (extension_type == 0)
 5757              	LM378:
 5758 23e9 837D0800 		cmpl	$0, 8(%ebp)
 5759 23ed 7507     		jne	L234
1978:../../MMI/Resource/WriteRes.c ****     {
1979:../../MMI/Resource/WriteRes.c ****         ret = 1;
 5761              	LM379:
 5762 23ef C745FC01 		movl	$1, -4(%ebp)
 5762      000000
 5763              	L234:
1980:../../MMI/Resource/WriteRes.c ****     }
1981:../../MMI/Resource/WriteRes.c **** 
1982:../../MMI/Resource/WriteRes.c ****     return (U8) ret;
 5765              	LM380:
 5766 23f6 0FB645FC 		movzbl	-4(%ebp), %eax
1983:../../MMI/Resource/WriteRes.c **** 
1984:../../MMI/Resource/WriteRes.c **** }
 5768              	LM381:
 5769 23fa C9       		leave
 5770 23fb C3       		ret
 5771              	LBE21:
 5775              	Lscope19:
 5777 23fc 8D742600 		.align 32
 5778              	LC62:
 5779 2400 4C6F6164 		.ascii "Load_Audio_Data cmidi_hdl memory not available\12\0"
 5779      5F417564 
 5779      696F5F44 
 5779      61746120 
 5779      636D6964 
GAS LISTING d:/software/ovi_2503a_s3trc/ovi_2503a_s3trc/plutommi/Customer/ResGenerator/gcctmp/ccWMaaaa.s 			page 97


 5780 2430 90909090 		.align 32
 5780      90909090 
 5780      90909090 
 5780      90909090 
 5781              	LC63:
 5782 2440 4572726F 		.ascii "Error!! Load_Audio_Data cmidi_hdl memory not available\0"
 5782      72212120 
 5782      4C6F6164 
 5782      5F417564 
 5782      696F5F44 
 5783 2477 89F68DBC 		.align 32
 5783      27000000 
 5783      00
 5784              	LC64:
 5785 2480 4C6F6164 		.ascii "Load_Audio_Data read file err\12\0"
 5785      5F417564 
 5785      696F5F44 
 5785      61746120 
 5785      72656164 
 5786 249f 90       		.align 32
 5787              	LC65:
 5788 24a0 4572726F 		.ascii "Error!! Load_Audio_Data read file err\0"
 5788      72212120 
 5788      4C6F6164 
 5788      5F417564 
 5788      696F5F44 
 5789 24c6 90909090 		.align 32
 5789      90909090 
 5789      90909090 
 5789      90909090 
 5789      90909090 
 5790              	LC66:
 5791 24e0 4C6F6164 		.ascii "Load_Audio_Data(): file size = %d bytes, trying to get size of work_buf with CMIDI_GetBufS
 5791      5F417564 
 5791      696F5F44 
 5791      61746128 
 5791      293A2066 
 5792              		.align 32
 5793              	LC67:
 5794 2540 4C6F6164 		.ascii "Load_Audio_Data(): Got work_buf: ADDR = %x, size = %d (bytes)\0"
 5794      5F417564 
 5794      696F5F44 
 5794      61746128 
 5794      293A2047 
 5795 257e 89F6     		.align 32
 5796              	LC68:
 5797 2580 4C6F6164 		.ascii "Load_Audio_Data work_buf memory not available\12\0"
 5797      5F417564 
 5797      696F5F44 
 5797      61746120 
 5797      776F726B 
 5798 25af 90909090 		.align 32
 5798      90909090 
 5798      90909090 
 5798      90909090 
 5798      90
 5799              	LC69:
GAS LISTING d:/software/ovi_2503a_s3trc/ovi_2503a_s3trc/plutommi/Customer/ResGenerator/gcctmp/ccWMaaaa.s 			page 98


 5800 25c0 4572726F 		.ascii "Error!! Load_Audio_Data work_buf memory not available\0"
 5800      72212120 
 5800      4C6F6164 
 5800      5F417564 
 5800      696F5F44 
 5801 25f6 8D76008D 		.align 32
 5801      BC270000 
 5801      0000
 5802              	LC70:
 5803 2600 4C6F6164 		.ascii "Load_Audio_Data midi convert err\12\0"
 5803      5F417564 
 5803      696F5F44 
 5803      61746120 
 5803      6D696469 
 5804 2622 90909090 		.align 32
 5804      90909090 
 5804      90909090 
 5804      90909090 
 5804      90909090 
 5805              	LC71:
 5806 2640 4572726F 		.ascii "Error!! Load_Audio_Data midi convert err\0"
 5806      72212120 
 5806      4C6F6164 
 5806      5F417564 
 5806      696F5F44 
 5807              	LC72:
 5808 2669 25632563 		.ascii "%c%c%c%c%c%c%c%c\0"
 5808      25632563 
 5808      25632563 
 5808      25632563 
 5808      00
 5809 267a 8DB60000 		.align 32
 5809      0000
 5810              	LC73:
 5811 2680 0A09     		.ascii "\12\11"
 5812 2682 30782530 		.ascii "0x%02X, 0x%02X, 0x%02X, 0x%02X, 0x%02X, 0x00, 0x00, 0x00,\12\11\0"
 5812      32582C20 
 5812      30782530 
 5812      32582C20 
 5812      30782530 
 5813              	LC74:
 5814 26be 30782530 		.ascii "0x%02X, \0"
 5814      32582C20 
 5814      00
 5815              	LC75:
 5816 26c7 0A0900   		.ascii "\12\11\0"
 5822              	_Load_Audio_Data:
1985:../../MMI/Resource/WriteRes.c **** 
1986:../../MMI/Resource/WriteRes.c **** 
1987:../../MMI/Resource/WriteRes.c **** 
1988:../../MMI/Resource/WriteRes.c **** 
1989:../../MMI/Resource/WriteRes.c **** /*****************************************************************************
1990:../../MMI/Resource/WriteRes.c ****  * FUNCTION
1991:../../MMI/Resource/WriteRes.c ****  *  Load_Audio_Data
1992:../../MMI/Resource/WriteRes.c ****  * DESCRIPTION
1993:../../MMI/Resource/WriteRes.c ****  *  load and write audio header and data
1994:../../MMI/Resource/WriteRes.c ****  * PARAMETERS
GAS LISTING d:/software/ovi_2503a_s3trc/ovi_2503a_s3trc/plutommi/Customer/ResGenerator/gcctmp/ccWMaaaa.s 			page 99


1995:../../MMI/Resource/WriteRes.c ****  *  output_file             [IN]        -> Name of the file to which buffer
1996:../../MMI/Resource/WriteRes.c ****  *  input_file              [IN]        ->  Name of the input audio file
1997:../../MMI/Resource/WriteRes.c ****  *  audio_identifier        [IN]        -> audio identifier
1998:../../MMI/Resource/WriteRes.c ****  *  is(?)                   [IN]        To be written
1999:../../MMI/Resource/WriteRes.c ****  * RETURNS
2000:../../MMI/Resource/WriteRes.c ****  *  S32 --> file size
2001:../../MMI/Resource/WriteRes.c ****  *****************************************************************************/
2002:../../MMI/Resource/WriteRes.c **** static S32 Load_Audio_Data(
2003:../../MMI/Resource/WriteRes.c ****         FILE *output_file,
2004:../../MMI/Resource/WriteRes.c ****         FILE *input_file,
2005:../../MMI/Resource/WriteRes.c ****         U8 audio_identifier)
2006:../../MMI/Resource/WriteRes.c **** {
 5824              	LM382:
 5825 26ca 55       		pushl	%ebp
 5826 26cb 89E5     		movl	%esp, %ebp
 5827 26cd 83EC58   		subl	$88, %esp
 5828 26d0 8B4510   		movl	16(%ebp), %eax
 5829 26d3 8845FF   		movb	%al, -1(%ebp)
2007:../../MMI/Resource/WriteRes.c ****     /*----------------------------------------------------------------*/
2008:../../MMI/Resource/WriteRes.c ****     /* Local Variables                                                */
2009:../../MMI/Resource/WriteRes.c ****     /*----------------------------------------------------------------*/
2010:../../MMI/Resource/WriteRes.c ****     U32 file_size, i, o = 0;
 5831              	LM383:
 5832              	LBB22:
 5833 26d6 C745F000 		movl	$0, -16(%ebp)
 5833      000000
2011:../../MMI/Resource/WriteRes.c ****     U8 ch;
2012:../../MMI/Resource/WriteRes.c ****     U32 size;
2013:../../MMI/Resource/WriteRes.c ****     S8 *source_buf = NULL, *work_buf = NULL;
 5835              	LM384:
 5836 26dd C745E400 		movl	$0, -28(%ebp)
 5836      000000
 5837 26e4 C745E000 		movl	$0, -32(%ebp)
 5837      000000
2014:../../MMI/Resource/WriteRes.c ****     CMIDI_Handle *cmidi_hdl;
2015:../../MMI/Resource/WriteRes.c **** 
2016:../../MMI/Resource/WriteRes.c ****     /*----------------------------------------------------------------*/
2017:../../MMI/Resource/WriteRes.c ****     /* Code Body                                                      */
2018:../../MMI/Resource/WriteRes.c ****     /*----------------------------------------------------------------*/
2019:../../MMI/Resource/WriteRes.c ****     fseek(input_file, 0, SEEK_END);
 5839              	LM385:
 5840 26eb C7442408 		movl	$2, 8(%esp)
 5840      02000000 
 5841 26f3 C7442404 		movl	$0, 4(%esp)
 5841      00000000 
 5842 26fb 8B450C   		movl	12(%ebp), %eax
 5843 26fe 890424   		movl	%eax, (%esp)
 5844 2701 E8000000 		call	_fseek
 5844      00
2020:../../MMI/Resource/WriteRes.c ****     file_size = ftell(input_file);
 5846              	LM386:
 5847 2706 8B450C   		movl	12(%ebp), %eax
 5848 2709 890424   		movl	%eax, (%esp)
 5849 270c E8000000 		call	_ftell
 5849      00
 5850 2711 8945F8   		movl	%eax, -8(%ebp)
2021:../../MMI/Resource/WriteRes.c ****     fseek(input_file, 0, SEEK_SET);
GAS LISTING d:/software/ovi_2503a_s3trc/ovi_2503a_s3trc/plutommi/Customer/ResGenerator/gcctmp/ccWMaaaa.s 			page 100


 5852              	LM387:
 5853 2714 C7442408 		movl	$0, 8(%esp)
 5853      00000000 
 5854 271c C7442404 		movl	$0, 4(%esp)
 5854      00000000 
 5855 2724 8B450C   		movl	12(%ebp), %eax
 5856 2727 890424   		movl	%eax, (%esp)
 5857 272a E8000000 		call	_fseek
 5857      00
2022:../../MMI/Resource/WriteRes.c **** 
2023:../../MMI/Resource/WriteRes.c **** 
2024:../../MMI/Resource/WriteRes.c ****     if (audio_identifier == AUDIO_TYPE_MID && g_force_ado_type != FORCE_ADO_MIDI)
 5859              	LM388:
 5860 272f 807DFF11 		cmpb	$17, -1(%ebp)
 5861 2733 0F85A503 		jne	L237
 5861      0000
 5862 2739 833D4000 		cmpl	$1, _g_force_ado_type
 5862      000001
 5863 2740 0F849803 		je	L237
 5863      0000
2025:../../MMI/Resource/WriteRes.c ****     {
2026:../../MMI/Resource/WriteRes.c ****         /* If mid file, convert to CMidi */
2027:../../MMI/Resource/WriteRes.c ****         source_buf = (S8*)malloc(file_size);
 5865              	LM389:
 5866 2746 8B45F8   		movl	-8(%ebp), %eax
 5867 2749 890424   		movl	%eax, (%esp)
 5868 274c E8000000 		call	_malloc
 5868      00
 5869 2751 8945E4   		movl	%eax, -28(%ebp)
2028:../../MMI/Resource/WriteRes.c ****         cmidi_hdl = (CMIDI_Handle*)malloc(sizeof(CMIDI_Handle));
 5871              	LM390:
 5872 2754 C7042410 		movl	$16, (%esp)
 5872      000000
 5873 275b E8000000 		call	_malloc
 5873      00
 5874 2760 8945DC   		movl	%eax, -36(%ebp)
2029:../../MMI/Resource/WriteRes.c ****         if (cmidi_hdl == NULL || source_buf == NULL)
 5876              	LM391:
 5877 2763 837DDC00 		cmpl	$0, -36(%ebp)
 5878 2767 7406     		je	L239
 5879 2769 837DE400 		cmpl	$0, -28(%ebp)
 5880 276d 7540     		jne	L238
 5881              	L239:
2030:../../MMI/Resource/WriteRes.c ****         {
2031:../../MMI/Resource/WriteRes.c ****             fprintf(stderr, "Load_Audio_Data cmidi_hdl memory not available\n");
 5883              	LM392:
 5884 276f C7442404 		movl	$LC62, 4(%esp)
 5884      00240000 
 5885 2777 A1000000 		movl	__imp___iob, %eax
 5885      00
 5886 277c 83C040   		addl	$64, %eax
 5887 277f 890424   		movl	%eax, (%esp)
 5888 2782 E8000000 		call	_fprintf
 5888      00
2032:../../MMI/Resource/WriteRes.c ****             RESWRI_LOG_E("Error!! Load_Audio_Data cmidi_hdl memory not available");
 5890              	LM393:
 5891 2787 C7442408 		movl	$LC63, 8(%esp)
GAS LISTING d:/software/ovi_2503a_s3trc/ovi_2503a_s3trc/plutommi/Customer/ResGenerator/gcctmp/ccWMaaaa.s 			page 101


 5891      40240000 
 5892 278f C7442404 		movl	$LC24, 4(%esp)
 5892      4A020000 
 5893 2797 C7042403 		movl	$3, (%esp)
 5893      000000
 5894 279e E8000000 		call	_reslog_adaptor_log
 5894      00
2033:../../MMI/Resource/WriteRes.c ****             exit(2);
 5896              	LM394:
 5897 27a3 C7042402 		movl	$2, (%esp)
 5897      000000
 5898 27aa E8000000 		call	_exit
 5898      00
 5899              	L238:
2034:../../MMI/Resource/WriteRes.c ****         }
2035:../../MMI/Resource/WriteRes.c ****         size = fread(source_buf, 1, file_size, input_file);
 5901              	LM395:
 5902 27af 8B450C   		movl	12(%ebp), %eax
 5903 27b2 8944240C 		movl	%eax, 12(%esp)
 5904 27b6 8B45F8   		movl	-8(%ebp), %eax
 5905 27b9 89442408 		movl	%eax, 8(%esp)
 5906 27bd C7442404 		movl	$1, 4(%esp)
 5906      01000000 
 5907 27c5 8B45E4   		movl	-28(%ebp), %eax
 5908 27c8 890424   		movl	%eax, (%esp)
 5909 27cb E8000000 		call	_fread
 5909      00
 5910 27d0 8945E8   		movl	%eax, -24(%ebp)
2036:../../MMI/Resource/WriteRes.c ****         if (size != file_size)
 5912              	LM396:
 5913 27d3 8B45E8   		movl	-24(%ebp), %eax
 5914 27d6 3B45F8   		cmpl	-8(%ebp), %eax
 5915 27d9 7440     		je	L240
2037:../../MMI/Resource/WriteRes.c ****         {
2038:../../MMI/Resource/WriteRes.c ****             fprintf(stderr, "Load_Audio_Data read file err\n");
 5917              	LM397:
 5918 27db C7442404 		movl	$LC64, 4(%esp)
 5918      80240000 
 5919 27e3 A1000000 		movl	__imp___iob, %eax
 5919      00
 5920 27e8 83C040   		addl	$64, %eax
 5921 27eb 890424   		movl	%eax, (%esp)
 5922 27ee E8000000 		call	_fprintf
 5922      00
2039:../../MMI/Resource/WriteRes.c ****             RESWRI_LOG_E("Error!! Load_Audio_Data read file err");
 5924              	LM398:
 5925 27f3 C7442408 		movl	$LC65, 8(%esp)
 5925      A0240000 
 5926 27fb C7442404 		movl	$LC24, 4(%esp)
 5926      4A020000 
 5927 2803 C7042403 		movl	$3, (%esp)
 5927      000000
 5928 280a E8000000 		call	_reslog_adaptor_log
 5928      00
2040:../../MMI/Resource/WriteRes.c ****             exit(2);
 5930              	LM399:
 5931 280f C7042402 		movl	$2, (%esp)
GAS LISTING d:/software/ovi_2503a_s3trc/ovi_2503a_s3trc/plutommi/Customer/ResGenerator/gcctmp/ccWMaaaa.s 			page 102


 5931      000000
 5932 2816 E8000000 		call	_exit
 5932      00
 5933              	L240:
2041:../../MMI/Resource/WriteRes.c ****         }
2042:../../MMI/Resource/WriteRes.c ****         
2043:../../MMI/Resource/WriteRes.c ****         cmidi_hdl->file_len = file_size;
 5935              	LM400:
 5936 281b 8B55DC   		movl	-36(%ebp), %edx
 5937 281e 8B45F8   		movl	-8(%ebp), %eax
 5938 2821 894204   		movl	%eax, 4(%edx)
2044:../../MMI/Resource/WriteRes.c ****         cmidi_hdl->midifile = source_buf;
 5940              	LM401:
 5941 2824 8B55DC   		movl	-36(%ebp), %edx
 5942 2827 8B45E4   		movl	-28(%ebp), %eax
 5943 282a 8902     		movl	%eax, (%edx)
2045:../../MMI/Resource/WriteRes.c ****         cmidi_hdl->blockperiod = 18;
 5945              	LM402:
 5946 282c 8B45DC   		movl	-36(%ebp), %eax
 5947 282f C7400812 		movl	$18, 8(%eax)
 5947      000000
2046:../../MMI/Resource/WriteRes.c **** 
2047:../../MMI/Resource/WriteRes.c ****         RESWRI_LOG_V("Load_Audio_Data(): file size = %d bytes, trying to get size of work_buf with 
 5949              	LM403:
 5950 2836 8B45F8   		movl	-8(%ebp), %eax
 5951 2839 8944240C 		movl	%eax, 12(%esp)
 5952 283d C7442408 		movl	$LC66, 8(%esp)
 5952      E0240000 
 5953 2845 C7442404 		movl	$LC24, 4(%esp)
 5953      4A020000 
 5954 284d C7042401 		movl	$1, (%esp)
 5954      000000
 5955 2854 E8000000 		call	_reslog_adaptor_log
 5955      00
2048:../../MMI/Resource/WriteRes.c ****         CMIDI_GetBufSize(cmidi_hdl, &size);
 5957              	LM404:
 5958 2859 8D45E8   		leal	-24(%ebp), %eax
 5959 285c 89442404 		movl	%eax, 4(%esp)
 5960 2860 8B45DC   		movl	-36(%ebp), %eax
 5961 2863 890424   		movl	%eax, (%esp)
 5962 2866 E8000000 		call	_CMIDI_GetBufSize
 5962      00
2049:../../MMI/Resource/WriteRes.c ****         work_buf= (S8*)malloc(sizeof(unsigned char)*size);
 5964              	LM405:
 5965 286b 8B45E8   		movl	-24(%ebp), %eax
 5966 286e 890424   		movl	%eax, (%esp)
 5967 2871 E8000000 		call	_malloc
 5967      00
 5968 2876 8945E0   		movl	%eax, -32(%ebp)
2050:../../MMI/Resource/WriteRes.c ****         RESWRI_LOG_V("Load_Audio_Data(): Got work_buf: ADDR = %x, size = %d (bytes)", work_buf,  si
 5970              	LM406:
 5971 2879 8B45E8   		movl	-24(%ebp), %eax
 5972 287c 89442410 		movl	%eax, 16(%esp)
 5973 2880 8B45E0   		movl	-32(%ebp), %eax
 5974 2883 8944240C 		movl	%eax, 12(%esp)
 5975 2887 C7442408 		movl	$LC67, 8(%esp)
 5975      40250000 
GAS LISTING d:/software/ovi_2503a_s3trc/ovi_2503a_s3trc/plutommi/Customer/ResGenerator/gcctmp/ccWMaaaa.s 			page 103


 5976 288f C7442404 		movl	$LC24, 4(%esp)
 5976      4A020000 
 5977 2897 C7042401 		movl	$1, (%esp)
 5977      000000
 5978 289e E8000000 		call	_reslog_adaptor_log
 5978      00
2051:../../MMI/Resource/WriteRes.c **** 
2052:../../MMI/Resource/WriteRes.c ****         if (work_buf == NULL)
 5980              	LM407:
 5981 28a3 837DE000 		cmpl	$0, -32(%ebp)
 5982 28a7 7540     		jne	L241
2053:../../MMI/Resource/WriteRes.c ****         {
2054:../../MMI/Resource/WriteRes.c ****             fprintf(stderr, "Load_Audio_Data work_buf memory not available\n");
 5984              	LM408:
 5985 28a9 C7442404 		movl	$LC68, 4(%esp)
 5985      80250000 
 5986 28b1 A1000000 		movl	__imp___iob, %eax
 5986      00
 5987 28b6 83C040   		addl	$64, %eax
 5988 28b9 890424   		movl	%eax, (%esp)
 5989 28bc E8000000 		call	_fprintf
 5989      00
2055:../../MMI/Resource/WriteRes.c ****             RESWRI_LOG_E("Error!! Load_Audio_Data work_buf memory not available");
 5991              	LM409:
 5992 28c1 C7442408 		movl	$LC69, 8(%esp)
 5992      C0250000 
 5993 28c9 C7442404 		movl	$LC24, 4(%esp)
 5993      4A020000 
 5994 28d1 C7042403 		movl	$3, (%esp)
 5994      000000
 5995 28d8 E8000000 		call	_reslog_adaptor_log
 5995      00
2056:../../MMI/Resource/WriteRes.c ****             exit(2);
 5997              	LM410:
 5998 28dd C7042402 		movl	$2, (%esp)
 5998      000000
 5999 28e4 E8000000 		call	_exit
 5999      00
 6000              	L241:
2057:../../MMI/Resource/WriteRes.c ****         }
2058:../../MMI/Resource/WriteRes.c **** 
2059:../../MMI/Resource/WriteRes.c ****         if (!CMIDI_Convert(cmidi_hdl, work_buf, &size))
 6002              	LM411:
 6003 28e9 8D45E8   		leal	-24(%ebp), %eax
 6004 28ec 89442408 		movl	%eax, 8(%esp)
 6005 28f0 8B45E0   		movl	-32(%ebp), %eax
 6006 28f3 89442404 		movl	%eax, 4(%esp)
 6007 28f7 8B45DC   		movl	-36(%ebp), %eax
 6008 28fa 890424   		movl	%eax, (%esp)
 6009 28fd E8000000 		call	_CMIDI_Convert
 6009      00
 6010 2902 85C0     		testl	%eax, %eax
 6011 2904 7561     		jne	L242
2060:../../MMI/Resource/WriteRes.c ****         {
2061:../../MMI/Resource/WriteRes.c ****             free(source_buf);
 6013              	LM412:
 6014 2906 8B45E4   		movl	-28(%ebp), %eax
GAS LISTING d:/software/ovi_2503a_s3trc/ovi_2503a_s3trc/plutommi/Customer/ResGenerator/gcctmp/ccWMaaaa.s 			page 104


 6015 2909 890424   		movl	%eax, (%esp)
 6016 290c E8000000 		call	_free
 6016      00
2062:../../MMI/Resource/WriteRes.c ****             free(cmidi_hdl);
 6018              	LM413:
 6019 2911 8B45DC   		movl	-36(%ebp), %eax
 6020 2914 890424   		movl	%eax, (%esp)
 6021 2917 E8000000 		call	_free
 6021      00
2063:../../MMI/Resource/WriteRes.c ****             free(work_buf);
 6023              	LM414:
 6024 291c 8B45E0   		movl	-32(%ebp), %eax
 6025 291f 890424   		movl	%eax, (%esp)
 6026 2922 E8000000 		call	_free
 6026      00
2064:../../MMI/Resource/WriteRes.c **** 
2065:../../MMI/Resource/WriteRes.c ****             fprintf(stderr, "Load_Audio_Data midi convert err\n");
 6028              	LM415:
 6029 2927 C7442404 		movl	$LC70, 4(%esp)
 6029      00260000 
 6030 292f A1000000 		movl	__imp___iob, %eax
 6030      00
 6031 2934 83C040   		addl	$64, %eax
 6032 2937 890424   		movl	%eax, (%esp)
 6033 293a E8000000 		call	_fprintf
 6033      00
2066:../../MMI/Resource/WriteRes.c ****             RESWRI_LOG_E("Error!! Load_Audio_Data midi convert err");
 6035              	LM416:
 6036 293f C7442408 		movl	$LC71, 8(%esp)
 6036      40260000 
 6037 2947 C7442404 		movl	$LC24, 4(%esp)
 6037      4A020000 
 6038 294f C7042403 		movl	$3, (%esp)
 6038      000000
 6039 2956 E8000000 		call	_reslog_adaptor_log
 6039      00
2067:../../MMI/Resource/WriteRes.c ****             exit(2);
 6041              	LM417:
 6042 295b C7042402 		movl	$2, (%esp)
 6042      000000
 6043 2962 E8000000 		call	_exit
 6043      00
 6044              	L242:
2068:../../MMI/Resource/WriteRes.c ****         }
2069:../../MMI/Resource/WriteRes.c **** 
2070:../../MMI/Resource/WriteRes.c ****         if (toolFlag)
 6046              	LM418:
 6047 2967 833D0000 		cmpl	$0, _toolFlag
 6047      000000
 6048 296e 746C     		je	L243
2071:../../MMI/Resource/WriteRes.c ****         {
2072:../../MMI/Resource/WriteRes.c ****             fprintf(
 6050              	LM419:
 6051 2970 C7442424 		movl	$0, 36(%esp)
 6051      00000000 
 6052 2978 C7442420 		movl	$0, 32(%esp)
 6052      00000000 
GAS LISTING d:/software/ovi_2503a_s3trc/ovi_2503a_s3trc/plutommi/Customer/ResGenerator/gcctmp/ccWMaaaa.s 			page 105


 6053 2980 C744241C 		movl	$0, 28(%esp)
 6053      00000000 
 6054 2988 8B45E8   		movl	-24(%ebp), %eax
 6055 298b 25000000 		andl	$-16777216, %eax
 6055      FF
 6056 2990 C1E818   		shrl	$24, %eax
 6057 2993 89442418 		movl	%eax, 24(%esp)
 6058 2997 8B45E8   		movl	-24(%ebp), %eax
 6059 299a 250000FF 		andl	$16711680, %eax
 6059      00
 6060 299f C1E810   		shrl	$16, %eax
 6061 29a2 89442414 		movl	%eax, 20(%esp)
 6062 29a6 8B45E8   		movl	-24(%ebp), %eax
 6063 29a9 2500FF00 		andl	$65280, %eax
 6063      00
 6064 29ae C1E808   		shrl	$8, %eax
 6065 29b1 89442410 		movl	%eax, 16(%esp)
 6066 29b5 0FB645E8 		movzbl	-24(%ebp),%eax
 6067 29b9 8944240C 		movl	%eax, 12(%esp)
 6068 29bd 0FB645FF 		movzbl	-1(%ebp), %eax
 6069 29c1 89442408 		movl	%eax, 8(%esp)
 6070 29c5 C7442404 		movl	$LC72, 4(%esp)
 6070      69260000 
 6071 29cd A1000000 		movl	_dest_file, %eax
 6071      00
 6072 29d2 890424   		movl	%eax, (%esp)
 6073 29d5 E8000000 		call	_fprintf
 6073      00
 6074 29da EB50     		jmp	L244
 6075              	L243:
2073:../../MMI/Resource/WriteRes.c ****                 dest_file,
2074:../../MMI/Resource/WriteRes.c ****                 "%c%c%c%c%c%c%c%c",
2075:../../MMI/Resource/WriteRes.c ****                 audio_identifier,
2076:../../MMI/Resource/WriteRes.c ****                 size & 0xff,
2077:../../MMI/Resource/WriteRes.c ****                 (size & 0xff00) >> 8,
2078:../../MMI/Resource/WriteRes.c ****                 (size & 0xff0000) >> 16,
2079:../../MMI/Resource/WriteRes.c ****                 (size & 0xff000000) >> 24,
2080:../../MMI/Resource/WriteRes.c ****                 0,
2081:../../MMI/Resource/WriteRes.c ****                 0,
2082:../../MMI/Resource/WriteRes.c ****                 0);
2083:../../MMI/Resource/WriteRes.c ****         }
2084:../../MMI/Resource/WriteRes.c ****         else
2085:../../MMI/Resource/WriteRes.c ****         {
2086:../../MMI/Resource/WriteRes.c ****             fprintf(
 6077              	LM420:
 6078 29dc 8B45E8   		movl	-24(%ebp), %eax
 6079 29df 25000000 		andl	$-16777216, %eax
 6079      FF
 6080 29e4 C1E818   		shrl	$24, %eax
 6081 29e7 89442418 		movl	%eax, 24(%esp)
 6082 29eb 8B45E8   		movl	-24(%ebp), %eax
 6083 29ee 250000FF 		andl	$16711680, %eax
 6083      00
 6084 29f3 C1E810   		shrl	$16, %eax
 6085 29f6 89442414 		movl	%eax, 20(%esp)
 6086 29fa 8B45E8   		movl	-24(%ebp), %eax
 6087 29fd 2500FF00 		andl	$65280, %eax
GAS LISTING d:/software/ovi_2503a_s3trc/ovi_2503a_s3trc/plutommi/Customer/ResGenerator/gcctmp/ccWMaaaa.s 			page 106


 6087      00
 6088 2a02 C1E808   		shrl	$8, %eax
 6089 2a05 89442410 		movl	%eax, 16(%esp)
 6090 2a09 0FB645E8 		movzbl	-24(%ebp),%eax
 6091 2a0d 8944240C 		movl	%eax, 12(%esp)
 6092 2a11 0FB645FF 		movzbl	-1(%ebp), %eax
 6093 2a15 89442408 		movl	%eax, 8(%esp)
 6094 2a19 C7442404 		movl	$LC73, 4(%esp)
 6094      80260000 
 6095 2a21 8B4508   		movl	8(%ebp), %eax
 6096 2a24 890424   		movl	%eax, (%esp)
 6097 2a27 E8000000 		call	_fprintf
 6097      00
 6098              	L244:
2087:../../MMI/Resource/WriteRes.c ****                 output_file,
2088:../../MMI/Resource/WriteRes.c ****                 "\n\t0x%02X, 0x%02X, 0x%02X, 0x%02X, 0x%02X, 0x00, 0x00, 0x00,\n\t",
2089:../../MMI/Resource/WriteRes.c ****                 audio_identifier,
2090:../../MMI/Resource/WriteRes.c ****                 size & 0xff,
2091:../../MMI/Resource/WriteRes.c ****                 (size & 0xff00) >> 8,
2092:../../MMI/Resource/WriteRes.c ****                 (size & 0xff0000) >> 16,
2093:../../MMI/Resource/WriteRes.c ****                 (size & 0xff000000) >> 24);
2094:../../MMI/Resource/WriteRes.c ****         }
2095:../../MMI/Resource/WriteRes.c **** 
2096:../../MMI/Resource/WriteRes.c ****         for (i = 0; i < size; i++)
 6100              	LM421:
 6101 2a2c C745F400 		movl	$0, -12(%ebp)
 6101      000000
 6102              	L245:
 6103 2a33 8B45F4   		movl	-12(%ebp), %eax
 6104 2a36 3B45E8   		cmpl	-24(%ebp), %eax
 6105 2a39 7202     		jb	L248
 6106 2a3b EB72     		jmp	L246
 6107              	L248:
2097:../../MMI/Resource/WriteRes.c ****         {
2098:../../MMI/Resource/WriteRes.c ****             if (toolFlag)
 6109              	LM422:
 6110 2a3d 833D0000 		cmpl	$0, _toolFlag
 6110      000000
 6111 2a44 741E     		je	L249
2099:../../MMI/Resource/WriteRes.c ****             {
2100:../../MMI/Resource/WriteRes.c ****                 fputc(cmidi_hdl->midifile[i], dest_file);
 6113              	LM423:
 6114 2a46 A1000000 		movl	_dest_file, %eax
 6114      00
 6115 2a4b 89442404 		movl	%eax, 4(%esp)
 6116 2a4f 8B55DC   		movl	-36(%ebp), %edx
 6117 2a52 8B45F4   		movl	-12(%ebp), %eax
 6118 2a55 0302     		addl	(%edx), %eax
 6119 2a57 0FB600   		movzbl	(%eax), %eax
 6120 2a5a 890424   		movl	%eax, (%esp)
 6121 2a5d E8000000 		call	_fputc
 6121      00
 6122 2a62 EB44     		jmp	L247
 6123              	L249:
2101:../../MMI/Resource/WriteRes.c ****             }
2102:../../MMI/Resource/WriteRes.c ****             else
2103:../../MMI/Resource/WriteRes.c ****             {
GAS LISTING d:/software/ovi_2503a_s3trc/ovi_2503a_s3trc/plutommi/Customer/ResGenerator/gcctmp/ccWMaaaa.s 			page 107


2104:../../MMI/Resource/WriteRes.c ****                 fprintf(output_file, "0x%02X, ", cmidi_hdl->midifile[i]);
 6125              	LM424:
 6126 2a64 8B55DC   		movl	-36(%ebp), %edx
 6127 2a67 8B45F4   		movl	-12(%ebp), %eax
 6128 2a6a 0302     		addl	(%edx), %eax
 6129 2a6c 0FB600   		movzbl	(%eax), %eax
 6130 2a6f 89442408 		movl	%eax, 8(%esp)
 6131 2a73 C7442404 		movl	$LC74, 4(%esp)
 6131      BE260000 
 6132 2a7b 8B4508   		movl	8(%ebp), %eax
 6133 2a7e 890424   		movl	%eax, (%esp)
 6134 2a81 E8000000 		call	_fprintf
 6134      00
2105:../../MMI/Resource/WriteRes.c ****                 o++;
 6136              	LM425:
 6137 2a86 8D45F0   		leal	-16(%ebp), %eax
 6138 2a89 FF00     		incl	(%eax)
2106:../../MMI/Resource/WriteRes.c ****                 if ((o % 16) == 0)
 6140              	LM426:
 6141 2a8b 8B45F0   		movl	-16(%ebp), %eax
 6142 2a8e 83E00F   		andl	$15, %eax
 6143 2a91 85C0     		testl	%eax, %eax
 6144 2a93 7513     		jne	L247
2107:../../MMI/Resource/WriteRes.c ****                 {
2108:../../MMI/Resource/WriteRes.c ****                     fprintf(output_file, "\n\t");
 6146              	LM427:
 6147 2a95 C7442404 		movl	$LC75, 4(%esp)
 6147      C7260000 
 6148 2a9d 8B4508   		movl	8(%ebp), %eax
 6149 2aa0 890424   		movl	%eax, (%esp)
 6150 2aa3 E8000000 		call	_fprintf
 6150      00
 6152              	LM428:
 6153              	L247:
 6154 2aa8 8D45F4   		leal	-12(%ebp), %eax
 6155 2aab FF00     		incl	(%eax)
 6156 2aad EB84     		jmp	L245
 6157              	L246:
2109:../../MMI/Resource/WriteRes.c ****                 }
2110:../../MMI/Resource/WriteRes.c ****             }
2111:../../MMI/Resource/WriteRes.c ****         }
2112:../../MMI/Resource/WriteRes.c **** 
2113:../../MMI/Resource/WriteRes.c ****         free(source_buf);
 6159              	LM429:
 6160 2aaf 8B45E4   		movl	-28(%ebp), %eax
 6161 2ab2 890424   		movl	%eax, (%esp)
 6162 2ab5 E8000000 		call	_free
 6162      00
2114:../../MMI/Resource/WriteRes.c ****         free(cmidi_hdl);
 6164              	LM430:
 6165 2aba 8B45DC   		movl	-36(%ebp), %eax
 6166 2abd 890424   		movl	%eax, (%esp)
 6167 2ac0 E8000000 		call	_free
 6167      00
2115:../../MMI/Resource/WriteRes.c ****         free(work_buf);
 6169              	LM431:
 6170 2ac5 8B45E0   		movl	-32(%ebp), %eax
GAS LISTING d:/software/ovi_2503a_s3trc/ovi_2503a_s3trc/plutommi/Customer/ResGenerator/gcctmp/ccWMaaaa.s 			page 108


 6171 2ac8 890424   		movl	%eax, (%esp)
 6172 2acb E8000000 		call	_free
 6172      00
2116:../../MMI/Resource/WriteRes.c **** 
2117:../../MMI/Resource/WriteRes.c ****         return size + 8;
 6174              	LM432:
 6175 2ad0 8B45E8   		movl	-24(%ebp), %eax
 6176 2ad3 83C008   		addl	$8, %eax
 6177 2ad6 8945D8   		movl	%eax, -40(%ebp)
 6178 2ad9 E9510100 		jmp	L236
 6178      00
 6179              	L237:
2118:../../MMI/Resource/WriteRes.c **** 
2119:../../MMI/Resource/WriteRes.c ****     }
2120:../../MMI/Resource/WriteRes.c ****     else
2121:../../MMI/Resource/WriteRes.c ****     {
2122:../../MMI/Resource/WriteRes.c ****         if (toolFlag)
 6181              	LM433:
 6182 2ade 833D0000 		cmpl	$0, _toolFlag
 6182      000000
 6183 2ae5 746C     		je	L253
2123:../../MMI/Resource/WriteRes.c ****         {
2124:../../MMI/Resource/WriteRes.c ****             fprintf(
 6185              	LM434:
 6186 2ae7 C7442424 		movl	$0, 36(%esp)
 6186      00000000 
 6187 2aef C7442420 		movl	$0, 32(%esp)
 6187      00000000 
 6188 2af7 C744241C 		movl	$0, 28(%esp)
 6188      00000000 
 6189 2aff 8B45F8   		movl	-8(%ebp), %eax
 6190 2b02 25000000 		andl	$-16777216, %eax
 6190      FF
 6191 2b07 C1E818   		shrl	$24, %eax
 6192 2b0a 89442418 		movl	%eax, 24(%esp)
 6193 2b0e 8B45F8   		movl	-8(%ebp), %eax
 6194 2b11 250000FF 		andl	$16711680, %eax
 6194      00
 6195 2b16 C1E810   		shrl	$16, %eax
 6196 2b19 89442414 		movl	%eax, 20(%esp)
 6197 2b1d 8B45F8   		movl	-8(%ebp), %eax
 6198 2b20 2500FF00 		andl	$65280, %eax
 6198      00
 6199 2b25 C1E808   		shrl	$8, %eax
 6200 2b28 89442410 		movl	%eax, 16(%esp)
 6201 2b2c 0FB645F8 		movzbl	-8(%ebp),%eax
 6202 2b30 8944240C 		movl	%eax, 12(%esp)
 6203 2b34 0FB645FF 		movzbl	-1(%ebp), %eax
 6204 2b38 89442408 		movl	%eax, 8(%esp)
 6205 2b3c C7442404 		movl	$LC72, 4(%esp)
 6205      69260000 
 6206 2b44 A1000000 		movl	_dest_file, %eax
 6206      00
 6207 2b49 890424   		movl	%eax, (%esp)
 6208 2b4c E8000000 		call	_fprintf
 6208      00
 6209 2b51 EB50     		jmp	L254
GAS LISTING d:/software/ovi_2503a_s3trc/ovi_2503a_s3trc/plutommi/Customer/ResGenerator/gcctmp/ccWMaaaa.s 			page 109


 6210              	L253:
2125:../../MMI/Resource/WriteRes.c ****                 dest_file,
2126:../../MMI/Resource/WriteRes.c ****                 "%c%c%c%c%c%c%c%c",
2127:../../MMI/Resource/WriteRes.c ****                 audio_identifier,
2128:../../MMI/Resource/WriteRes.c ****                 file_size & 0xff,
2129:../../MMI/Resource/WriteRes.c ****                 (file_size & 0xff00) >> 8,
2130:../../MMI/Resource/WriteRes.c ****                 (file_size & 0xff0000) >> 16,
2131:../../MMI/Resource/WriteRes.c ****                 (file_size & 0xff000000) >> 24,
2132:../../MMI/Resource/WriteRes.c ****                 0,
2133:../../MMI/Resource/WriteRes.c ****                 0,
2134:../../MMI/Resource/WriteRes.c ****                 0);
2135:../../MMI/Resource/WriteRes.c ****         }
2136:../../MMI/Resource/WriteRes.c ****         else
2137:../../MMI/Resource/WriteRes.c ****         {
2138:../../MMI/Resource/WriteRes.c ****             fprintf(
 6212              	LM435:
 6213 2b53 8B45F8   		movl	-8(%ebp), %eax
 6214 2b56 25000000 		andl	$-16777216, %eax
 6214      FF
 6215 2b5b C1E818   		shrl	$24, %eax
 6216 2b5e 89442418 		movl	%eax, 24(%esp)
 6217 2b62 8B45F8   		movl	-8(%ebp), %eax
 6218 2b65 250000FF 		andl	$16711680, %eax
 6218      00
 6219 2b6a C1E810   		shrl	$16, %eax
 6220 2b6d 89442414 		movl	%eax, 20(%esp)
 6221 2b71 8B45F8   		movl	-8(%ebp), %eax
 6222 2b74 2500FF00 		andl	$65280, %eax
 6222      00
 6223 2b79 C1E808   		shrl	$8, %eax
 6224 2b7c 89442410 		movl	%eax, 16(%esp)
 6225 2b80 0FB645F8 		movzbl	-8(%ebp),%eax
 6226 2b84 8944240C 		movl	%eax, 12(%esp)
 6227 2b88 0FB645FF 		movzbl	-1(%ebp), %eax
 6228 2b8c 89442408 		movl	%eax, 8(%esp)
 6229 2b90 C7442404 		movl	$LC73, 4(%esp)
 6229      80260000 
 6230 2b98 8B4508   		movl	8(%ebp), %eax
 6231 2b9b 890424   		movl	%eax, (%esp)
 6232 2b9e E8000000 		call	_fprintf
 6232      00
 6233              	L254:
2139:../../MMI/Resource/WriteRes.c ****                 output_file,
2140:../../MMI/Resource/WriteRes.c ****                 "\n\t0x%02X, 0x%02X, 0x%02X, 0x%02X, 0x%02X, 0x00, 0x00, 0x00,\n\t",
2141:../../MMI/Resource/WriteRes.c ****                 audio_identifier,
2142:../../MMI/Resource/WriteRes.c ****                 file_size & 0xff,
2143:../../MMI/Resource/WriteRes.c ****                 (file_size & 0xff00) >> 8,
2144:../../MMI/Resource/WriteRes.c ****                 (file_size & 0xff0000) >> 16,
2145:../../MMI/Resource/WriteRes.c ****                 (file_size & 0xff000000) >> 24);
2146:../../MMI/Resource/WriteRes.c ****         }
2147:../../MMI/Resource/WriteRes.c **** 
2148:../../MMI/Resource/WriteRes.c ****         for (i = 0; i < file_size; i++)
 6235              	LM436:
 6236 2ba3 C745F400 		movl	$0, -12(%ebp)
 6236      000000
 6237              	L255:
 6238 2baa 8B45F4   		movl	-12(%ebp), %eax
GAS LISTING d:/software/ovi_2503a_s3trc/ovi_2503a_s3trc/plutommi/Customer/ResGenerator/gcctmp/ccWMaaaa.s 			page 110


 6239 2bad 3B45F8   		cmpl	-8(%ebp), %eax
 6240 2bb0 7202     		jb	L258
 6241 2bb2 EB72     		jmp	L256
 6242              	L258:
2149:../../MMI/Resource/WriteRes.c ****         {
2150:../../MMI/Resource/WriteRes.c ****             ch = fgetc(input_file);
 6244              	LM437:
 6245 2bb4 8B450C   		movl	12(%ebp), %eax
 6246 2bb7 890424   		movl	%eax, (%esp)
 6247 2bba E8000000 		call	_fgetc
 6247      00
 6248 2bbf 8845EF   		movb	%al, -17(%ebp)
2151:../../MMI/Resource/WriteRes.c **** 
2152:../../MMI/Resource/WriteRes.c ****             if (toolFlag)
 6250              	LM438:
 6251 2bc2 833D0000 		cmpl	$0, _toolFlag
 6251      000000
 6252 2bc9 7417     		je	L259
2153:../../MMI/Resource/WriteRes.c ****             {
2154:../../MMI/Resource/WriteRes.c ****                 fputc(ch, dest_file);
 6254              	LM439:
 6255 2bcb A1000000 		movl	_dest_file, %eax
 6255      00
 6256 2bd0 89442404 		movl	%eax, 4(%esp)
 6257 2bd4 0FB645EF 		movzbl	-17(%ebp), %eax
 6258 2bd8 890424   		movl	%eax, (%esp)
 6259 2bdb E8000000 		call	_fputc
 6259      00
 6260 2be0 EB3D     		jmp	L257
 6261              	L259:
2155:../../MMI/Resource/WriteRes.c ****             }
2156:../../MMI/Resource/WriteRes.c ****             else
2157:../../MMI/Resource/WriteRes.c ****             {
2158:../../MMI/Resource/WriteRes.c ****                 fprintf(output_file, "0x%02X, ", ch);
 6263              	LM440:
 6264 2be2 0FB645EF 		movzbl	-17(%ebp), %eax
 6265 2be6 89442408 		movl	%eax, 8(%esp)
 6266 2bea C7442404 		movl	$LC74, 4(%esp)
 6266      BE260000 
 6267 2bf2 8B4508   		movl	8(%ebp), %eax
 6268 2bf5 890424   		movl	%eax, (%esp)
 6269 2bf8 E8000000 		call	_fprintf
 6269      00
2159:../../MMI/Resource/WriteRes.c ****                 o++;
 6271              	LM441:
 6272 2bfd 8D45F0   		leal	-16(%ebp), %eax
 6273 2c00 FF00     		incl	(%eax)
2160:../../MMI/Resource/WriteRes.c ****                 if ((o % 16) == 0)
 6275              	LM442:
 6276 2c02 8B45F0   		movl	-16(%ebp), %eax
 6277 2c05 83E00F   		andl	$15, %eax
 6278 2c08 85C0     		testl	%eax, %eax
 6279 2c0a 7513     		jne	L257
2161:../../MMI/Resource/WriteRes.c ****                 {
2162:../../MMI/Resource/WriteRes.c ****                     fprintf(output_file, "\n\t");
 6281              	LM443:
 6282 2c0c C7442404 		movl	$LC75, 4(%esp)
GAS LISTING d:/software/ovi_2503a_s3trc/ovi_2503a_s3trc/plutommi/Customer/ResGenerator/gcctmp/ccWMaaaa.s 			page 111


 6282      C7260000 
 6283 2c14 8B4508   		movl	8(%ebp), %eax
 6284 2c17 890424   		movl	%eax, (%esp)
 6285 2c1a E8000000 		call	_fprintf
 6285      00
 6287              	LM444:
 6288              	L257:
 6289 2c1f 8D45F4   		leal	-12(%ebp), %eax
 6290 2c22 FF00     		incl	(%eax)
 6291 2c24 EB84     		jmp	L255
 6292              	L256:
2163:../../MMI/Resource/WriteRes.c ****                 }
2164:../../MMI/Resource/WriteRes.c ****             }
2165:../../MMI/Resource/WriteRes.c ****         }
2166:../../MMI/Resource/WriteRes.c **** 
2167:../../MMI/Resource/WriteRes.c ****         return file_size + 8;
 6294              	LM445:
 6295 2c26 8B45F8   		movl	-8(%ebp), %eax
 6296 2c29 83C008   		addl	$8, %eax
 6297 2c2c 8945D8   		movl	%eax, -40(%ebp)
2168:../../MMI/Resource/WriteRes.c **** 
2169:../../MMI/Resource/WriteRes.c ****     }
2170:../../MMI/Resource/WriteRes.c **** }
 6299              	LM446:
 6300              	L236:
 6301              	LBE22:
 6302 2c2f 8B45D8   		movl	-40(%ebp), %eax
 6303 2c32 C9       		leave
 6304 2c33 C3       		ret
 6316              	Lscope20:
 6322              	.globl _Extract_Name
 6324              	_Extract_Name:
2171:../../MMI/Resource/WriteRes.c **** 
2172:../../MMI/Resource/WriteRes.c **** 
2173:../../MMI/Resource/WriteRes.c **** /*****************************************************************************
2174:../../MMI/Resource/WriteRes.c ****  * FUNCTION
2175:../../MMI/Resource/WriteRes.c ****  *  Extract_Name
2176:../../MMI/Resource/WriteRes.c ****  * DESCRIPTION
2177:../../MMI/Resource/WriteRes.c ****  *  Exract image name from the supplied string
2178:../../MMI/Resource/WriteRes.c ****  * PARAMETERS
2179:../../MMI/Resource/WriteRes.c ****  *  dest            [OUT]       -> Extrected file name from string
2180:../../MMI/Resource/WriteRes.c ****  *  src             [IN]        -> string containing file name and path
2181:../../MMI/Resource/WriteRes.c ****  * RETURNS
2182:../../MMI/Resource/WriteRes.c ****  *  void
2183:../../MMI/Resource/WriteRes.c ****  *****************************************************************************/
2184:../../MMI/Resource/WriteRes.c **** void Extract_Name(S8 *dest, S8 *src, U32 ExtFlag)
2185:../../MMI/Resource/WriteRes.c **** {
 6326              	LM447:
 6327 2c34 55       		pushl	%ebp
 6328 2c35 89E5     		movl	%esp, %ebp
 6329 2c37 53       		pushl	%ebx
 6330 2c38 83EC14   		subl	$20, %esp
2186:../../MMI/Resource/WriteRes.c ****     /*----------------------------------------------------------------*/
2187:../../MMI/Resource/WriteRes.c ****     /* Local Variables                                                */
2188:../../MMI/Resource/WriteRes.c ****     /*----------------------------------------------------------------*/
2189:../../MMI/Resource/WriteRes.c ****     U32 iLen = strlen(src);
 6332              	LM448:
GAS LISTING d:/software/ovi_2503a_s3trc/ovi_2503a_s3trc/plutommi/Customer/ResGenerator/gcctmp/ccWMaaaa.s 			page 112


 6333              	LBB23:
 6334 2c3b 8B450C   		movl	12(%ebp), %eax
 6335 2c3e 890424   		movl	%eax, (%esp)
 6336 2c41 E8000000 		call	_strlen
 6336      00
 6337 2c46 8945F8   		movl	%eax, -8(%ebp)
2190:../../MMI/Resource/WriteRes.c ****     U16 nCount = 0;
 6339              	LM449:
 6340 2c49 66C745F6 		movw	$0, -10(%ebp)
 6340      0000
2191:../../MMI/Resource/WriteRes.c **** 
2192:../../MMI/Resource/WriteRes.c ****     /*----------------------------------------------------------------*/
2193:../../MMI/Resource/WriteRes.c ****     /* Code Body                                                      */
2194:../../MMI/Resource/WriteRes.c ****     /*----------------------------------------------------------------*/
2195:../../MMI/Resource/WriteRes.c ****     while (iLen)
 6342              	LM450:
 6343              	L263:
 6344 2c4f 837DF800 		cmpl	$0, -8(%ebp)
 6345 2c53 7502     		jne	L265
 6346 2c55 EB68     		jmp	L264
 6347              	L265:
2196:../../MMI/Resource/WriteRes.c ****     {
2197:../../MMI/Resource/WriteRes.c ****         if ((src[nCount] == '.') || (src[nCount] == '-') || (src[nCount] == ' ') || (src[nCount] ==
 6349              	LM451:
 6350 2c57 0FB755F6 		movzwl	-10(%ebp), %edx
 6351 2c5b 8B450C   		movl	12(%ebp), %eax
 6352 2c5e 803C022E 		cmpb	$46, (%edx,%eax)
 6353 2c62 7429     		je	L267
 6354 2c64 0FB755F6 		movzwl	-10(%ebp), %edx
 6355 2c68 8B450C   		movl	12(%ebp), %eax
 6356 2c6b 803C022D 		cmpb	$45, (%edx,%eax)
 6357 2c6f 741C     		je	L267
 6358 2c71 0FB755F6 		movzwl	-10(%ebp), %edx
 6359 2c75 8B450C   		movl	12(%ebp), %eax
 6360 2c78 803C0220 		cmpb	$32, (%edx,%eax)
 6361 2c7c 740F     		je	L267
 6362 2c7e 0FB755F6 		movzwl	-10(%ebp), %edx
 6363 2c82 8B450C   		movl	12(%ebp), %eax
 6364 2c85 803C025C 		cmpb	$92, (%edx,%eax)
 6365 2c89 7402     		je	L267
 6366 2c8b EB0D     		jmp	L266
 6367              	L267:
2198:../../MMI/Resource/WriteRes.c ****         {
2199:../../MMI/Resource/WriteRes.c ****             dest[nCount] = '_';
 6369              	LM452:
 6370 2c8d 0FB755F6 		movzwl	-10(%ebp), %edx
 6371 2c91 8B4508   		movl	8(%ebp), %eax
 6372 2c94 C604025F 		movb	$95, (%edx,%eax)
 6373 2c98 EB15     		jmp	L268
 6374              	L266:
2200:../../MMI/Resource/WriteRes.c ****         }
2201:../../MMI/Resource/WriteRes.c ****         else
2202:../../MMI/Resource/WriteRes.c ****         {
2203:../../MMI/Resource/WriteRes.c ****             dest[nCount] = src[nCount];
 6376              	LM453:
 6377 2c9a 0FB75DF6 		movzwl	-10(%ebp), %ebx
 6378 2c9e 8B4D08   		movl	8(%ebp), %ecx
GAS LISTING d:/software/ovi_2503a_s3trc/ovi_2503a_s3trc/plutommi/Customer/ResGenerator/gcctmp/ccWMaaaa.s 			page 113


 6379 2ca1 0FB755F6 		movzwl	-10(%ebp), %edx
 6380 2ca5 8B450C   		movl	12(%ebp), %eax
 6381 2ca8 0FB60402 		movzbl	(%edx,%eax), %eax
 6382 2cac 88040B   		movb	%al, (%ebx,%ecx)
 6383              	L268:
2204:../../MMI/Resource/WriteRes.c ****         }
2205:../../MMI/Resource/WriteRes.c **** 
2206:../../MMI/Resource/WriteRes.c ****         ++nCount;
 6385              	LM454:
 6386 2caf 0FB745F6 		movzwl	-10(%ebp), %eax
 6387 2cb3 40       		incl	%eax
 6388 2cb4 668945F6 		movw	%ax, -10(%ebp)
2207:../../MMI/Resource/WriteRes.c ****         --iLen;
 6390              	LM455:
 6391 2cb8 8D45F8   		leal	-8(%ebp), %eax
 6392 2cbb FF08     		decl	(%eax)
 6393 2cbd EB90     		jmp	L263
 6394              	L264:
2208:../../MMI/Resource/WriteRes.c ****     }
2209:../../MMI/Resource/WriteRes.c **** 
2210:../../MMI/Resource/WriteRes.c ****     /* __CUSTPACK_MULTIBIN Calvin BEGIN */
2211:../../MMI/Resource/WriteRes.c ****     if (ExtFlag == 1)   /* 040805 CustPack: Calvin added */
 6396              	LM456:
 6397 2cbf 837D1001 		cmpl	$1, 16(%ebp)
 6398 2cc3 7518     		jne	L269
2212:../../MMI/Resource/WriteRes.c ****     {
2213:../../MMI/Resource/WriteRes.c ****         dest[nCount] = '_'; /* add a '_' in the end to distinguish from the original */
 6400              	LM457:
 6401 2cc5 0FB755F6 		movzwl	-10(%ebp), %edx
 6402 2cc9 8B4508   		movl	8(%ebp), %eax
 6403 2ccc C604025F 		movb	$95, (%edx,%eax)
2214:../../MMI/Resource/WriteRes.c ****         dest[nCount + 1] = '\0';
 6405              	LM458:
 6406 2cd0 0FB745F6 		movzwl	-10(%ebp), %eax
 6407 2cd4 034508   		addl	8(%ebp), %eax
 6408 2cd7 40       		incl	%eax
 6409 2cd8 C60000   		movb	$0, (%eax)
 6410 2cdb EB0B     		jmp	L262
 6411              	L269:
2215:../../MMI/Resource/WriteRes.c ****     }
2216:../../MMI/Resource/WriteRes.c ****     /* __CUSTPACK_MULTIBIN Calvin END */
2217:../../MMI/Resource/WriteRes.c ****     else
2218:../../MMI/Resource/WriteRes.c ****     {
2219:../../MMI/Resource/WriteRes.c ****         dest[nCount] = '\0';
 6413              	LM459:
 6414 2cdd 0FB755F6 		movzwl	-10(%ebp), %edx
 6415 2ce1 8B4508   		movl	8(%ebp), %eax
 6416 2ce4 C6040200 		movb	$0, (%edx,%eax)
2220:../../MMI/Resource/WriteRes.c ****     }
2221:../../MMI/Resource/WriteRes.c ****     return;
2222:../../MMI/Resource/WriteRes.c **** }
 6418              	LM460:
 6419              	L262:
 6420 2ce8 83C414   		addl	$20, %esp
 6421 2ceb 5B       		popl	%ebx
 6422 2cec 5D       		popl	%ebp
 6423 2ced C3       		ret
GAS LISTING d:/software/ovi_2503a_s3trc/ovi_2503a_s3trc/plutommi/Customer/ResGenerator/gcctmp/ccWMaaaa.s 			page 114


 6424              	LBE23:
 6429              	Lscope21:
 6431              	LC76:
 6432 2cee 5C4D4154 		.ascii "\\MATRIX\\\0"
 6432      5249585C 
 6432      00
 6433              	LC77:
 6434 2cf7 2E474946 		.ascii ".GIF\0"
 6434      00
 6438              	_isMainmenuImage:
2223:../../MMI/Resource/WriteRes.c **** 
2224:../../MMI/Resource/WriteRes.c **** 
2225:../../MMI/Resource/WriteRes.c **** /*****************************************************************************
2226:../../MMI/Resource/WriteRes.c ****  * FUNCTION
2227:../../MMI/Resource/WriteRes.c ****  *  isMainmenuImage
2228:../../MMI/Resource/WriteRes.c ****  * DESCRIPTION
2229:../../MMI/Resource/WriteRes.c ****  *  Decide if the iamge is used for Mainmenu picture
2230:../../MMI/Resource/WriteRes.c ****  * PARAMETERS
2231:../../MMI/Resource/WriteRes.c ****  *  path        [IN]        -> string containing file name and path
2232:../../MMI/Resource/WriteRes.c ****  * RETURNS
2233:../../MMI/Resource/WriteRes.c ****  *  U8 --> 1: Matrix Mainmenu picture, 0: Not Matrix mainmenu picture
2234:../../MMI/Resource/WriteRes.c ****  *****************************************************************************/
2235:../../MMI/Resource/WriteRes.c **** static MMI_BOOL isMainmenuImage(S8 *path)
2236:../../MMI/Resource/WriteRes.c **** {
 6440              	LM461:
 6441 2cfc 55       		pushl	%ebp
 6442 2cfd 89E5     		movl	%esp, %ebp
 6443 2cff 83EC18   		subl	$24, %esp
2237:../../MMI/Resource/WriteRes.c ****     /*----------------------------------------------------------------*/
2238:../../MMI/Resource/WriteRes.c ****     /* Local Variables                                                */
2239:../../MMI/Resource/WriteRes.c ****     /*----------------------------------------------------------------*/
2240:../../MMI/Resource/WriteRes.c **** 
2241:../../MMI/Resource/WriteRes.c ****     /*----------------------------------------------------------------*/
2242:../../MMI/Resource/WriteRes.c ****     /* Code Body                                                      */
2243:../../MMI/Resource/WriteRes.c ****     /*----------------------------------------------------------------*/
2244:../../MMI/Resource/WriteRes.c ****     if ((strstr(path, "\\MATRIX\\") != NULL) && (strstr(path, ".GIF") != NULL))
 6445              	LM462:
 6446 2d02 C7442404 		movl	$LC76, 4(%esp)
 6446      EE2C0000 
 6447 2d0a 8B4508   		movl	8(%ebp), %eax
 6448 2d0d 890424   		movl	%eax, (%esp)
 6449 2d10 E8000000 		call	_strstr
 6449      00
 6450 2d15 85C0     		testl	%eax, %eax
 6451 2d17 7420     		je	L272
 6452 2d19 C7442404 		movl	$LC77, 4(%esp)
 6452      F72C0000 
 6453 2d21 8B4508   		movl	8(%ebp), %eax
 6454 2d24 890424   		movl	%eax, (%esp)
 6455 2d27 E8000000 		call	_strstr
 6455      00
 6456 2d2c 85C0     		testl	%eax, %eax
 6457 2d2e 7409     		je	L272
2245:../../MMI/Resource/WriteRes.c ****     {
2246:../../MMI/Resource/WriteRes.c ****         return MMI_TRUE;
 6459              	LM463:
 6460 2d30 C745FC01 		movl	$1, -4(%ebp)
GAS LISTING d:/software/ovi_2503a_s3trc/ovi_2503a_s3trc/plutommi/Customer/ResGenerator/gcctmp/ccWMaaaa.s 			page 115


 6460      000000
 6461 2d37 EB07     		jmp	L271
 6462              	L272:
2247:../../MMI/Resource/WriteRes.c ****     }
2248:../../MMI/Resource/WriteRes.c ****     else
2249:../../MMI/Resource/WriteRes.c ****     {
2250:../../MMI/Resource/WriteRes.c ****         return MMI_FALSE;
 6464              	LM464:
 6465 2d39 C745FC00 		movl	$0, -4(%ebp)
 6465      000000
2251:../../MMI/Resource/WriteRes.c ****     }
2252:../../MMI/Resource/WriteRes.c **** }
 6467              	LM465:
 6468              	L271:
 6469 2d40 8B45FC   		movl	-4(%ebp), %eax
 6470 2d43 C9       		leave
 6471 2d44 C3       		ret
 6472              	Lscope22:
 6474              	LC78:
 6475 2d45 416C6F61 		.ascii "Aload: %s\0"
 6475      643A2025 
 6475      7300
 6476 2d4f 90909090 		.align 32
 6476      90909090 
 6476      90909090 
 6476      90909090 
 6476      90
 6477              	LC79:
 6478 2d60 2E2E5C2E 		.ascii "..\\..\\Customer\\CustResource\\CustAdoDataHWExt.h\0"
 6478      2E5C4375 
 6478      73746F6D 
 6478      65725C43 
 6478      75737452 
 6479 2d8f 90909090 		.align 32
 6479      90909090 
 6479      90909090 
 6479      90909090 
 6479      90
 6480              	LC80:
 6481 2da0 2E2E5C2E 		.ascii "..\\..\\Customer\\CustResource\\CustAdoDataHW.h\0"
 6481      2E5C4375 
 6481      73746F6D 
 6481      65725C43 
 6481      75737452 
 6482              	LC81:
 6483 2dcc 74656D70 		.ascii "temp_audio\0"
 6483      5F617564 
 6483      696F00
 6484              	LC82:
 6485 2dd7 616200   		.ascii "ab\0"
 6486              	LC83:
 6487 2dda 726200   		.ascii "rb\0"
 6488              	LC84:
 6489 2ddd 612B00   		.ascii "a+\0"
 6490              	LC85:
 6491 2de0 2E5C5C64 		.ascii ".\\\\debug\\\\fail.txt\0"
 6491      65627567 
GAS LISTING d:/software/ovi_2503a_s3trc/ovi_2503a_s3trc/plutommi/Customer/ResGenerator/gcctmp/ccWMaaaa.s 			page 116


 6491      5C5C6661 
 6491      696C2E74 
 6491      787400
 6492              	LC86:
 6493 2df3 25730A00 		.ascii "%s\12\0"
 6494              	LC87:
 6495 2df7 5B5D203D 		.ascii "[] =\12{\0"
 6495      0A7B00
 6496              	LC88:
 6497 2dfe 5F5F616C 		.ascii "__align(4) const U8 %s%s\0"
 6497      69676E28 
 6497      34292063 
 6497      6F6E7374 
 6497      20553820 
 6498              	LC89:
 6499 2e17 0A207D3B 		.ascii "\12 };\12\0"
 6499      0A00
 6502              	.globl _Aload
 6504              	_Aload:
2253:../../MMI/Resource/WriteRes.c **** 
2254:../../MMI/Resource/WriteRes.c **** 
2255:../../MMI/Resource/WriteRes.c **** /* __CUSTPACK_MULTIBIN Calvin BEGIN */
2256:../../MMI/Resource/WriteRes.c **** /* 040805 CustPack: Calvin added */
2257:../../MMI/Resource/WriteRes.c **** 
2258:../../MMI/Resource/WriteRes.c **** 
2259:../../MMI/Resource/WriteRes.c **** /* Calvin end */
2260:../../MMI/Resource/WriteRes.c **** /* __CUSTPACK_MULTIBIN Calvin END */
2261:../../MMI/Resource/WriteRes.c **** 
2262:../../MMI/Resource/WriteRes.c **** 
2263:../../MMI/Resource/WriteRes.c **** /*****************************************************************************
2264:../../MMI/Resource/WriteRes.c ****  * FUNCTION
2265:../../MMI/Resource/WriteRes.c ****  *  Aload
2266:../../MMI/Resource/WriteRes.c ****  * DESCRIPTION
2267:../../MMI/Resource/WriteRes.c ****  *  Load the file audio to buffer and writes to CustAdoRes.c
2268:../../MMI/Resource/WriteRes.c ****  * PARAMETERS
2269:../../MMI/Resource/WriteRes.c ****  *  string      [IN]        -> audio resource filename
2270:../../MMI/Resource/WriteRes.c ****  * RETURNS
2271:../../MMI/Resource/WriteRes.c ****  *  void* --> buffer containing Audio data
2272:../../MMI/Resource/WriteRes.c ****  *****************************************************************************/
2273:../../MMI/Resource/WriteRes.c **** MMI_BOOL Aload(S8 *string)
2274:../../MMI/Resource/WriteRes.c **** {
 6506              	LM466:
 6507 2e1d 55       		pushl	%ebp
 6508 2e1e 89E5     		movl	%esp, %ebp
 6509 2e20 B8481000 		movl	$4168, %eax
 6509      00
 6510 2e25 E8000000 		call	__alloca
 6510      00
2275:../../MMI/Resource/WriteRes.c ****     /*----------------------------------------------------------------*/
2276:../../MMI/Resource/WriteRes.c ****     /* Local Variables                                                */
2277:../../MMI/Resource/WriteRes.c ****     /*----------------------------------------------------------------*/
2278:../../MMI/Resource/WriteRes.c ****     FILE *audio_data_file = NULL;
 6512              	LM467:
 6513              	LBB24:
 6514 2e2a C745F400 		movl	$0, -12(%ebp)
 6514      000000
2279:../../MMI/Resource/WriteRes.c ****     MMI_BOOL failure_flag;
GAS LISTING d:/software/ovi_2503a_s3trc/ovi_2503a_s3trc/plutommi/Customer/ResGenerator/gcctmp/ccWMaaaa.s 			page 117


2280:../../MMI/Resource/WriteRes.c ****     U8 audio_identifier;
2281:../../MMI/Resource/WriteRes.c ****     S32 nAudioSize = 0;
 6516              	LM468:
 6517 2e31 C745E800 		movl	$0, -24(%ebp)
 6517      000000
2282:../../MMI/Resource/WriteRes.c ****     S16 filenameLen;
2283:../../MMI/Resource/WriteRes.c ****     char *curr_output_data_filename;
2284:../../MMI/Resource/WriteRes.c ****     FILE *output_data_file = NULL;
 6519              	LM469:
 6520 2e38 C745DC00 		movl	$0, -36(%ebp)
 6520      000000
2285:../../MMI/Resource/WriteRes.c ****     S8 *output_audio_names = NULL;
 6522              	LM470:
 6523 2e3f C745D800 		movl	$0, -40(%ebp)
 6523      000000
2286:../../MMI/Resource/WriteRes.c ****     S8 filename_buffer[BUFFER_SIZE];
2287:../../MMI/Resource/WriteRes.c **** 
2288:../../MMI/Resource/WriteRes.c ****     /*----------------------------------------------------------------*/
2289:../../MMI/Resource/WriteRes.c ****     /* Code Body                                                      */
2290:../../MMI/Resource/WriteRes.c ****     /*----------------------------------------------------------------*/
2291:../../MMI/Resource/WriteRes.c ****     g_ressize = 0;
 6525              	LM471:
 6526 2e46 C7052000 		movl	$0, _g_ressize
 6526      00000000 
 6526      0000
2292:../../MMI/Resource/WriteRes.c ****     
2293:../../MMI/Resource/WriteRes.c ****     RESWRI_LOG_V("Aload: %s", string); 
 6528              	LM472:
 6529 2e50 8B4508   		movl	8(%ebp), %eax
 6530 2e53 8944240C 		movl	%eax, 12(%esp)
 6531 2e57 C7442408 		movl	$LC78, 8(%esp)
 6531      452D0000 
 6532 2e5f C7442404 		movl	$LC24, 4(%esp)
 6532      4A020000 
 6533 2e67 C7042401 		movl	$1, (%esp)
 6533      000000
 6534 2e6e E8000000 		call	_reslog_adaptor_log
 6534      00
2294:../../MMI/Resource/WriteRes.c ****     
2295:../../MMI/Resource/WriteRes.c ****     if (ExtAudioFlag == TRUE)
 6536              	LM473:
 6537 2e73 833D1000 		cmpl	$1, _ExtAudioFlag
 6537      000001
 6538 2e7a 7509     		jne	L275
2296:../../MMI/Resource/WriteRes.c ****     {
2297:../../MMI/Resource/WriteRes.c ****         curr_output_data_filename = AUDIO_OUTPUT_DATA_FILENAME_EXT;
 6540              	LM474:
 6541 2e7c C745E060 		movl	$LC79, -32(%ebp)
 6541      2D0000
 6542 2e83 EB07     		jmp	L276
 6543              	L275:
2298:../../MMI/Resource/WriteRes.c ****     }
2299:../../MMI/Resource/WriteRes.c ****     else
2300:../../MMI/Resource/WriteRes.c ****     {
2301:../../MMI/Resource/WriteRes.c ****         curr_output_data_filename = AUDIO_OUTPUT_DATA_FILENAME;
 6545              	LM475:
 6546 2e85 C745E0A0 		movl	$LC80, -32(%ebp)
GAS LISTING d:/software/ovi_2503a_s3trc/ovi_2503a_s3trc/plutommi/Customer/ResGenerator/gcctmp/ccWMaaaa.s 			page 118


 6546      2D0000
 6547              	L276:
2302:../../MMI/Resource/WriteRes.c ****     }
2303:../../MMI/Resource/WriteRes.c **** 
2304:../../MMI/Resource/WriteRes.c ****     if (toolFlag == 1)
 6549              	LM476:
 6550 2e8c 833D0000 		cmpl	$1, _toolFlag
 6550      000001
 6551 2e93 7507     		jne	L277
2305:../../MMI/Resource/WriteRes.c ****     {
2306:../../MMI/Resource/WriteRes.c ****         curr_output_data_filename = "temp_audio";
 6553              	LM477:
 6554 2e95 C745E0CC 		movl	$LC81, -32(%ebp)
 6554      2D0000
 6555              	L277:
2307:../../MMI/Resource/WriteRes.c ****     }
2308:../../MMI/Resource/WriteRes.c **** 
2309:../../MMI/Resource/WriteRes.c ****     strcpy(filename_buffer, curr_output_data_filename);
 6557              	LM478:
 6558 2e9c 8B45E0   		movl	-32(%ebp), %eax
 6559 2e9f 89442404 		movl	%eax, 4(%esp)
 6560 2ea3 8D85D8EF 		leal	-4136(%ebp), %eax
 6560      FFFF
 6561 2ea9 890424   		movl	%eax, (%esp)
 6562 2eac E8000000 		call	_strcpy
 6562      00
2310:../../MMI/Resource/WriteRes.c **** 
2311:../../MMI/Resource/WriteRes.c ****     output_data_file = fopen(filename_buffer, "ab");
 6564              	LM479:
 6565 2eb1 C7442404 		movl	$LC82, 4(%esp)
 6565      D72D0000 
 6566 2eb9 8D85D8EF 		leal	-4136(%ebp), %eax
 6566      FFFF
 6567 2ebf 890424   		movl	%eax, (%esp)
 6568 2ec2 E8000000 		call	_fopen
 6568      00
 6569 2ec7 8945DC   		movl	%eax, -36(%ebp)
2312:../../MMI/Resource/WriteRes.c ****     while (output_data_file == NULL)
 6571              	LM480:
 6572              	L278:
 6573 2eca 837DDC00 		cmpl	$0, -36(%ebp)
 6574 2ece 7402     		je	L280
 6575 2ed0 EB2A     		jmp	L279
 6576              	L280:
2313:../../MMI/Resource/WriteRes.c ****     {
2314:../../MMI/Resource/WriteRes.c ****         Sleep(50);
 6578              	LM481:
 6579 2ed2 C7042432 		movl	$50, (%esp)
 6579      000000
 6580 2ed9 E8000000 		call	_Sleep@4
 6580      00
 6581 2ede 83EC04   		subl	$4, %esp
2315:../../MMI/Resource/WriteRes.c ****         output_data_file = fopen(filename_buffer, "ab");
 6583              	LM482:
 6584 2ee1 C7442404 		movl	$LC82, 4(%esp)
 6584      D72D0000 
 6585 2ee9 8D85D8EF 		leal	-4136(%ebp), %eax
GAS LISTING d:/software/ovi_2503a_s3trc/ovi_2503a_s3trc/plutommi/Customer/ResGenerator/gcctmp/ccWMaaaa.s 			page 119


 6585      FFFF
 6586 2eef 890424   		movl	%eax, (%esp)
 6587 2ef2 E8000000 		call	_fopen
 6587      00
 6588 2ef7 8945DC   		movl	%eax, -36(%ebp)
 6589 2efa EBCE     		jmp	L278
 6590              	L279:
2316:../../MMI/Resource/WriteRes.c ****     }
2317:../../MMI/Resource/WriteRes.c **** 
2318:../../MMI/Resource/WriteRes.c ****     output_audio_names = (S8*) malloc(MAX_FILENAME_LEN);
 6592              	LM483:
 6593 2efc C7042400 		movl	$512, (%esp)
 6593      020000
 6594 2f03 E8000000 		call	_malloc
 6594      00
 6595 2f08 8945D8   		movl	%eax, -40(%ebp)
2319:../../MMI/Resource/WriteRes.c ****     strcpy(filename_buffer, string);
 6597              	LM484:
 6598 2f0b 8B4508   		movl	8(%ebp), %eax
 6599 2f0e 89442404 		movl	%eax, 4(%esp)
 6600 2f12 8D85D8EF 		leal	-4136(%ebp), %eax
 6600      FFFF
 6601 2f18 890424   		movl	%eax, (%esp)
 6602 2f1b E8000000 		call	_strcpy
 6602      00
2320:../../MMI/Resource/WriteRes.c ****     if (!(strcmp(filename_buffer, "")))
 6604              	LM485:
 6605 2f20 C7442404 		movl	$LC41, 4(%esp)
 6605      F20B0000 
 6606 2f28 8D85D8EF 		leal	-4136(%ebp), %eax
 6606      FFFF
 6607 2f2e 890424   		movl	%eax, (%esp)
 6608 2f31 E8000000 		call	_strcmp
 6608      00
 6609 2f36 85C0     		testl	%eax, %eax
 6610 2f38 7516     		jne	L281
2321:../../MMI/Resource/WriteRes.c ****     {
2322:../../MMI/Resource/WriteRes.c ****         strcpy(filename_buffer, NOAUDIO_FILENAMEBUFFER);
 6612              	LM486:
 6613 2f3a C7442404 		movl	$LC42, 4(%esp)
 6613      000C0000 
 6614 2f42 8D85D8EF 		leal	-4136(%ebp), %eax
 6614      FFFF
 6615 2f48 890424   		movl	%eax, (%esp)
 6616 2f4b E8000000 		call	_strcpy
 6616      00
 6617              	L281:
2323:../../MMI/Resource/WriteRes.c ****     }
2324:../../MMI/Resource/WriteRes.c **** 
2325:../../MMI/Resource/WriteRes.c ****     Extract_Name(output_audio_names, filename_buffer, ExtAudioFlag);
 6619              	LM487:
 6620 2f50 A1100000 		movl	_ExtAudioFlag, %eax
 6620      00
 6621 2f55 89442408 		movl	%eax, 8(%esp)
 6622 2f59 8D85D8EF 		leal	-4136(%ebp), %eax
 6622      FFFF
 6623 2f5f 89442404 		movl	%eax, 4(%esp)
GAS LISTING d:/software/ovi_2503a_s3trc/ovi_2503a_s3trc/plutommi/Customer/ResGenerator/gcctmp/ccWMaaaa.s 			page 120


 6624 2f63 8B45D8   		movl	-40(%ebp), %eax
 6625 2f66 890424   		movl	%eax, (%esp)
 6626 2f69 E8C6FCFF 		call	_Extract_Name
 6626      FF
2326:../../MMI/Resource/WriteRes.c **** 
2327:../../MMI/Resource/WriteRes.c ****     failure_flag = MMI_FALSE;
 6628              	LM488:
 6629 2f6e C745F000 		movl	$0, -16(%ebp)
 6629      000000
2328:../../MMI/Resource/WriteRes.c ****     filenameLen = strlen(filename_buffer);
 6631              	LM489:
 6632 2f75 8D85D8EF 		leal	-4136(%ebp), %eax
 6632      FFFF
 6633 2f7b 890424   		movl	%eax, (%esp)
 6634 2f7e E8000000 		call	_strlen
 6634      00
 6635 2f83 668945E6 		movw	%ax, -26(%ebp)
2329:../../MMI/Resource/WriteRes.c **** 
2330:../../MMI/Resource/WriteRes.c ****     if (failure_flag == MMI_FALSE)
 6637              	LM490:
 6638 2f87 837DF000 		cmpl	$0, -16(%ebp)
 6639 2f8b 0F855F01 		jne	L282
 6639      0000
2331:../../MMI/Resource/WriteRes.c ****     {
2332:../../MMI/Resource/WriteRes.c ****         audio_data_file = fopen(filename_buffer, "rb");
 6641              	LM491:
 6642 2f91 C7442404 		movl	$LC83, 4(%esp)
 6642      DA2D0000 
 6643 2f99 8D85D8EF 		leal	-4136(%ebp), %eax
 6643      FFFF
 6644 2f9f 890424   		movl	%eax, (%esp)
 6645 2fa2 E8000000 		call	_fopen
 6645      00
 6646 2fa7 8945F4   		movl	%eax, -12(%ebp)
2333:../../MMI/Resource/WriteRes.c ****         if (audio_data_file == NULL)
 6648              	LM492:
 6649 2faa 837DF400 		cmpl	$0, -12(%ebp)
 6650 2fae 7576     		jne	L283
2334:../../MMI/Resource/WriteRes.c ****         {
2335:../../MMI/Resource/WriteRes.c ****             /* Add extension add search */
2336:../../MMI/Resource/WriteRes.c ****             if (toolFlag == 0)
 6652              	LM493:
 6653 2fb0 833D0000 		cmpl	$0, _toolFlag
 6653      000000
 6654 2fb7 7564     		jne	L284
2337:../../MMI/Resource/WriteRes.c ****             {
2338:../../MMI/Resource/WriteRes.c ****                 FILE *fail = fopen(".\\\\debug\\\\fail.txt", "a+");
 6656              	LM494:
 6657              	LBB25:
 6658 2fb9 C7442404 		movl	$LC84, 4(%esp)
 6658      DD2D0000 
 6659 2fc1 C70424E0 		movl	$LC85, (%esp)
 6659      2D0000
 6660 2fc8 E8000000 		call	_fopen
 6660      00
 6661 2fcd 8985D4EF 		movl	%eax, -4140(%ebp)
 6661      FFFF
GAS LISTING d:/software/ovi_2503a_s3trc/ovi_2503a_s3trc/plutommi/Customer/ResGenerator/gcctmp/ccWMaaaa.s 			page 121


2339:../../MMI/Resource/WriteRes.c **** 
2340:../../MMI/Resource/WriteRes.c ****                 if (fail != NULL)
 6663              	LM495:
 6664 2fd3 83BDD4EF 		cmpl	$0, -4140(%ebp)
 6664      FFFF00
 6665 2fda 7441     		je	L284
2341:../../MMI/Resource/WriteRes.c ****                 {
2342:../../MMI/Resource/WriteRes.c ****                     fprintf(fail, "%s\n", filename_buffer);
 6667              	LM496:
 6668 2fdc 8D85D8EF 		leal	-4136(%ebp), %eax
 6668      FFFF
 6669 2fe2 89442408 		movl	%eax, 8(%esp)
 6670 2fe6 C7442404 		movl	$LC86, 4(%esp)
 6670      F32D0000 
 6671 2fee 8B85D4EF 		movl	-4140(%ebp), %eax
 6671      FFFF
 6672 2ff4 890424   		movl	%eax, (%esp)
 6673 2ff7 E8000000 		call	_fprintf
 6673      00
2343:../../MMI/Resource/WriteRes.c ****                     MYFCLOSE(fail);
 6675              	LM497:
 6676 2ffc 83BDD4EF 		cmpl	$0, -4140(%ebp)
 6676      FFFF00
 6677 3003 7418     		je	L284
 6678 3005 8B85D4EF 		movl	-4140(%ebp), %eax
 6678      FFFF
 6679 300b 890424   		movl	%eax, (%esp)
 6680 300e E8000000 		call	_fclose
 6680      00
 6681 3013 C785D4EF 		movl	$0, -4140(%ebp)
 6681      FFFF0000 
 6681      0000
 6682              	L284:
2344:../../MMI/Resource/WriteRes.c ****                 }
2345:../../MMI/Resource/WriteRes.c ****             }
2346:../../MMI/Resource/WriteRes.c **** 
2347:../../MMI/Resource/WriteRes.c ****             failure_flag = MMI_FALSE;
 6684              	LM498:
 6685              	LBE25:
 6686 301d C745F000 		movl	$0, -16(%ebp)
 6686      000000
 6687 3024 EB4B     		jmp	L288
 6688              	L283:
2348:../../MMI/Resource/WriteRes.c ****         }
2349:../../MMI/Resource/WriteRes.c ****         else
2350:../../MMI/Resource/WriteRes.c ****         {
2351:../../MMI/Resource/WriteRes.c ****             failure_flag = MMI_TRUE;
 6690              	LM499:
 6691 3026 C745F001 		movl	$1, -16(%ebp)
 6691      000000
2352:../../MMI/Resource/WriteRes.c ****             fseek(audio_data_file, 0, SEEK_END);
 6693              	LM500:
 6694 302d C7442408 		movl	$2, 8(%esp)
 6694      02000000 
 6695 3035 C7442404 		movl	$0, 4(%esp)
 6695      00000000 
 6696 303d 8B45F4   		movl	-12(%ebp), %eax
GAS LISTING d:/software/ovi_2503a_s3trc/ovi_2503a_s3trc/plutommi/Customer/ResGenerator/gcctmp/ccWMaaaa.s 			page 122


 6697 3040 890424   		movl	%eax, (%esp)
 6698 3043 E8000000 		call	_fseek
 6698      00
2353:../../MMI/Resource/WriteRes.c ****             nAudioSize = ftell(audio_data_file);
 6700              	LM501:
 6701 3048 8B45F4   		movl	-12(%ebp), %eax
 6702 304b 890424   		movl	%eax, (%esp)
 6703 304e E8000000 		call	_ftell
 6703      00
 6704 3053 8945E8   		movl	%eax, -24(%ebp)
2354:../../MMI/Resource/WriteRes.c ****             fseek(audio_data_file, 0, SEEK_SET);
 6706              	LM502:
 6707 3056 C7442408 		movl	$0, 8(%esp)
 6707      00000000 
 6708 305e C7442404 		movl	$0, 4(%esp)
 6708      00000000 
 6709 3066 8B45F4   		movl	-12(%ebp), %eax
 6710 3069 890424   		movl	%eax, (%esp)
 6711 306c E8000000 		call	_fseek
 6711      00
 6712              	L288:
2355:../../MMI/Resource/WriteRes.c ****         }
2356:../../MMI/Resource/WriteRes.c **** 
2357:../../MMI/Resource/WriteRes.c **** 
2358:../../MMI/Resource/WriteRes.c ****         if (failure_flag == MMI_TRUE)
 6714              	LM503:
 6715 3071 837DF001 		cmpl	$1, -16(%ebp)
 6716 3075 7579     		jne	L282
2359:../../MMI/Resource/WriteRes.c ****         {
2360:../../MMI/Resource/WriteRes.c ****             if (nAudioSize == 0)
 6718              	LM504:
 6719 3077 837DE800 		cmpl	$0, -24(%ebp)
 6720 307b 7506     		jne	L290
2361:../../MMI/Resource/WriteRes.c ****             {
2362:../../MMI/Resource/WriteRes.c ****                 audio_identifier = AUDIO_TYPE_INVALID;
 6722              	LM505:
 6723 307d C645EF00 		movb	$0, -17(%ebp)
 6724 3081 EB19     		jmp	L291
 6725              	L290:
2363:../../MMI/Resource/WriteRes.c ****             }
2364:../../MMI/Resource/WriteRes.c ****             else
2365:../../MMI/Resource/WriteRes.c ****             {
2366:../../MMI/Resource/WriteRes.c ****                 audio_identifier = ExtractExtension(filename_buffer, RES_AUDIO);
 6727              	LM506:
 6728 3083 C7442404 		movl	$2, 4(%esp)
 6728      02000000 
 6729 308b 8D85D8EF 		leal	-4136(%ebp), %eax
 6729      FFFF
 6730 3091 890424   		movl	%eax, (%esp)
 6731 3094 E8000000 		call	_ExtractExtension
 6731      00
 6732 3099 8845EF   		movb	%al, -17(%ebp)
 6733              	L291:
2367:../../MMI/Resource/WriteRes.c ****             }
2368:../../MMI/Resource/WriteRes.c **** 
2369:../../MMI/Resource/WriteRes.c ****             /*   Load the data  */
2370:../../MMI/Resource/WriteRes.c **** #if defined(__MMI_RESOURCE_AUDIO_COMPRESS__)
GAS LISTING d:/software/ovi_2503a_s3trc/ovi_2503a_s3trc/plutommi/Customer/ResGenerator/gcctmp/ccWMaaaa.s 			page 123


2371:../../MMI/Resource/WriteRes.c ****             if (!toolFlag)
2372:../../MMI/Resource/WriteRes.c ****             {
2373:../../MMI/Resource/WriteRes.c ****                 int array_size = 0;
2374:../../MMI/Resource/WriteRes.c ****                 U8 *buffer = NULL;
2375:../../MMI/Resource/WriteRes.c ****                 U8 *dest_buf = NULL;
2376:../../MMI/Resource/WriteRes.c ****                 U32 dest_size = 0;
2377:../../MMI/Resource/WriteRes.c ****                 U32 file_size, ret, i, o = 0;
2378:../../MMI/Resource/WriteRes.c ****                 FILE *pFile;
2379:../../MMI/Resource/WriteRes.c **** 
2380:../../MMI/Resource/WriteRes.c ****                 if (res_compress_count >= MAX_COMPRESSED_ITEM)
2381:../../MMI/Resource/WriteRes.c ****                 {
2382:../../MMI/Resource/WriteRes.c ****                     fprintf(stderr, "[ResZip] Reach Max compress item count, please change MAX_COMP
2383:../../MMI/Resource/WriteRes.c ****                     RESWRI_LOG_E("[ResZip] Error!! Reach Max compress item count, please change MAX
2384:../../MMI/Resource/WriteRes.c ****                     exit(2);
2385:../../MMI/Resource/WriteRes.c ****                 }
2386:../../MMI/Resource/WriteRes.c **** 
2387:../../MMI/Resource/WriteRes.c ****                 fseek(audio_data_file, 0, SEEK_END);
2388:../../MMI/Resource/WriteRes.c ****                 file_size = ftell(audio_data_file);
2389:../../MMI/Resource/WriteRes.c ****                 fseek(audio_data_file, 0, SEEK_SET);
2390:../../MMI/Resource/WriteRes.c **** 
2391:../../MMI/Resource/WriteRes.c ****                 array_size = file_size + 8;
2392:../../MMI/Resource/WriteRes.c ****                 dest_size = array_size*2;
2393:../../MMI/Resource/WriteRes.c ****                 buffer = malloc(array_size);
2394:../../MMI/Resource/WriteRes.c ****                 dest_buf = malloc(array_size * 2);
2395:../../MMI/Resource/WriteRes.c **** 
2396:../../MMI/Resource/WriteRes.c ****                 sprintf(
2397:../../MMI/Resource/WriteRes.c ****                     buffer,
2398:../../MMI/Resource/WriteRes.c ****                     "%c%c%c%c%c%c%c%c",
2399:../../MMI/Resource/WriteRes.c ****                     audio_identifier,
2400:../../MMI/Resource/WriteRes.c ****                     file_size & 0xff,
2401:../../MMI/Resource/WriteRes.c ****                     (file_size & 0xff00) >> 8,
2402:../../MMI/Resource/WriteRes.c ****                     (file_size & 0xff0000) >> 16,
2403:../../MMI/Resource/WriteRes.c ****                     (file_size & 0xff000000) >> 24,
2404:../../MMI/Resource/WriteRes.c ****                     0,
2405:../../MMI/Resource/WriteRes.c ****                     0,
2406:../../MMI/Resource/WriteRes.c ****                     0);
2407:../../MMI/Resource/WriteRes.c **** 
2408:../../MMI/Resource/WriteRes.c ****                 ret = fread(buffer+8, sizeof(U8), file_size, audio_data_file);
2409:../../MMI/Resource/WriteRes.c **** 
2410:../../MMI/Resource/WriteRes.c ****                 if (ret != file_size)
2411:../../MMI/Resource/WriteRes.c ****                 {
2412:../../MMI/Resource/WriteRes.c ****                     fprintf(stderr, "[ResZip] Read file err [%s]\n", filename_buffer);
2413:../../MMI/Resource/WriteRes.c ****                     RESWRI_LOG_E("[ResZip] Error!! Read file err [%s]", filename_buffer);
2414:../../MMI/Resource/WriteRes.c ****                     exit(2);
2415:../../MMI/Resource/WriteRes.c ****                 }
2416:../../MMI/Resource/WriteRes.c **** 
2417:../../MMI/Resource/WriteRes.c ****                 if (ret != 0)
2418:../../MMI/Resource/WriteRes.c ****                 {
2419:../../MMI/Resource/WriteRes.c ****                     compress2(dest_buf, &dest_size, buffer, array_size, Z_BEST_COMPRESSION);
2420:../../MMI/Resource/WriteRes.c ****                 }
2421:../../MMI/Resource/WriteRes.c **** 
2422:../../MMI/Resource/WriteRes.c **** 
2423:../../MMI/Resource/WriteRes.c ****                 if (ret != 0 && dest_size != 0 && array_size/dest_size >= 2)
2424:../../MMI/Resource/WriteRes.c ****                 {
2425:../../MMI/Resource/WriteRes.c ****                     if(pFile = fopen(ZIP_OUTPUT_FILE, "a"))
2426:../../MMI/Resource/WriteRes.c ****                     {
2427:../../MMI/Resource/WriteRes.c ****                         fprintf(pFile, "%s,%d,%d,%d,Yes\n", output_audio_names, array_size, dest_si
GAS LISTING d:/software/ovi_2503a_s3trc/ovi_2503a_s3trc/plutommi/Customer/ResGenerator/gcctmp/ccWMaaaa.s 			page 124


2428:../../MMI/Resource/WriteRes.c ****                         fclose(pFile);
2429:../../MMI/Resource/WriteRes.c ****                     }
2430:../../MMI/Resource/WriteRes.c **** 
2431:../../MMI/Resource/WriteRes.c ****                     /* compress rate >= 50% then compress, else write directly*/
2432:../../MMI/Resource/WriteRes.c ****                     fprintf(output_data_file, "__align(4) U8 %s[%d];\n", output_audio_names, array_
2433:../../MMI/Resource/WriteRes.c ****                     fprintf(output_data_file, "__align(4) const U8 %s_zip%s", output_audio_names, O
2434:../../MMI/Resource/WriteRes.c **** 
2435:../../MMI/Resource/WriteRes.c ****                     for (i = 0; i < dest_size-1; i++)
2436:../../MMI/Resource/WriteRes.c ****                     {
2437:../../MMI/Resource/WriteRes.c ****                         fprintf(output_data_file, "0x%02X, ", dest_buf[i]);
2438:../../MMI/Resource/WriteRes.c ****                         o++;
2439:../../MMI/Resource/WriteRes.c ****                         if ((o % 16) == 0)
2440:../../MMI/Resource/WriteRes.c ****                         {
2441:../../MMI/Resource/WriteRes.c ****                             fprintf(output_data_file, "\n\t");
2442:../../MMI/Resource/WriteRes.c ****                         }
2443:../../MMI/Resource/WriteRes.c ****                     }
2444:../../MMI/Resource/WriteRes.c ****                     fprintf(output_data_file, "0x%02X", dest_buf[i]);
2445:../../MMI/Resource/WriteRes.c ****                     fprintf(output_data_file, "\n };\n");
2446:../../MMI/Resource/WriteRes.c **** 
2447:../../MMI/Resource/WriteRes.c ****                     res_compress_data[res_compress_count].ro_len = dest_size;
2448:../../MMI/Resource/WriteRes.c ****                     res_compress_data[res_compress_count].zi_len = array_size;
2449:../../MMI/Resource/WriteRes.c ****                     strcpy(res_compress_data[res_compress_count].ro_name, output_audio_names);
2450:../../MMI/Resource/WriteRes.c ****                     strcpy(res_compress_data[res_compress_count].zi_name, output_audio_names);
2451:../../MMI/Resource/WriteRes.c ****                     strcat(res_compress_data[res_compress_count].ro_name, "_zip");
2452:../../MMI/Resource/WriteRes.c **** 
2453:../../MMI/Resource/WriteRes.c ****                     res_compress_count++;
2454:../../MMI/Resource/WriteRes.c ****                 }
2455:../../MMI/Resource/WriteRes.c ****                 else
2456:../../MMI/Resource/WriteRes.c ****                 {
2457:../../MMI/Resource/WriteRes.c ****                     if(pFile = fopen(ZIP_OUTPUT_FILE, "a"))
2458:../../MMI/Resource/WriteRes.c ****                     {
2459:../../MMI/Resource/WriteRes.c ****                         fprintf(pFile, "%s,%d,%d,%d,No\n", output_audio_names, array_size, dest_siz
2460:../../MMI/Resource/WriteRes.c ****                         fclose(pFile);
2461:../../MMI/Resource/WriteRes.c ****                     }
2462:../../MMI/Resource/WriteRes.c ****                     /* Construct the data structure name */
2463:../../MMI/Resource/WriteRes.c ****                     fprintf(output_data_file, "__align(4) const U8 %s%s", output_audio_names, OUTPU
2464:../../MMI/Resource/WriteRes.c **** 
2465:../../MMI/Resource/WriteRes.c ****                     g_ressize = Load_Audio_Data(output_data_file, audio_data_file, audio_identifier
2466:../../MMI/Resource/WriteRes.c ****                     fprintf(output_data_file, "\n };\n");
2467:../../MMI/Resource/WriteRes.c ****                 }
2468:../../MMI/Resource/WriteRes.c **** 
2469:../../MMI/Resource/WriteRes.c ****                 free(buffer);
2470:../../MMI/Resource/WriteRes.c ****                 free(dest_buf);
2471:../../MMI/Resource/WriteRes.c ****             }
2472:../../MMI/Resource/WriteRes.c ****             else
2473:../../MMI/Resource/WriteRes.c **** #endif /* __MMI_RESOURCE_AUDIO_COMPRESS__ */
2474:../../MMI/Resource/WriteRes.c ****             {
2475:../../MMI/Resource/WriteRes.c ****                 /* Construct the data structure name */
2476:../../MMI/Resource/WriteRes.c ****                 fprintf(output_data_file, "__align(4) const U8 %s%s", output_audio_names, OUTPUT_AU
 6735              	LM507:
 6736 309c C744240C 		movl	$LC87, 12(%esp)
 6736      F72D0000 
 6737 30a4 8B45D8   		movl	-40(%ebp), %eax
 6738 30a7 89442408 		movl	%eax, 8(%esp)
 6739 30ab C7442404 		movl	$LC88, 4(%esp)
 6739      FE2D0000 
 6740 30b3 8B45DC   		movl	-36(%ebp), %eax
GAS LISTING d:/software/ovi_2503a_s3trc/ovi_2503a_s3trc/plutommi/Customer/ResGenerator/gcctmp/ccWMaaaa.s 			page 125


 6741 30b6 890424   		movl	%eax, (%esp)
 6742 30b9 E8000000 		call	_fprintf
 6742      00
2477:../../MMI/Resource/WriteRes.c **** 
2478:../../MMI/Resource/WriteRes.c ****                 g_ressize = Load_Audio_Data(output_data_file, audio_data_file, audio_identifier);
 6744              	LM508:
 6745 30be 0FB645EF 		movzbl	-17(%ebp), %eax
 6746 30c2 89442408 		movl	%eax, 8(%esp)
 6747 30c6 8B45F4   		movl	-12(%ebp), %eax
 6748 30c9 89442404 		movl	%eax, 4(%esp)
 6749 30cd 8B45DC   		movl	-36(%ebp), %eax
 6750 30d0 890424   		movl	%eax, (%esp)
 6751 30d3 E8F2F5FF 		call	_Load_Audio_Data
 6751      FF
 6752 30d8 A3200000 		movl	%eax, _g_ressize
 6752      00
2479:../../MMI/Resource/WriteRes.c **** 
2480:../../MMI/Resource/WriteRes.c ****                 fprintf(output_data_file, "\n };\n");
 6754              	LM509:
 6755 30dd C7442404 		movl	$LC89, 4(%esp)
 6755      172E0000 
 6756 30e5 8B45DC   		movl	-36(%ebp), %eax
 6757 30e8 890424   		movl	%eax, (%esp)
 6758 30eb E8000000 		call	_fprintf
 6758      00
 6759              	L282:
2481:../../MMI/Resource/WriteRes.c ****             }
2482:../../MMI/Resource/WriteRes.c ****         }
2483:../../MMI/Resource/WriteRes.c ****     }
2484:../../MMI/Resource/WriteRes.c **** 
2485:../../MMI/Resource/WriteRes.c ****     MYFCLOSE(audio_data_file);
 6761              	LM510:
 6762 30f0 837DF400 		cmpl	$0, -12(%ebp)
 6763 30f4 7412     		je	L292
 6764 30f6 8B45F4   		movl	-12(%ebp), %eax
 6765 30f9 890424   		movl	%eax, (%esp)
 6766 30fc E8000000 		call	_fclose
 6766      00
 6767 3101 C745F400 		movl	$0, -12(%ebp)
 6767      000000
 6768              	L292:
2486:../../MMI/Resource/WriteRes.c ****     MYFCLOSE(output_data_file);
 6770              	LM511:
 6771 3108 837DDC00 		cmpl	$0, -36(%ebp)
 6772 310c 7412     		je	L294
 6773 310e 8B45DC   		movl	-36(%ebp), %eax
 6774 3111 890424   		movl	%eax, (%esp)
 6775 3114 E8000000 		call	_fclose
 6775      00
 6776 3119 C745DC00 		movl	$0, -36(%ebp)
 6776      000000
 6777              	L294:
2487:../../MMI/Resource/WriteRes.c ****     free(output_audio_names);
 6779              	LM512:
 6780 3120 8B45D8   		movl	-40(%ebp), %eax
 6781 3123 890424   		movl	%eax, (%esp)
 6782 3126 E8000000 		call	_free
GAS LISTING d:/software/ovi_2503a_s3trc/ovi_2503a_s3trc/plutommi/Customer/ResGenerator/gcctmp/ccWMaaaa.s 			page 126


 6782      00
2488:../../MMI/Resource/WriteRes.c **** 
2489:../../MMI/Resource/WriteRes.c ****     return failure_flag;
 6784              	LM513:
 6785 312b 8B45F0   		movl	-16(%ebp), %eax
2490:../../MMI/Resource/WriteRes.c **** }
 6787              	LM514:
 6788 312e C9       		leave
 6789 312f C3       		ret
 6790              	LBE24:
 6805              	Lscope23:
 6807              	LC90:
 6808 3130 772B00   		.ascii "w+\0"
 6809 3133 8DB60000 		.align 32
 6809      00008DBC 
 6809      27000000 
 6809      00
 6810              	LC91:
 6811 3140 2E2E5C2E 		.ascii "..\\..\\Customer\\CustResource\\CustImgDataHW.h\0"
 6811      2E5C4375 
 6811      73746F6D 
 6811      65725C43 
 6811      75737452 
 6812 316c 90909090 		.align 32
 6812      90909090 
 6812      90909090 
 6812      90909090 
 6812      90909090 
 6813              	LC92:
 6814 3180 23696620 		.ascii "#if ( !defined (__MTK_TARGET__) )\12\11#define __align(x)\12#endif\12\0"
 6814      28202164 
 6814      6566696E 
 6814      65642028 
 6814      5F5F4D54 
 6815 31be 89F6     		.align 32
 6816              	LC93:
 6817 31c0 2E2E5C2E 		.ascii "..\\..\\Customer\\CustResource\\CustImgDataHWExt.h\0"
 6817      2E5C4375 
 6817      73746F6D 
 6817      65725C43 
 6817      75737452 
 6818 31ef 90909090 		.align 32
 6818      90909090 
 6818      90909090 
 6818      90909090 
 6818      90
 6819              	LC94:
 6820 3200 2E2E5C2E 		.ascii "..\\..\\Customer\\CustResource\\CustFontDataHW.h\0"
 6820      2E5C4375 
 6820      73746F6D 
 6820      65725C43 
 6820      75737452 
 6821 322d 90909090 		.align 32
 6821      90909090 
 6821      90909090 
 6821      90909090 
 6821      909090
GAS LISTING d:/software/ovi_2503a_s3trc/ovi_2503a_s3trc/plutommi/Customer/ResGenerator/gcctmp/ccWMaaaa.s 			page 127


 6822              	LC95:
 6823 3240 23696620 		.ascii "#if !defined(__MTK_TARGET__)\12    #define __align(x)\12#endif /* !defined(__MTK_TARGET__)
 6823      21646566 
 6823      696E6564 
 6823      285F5F4D 
 6823      544B5F54 
 6825              	.globl _ClearHWIMageFile
 6827              	_ClearHWIMageFile:
2491:../../MMI/Resource/WriteRes.c **** 
2492:../../MMI/Resource/WriteRes.c **** /* 101205 audio resource Calvin End */
2493:../../MMI/Resource/WriteRes.c **** 
2494:../../MMI/Resource/WriteRes.c **** 
2495:../../MMI/Resource/WriteRes.c **** /*****************************************************************************
2496:../../MMI/Resource/WriteRes.c ****  * FUNCTION
2497:../../MMI/Resource/WriteRes.c ****  *  ClearHWIMageFile
2498:../../MMI/Resource/WriteRes.c ****  * DESCRIPTION
2499:../../MMI/Resource/WriteRes.c ****  *  Clear image file
2500:../../MMI/Resource/WriteRes.c ****  * PARAMETERS
2501:../../MMI/Resource/WriteRes.c ****  *  void
2502:../../MMI/Resource/WriteRes.c ****  * RETURNS
2503:../../MMI/Resource/WriteRes.c ****  *  void
2504:../../MMI/Resource/WriteRes.c ****  *****************************************************************************/
2505:../../MMI/Resource/WriteRes.c **** void ClearHWIMageFile(void)
2506:../../MMI/Resource/WriteRes.c **** {
 6829              	LM515:
 6830 329b 55       		pushl	%ebp
 6831 329c 89E5     		movl	%esp, %ebp
 6832 329e 83EC18   		subl	$24, %esp
2507:../../MMI/Resource/WriteRes.c ****     /*----------------------------------------------------------------*/
2508:../../MMI/Resource/WriteRes.c ****     /* Local Variables                                                */
2509:../../MMI/Resource/WriteRes.c ****     /*----------------------------------------------------------------*/
2510:../../MMI/Resource/WriteRes.c ****     FILE *fp;
2511:../../MMI/Resource/WriteRes.c **** 
2512:../../MMI/Resource/WriteRes.c ****     /*----------------------------------------------------------------*/
2513:../../MMI/Resource/WriteRes.c ****     /* Code Body                                                      */
2514:../../MMI/Resource/WriteRes.c ****     /*----------------------------------------------------------------*/
2515:../../MMI/Resource/WriteRes.c ****     fp = fopen(OUTPUT_DATA_FILENAME, "w+");
 6834              	LM516:
 6835              	LBB26:
 6836 32a1 C7442404 		movl	$LC90, 4(%esp)
 6836      30310000 
 6837 32a9 C7042440 		movl	$LC91, (%esp)
 6837      310000
 6838 32b0 E8000000 		call	_fopen
 6838      00
 6839 32b5 8945FC   		movl	%eax, -4(%ebp)
2516:../../MMI/Resource/WriteRes.c ****     if (fp)
 6841              	LM517:
 6842 32b8 837DFC00 		cmpl	$0, -4(%ebp)
 6843 32bc 741E     		je	L297
2517:../../MMI/Resource/WriteRes.c ****     {
2518:../../MMI/Resource/WriteRes.c ****         fprintf(fp, "#if ( !defined (__MTK_TARGET__) )\n\t#define __align(x)\n#endif\n");
 6845              	LM518:
 6846 32be C7442404 		movl	$LC92, 4(%esp)
 6846      80310000 
 6847 32c6 8B45FC   		movl	-4(%ebp), %eax
 6848 32c9 890424   		movl	%eax, (%esp)
GAS LISTING d:/software/ovi_2503a_s3trc/ovi_2503a_s3trc/plutommi/Customer/ResGenerator/gcctmp/ccWMaaaa.s 			page 128


 6849 32cc E8000000 		call	_fprintf
 6849      00
2519:../../MMI/Resource/WriteRes.c ****         fclose(fp);
 6851              	LM519:
 6852 32d1 8B45FC   		movl	-4(%ebp), %eax
 6853 32d4 890424   		movl	%eax, (%esp)
 6854 32d7 E8000000 		call	_fclose
 6854      00
 6855              	L297:
2520:../../MMI/Resource/WriteRes.c ****     }
2521:../../MMI/Resource/WriteRes.c **** 
2522:../../MMI/Resource/WriteRes.c ****     /* __CUSTPACK_MULTIBIN Calvin BEGIN */
2523:../../MMI/Resource/WriteRes.c ****     fp = fopen(OUTPUT_DATA_FILENAME_EXT, "w+"); /* 040805 CustPack: Calvin added */
 6857              	LM520:
 6858 32dc C7442404 		movl	$LC90, 4(%esp)
 6858      30310000 
 6859 32e4 C70424C0 		movl	$LC93, (%esp)
 6859      310000
 6860 32eb E8000000 		call	_fopen
 6860      00
 6861 32f0 8945FC   		movl	%eax, -4(%ebp)
2524:../../MMI/Resource/WriteRes.c ****     /* __CUSTPACK_MULTIBIN Calvin END */
2525:../../MMI/Resource/WriteRes.c ****     if (fp)
 6863              	LM521:
 6864 32f3 837DFC00 		cmpl	$0, -4(%ebp)
 6865 32f7 741E     		je	L298
2526:../../MMI/Resource/WriteRes.c ****     {
2527:../../MMI/Resource/WriteRes.c ****         fprintf(fp, "#if ( !defined (__MTK_TARGET__) )\n\t#define __align(x)\n#endif\n");
 6867              	LM522:
 6868 32f9 C7442404 		movl	$LC92, 4(%esp)
 6868      80310000 
 6869 3301 8B45FC   		movl	-4(%ebp), %eax
 6870 3304 890424   		movl	%eax, (%esp)
 6871 3307 E8000000 		call	_fprintf
 6871      00
2528:../../MMI/Resource/WriteRes.c ****         fclose(fp);
 6873              	LM523:
 6874 330c 8B45FC   		movl	-4(%ebp), %eax
 6875 330f 890424   		movl	%eax, (%esp)
 6876 3312 E8000000 		call	_fclose
 6876      00
 6877              	L298:
2529:../../MMI/Resource/WriteRes.c ****     }
2530:../../MMI/Resource/WriteRes.c **** 
2531:../../MMI/Resource/WriteRes.c ****     /* 101205 audio resource Calvin Satrt */
2532:../../MMI/Resource/WriteRes.c ****     fp = fopen(AUDIO_OUTPUT_DATA_FILENAME, "w+");
 6879              	LM524:
 6880 3317 C7442404 		movl	$LC90, 4(%esp)
 6880      30310000 
 6881 331f C70424A0 		movl	$LC80, (%esp)
 6881      2D0000
 6882 3326 E8000000 		call	_fopen
 6882      00
 6883 332b 8945FC   		movl	%eax, -4(%ebp)
2533:../../MMI/Resource/WriteRes.c ****     if (fp)
 6885              	LM525:
 6886 332e 837DFC00 		cmpl	$0, -4(%ebp)
GAS LISTING d:/software/ovi_2503a_s3trc/ovi_2503a_s3trc/plutommi/Customer/ResGenerator/gcctmp/ccWMaaaa.s 			page 129


 6887 3332 741E     		je	L299
2534:../../MMI/Resource/WriteRes.c ****     {
2535:../../MMI/Resource/WriteRes.c ****         fprintf(fp, "#if ( !defined (__MTK_TARGET__) )\n\t#define __align(x)\n#endif\n");
 6889              	LM526:
 6890 3334 C7442404 		movl	$LC92, 4(%esp)
 6890      80310000 
 6891 333c 8B45FC   		movl	-4(%ebp), %eax
 6892 333f 890424   		movl	%eax, (%esp)
 6893 3342 E8000000 		call	_fprintf
 6893      00
2536:../../MMI/Resource/WriteRes.c ****         fclose(fp);
 6895              	LM527:
 6896 3347 8B45FC   		movl	-4(%ebp), %eax
 6897 334a 890424   		movl	%eax, (%esp)
 6898 334d E8000000 		call	_fclose
 6898      00
 6899              	L299:
2537:../../MMI/Resource/WriteRes.c ****     }
2538:../../MMI/Resource/WriteRes.c **** 
2539:../../MMI/Resource/WriteRes.c ****     fp = fopen(AUDIO_OUTPUT_DATA_FILENAME_EXT, "w+");
 6901              	LM528:
 6902 3352 C7442404 		movl	$LC90, 4(%esp)
 6902      30310000 
 6903 335a C7042460 		movl	$LC79, (%esp)
 6903      2D0000
 6904 3361 E8000000 		call	_fopen
 6904      00
 6905 3366 8945FC   		movl	%eax, -4(%ebp)
2540:../../MMI/Resource/WriteRes.c ****     if (fp)
 6907              	LM529:
 6908 3369 837DFC00 		cmpl	$0, -4(%ebp)
 6909 336d 741E     		je	L300
2541:../../MMI/Resource/WriteRes.c ****     {
2542:../../MMI/Resource/WriteRes.c ****         fprintf(fp, "#if ( !defined (__MTK_TARGET__) )\n\t#define __align(x)\n#endif\n");
 6911              	LM530:
 6912 336f C7442404 		movl	$LC92, 4(%esp)
 6912      80310000 
 6913 3377 8B45FC   		movl	-4(%ebp), %eax
 6914 337a 890424   		movl	%eax, (%esp)
 6915 337d E8000000 		call	_fprintf
 6915      00
2543:../../MMI/Resource/WriteRes.c ****         fclose(fp);
 6917              	LM531:
 6918 3382 8B45FC   		movl	-4(%ebp), %eax
 6919 3385 890424   		movl	%eax, (%esp)
 6920 3388 E8000000 		call	_fclose
 6920      00
 6921              	L300:
2544:../../MMI/Resource/WriteRes.c ****     }
2545:../../MMI/Resource/WriteRes.c ****     /* 101205 audio resource Calvin End */
2546:../../MMI/Resource/WriteRes.c **** 
2547:../../MMI/Resource/WriteRes.c ****     fp = fopen(FONT_OUTPUT_DATA_FILENAME, "w+");
 6923              	LM532:
 6924 338d C7442404 		movl	$LC90, 4(%esp)
 6924      30310000 
 6925 3395 C7042400 		movl	$LC94, (%esp)
 6925      320000
GAS LISTING d:/software/ovi_2503a_s3trc/ovi_2503a_s3trc/plutommi/Customer/ResGenerator/gcctmp/ccWMaaaa.s 			page 130


 6926 339c E8000000 		call	_fopen
 6926      00
 6927 33a1 8945FC   		movl	%eax, -4(%ebp)
2548:../../MMI/Resource/WriteRes.c ****     if (fp)
 6929              	LM533:
 6930 33a4 837DFC00 		cmpl	$0, -4(%ebp)
 6931 33a8 741E     		je	L296
2549:../../MMI/Resource/WriteRes.c ****     {
2550:../../MMI/Resource/WriteRes.c ****         fprintf(fp, "#if !defined(__MTK_TARGET__)\n    #define __align(x)\n#endif /* !defined(__MTK
 6933              	LM534:
 6934 33aa C7442404 		movl	$LC95, 4(%esp)
 6934      40320000 
 6935 33b2 8B45FC   		movl	-4(%ebp), %eax
 6936 33b5 890424   		movl	%eax, (%esp)
 6937 33b8 E8000000 		call	_fprintf
 6937      00
2551:../../MMI/Resource/WriteRes.c ****         fclose(fp);
 6939              	LM535:
 6940 33bd 8B45FC   		movl	-4(%ebp), %eax
 6941 33c0 890424   		movl	%eax, (%esp)
 6942 33c3 E8000000 		call	_fclose
 6942      00
2552:../../MMI/Resource/WriteRes.c ****     }
2553:../../MMI/Resource/WriteRes.c **** 
2554:../../MMI/Resource/WriteRes.c ****     /* 100206 ENFB support Satrt */
2555:../../MMI/Resource/WriteRes.c **** #ifdef __MMI_RESOURCE_ENFB_SUPPORT__
2556:../../MMI/Resource/WriteRes.c ****     enfb_img_data_file = fopen(ENFB_IMAGE_DATA_FILENAME, "w+");
2557:../../MMI/Resource/WriteRes.c **** 
2558:../../MMI/Resource/WriteRes.c ****     if (enfb_img_data_file)
2559:../../MMI/Resource/WriteRes.c ****     {
2560:../../MMI/Resource/WriteRes.c ****         fclose(enfb_img_data_file);
2561:../../MMI/Resource/WriteRes.c ****     }
2562:../../MMI/Resource/WriteRes.c ****     enfb_img_data_file = fopen(ENFB_IMAGE_DATA_FILENAME, "ab");
2563:../../MMI/Resource/WriteRes.c **** #endif
2564:../../MMI/Resource/WriteRes.c ****     /* 100206 ENFB support End */
2565:../../MMI/Resource/WriteRes.c **** 
2566:../../MMI/Resource/WriteRes.c **** #ifdef __MMI_FONT_THIRD_ROM_SUPPORT__
2567:../../MMI/Resource/WriteRes.c ****     enfb_font_data_file = fopen(ENFB_FONT_DATA_FILENAME, "w+");
2568:../../MMI/Resource/WriteRes.c **** 
2569:../../MMI/Resource/WriteRes.c ****     if (enfb_font_data_file)
2570:../../MMI/Resource/WriteRes.c ****     {
2571:../../MMI/Resource/WriteRes.c ****         fclose(enfb_font_data_file);
2572:../../MMI/Resource/WriteRes.c ****     }
2573:../../MMI/Resource/WriteRes.c ****     enfb_font_data_file = fopen(ENFB_FONT_DATA_FILENAME, "ab");
2574:../../MMI/Resource/WriteRes.c **** #endif
2575:../../MMI/Resource/WriteRes.c **** 
2576:../../MMI/Resource/WriteRes.c **** 
2577:../../MMI/Resource/WriteRes.c **** }
 6944              	LM536:
 6945              	L296:
 6946 33c8 C9       		leave
 6947 33c9 C3       		ret
 6948              	LBE26:
 6952              	Lscope24:
 6954              		.comm	_StrIsPopulate, 65536	 # 65535
 6955              		.comm	_StrEnum, 262144	 # 262140
 6956              		.comm	_Str, 262144	 # 262140
GAS LISTING d:/software/ovi_2503a_s3trc/ovi_2503a_s3trc/plutommi/Customer/ResGenerator/gcctmp/ccWMaaaa.s 			page 131


 6957              	.lcomm _g_resado_table,67369984
 6958              		.comm	_dest_file, 16	 # 4
 6981              		.text
 6983              	Letext:
GAS LISTING d:/software/ovi_2503a_s3trc/ovi_2503a_s3trc/plutommi/Customer/ResGenerator/gcctmp/ccWMaaaa.s 			page 132


DEFINED SYMBOLS
                            *ABS*:00000000 WriteRes.c
d:/software/ovi_2503a_s3trc/ovi_2503a_s3trc/plutommi/Customer/ResGenerator/gcctmp/ccWMaaaa.s:2544   .text:00000060 _image_resource_info
d:/software/ovi_2503a_s3trc/ovi_2503a_s3trc/plutommi/Customer/ResGenerator/gcctmp/ccWMaaaa.s:2625   .bss:00000010 _ExtAudioFlag
d:/software/ovi_2503a_s3trc/ovi_2503a_s3trc/plutommi/Customer/ResGenerator/gcctmp/ccWMaaaa.s:2627   .data:00000000 _is_first
d:/software/ovi_2503a_s3trc/ovi_2503a_s3trc/plutommi/Customer/ResGenerator/gcctmp/ccWMaaaa.s:2630   .data:00000004 _audio_idx
d:/software/ovi_2503a_s3trc/ovi_2503a_s3trc/plutommi/Customer/ResGenerator/gcctmp/ccWMaaaa.s:2633   .data:00000008 _binary_idx
d:/software/ovi_2503a_s3trc/ovi_2503a_s3trc/plutommi/Customer/ResGenerator/gcctmp/ccWMaaaa.s:2635   .bss:00000020 _g_ressize
d:/software/ovi_2503a_s3trc/ovi_2503a_s3trc/plutommi/Customer/ResGenerator/gcctmp/ccWMaaaa.s:2636   .bss:00000030 _g_resado_count
d:/software/ovi_2503a_s3trc/ovi_2503a_s3trc/plutommi/Customer/ResGenerator/gcctmp/ccWMaaaa.s:2640   .bss:00000000 _toolFlag
d:/software/ovi_2503a_s3trc/ovi_2503a_s3trc/plutommi/Customer/ResGenerator/gcctmp/ccWMaaaa.s:2644   .bss:00000004 _resultFailFlag
d:/software/ovi_2503a_s3trc/ovi_2503a_s3trc/plutommi/Customer/ResGenerator/gcctmp/ccWMaaaa.s:2649   .data:0000000c _g_is_log
d:/software/ovi_2503a_s3trc/ovi_2503a_s3trc/plutommi/Customer/ResGenerator/gcctmp/ccWMaaaa.s:2651   .bss:00000040 _g_force_ado_type
d:/software/ovi_2503a_s3trc/ovi_2503a_s3trc/plutommi/Customer/ResGenerator/gcctmp/ccWMaaaa.s:2654   .text:00000120 _CustImgPath
d:/software/ovi_2503a_s3trc/ovi_2503a_s3trc/plutommi/Customer/ResGenerator/gcctmp/ccWMaaaa.s:2657   .text:00000160 _CustAdoPath
d:/software/ovi_2503a_s3trc/ovi_2503a_s3trc/plutommi/Customer/ResGenerator/gcctmp/ccWMaaaa.s:2659   .text:0000017f _CustBinaryPath
d:/software/ovi_2503a_s3trc/ovi_2503a_s3trc/plutommi/Customer/ResGenerator/gcctmp/ccWMaaaa.s:2676   .text:00000253 _GetOffsetFromResourceBase
d:/software/ovi_2503a_s3trc/ovi_2503a_s3trc/plutommi/Customer/ResGenerator/gcctmp/ccWMaaaa.s:2819   .text:000004cb _InitStrPopulate
                            *COM*:00010000 _StrIsPopulate
d:/software/ovi_2503a_s3trc/ovi_2503a_s3trc/plutommi/Customer/ResGenerator/gcctmp/ccWMaaaa.s:2911   .text:000005af _ConvertToPrintable
d:/software/ovi_2503a_s3trc/ovi_2503a_s3trc/plutommi/Customer/ResGenerator/gcctmp/ccWMaaaa.s:3051   .text:000006a9 _AnsiiToUnicodeString
d:/software/ovi_2503a_s3trc/ovi_2503a_s3trc/plutommi/Customer/ResGenerator/gcctmp/ccWMaaaa.s:3145   .text:0000079a _SetStringWithDisplay
                            *COM*:00040000 _StrEnum
                            *COM*:00040000 _Str
d:/software/ovi_2503a_s3trc/ovi_2503a_s3trc/plutommi/Customer/ResGenerator/gcctmp/ccWMaaaa.s:3435   .text:00000ac2 _AddApp
d:/software/ovi_2503a_s3trc/ovi_2503a_s3trc/plutommi/Customer/ResGenerator/gcctmp/ccWMaaaa.s:3480   .text:00000af2 _SetString
d:/software/ovi_2503a_s3trc/ovi_2503a_s3trc/plutommi/Customer/ResGenerator/gcctmp/ccWMaaaa.s:3512   .text:00000b1b _SetAudioWithBufferForceType
d:/software/ovi_2503a_s3trc/ovi_2503a_s3trc/plutommi/Customer/ResGenerator/gcctmp/ccWMaaaa.s:6957   .bss:00000060 _g_resado_table
d:/software/ovi_2503a_s3trc/ovi_2503a_s3trc/plutommi/Customer/ResGenerator/gcctmp/ccWMaaaa.s:4105   .text:000012a4 _SetBinaryWithBuffer
d:/software/ovi_2503a_s3trc/ovi_2503a_s3trc/plutommi/Customer/ResGenerator/gcctmp/ccWMaaaa.s:4135   .text:00001305 _MenuItemPresent
d:/software/ovi_2503a_s3trc/ovi_2503a_s3trc/plutommi/Customer/ResGenerator/gcctmp/ccWMaaaa.s:4181   .bss:00000050 _is_dummy_code
d:/software/ovi_2503a_s3trc/ovi_2503a_s3trc/plutommi/Customer/ResGenerator/gcctmp/ccWMaaaa.s:4194   .text:000013e0 _PrintMenuItems
d:/software/ovi_2503a_s3trc/ovi_2503a_s3trc/plutommi/Customer/ResGenerator/gcctmp/ccWMaaaa.s:4266   .text:00001480 _PrintMenuItems2
d:/software/ovi_2503a_s3trc/ovi_2503a_s3trc/plutommi/Customer/ResGenerator/gcctmp/ccWMaaaa.s:4338   .text:00001520 _PrintMenuItems5
d:/software/ovi_2503a_s3trc/ovi_2503a_s3trc/plutommi/Customer/ResGenerator/gcctmp/ccWMaaaa.s:4417   .text:000015d2 _SetMenuItem
d:/software/ovi_2503a_s3trc/ovi_2503a_s3trc/plutommi/Customer/ResGenerator/gcctmp/ccWMaaaa.s:4768   .text:0000196c _SetMenuItem2
d:/software/ovi_2503a_s3trc/ovi_2503a_s3trc/plutommi/Customer/ResGenerator/gcctmp/ccWMaaaa.s:5173   .text:00001d87 _SetMenuItem5
d:/software/ovi_2503a_s3trc/ovi_2503a_s3trc/plutommi/Customer/ResGenerator/gcctmp/ccWMaaaa.s:5521   .bss:00000008 _HiliteHdlrCount
d:/software/ovi_2503a_s3trc/ovi_2503a_s3trc/plutommi/Customer/ResGenerator/gcctmp/ccWMaaaa.s:5525   .bss:0000000c _HintHdlrCount
d:/software/ovi_2503a_s3trc/ovi_2503a_s3trc/plutommi/Customer/ResGenerator/gcctmp/ccWMaaaa.s:5540   .text:00002195 _SetMenuHiliteHandler
d:/software/ovi_2503a_s3trc/ovi_2503a_s3trc/plutommi/Customer/ResGenerator/gcctmp/ccWMaaaa.s:5643   .text:000022f3 _SetMenuHintHandler
d:/software/ovi_2503a_s3trc/ovi_2503a_s3trc/plutommi/Customer/ResGenerator/gcctmp/ccWMaaaa.s:5737   .text:000023cd _Get_Image_Identifier
d:/software/ovi_2503a_s3trc/ovi_2503a_s3trc/plutommi/Customer/ResGenerator/gcctmp/ccWMaaaa.s:5822   .text:000026ca _Load_Audio_Data
                            *COM*:00000010 _dest_file
d:/software/ovi_2503a_s3trc/ovi_2503a_s3trc/plutommi/Customer/ResGenerator/gcctmp/ccWMaaaa.s:6324   .text:00002c34 _Extract_Name
d:/software/ovi_2503a_s3trc/ovi_2503a_s3trc/plutommi/Customer/ResGenerator/gcctmp/ccWMaaaa.s:6438   .text:00002cfc _isMainmenuImage
d:/software/ovi_2503a_s3trc/ovi_2503a_s3trc/plutommi/Customer/ResGenerator/gcctmp/ccWMaaaa.s:6827   .text:0000329b _ClearHWIMageFile
d:/software/ovi_2503a_s3trc/ovi_2503a_s3trc/plutommi/Customer/ResGenerator/gcctmp/ccWMaaaa.s:6504   .text:00002e1d _Aload
d:/software/ovi_2503a_s3trc/ovi_2503a_s3trc/plutommi/Customer/ResGenerator/gcctmp/ccWMaaaa.s:3570   .text:00000c65 _SetAudioWithBuffer

UNDEFINED SYMBOLS
_g_mmi_resource_base_table
__imp___iob
_fpStringResourceUsage
_CurrMaxStringId
_RepeatIDListFile
__alloca
GAS LISTING d:/software/ovi_2503a_s3trc/ovi_2503a_s3trc/plutommi/Customer/ResGenerator/gcctmp/ccWMaaaa.s 			page 133


_CurrMaxAudioIdEXT
_CurrMaxAudioNumEXT
_AudioNameListEXT
_AudioIdMapEXT
_CurrMaxAudioId
_CurrMaxAudioNum
_AudioNameList
_AudioIdMap
_OutputAdoIDFile
_fpAudioResourceUsage
_nCustMenus
_fpMenuResourceUsage
_OutputMenutreeIDFile
_nMenuHiliteHandlers
_nMenuHintHandlers
_Sleep@4
_ExtractExtension
_fgetc
_fputc
_free
_CMIDI_Convert
_CMIDI_GetBufSize
_fread
_ftell
_fseek
_MtkResgenTrace
_LogSetBinaryWithBuffer
_str_upper
_strncpy
_strcpy
_strcmp
_strlen
_malloc
_strstr
_wcslen
_fflush
_fclose
_fputs
_fopen
_exit
_reslog_adaptor_log
_fprintf
_strncmp
